ARM GAS  /tmp/ccdpMQeU.s 			page 1


   1              		.cpu cortex-m4
   2              		.arch armv7e-m
   3              		.fpu fpv4-sp-d16
   4              		.eabi_attribute 27, 1
   5              		.eabi_attribute 28, 1
   6              		.eabi_attribute 20, 1
   7              		.eabi_attribute 21, 1
   8              		.eabi_attribute 23, 3
   9              		.eabi_attribute 24, 1
  10              		.eabi_attribute 25, 1
  11              		.eabi_attribute 26, 1
  12              		.eabi_attribute 30, 1
  13              		.eabi_attribute 34, 1
  14              		.eabi_attribute 18, 4
  15              		.file	"as5600.c"
  16              		.text
  17              	.Ltext0:
  18              		.cfi_sections	.debug_frame
  19              		.file 1 "./underlying/src/as5600.c"
  20              		.section	.rodata.AS5600_Init.str1.4,"aMS",%progbits,1
  21              		.align	2
  22              	.LC0:
  23 0000 41533536 		.ascii	"AS5600_Init: I2C handle initialized\015\000"
  23      30305F49 
  23      6E69743A 
  23      20493243 
  23      2068616E 
  24              		.section	.text.AS5600_Init,"ax",%progbits
  25              		.align	1
  26              		.global	AS5600_Init
  27              		.syntax unified
  28              		.thumb
  29              		.thumb_func
  31              	AS5600_Init:
  32              	.LVL0:
  33              	.LFB242:
   1:./underlying/src/as5600.c **** #include "as5600.h"
   2:./underlying/src/as5600.c **** 
   3:./underlying/src/as5600.c **** 
   4:./underlying/src/as5600.c **** #include "stdio.h"
   5:./underlying/src/as5600.c **** 
   6:./underlying/src/as5600.c **** 
   7:./underlying/src/as5600.c **** int AS5600_Init(As5600_Sensor_Typedef* as5600, I2C_HandleTypeDef* i2c_handle) 
   8:./underlying/src/as5600.c **** {
  34              		.loc 1 8 1 view -0
  35              		.cfi_startproc
  36              		@ args = 0, pretend = 0, frame = 0
  37              		@ frame_needed = 0, uses_anonymous_args = 0
  38              		.loc 1 8 1 is_stmt 0 view .LVU1
  39 0000 10B5     		push	{r4, lr}
  40              	.LCFI0:
  41              		.cfi_def_cfa_offset 8
  42              		.cfi_offset 4, -8
  43              		.cfi_offset 14, -4
   9:./underlying/src/as5600.c ****     as5600->Angle = 0.0f;
  44              		.loc 1 9 5 is_stmt 1 view .LVU2
  45              		.loc 1 9 19 is_stmt 0 view .LVU3
ARM GAS  /tmp/ccdpMQeU.s 			page 2


  46 0002 0023     		movs	r3, #0
  47 0004 C360     		str	r3, [r0, #12]	@ float
  10:./underlying/src/as5600.c ****     as5600->Angle_old = 0.0f;
  48              		.loc 1 10 5 is_stmt 1 view .LVU4
  49              		.loc 1 10 23 is_stmt 0 view .LVU5
  50 0006 8360     		str	r3, [r0, #8]	@ float
  11:./underlying/src/as5600.c ****     as5600->Rotations = 0;
  51              		.loc 1 11 5 is_stmt 1 view .LVU6
  52              		.loc 1 11 23 is_stmt 0 view .LVU7
  53 0008 0024     		movs	r4, #0
  54 000a 4462     		str	r4, [r0, #36]
  12:./underlying/src/as5600.c ****     as5600->Rotations_old = 0;
  55              		.loc 1 12 5 is_stmt 1 view .LVU8
  56              		.loc 1 12 27 is_stmt 0 view .LVU9
  57 000c 0462     		str	r4, [r0, #32]
  13:./underlying/src/as5600.c ****     as5600->Velocity = 0.0f;
  58              		.loc 1 13 5 is_stmt 1 view .LVU10
  59              		.loc 1 13 22 is_stmt 0 view .LVU11
  60 000e 4360     		str	r3, [r0, #4]	@ float
  14:./underlying/src/as5600.c ****     as5600->Velocity_old = 0.0f;
  61              		.loc 1 14 5 is_stmt 1 view .LVU12
  62              		.loc 1 14 26 is_stmt 0 view .LVU13
  63 0010 0360     		str	r3, [r0]	@ float
  15:./underlying/src/as5600.c ****     as5600->angle_ts = 0;
  64              		.loc 1 15 5 is_stmt 1 view .LVU14
  65              		.loc 1 15 22 is_stmt 0 view .LVU15
  66 0012 4461     		str	r4, [r0, #20]
  16:./underlying/src/as5600.c ****     as5600->angle_ts_old = 0;
  67              		.loc 1 16 5 is_stmt 1 view .LVU16
  68              		.loc 1 16 26 is_stmt 0 view .LVU17
  69 0014 0461     		str	r4, [r0, #16]
  17:./underlying/src/as5600.c ****     as5600->Velocity_ts = 0;
  70              		.loc 1 17 5 is_stmt 1 view .LVU18
  71              		.loc 1 17 25 is_stmt 0 view .LVU19
  72 0016 C461     		str	r4, [r0, #28]
  18:./underlying/src/as5600.c ****     as5600->Velocity_ts_old = 0;
  73              		.loc 1 18 5 is_stmt 1 view .LVU20
  74              		.loc 1 18 29 is_stmt 0 view .LVU21
  75 0018 8461     		str	r4, [r0, #24]
  19:./underlying/src/as5600.c ****     as5600->i2c_handle = i2c_handle;
  76              		.loc 1 19 5 is_stmt 1 view .LVU22
  77              		.loc 1 19 24 is_stmt 0 view .LVU23
  78 001a 8162     		str	r1, [r0, #40]
  20:./underlying/src/as5600.c ****     printf("AS5600_Init: I2C handle initialized\r\n");
  79              		.loc 1 20 5 is_stmt 1 view .LVU24
  80 001c 0248     		ldr	r0, .L3
  81              	.LVL1:
  82              		.loc 1 20 5 is_stmt 0 view .LVU25
  83 001e FFF7FEFF 		bl	puts
  84              	.LVL2:
  21:./underlying/src/as5600.c ****     return 0;
  85              		.loc 1 21 5 is_stmt 1 view .LVU26
  22:./underlying/src/as5600.c **** }
  86              		.loc 1 22 1 is_stmt 0 view .LVU27
  87 0022 2046     		mov	r0, r4
  88 0024 10BD     		pop	{r4, pc}
  89              	.L4:
ARM GAS  /tmp/ccdpMQeU.s 			page 3


  90 0026 00BF     		.align	2
  91              	.L3:
  92 0028 00000000 		.word	.LC0
  93              		.cfi_endproc
  94              	.LFE242:
  96              		.section	.text.AS5600_Read_Angle,"ax",%progbits
  97              		.align	1
  98              		.global	AS5600_Read_Angle
  99              		.syntax unified
 100              		.thumb
 101              		.thumb_func
 103              	AS5600_Read_Angle:
 104              	.LVL3:
 105              	.LFB243:
  23:./underlying/src/as5600.c **** 
  24:./underlying/src/as5600.c **** 
  25:./underlying/src/as5600.c **** // ËØªÂèñAS5600ËßíÂ∫¶(0-360¬∞)
  26:./underlying/src/as5600.c **** // ËæìÂÖ•Ôºöas5600 ÁªìÊûÑ‰ΩìÊåáÈíà
  27:./underlying/src/as5600.c **** // ËøîÂõûÔºöËßíÂ∫¶ÂÄº Âçï‰ΩçÔºöÂºßÂ∫¶
  28:./underlying/src/as5600.c **** // ËØ¥ÊòéÔºöËØªÂèñAS5600ËßíÂ∫¶Ôºå{Âπ∂Êõ¥Êñ∞}as5600ÁªìÊûÑ‰Ωì‰∏≠ÁöÑËßíÂ∫¶ÂÄºÂíåÊóãËΩ¨Êï∞ÂÄº
  29:./underlying/src/as5600.c **** // Ê≥®ÊÑèÔºöËØ•ÂáΩÊï∞‰ºöÂêåÊó∂Êõ¥Êñ∞ÊóãËΩ¨ÈÄüÂ∫¶ÂíåÊó∂Èó¥Êà≥
  30:./underlying/src/as5600.c **** float AS5600_Read_Angle(As5600_Sensor_Typedef* as5600) 
  31:./underlying/src/as5600.c **** {
 106              		.loc 1 31 1 is_stmt 1 view -0
 107              		.cfi_startproc
 108              		@ args = 0, pretend = 0, frame = 8
 109              		@ frame_needed = 0, uses_anonymous_args = 0
 110              		.loc 1 31 1 is_stmt 0 view .LVU29
 111 0000 10B5     		push	{r4, lr}
 112              	.LCFI1:
 113              		.cfi_def_cfa_offset 8
 114              		.cfi_offset 4, -8
 115              		.cfi_offset 14, -4
 116 0002 86B0     		sub	sp, sp, #24
 117              	.LCFI2:
 118              		.cfi_def_cfa_offset 32
 119 0004 0446     		mov	r4, r0
  32:./underlying/src/as5600.c ****     uint8_t data[2] = {0, 0};
 120              		.loc 1 32 5 is_stmt 1 view .LVU30
 121              		.loc 1 32 13 is_stmt 0 view .LVU31
 122 0006 0023     		movs	r3, #0
 123 0008 ADF81430 		strh	r3, [sp, #20]	@ movhi
  33:./underlying/src/as5600.c ****     HAL_I2C_Mem_Read(as5600->i2c_handle, AS5600_ADDRESS, ANGLE_REGISTER, I2C_MEMADD_SIZE_8BIT, data
 124              		.loc 1 33 5 is_stmt 1 view .LVU32
 125 000c 4FF0FF33 		mov	r3, #-1
 126 0010 0293     		str	r3, [sp, #8]
 127 0012 0223     		movs	r3, #2
 128 0014 0193     		str	r3, [sp, #4]
 129 0016 05AB     		add	r3, sp, #20
 130 0018 0093     		str	r3, [sp]
 131 001a 0123     		movs	r3, #1
 132 001c 0E22     		movs	r2, #14
 133 001e 6C21     		movs	r1, #108
 134 0020 806A     		ldr	r0, [r0, #40]
 135              	.LVL4:
 136              		.loc 1 33 5 is_stmt 0 view .LVU33
 137 0022 FFF7FEFF 		bl	HAL_I2C_Mem_Read
ARM GAS  /tmp/ccdpMQeU.s 			page 4


 138              	.LVL5:
  34:./underlying/src/as5600.c ****     float angle = (data[0] << 8) | data[1];
 139              		.loc 1 34 5 is_stmt 1 view .LVU34
 140              		.loc 1 34 24 is_stmt 0 view .LVU35
 141 0026 9DF81420 		ldrb	r2, [sp, #20]	@ zero_extendqisi2
 142              		.loc 1 34 40 view .LVU36
 143 002a 9DF81530 		ldrb	r3, [sp, #21]	@ zero_extendqisi2
 144              		.loc 1 34 34 view .LVU37
 145 002e 43EA0223 		orr	r3, r3, r2, lsl #8
 146 0032 07EE903A 		vmov	s15, r3	@ int
 147              		.loc 1 34 11 view .LVU38
 148 0036 F8EEE77A 		vcvt.f32.s32	s15, s15
 149              	.LVL6:
  35:./underlying/src/as5600.c ****     angle = (((angle * _2PI) / 4096.0f));
 150              		.loc 1 35 5 is_stmt 1 view .LVU39
 151              		.loc 1 35 22 is_stmt 0 view .LVU40
 152 003a 9FED2B7A 		vldr.32	s14, .L18
 153 003e 67EE877A 		vmul.f32	s15, s15, s14
 154              	.LVL7:
 155              		.loc 1 35 11 view .LVU41
 156 0042 9FED2A7A 		vldr.32	s14, .L18+4
 157 0046 67EE877A 		vmul.f32	s15, s15, s14
 158              	.LVL8:
  36:./underlying/src/as5600.c ****     float d_angle = angle - as5600->Angle;
 159              		.loc 1 36 5 is_stmt 1 view .LVU42
 160              		.loc 1 36 35 is_stmt 0 view .LVU43
 161 004a 94ED037A 		vldr.32	s14, [r4, #12]
 162              		.loc 1 36 11 view .LVU44
 163 004e 37EEC77A 		vsub.f32	s14, s15, s14
 164              	.LVL9:
  37:./underlying/src/as5600.c ****     // ÂúàÊï∞Ê£ÄÊµã
  38:./underlying/src/as5600.c ****     if(fabs(d_angle) > (0.8f*_2PI) ) as5600->Rotations += ( d_angle > 0 ) ? -1 : 1; 
 165              		.loc 1 38 5 is_stmt 1 view .LVU45
 166              		.loc 1 38 8 is_stmt 0 view .LVU46
 167 0052 B0EEC76A 		vabs.f32	s12, s14
 168              		.loc 1 38 7 view .LVU47
 169 0056 DFED266A 		vldr.32	s13, .L18+8
 170 005a B4EEE66A 		vcmpe.f32	s12, s13
 171 005e F1EE10FA 		vmrs	APSR_nzcv, FPSCR
 172 0062 09DD     		ble	.L6
 173              		.loc 1 38 38 is_stmt 1 discriminator 1 view .LVU48
 174              		.loc 1 38 44 is_stmt 0 discriminator 1 view .LVU49
 175 0064 636A     		ldr	r3, [r4, #36]
 176              		.loc 1 38 80 discriminator 1 view .LVU50
 177 0066 B5EEC07A 		vcmpe.f32	s14, #0
 178 006a F1EE10FA 		vmrs	APSR_nzcv, FPSCR
 179 006e 36DD     		ble	.L15
 180              		.loc 1 38 80 discriminator 2 view .LVU51
 181 0070 4FF0FF32 		mov	r2, #-1
 182              	.L8:
 183              		.loc 1 38 56 discriminator 5 view .LVU52
 184 0074 1344     		add	r3, r3, r2
 185 0076 6362     		str	r3, [r4, #36]
 186              	.L6:
  39:./underlying/src/as5600.c ****     as5600->Angle = angle;
 187              		.loc 1 39 5 is_stmt 1 view .LVU53
 188              		.loc 1 39 19 is_stmt 0 view .LVU54
ARM GAS  /tmp/ccdpMQeU.s 			page 5


 189 0078 C4ED037A 		vstr.32	s15, [r4, #12]
  40:./underlying/src/as5600.c ****     // ËÆ°ÁÆóÈÄüÂ∫¶
  41:./underlying/src/as5600.c ****     as5600->Velocity_ts = HAL_GetTick();
 190              		.loc 1 41 5 is_stmt 1 view .LVU55
 191              		.loc 1 41 27 is_stmt 0 view .LVU56
 192 007c FFF7FEFF 		bl	HAL_GetTick
 193              	.LVL10:
 194              		.loc 1 41 25 discriminator 1 view .LVU57
 195 0080 E061     		str	r0, [r4, #28]
  42:./underlying/src/as5600.c ****     // ËÆ°ÁÆóÈááÊ†∑Êó∂Èó¥
  43:./underlying/src/as5600.c ****     float Ts = (as5600->Velocity_ts - as5600->Velocity_ts_old) * 1e-3f;    //ÈááÊ†∑Êó∂Èó¥(s)
 196              		.loc 1 43 5 is_stmt 1 view .LVU58
 197              		.loc 1 43 45 is_stmt 0 view .LVU59
 198 0082 A369     		ldr	r3, [r4, #24]
 199              		.loc 1 43 37 view .LVU60
 200 0084 C31A     		subs	r3, r0, r3
 201 0086 07EE103A 		vmov	s14, r3	@ int
 202              		.loc 1 43 64 view .LVU61
 203 008a B8EE477A 		vcvt.f32.u32	s14, s14
 204              		.loc 1 43 11 view .LVU62
 205 008e DFED197A 		vldr.32	s15, .L18+12
 206 0092 27EE277A 		vmul.f32	s14, s14, s15
 207              	.LVL11:
  44:./underlying/src/as5600.c ****     // Âø´ÈÄü‰øÆÂ§çÂ•áÊÄ™ÁöÑÊÉÖÂÜµÔºàÂæÆÊ∫¢Âá∫Ôºâ
  45:./underlying/src/as5600.c ****     if(Ts <= 0) Ts = 1e-3f;
 208              		.loc 1 45 5 is_stmt 1 view .LVU63
 209              		.loc 1 45 7 is_stmt 0 view .LVU64
 210 0096 B5EEC07A 		vcmpe.f32	s14, #0
 211 009a F1EE10FA 		vmrs	APSR_nzcv, FPSCR
 212 009e 20D9     		bls	.L17
 213              	.LVL12:
 214              	.L10:
  46:./underlying/src/as5600.c ****     // ÈÄüÂ∫¶ËÆ°ÁÆó
  47:./underlying/src/as5600.c ****     as5600->Velocity = ( (float)(as5600->Rotations - as5600->Rotations_old)*_2PI + (as5600->Angle -
 215              		.loc 1 47 5 is_stmt 1 view .LVU65
 216              		.loc 1 47 40 is_stmt 0 view .LVU66
 217 00a0 626A     		ldr	r2, [r4, #36]
 218              		.loc 1 47 60 view .LVU67
 219 00a2 236A     		ldr	r3, [r4, #32]
 220              		.loc 1 47 52 view .LVU68
 221 00a4 D31A     		subs	r3, r2, r3
 222 00a6 07EE903A 		vmov	s15, r3	@ int
 223              		.loc 1 47 26 view .LVU69
 224 00aa F8EEE77A 		vcvt.f32.s32	s15, s15
 225              		.loc 1 47 76 view .LVU70
 226 00ae DFED0E6A 		vldr.32	s13, .L18
 227 00b2 67EEA67A 		vmul.f32	s15, s15, s13
 228              		.loc 1 47 91 view .LVU71
 229 00b6 94ED030A 		vldr.32	s0, [r4, #12]
 230              		.loc 1 47 107 view .LVU72
 231 00ba D4ED026A 		vldr.32	s13, [r4, #8]
 232              		.loc 1 47 99 view .LVU73
 233 00be 70EE666A 		vsub.f32	s13, s0, s13
 234              		.loc 1 47 82 view .LVU74
 235 00c2 77EEA67A 		vadd.f32	s15, s15, s13
 236              		.loc 1 47 122 view .LVU75
 237 00c6 C7EE876A 		vdiv.f32	s13, s15, s14
ARM GAS  /tmp/ccdpMQeU.s 			page 6


 238              		.loc 1 47 22 view .LVU76
 239 00ca C4ED016A 		vstr.32	s13, [r4, #4]
  48:./underlying/src/as5600.c ****     // ‰øùÂ≠òÂèòÈáè‰ª•ÂæÖÂ∞ÜÊù•‰ΩøÁî®
  49:./underlying/src/as5600.c ****     as5600->Angle_old = as5600->Angle;
 240              		.loc 1 49 5 is_stmt 1 view .LVU77
 241              		.loc 1 49 23 is_stmt 0 view .LVU78
 242 00ce 84ED020A 		vstr.32	s0, [r4, #8]
  50:./underlying/src/as5600.c ****     as5600->Rotations_old = as5600->Rotations;
 243              		.loc 1 50 5 is_stmt 1 view .LVU79
 244              		.loc 1 50 27 is_stmt 0 view .LVU80
 245 00d2 2262     		str	r2, [r4, #32]
  51:./underlying/src/as5600.c ****     as5600->Velocity_ts_old = as5600->Velocity_ts;
 246              		.loc 1 51 5 is_stmt 1 view .LVU81
 247              		.loc 1 51 29 is_stmt 0 view .LVU82
 248 00d4 A061     		str	r0, [r4, #24]
  52:./underlying/src/as5600.c **** 	as5600->Velocity_old = as5600->Velocity;
 249              		.loc 1 52 2 is_stmt 1 view .LVU83
 250              		.loc 1 52 23 is_stmt 0 view .LVU84
 251 00d6 C4ED006A 		vstr.32	s13, [r4]
  53:./underlying/src/as5600.c ****     return as5600->Angle;
 252              		.loc 1 53 5 is_stmt 1 view .LVU85
  54:./underlying/src/as5600.c **** }
 253              		.loc 1 54 1 is_stmt 0 view .LVU86
 254 00da 06B0     		add	sp, sp, #24
 255              	.LCFI3:
 256              		.cfi_remember_state
 257              		.cfi_def_cfa_offset 8
 258              		@ sp needed
 259 00dc 10BD     		pop	{r4, pc}
 260              	.LVL13:
 261              	.L15:
 262              	.LCFI4:
 263              		.cfi_restore_state
  38:./underlying/src/as5600.c ****     as5600->Angle = angle;
 264              		.loc 1 38 80 discriminator 3 view .LVU87
 265 00de 0122     		movs	r2, #1
 266 00e0 C8E7     		b	.L8
 267              	.LVL14:
 268              	.L17:
  45:./underlying/src/as5600.c ****     // ÈÄüÂ∫¶ËÆ°ÁÆó
 269              		.loc 1 45 20 discriminator 1 view .LVU88
 270 00e2 B0EE677A 		vmov.f32	s14, s15
 271              	.LVL15:
  45:./underlying/src/as5600.c ****     // ÈÄüÂ∫¶ËÆ°ÁÆó
 272              		.loc 1 45 20 discriminator 1 view .LVU89
 273 00e6 DBE7     		b	.L10
 274              	.L19:
 275              		.align	2
 276              	.L18:
 277 00e8 DB0FC940 		.word	1086918619
 278 00ec 00008039 		.word	964689920
 279 00f0 7CD9A040 		.word	1084283260
 280 00f4 6F12833A 		.word	981668463
 281              		.cfi_endproc
 282              	.LFE243:
 284              		.section	.text.AS5600_Get_Angle,"ax",%progbits
 285              		.align	1
ARM GAS  /tmp/ccdpMQeU.s 			page 7


 286              		.global	AS5600_Get_Angle
 287              		.syntax unified
 288              		.thumb
 289              		.thumb_func
 291              	AS5600_Get_Angle:
 292              	.LVL16:
 293              	.LFB244:
  55:./underlying/src/as5600.c **** 
  56:./underlying/src/as5600.c **** 
  57:./underlying/src/as5600.c ****   
  58:./underlying/src/as5600.c **** 
  59:./underlying/src/as5600.c **** 
  60:./underlying/src/as5600.c **** 
  61:./underlying/src/as5600.c **** 
  62:./underlying/src/as5600.c **** // Ëé∑ÂèñAS5600ËßíÂ∫¶(Â∏¶ÊóãËΩ¨Êï∞ÂÄº)
  63:./underlying/src/as5600.c **** // ËæìÂÖ•Ôºöas5600 ÁªìÊûÑ‰ΩìÊåáÈíà
  64:./underlying/src/as5600.c **** // ËøîÂõûÔºöËßíÂ∫¶ÂÄº Âçï‰ΩçÔºöÂºßÂ∫¶
  65:./underlying/src/as5600.c **** // ËØ¥ÊòéÔºöËé∑ÂèñAS5600ËßíÂ∫¶(Â∏¶ÊóãËΩ¨Êï∞ÂÄº)Ôºå‰∏çÊõ¥Êñ∞as5600ÁªìÊûÑ‰Ωì‰∏≠ÁöÑËßíÂ∫¶ÂÄºÂíåÊóãËΩ¨Ê
  66:./underlying/src/as5600.c **** float AS5600_Get_Angle(As5600_Sensor_Typedef* as5600) 
  67:./underlying/src/as5600.c **** {
 294              		.loc 1 67 1 is_stmt 1 view -0
 295              		.cfi_startproc
 296              		@ args = 0, pretend = 0, frame = 0
 297              		@ frame_needed = 0, uses_anonymous_args = 0
 298              		@ link register save eliminated.
  68:./underlying/src/as5600.c ****     return as5600->Angle + as5600->Rotations*_2PI;
 299              		.loc 1 68 5 view .LVU91
 300              		.loc 1 68 18 is_stmt 0 view .LVU92
 301 0000 90ED030A 		vldr.32	s0, [r0, #12]
 302              		.loc 1 68 34 view .LVU93
 303 0004 D0ED097A 		vldr.32	s15, [r0, #36]	@ int
 304              		.loc 1 68 45 view .LVU94
 305 0008 F8EEE77A 		vcvt.f32.s32	s15, s15
 306 000c 9FED037A 		vldr.32	s14, .L21
 307 0010 67EE877A 		vmul.f32	s15, s15, s14
  69:./underlying/src/as5600.c **** }
 308              		.loc 1 69 1 view .LVU95
 309 0014 30EE270A 		vadd.f32	s0, s0, s15
 310 0018 7047     		bx	lr
 311              	.L22:
 312 001a 00BF     		.align	2
 313              	.L21:
 314 001c DB0FC940 		.word	1086918619
 315              		.cfi_endproc
 316              	.LFE244:
 318              		.section	.text.AS5600_Get_Velocity,"ax",%progbits
 319              		.align	1
 320              		.global	AS5600_Get_Velocity
 321              		.syntax unified
 322              		.thumb
 323              		.thumb_func
 325              	AS5600_Get_Velocity:
 326              	.LVL17:
 327              	.LFB245:
  70:./underlying/src/as5600.c **** // Ëé∑ÂèñAS5600ÈÄüÂ∫¶
  71:./underlying/src/as5600.c **** // ËæìÂÖ•Ôºöas5600 ÁªìÊûÑ‰ΩìÊåáÈíà
  72:./underlying/src/as5600.c **** // ËøîÂõûÔºöÈÄüÂ∫¶ÂÄº Âçï‰ΩçÔºörpm
ARM GAS  /tmp/ccdpMQeU.s 			page 8


  73:./underlying/src/as5600.c **** // ËØ¥ÊòéÔºöËé∑ÂèñAS5600ÈÄüÂ∫¶Ôºå‰∏çÊõ¥Êñ∞as5600ÁªìÊûÑ‰Ωì‰∏≠ÁöÑÈÄüÂ∫¶ÂÄº
  74:./underlying/src/as5600.c **** float AS5600_Get_Velocity(As5600_Sensor_Typedef* AS5600) 
  75:./underlying/src/as5600.c **** {
 328              		.loc 1 75 1 is_stmt 1 view -0
 329              		.cfi_startproc
 330              		@ args = 0, pretend = 0, frame = 0
 331              		@ frame_needed = 0, uses_anonymous_args = 0
 332              		@ link register save eliminated.
  76:./underlying/src/as5600.c ****     return AS5600->Velocity;		//ËøîÂõûÈÄüÂ∫¶
 333              		.loc 1 76 5 view .LVU97
  77:./underlying/src/as5600.c **** }
 334              		.loc 1 77 1 is_stmt 0 view .LVU98
 335 0000 90ED010A 		vldr.32	s0, [r0, #4]
 336 0004 7047     		bx	lr
 337              		.cfi_endproc
 338              	.LFE245:
 340              		.text
 341              	.Letext0:
 342              		.file 2 "/usr/lib/gcc/arm-none-eabi/13.2.1/include/stdint.h"
 343              		.file 3 "./Drivers/CMSIS/Device/ST/STM32F4xx/Include/stm32f407xx.h"
 344              		.file 4 "./Drivers/STM32F4xx_HAL_Driver/Inc/stm32f4xx_hal_def.h"
 345              		.file 5 "./Drivers/STM32F4xx_HAL_Driver/Inc/stm32f4xx_hal_dma.h"
 346              		.file 6 "./Drivers/STM32F4xx_HAL_Driver/Inc/stm32f4xx_hal_i2c.h"
 347              		.file 7 "./underlying/inc/as5600.h"
 348              		.file 8 "./Drivers/STM32F4xx_HAL_Driver/Inc/stm32f4xx_hal.h"
 349              		.file 9 "<built-in>"
ARM GAS  /tmp/ccdpMQeU.s 			page 9

