ARM GAS  /tmp/ccYbc8yH.s 			page 1


   1              		.cpu cortex-m4
   2              		.arch armv7e-m
   3              		.fpu fpv4-sp-d16
   4              		.eabi_attribute 27, 1
   5              		.eabi_attribute 28, 1
   6              		.eabi_attribute 20, 1
   7              		.eabi_attribute 21, 1
   8              		.eabi_attribute 23, 3
   9              		.eabi_attribute 24, 1
  10              		.eabi_attribute 25, 1
  11              		.eabi_attribute 26, 1
  12              		.eabi_attribute 30, 1
  13              		.eabi_attribute 34, 1
  14              		.eabi_attribute 18, 4
  15              		.file	"i2c.c"
  16              		.text
  17              	.Ltext0:
  18              		.cfi_sections	.debug_frame
  19              		.file 1 "./Core/Src/i2c.c"
  20              		.section	.text.MX_I2C1_Init,"ax",%progbits
  21              		.align	1
  22              		.global	MX_I2C1_Init
  23              		.syntax unified
  24              		.thumb
  25              		.thumb_func
  27              	MX_I2C1_Init:
  28              	.LFB239:
   1:./Core/Src/i2c.c **** /* USER CODE BEGIN Header */
   2:./Core/Src/i2c.c **** /**
   3:./Core/Src/i2c.c ****   ******************************************************************************
   4:./Core/Src/i2c.c ****   * @file    i2c.c
   5:./Core/Src/i2c.c ****   * @brief   This file provides code for the configuration
   6:./Core/Src/i2c.c ****   *          of the I2C instances.
   7:./Core/Src/i2c.c ****   ******************************************************************************
   8:./Core/Src/i2c.c ****   * @attention
   9:./Core/Src/i2c.c ****   *
  10:./Core/Src/i2c.c ****   * Copyright (c) 2025 STMicroelectronics.
  11:./Core/Src/i2c.c ****   * All rights reserved.
  12:./Core/Src/i2c.c ****   *
  13:./Core/Src/i2c.c ****   * This software is licensed under terms that can be found in the LICENSE file
  14:./Core/Src/i2c.c ****   * in the root directory of this software component.
  15:./Core/Src/i2c.c ****   * If no LICENSE file comes with this software, it is provided AS-IS.
  16:./Core/Src/i2c.c ****   *
  17:./Core/Src/i2c.c ****   ******************************************************************************
  18:./Core/Src/i2c.c ****   */
  19:./Core/Src/i2c.c **** /* USER CODE END Header */
  20:./Core/Src/i2c.c **** /* Includes ------------------------------------------------------------------*/
  21:./Core/Src/i2c.c **** #include "i2c.h"
  22:./Core/Src/i2c.c **** 
  23:./Core/Src/i2c.c **** /* USER CODE BEGIN 0 */
  24:./Core/Src/i2c.c **** 
  25:./Core/Src/i2c.c **** /* USER CODE END 0 */
  26:./Core/Src/i2c.c **** 
  27:./Core/Src/i2c.c **** I2C_HandleTypeDef hi2c1;
  28:./Core/Src/i2c.c **** I2C_HandleTypeDef hi2c2;
  29:./Core/Src/i2c.c **** I2C_HandleTypeDef hi2c3;
  30:./Core/Src/i2c.c **** DMA_HandleTypeDef hdma_i2c1_rx;
ARM GAS  /tmp/ccYbc8yH.s 			page 2


  31:./Core/Src/i2c.c **** DMA_HandleTypeDef hdma_i2c1_tx;
  32:./Core/Src/i2c.c **** 
  33:./Core/Src/i2c.c **** /* I2C1 init function */
  34:./Core/Src/i2c.c **** void MX_I2C1_Init(void)
  35:./Core/Src/i2c.c **** {
  29              		.loc 1 35 1 view -0
  30              		.cfi_startproc
  31              		@ args = 0, pretend = 0, frame = 0
  32              		@ frame_needed = 0, uses_anonymous_args = 0
  33 0000 08B5     		push	{r3, lr}
  34              	.LCFI0:
  35              		.cfi_def_cfa_offset 8
  36              		.cfi_offset 3, -8
  37              		.cfi_offset 14, -4
  36:./Core/Src/i2c.c **** 
  37:./Core/Src/i2c.c ****   /* USER CODE BEGIN I2C1_Init 0 */
  38:./Core/Src/i2c.c **** 
  39:./Core/Src/i2c.c ****   /* USER CODE END I2C1_Init 0 */
  40:./Core/Src/i2c.c **** 
  41:./Core/Src/i2c.c ****   /* USER CODE BEGIN I2C1_Init 1 */
  42:./Core/Src/i2c.c **** 
  43:./Core/Src/i2c.c ****   /* USER CODE END I2C1_Init 1 */
  44:./Core/Src/i2c.c ****   hi2c1.Instance = I2C1;
  38              		.loc 1 44 3 view .LVU1
  39              		.loc 1 44 18 is_stmt 0 view .LVU2
  40 0002 0B48     		ldr	r0, .L5
  41 0004 0B4B     		ldr	r3, .L5+4
  42 0006 0360     		str	r3, [r0]
  45:./Core/Src/i2c.c ****   hi2c1.Init.ClockSpeed = 400000;
  43              		.loc 1 45 3 is_stmt 1 view .LVU3
  44              		.loc 1 45 25 is_stmt 0 view .LVU4
  45 0008 0B4B     		ldr	r3, .L5+8
  46 000a 4360     		str	r3, [r0, #4]
  46:./Core/Src/i2c.c ****   hi2c1.Init.DutyCycle = I2C_DUTYCYCLE_2;
  47              		.loc 1 46 3 is_stmt 1 view .LVU5
  48              		.loc 1 46 24 is_stmt 0 view .LVU6
  49 000c 0023     		movs	r3, #0
  50 000e 8360     		str	r3, [r0, #8]
  47:./Core/Src/i2c.c ****   hi2c1.Init.OwnAddress1 = 0;
  51              		.loc 1 47 3 is_stmt 1 view .LVU7
  52              		.loc 1 47 26 is_stmt 0 view .LVU8
  53 0010 C360     		str	r3, [r0, #12]
  48:./Core/Src/i2c.c ****   hi2c1.Init.AddressingMode = I2C_ADDRESSINGMODE_7BIT;
  54              		.loc 1 48 3 is_stmt 1 view .LVU9
  55              		.loc 1 48 29 is_stmt 0 view .LVU10
  56 0012 4FF48042 		mov	r2, #16384
  57 0016 0261     		str	r2, [r0, #16]
  49:./Core/Src/i2c.c ****   hi2c1.Init.DualAddressMode = I2C_DUALADDRESS_DISABLE;
  58              		.loc 1 49 3 is_stmt 1 view .LVU11
  59              		.loc 1 49 30 is_stmt 0 view .LVU12
  60 0018 4361     		str	r3, [r0, #20]
  50:./Core/Src/i2c.c ****   hi2c1.Init.OwnAddress2 = 0;
  61              		.loc 1 50 3 is_stmt 1 view .LVU13
  62              		.loc 1 50 26 is_stmt 0 view .LVU14
  63 001a 8361     		str	r3, [r0, #24]
  51:./Core/Src/i2c.c ****   hi2c1.Init.GeneralCallMode = I2C_GENERALCALL_DISABLE;
  64              		.loc 1 51 3 is_stmt 1 view .LVU15
ARM GAS  /tmp/ccYbc8yH.s 			page 3


  65              		.loc 1 51 30 is_stmt 0 view .LVU16
  66 001c C361     		str	r3, [r0, #28]
  52:./Core/Src/i2c.c ****   hi2c1.Init.NoStretchMode = I2C_NOSTRETCH_DISABLE;
  67              		.loc 1 52 3 is_stmt 1 view .LVU17
  68              		.loc 1 52 28 is_stmt 0 view .LVU18
  69 001e 0362     		str	r3, [r0, #32]
  53:./Core/Src/i2c.c ****   if (HAL_I2C_Init(&hi2c1) != HAL_OK)
  70              		.loc 1 53 3 is_stmt 1 view .LVU19
  71              		.loc 1 53 7 is_stmt 0 view .LVU20
  72 0020 FFF7FEFF 		bl	HAL_I2C_Init
  73              	.LVL0:
  74              		.loc 1 53 6 discriminator 1 view .LVU21
  75 0024 00B9     		cbnz	r0, .L4
  76              	.L1:
  54:./Core/Src/i2c.c ****   {
  55:./Core/Src/i2c.c ****     Error_Handler();
  56:./Core/Src/i2c.c ****   }
  57:./Core/Src/i2c.c ****   /* USER CODE BEGIN I2C1_Init 2 */
  58:./Core/Src/i2c.c **** 
  59:./Core/Src/i2c.c ****   /* USER CODE END I2C1_Init 2 */
  60:./Core/Src/i2c.c **** 
  61:./Core/Src/i2c.c **** }
  77              		.loc 1 61 1 view .LVU22
  78 0026 08BD     		pop	{r3, pc}
  79              	.L4:
  55:./Core/Src/i2c.c ****   }
  80              		.loc 1 55 5 is_stmt 1 view .LVU23
  81 0028 FFF7FEFF 		bl	Error_Handler
  82              	.LVL1:
  83              		.loc 1 61 1 is_stmt 0 view .LVU24
  84 002c FBE7     		b	.L1
  85              	.L6:
  86 002e 00BF     		.align	2
  87              	.L5:
  88 0030 00000000 		.word	hi2c1
  89 0034 00540040 		.word	1073763328
  90 0038 801A0600 		.word	400000
  91              		.cfi_endproc
  92              	.LFE239:
  94              		.section	.text.MX_I2C2_Init,"ax",%progbits
  95              		.align	1
  96              		.global	MX_I2C2_Init
  97              		.syntax unified
  98              		.thumb
  99              		.thumb_func
 101              	MX_I2C2_Init:
 102              	.LFB240:
  62:./Core/Src/i2c.c **** /* I2C2 init function */
  63:./Core/Src/i2c.c **** void MX_I2C2_Init(void)
  64:./Core/Src/i2c.c **** {
 103              		.loc 1 64 1 is_stmt 1 view -0
 104              		.cfi_startproc
 105              		@ args = 0, pretend = 0, frame = 0
 106              		@ frame_needed = 0, uses_anonymous_args = 0
 107 0000 08B5     		push	{r3, lr}
 108              	.LCFI1:
 109              		.cfi_def_cfa_offset 8
ARM GAS  /tmp/ccYbc8yH.s 			page 4


 110              		.cfi_offset 3, -8
 111              		.cfi_offset 14, -4
  65:./Core/Src/i2c.c **** 
  66:./Core/Src/i2c.c ****   /* USER CODE BEGIN I2C2_Init 0 */
  67:./Core/Src/i2c.c **** 
  68:./Core/Src/i2c.c ****   /* USER CODE END I2C2_Init 0 */
  69:./Core/Src/i2c.c **** 
  70:./Core/Src/i2c.c ****   /* USER CODE BEGIN I2C2_Init 1 */
  71:./Core/Src/i2c.c **** 
  72:./Core/Src/i2c.c ****   /* USER CODE END I2C2_Init 1 */
  73:./Core/Src/i2c.c ****   hi2c2.Instance = I2C2;
 112              		.loc 1 73 3 view .LVU26
 113              		.loc 1 73 18 is_stmt 0 view .LVU27
 114 0002 0B48     		ldr	r0, .L11
 115 0004 0B4B     		ldr	r3, .L11+4
 116 0006 0360     		str	r3, [r0]
  74:./Core/Src/i2c.c ****   hi2c2.Init.ClockSpeed = 400000;
 117              		.loc 1 74 3 is_stmt 1 view .LVU28
 118              		.loc 1 74 25 is_stmt 0 view .LVU29
 119 0008 0B4B     		ldr	r3, .L11+8
 120 000a 4360     		str	r3, [r0, #4]
  75:./Core/Src/i2c.c ****   hi2c2.Init.DutyCycle = I2C_DUTYCYCLE_2;
 121              		.loc 1 75 3 is_stmt 1 view .LVU30
 122              		.loc 1 75 24 is_stmt 0 view .LVU31
 123 000c 0023     		movs	r3, #0
 124 000e 8360     		str	r3, [r0, #8]
  76:./Core/Src/i2c.c ****   hi2c2.Init.OwnAddress1 = 0;
 125              		.loc 1 76 3 is_stmt 1 view .LVU32
 126              		.loc 1 76 26 is_stmt 0 view .LVU33
 127 0010 C360     		str	r3, [r0, #12]
  77:./Core/Src/i2c.c ****   hi2c2.Init.AddressingMode = I2C_ADDRESSINGMODE_7BIT;
 128              		.loc 1 77 3 is_stmt 1 view .LVU34
 129              		.loc 1 77 29 is_stmt 0 view .LVU35
 130 0012 4FF48042 		mov	r2, #16384
 131 0016 0261     		str	r2, [r0, #16]
  78:./Core/Src/i2c.c ****   hi2c2.Init.DualAddressMode = I2C_DUALADDRESS_DISABLE;
 132              		.loc 1 78 3 is_stmt 1 view .LVU36
 133              		.loc 1 78 30 is_stmt 0 view .LVU37
 134 0018 4361     		str	r3, [r0, #20]
  79:./Core/Src/i2c.c ****   hi2c2.Init.OwnAddress2 = 0;
 135              		.loc 1 79 3 is_stmt 1 view .LVU38
 136              		.loc 1 79 26 is_stmt 0 view .LVU39
 137 001a 8361     		str	r3, [r0, #24]
  80:./Core/Src/i2c.c ****   hi2c2.Init.GeneralCallMode = I2C_GENERALCALL_DISABLE;
 138              		.loc 1 80 3 is_stmt 1 view .LVU40
 139              		.loc 1 80 30 is_stmt 0 view .LVU41
 140 001c C361     		str	r3, [r0, #28]
  81:./Core/Src/i2c.c ****   hi2c2.Init.NoStretchMode = I2C_NOSTRETCH_DISABLE;
 141              		.loc 1 81 3 is_stmt 1 view .LVU42
 142              		.loc 1 81 28 is_stmt 0 view .LVU43
 143 001e 0362     		str	r3, [r0, #32]
  82:./Core/Src/i2c.c ****   if (HAL_I2C_Init(&hi2c2) != HAL_OK)
 144              		.loc 1 82 3 is_stmt 1 view .LVU44
 145              		.loc 1 82 7 is_stmt 0 view .LVU45
 146 0020 FFF7FEFF 		bl	HAL_I2C_Init
 147              	.LVL2:
 148              		.loc 1 82 6 discriminator 1 view .LVU46
ARM GAS  /tmp/ccYbc8yH.s 			page 5


 149 0024 00B9     		cbnz	r0, .L10
 150              	.L7:
  83:./Core/Src/i2c.c ****   {
  84:./Core/Src/i2c.c ****     Error_Handler();
  85:./Core/Src/i2c.c ****   }
  86:./Core/Src/i2c.c ****   /* USER CODE BEGIN I2C2_Init 2 */
  87:./Core/Src/i2c.c **** 
  88:./Core/Src/i2c.c ****   /* USER CODE END I2C2_Init 2 */
  89:./Core/Src/i2c.c **** 
  90:./Core/Src/i2c.c **** }
 151              		.loc 1 90 1 view .LVU47
 152 0026 08BD     		pop	{r3, pc}
 153              	.L10:
  84:./Core/Src/i2c.c ****   }
 154              		.loc 1 84 5 is_stmt 1 view .LVU48
 155 0028 FFF7FEFF 		bl	Error_Handler
 156              	.LVL3:
 157              		.loc 1 90 1 is_stmt 0 view .LVU49
 158 002c FBE7     		b	.L7
 159              	.L12:
 160 002e 00BF     		.align	2
 161              	.L11:
 162 0030 00000000 		.word	hi2c2
 163 0034 00580040 		.word	1073764352
 164 0038 801A0600 		.word	400000
 165              		.cfi_endproc
 166              	.LFE240:
 168              		.section	.text.MX_I2C3_Init,"ax",%progbits
 169              		.align	1
 170              		.global	MX_I2C3_Init
 171              		.syntax unified
 172              		.thumb
 173              		.thumb_func
 175              	MX_I2C3_Init:
 176              	.LFB241:
  91:./Core/Src/i2c.c **** /* I2C3 init function */
  92:./Core/Src/i2c.c **** void MX_I2C3_Init(void)
  93:./Core/Src/i2c.c **** {
 177              		.loc 1 93 1 is_stmt 1 view -0
 178              		.cfi_startproc
 179              		@ args = 0, pretend = 0, frame = 0
 180              		@ frame_needed = 0, uses_anonymous_args = 0
 181 0000 08B5     		push	{r3, lr}
 182              	.LCFI2:
 183              		.cfi_def_cfa_offset 8
 184              		.cfi_offset 3, -8
 185              		.cfi_offset 14, -4
  94:./Core/Src/i2c.c **** 
  95:./Core/Src/i2c.c ****   /* USER CODE BEGIN I2C3_Init 0 */
  96:./Core/Src/i2c.c **** 
  97:./Core/Src/i2c.c ****   /* USER CODE END I2C3_Init 0 */
  98:./Core/Src/i2c.c **** 
  99:./Core/Src/i2c.c ****   /* USER CODE BEGIN I2C3_Init 1 */
 100:./Core/Src/i2c.c **** 
 101:./Core/Src/i2c.c ****   /* USER CODE END I2C3_Init 1 */
 102:./Core/Src/i2c.c ****   hi2c3.Instance = I2C3;
 186              		.loc 1 102 3 view .LVU51
ARM GAS  /tmp/ccYbc8yH.s 			page 6


 187              		.loc 1 102 18 is_stmt 0 view .LVU52
 188 0002 0B48     		ldr	r0, .L17
 189 0004 0B4B     		ldr	r3, .L17+4
 190 0006 0360     		str	r3, [r0]
 103:./Core/Src/i2c.c ****   hi2c3.Init.ClockSpeed = 100000;
 191              		.loc 1 103 3 is_stmt 1 view .LVU53
 192              		.loc 1 103 25 is_stmt 0 view .LVU54
 193 0008 0B4B     		ldr	r3, .L17+8
 194 000a 4360     		str	r3, [r0, #4]
 104:./Core/Src/i2c.c ****   hi2c3.Init.DutyCycle = I2C_DUTYCYCLE_2;
 195              		.loc 1 104 3 is_stmt 1 view .LVU55
 196              		.loc 1 104 24 is_stmt 0 view .LVU56
 197 000c 0023     		movs	r3, #0
 198 000e 8360     		str	r3, [r0, #8]
 105:./Core/Src/i2c.c ****   hi2c3.Init.OwnAddress1 = 0;
 199              		.loc 1 105 3 is_stmt 1 view .LVU57
 200              		.loc 1 105 26 is_stmt 0 view .LVU58
 201 0010 C360     		str	r3, [r0, #12]
 106:./Core/Src/i2c.c ****   hi2c3.Init.AddressingMode = I2C_ADDRESSINGMODE_7BIT;
 202              		.loc 1 106 3 is_stmt 1 view .LVU59
 203              		.loc 1 106 29 is_stmt 0 view .LVU60
 204 0012 4FF48042 		mov	r2, #16384
 205 0016 0261     		str	r2, [r0, #16]
 107:./Core/Src/i2c.c ****   hi2c3.Init.DualAddressMode = I2C_DUALADDRESS_DISABLE;
 206              		.loc 1 107 3 is_stmt 1 view .LVU61
 207              		.loc 1 107 30 is_stmt 0 view .LVU62
 208 0018 4361     		str	r3, [r0, #20]
 108:./Core/Src/i2c.c ****   hi2c3.Init.OwnAddress2 = 0;
 209              		.loc 1 108 3 is_stmt 1 view .LVU63
 210              		.loc 1 108 26 is_stmt 0 view .LVU64
 211 001a 8361     		str	r3, [r0, #24]
 109:./Core/Src/i2c.c ****   hi2c3.Init.GeneralCallMode = I2C_GENERALCALL_DISABLE;
 212              		.loc 1 109 3 is_stmt 1 view .LVU65
 213              		.loc 1 109 30 is_stmt 0 view .LVU66
 214 001c C361     		str	r3, [r0, #28]
 110:./Core/Src/i2c.c ****   hi2c3.Init.NoStretchMode = I2C_NOSTRETCH_DISABLE;
 215              		.loc 1 110 3 is_stmt 1 view .LVU67
 216              		.loc 1 110 28 is_stmt 0 view .LVU68
 217 001e 0362     		str	r3, [r0, #32]
 111:./Core/Src/i2c.c ****   if (HAL_I2C_Init(&hi2c3) != HAL_OK)
 218              		.loc 1 111 3 is_stmt 1 view .LVU69
 219              		.loc 1 111 7 is_stmt 0 view .LVU70
 220 0020 FFF7FEFF 		bl	HAL_I2C_Init
 221              	.LVL4:
 222              		.loc 1 111 6 discriminator 1 view .LVU71
 223 0024 00B9     		cbnz	r0, .L16
 224              	.L13:
 112:./Core/Src/i2c.c ****   {
 113:./Core/Src/i2c.c ****     Error_Handler();
 114:./Core/Src/i2c.c ****   }
 115:./Core/Src/i2c.c ****   /* USER CODE BEGIN I2C3_Init 2 */
 116:./Core/Src/i2c.c **** 
 117:./Core/Src/i2c.c ****   /* USER CODE END I2C3_Init 2 */
 118:./Core/Src/i2c.c **** 
 119:./Core/Src/i2c.c **** }
 225              		.loc 1 119 1 view .LVU72
 226 0026 08BD     		pop	{r3, pc}
ARM GAS  /tmp/ccYbc8yH.s 			page 7


 227              	.L16:
 113:./Core/Src/i2c.c ****   }
 228              		.loc 1 113 5 is_stmt 1 view .LVU73
 229 0028 FFF7FEFF 		bl	Error_Handler
 230              	.LVL5:
 231              		.loc 1 119 1 is_stmt 0 view .LVU74
 232 002c FBE7     		b	.L13
 233              	.L18:
 234 002e 00BF     		.align	2
 235              	.L17:
 236 0030 00000000 		.word	hi2c3
 237 0034 005C0040 		.word	1073765376
 238 0038 A0860100 		.word	100000
 239              		.cfi_endproc
 240              	.LFE241:
 242              		.section	.text.HAL_I2C_MspInit,"ax",%progbits
 243              		.align	1
 244              		.global	HAL_I2C_MspInit
 245              		.syntax unified
 246              		.thumb
 247              		.thumb_func
 249              	HAL_I2C_MspInit:
 250              	.LVL6:
 251              	.LFB242:
 120:./Core/Src/i2c.c **** 
 121:./Core/Src/i2c.c **** void HAL_I2C_MspInit(I2C_HandleTypeDef* i2cHandle)
 122:./Core/Src/i2c.c **** {
 252              		.loc 1 122 1 is_stmt 1 view -0
 253              		.cfi_startproc
 254              		@ args = 0, pretend = 0, frame = 48
 255              		@ frame_needed = 0, uses_anonymous_args = 0
 256              		.loc 1 122 1 is_stmt 0 view .LVU76
 257 0000 2DE9F041 		push	{r4, r5, r6, r7, r8, lr}
 258              	.LCFI3:
 259              		.cfi_def_cfa_offset 24
 260              		.cfi_offset 4, -24
 261              		.cfi_offset 5, -20
 262              		.cfi_offset 6, -16
 263              		.cfi_offset 7, -12
 264              		.cfi_offset 8, -8
 265              		.cfi_offset 14, -4
 266 0004 8CB0     		sub	sp, sp, #48
 267              	.LCFI4:
 268              		.cfi_def_cfa_offset 72
 123:./Core/Src/i2c.c **** 
 124:./Core/Src/i2c.c ****   GPIO_InitTypeDef GPIO_InitStruct = {0};
 269              		.loc 1 124 3 is_stmt 1 view .LVU77
 270              		.loc 1 124 20 is_stmt 0 view .LVU78
 271 0006 0023     		movs	r3, #0
 272 0008 0793     		str	r3, [sp, #28]
 273 000a 0893     		str	r3, [sp, #32]
 274 000c 0993     		str	r3, [sp, #36]
 275 000e 0A93     		str	r3, [sp, #40]
 276 0010 0B93     		str	r3, [sp, #44]
 125:./Core/Src/i2c.c ****   if(i2cHandle->Instance==I2C1)
 277              		.loc 1 125 3 is_stmt 1 view .LVU79
 278              		.loc 1 125 15 is_stmt 0 view .LVU80
ARM GAS  /tmp/ccYbc8yH.s 			page 8


 279 0012 0368     		ldr	r3, [r0]
 280              		.loc 1 125 5 view .LVU81
 281 0014 744A     		ldr	r2, .L31
 282 0016 9342     		cmp	r3, r2
 283 0018 09D0     		beq	.L26
 126:./Core/Src/i2c.c ****   {
 127:./Core/Src/i2c.c ****   /* USER CODE BEGIN I2C1_MspInit 0 */
 128:./Core/Src/i2c.c **** 
 129:./Core/Src/i2c.c ****   /* USER CODE END I2C1_MspInit 0 */
 130:./Core/Src/i2c.c **** 
 131:./Core/Src/i2c.c ****     __HAL_RCC_GPIOB_CLK_ENABLE();
 132:./Core/Src/i2c.c ****     /**I2C1 GPIO Configuration
 133:./Core/Src/i2c.c ****     PB8     ------> I2C1_SCL
 134:./Core/Src/i2c.c ****     PB9     ------> I2C1_SDA
 135:./Core/Src/i2c.c ****     */
 136:./Core/Src/i2c.c ****     GPIO_InitStruct.Pin = GPIO_PIN_8|GPIO_PIN_9;
 137:./Core/Src/i2c.c ****     GPIO_InitStruct.Mode = GPIO_MODE_AF_OD;
 138:./Core/Src/i2c.c ****     GPIO_InitStruct.Pull = GPIO_PULLUP;
 139:./Core/Src/i2c.c ****     GPIO_InitStruct.Speed = GPIO_SPEED_FREQ_VERY_HIGH;
 140:./Core/Src/i2c.c ****     GPIO_InitStruct.Alternate = GPIO_AF4_I2C1;
 141:./Core/Src/i2c.c ****     HAL_GPIO_Init(GPIOB, &GPIO_InitStruct);
 142:./Core/Src/i2c.c **** 
 143:./Core/Src/i2c.c ****     /* I2C1 clock enable */
 144:./Core/Src/i2c.c ****     __HAL_RCC_I2C1_CLK_ENABLE();
 145:./Core/Src/i2c.c **** 
 146:./Core/Src/i2c.c ****     /* I2C1 DMA Init */
 147:./Core/Src/i2c.c ****     /* I2C1_RX Init */
 148:./Core/Src/i2c.c ****     hdma_i2c1_rx.Instance = DMA1_Stream0;
 149:./Core/Src/i2c.c ****     hdma_i2c1_rx.Init.Channel = DMA_CHANNEL_1;
 150:./Core/Src/i2c.c ****     hdma_i2c1_rx.Init.Direction = DMA_PERIPH_TO_MEMORY;
 151:./Core/Src/i2c.c ****     hdma_i2c1_rx.Init.PeriphInc = DMA_PINC_DISABLE;
 152:./Core/Src/i2c.c ****     hdma_i2c1_rx.Init.MemInc = DMA_MINC_ENABLE;
 153:./Core/Src/i2c.c ****     hdma_i2c1_rx.Init.PeriphDataAlignment = DMA_PDATAALIGN_BYTE;
 154:./Core/Src/i2c.c ****     hdma_i2c1_rx.Init.MemDataAlignment = DMA_MDATAALIGN_BYTE;
 155:./Core/Src/i2c.c ****     hdma_i2c1_rx.Init.Mode = DMA_NORMAL;
 156:./Core/Src/i2c.c ****     hdma_i2c1_rx.Init.Priority = DMA_PRIORITY_LOW;
 157:./Core/Src/i2c.c ****     hdma_i2c1_rx.Init.FIFOMode = DMA_FIFOMODE_DISABLE;
 158:./Core/Src/i2c.c ****     if (HAL_DMA_Init(&hdma_i2c1_rx) != HAL_OK)
 159:./Core/Src/i2c.c ****     {
 160:./Core/Src/i2c.c ****       Error_Handler();
 161:./Core/Src/i2c.c ****     }
 162:./Core/Src/i2c.c **** 
 163:./Core/Src/i2c.c ****     __HAL_LINKDMA(i2cHandle,hdmarx,hdma_i2c1_rx);
 164:./Core/Src/i2c.c **** 
 165:./Core/Src/i2c.c ****     /* I2C1_TX Init */
 166:./Core/Src/i2c.c ****     hdma_i2c1_tx.Instance = DMA1_Stream7;
 167:./Core/Src/i2c.c ****     hdma_i2c1_tx.Init.Channel = DMA_CHANNEL_1;
 168:./Core/Src/i2c.c ****     hdma_i2c1_tx.Init.Direction = DMA_MEMORY_TO_PERIPH;
 169:./Core/Src/i2c.c ****     hdma_i2c1_tx.Init.PeriphInc = DMA_PINC_DISABLE;
 170:./Core/Src/i2c.c ****     hdma_i2c1_tx.Init.MemInc = DMA_MINC_ENABLE;
 171:./Core/Src/i2c.c ****     hdma_i2c1_tx.Init.PeriphDataAlignment = DMA_PDATAALIGN_BYTE;
 172:./Core/Src/i2c.c ****     hdma_i2c1_tx.Init.MemDataAlignment = DMA_MDATAALIGN_BYTE;
 173:./Core/Src/i2c.c ****     hdma_i2c1_tx.Init.Mode = DMA_NORMAL;
 174:./Core/Src/i2c.c ****     hdma_i2c1_tx.Init.Priority = DMA_PRIORITY_LOW;
 175:./Core/Src/i2c.c ****     hdma_i2c1_tx.Init.FIFOMode = DMA_FIFOMODE_DISABLE;
 176:./Core/Src/i2c.c ****     if (HAL_DMA_Init(&hdma_i2c1_tx) != HAL_OK)
 177:./Core/Src/i2c.c ****     {
ARM GAS  /tmp/ccYbc8yH.s 			page 9


 178:./Core/Src/i2c.c ****       Error_Handler();
 179:./Core/Src/i2c.c ****     }
 180:./Core/Src/i2c.c **** 
 181:./Core/Src/i2c.c ****     __HAL_LINKDMA(i2cHandle,hdmatx,hdma_i2c1_tx);
 182:./Core/Src/i2c.c **** 
 183:./Core/Src/i2c.c ****     /* I2C1 interrupt Init */
 184:./Core/Src/i2c.c ****     HAL_NVIC_SetPriority(I2C1_EV_IRQn, 0, 0);
 185:./Core/Src/i2c.c ****     HAL_NVIC_EnableIRQ(I2C1_EV_IRQn);
 186:./Core/Src/i2c.c ****     HAL_NVIC_SetPriority(I2C1_ER_IRQn, 0, 0);
 187:./Core/Src/i2c.c ****     HAL_NVIC_EnableIRQ(I2C1_ER_IRQn);
 188:./Core/Src/i2c.c ****   /* USER CODE BEGIN I2C1_MspInit 1 */
 189:./Core/Src/i2c.c **** 
 190:./Core/Src/i2c.c ****   /* USER CODE END I2C1_MspInit 1 */
 191:./Core/Src/i2c.c ****   }
 192:./Core/Src/i2c.c ****   else if(i2cHandle->Instance==I2C2)
 284              		.loc 1 192 8 is_stmt 1 view .LVU82
 285              		.loc 1 192 10 is_stmt 0 view .LVU83
 286 001a 744A     		ldr	r2, .L31+4
 287 001c 9342     		cmp	r3, r2
 288 001e 71D0     		beq	.L27
 193:./Core/Src/i2c.c ****   {
 194:./Core/Src/i2c.c ****   /* USER CODE BEGIN I2C2_MspInit 0 */
 195:./Core/Src/i2c.c **** 
 196:./Core/Src/i2c.c ****   /* USER CODE END I2C2_MspInit 0 */
 197:./Core/Src/i2c.c **** 
 198:./Core/Src/i2c.c ****     __HAL_RCC_GPIOB_CLK_ENABLE();
 199:./Core/Src/i2c.c ****     /**I2C2 GPIO Configuration
 200:./Core/Src/i2c.c ****     PB10     ------> I2C2_SCL
 201:./Core/Src/i2c.c ****     PB11     ------> I2C2_SDA
 202:./Core/Src/i2c.c ****     */
 203:./Core/Src/i2c.c ****     GPIO_InitStruct.Pin = GPIO_PIN_10|GPIO_PIN_11;
 204:./Core/Src/i2c.c ****     GPIO_InitStruct.Mode = GPIO_MODE_AF_OD;
 205:./Core/Src/i2c.c ****     GPIO_InitStruct.Pull = GPIO_PULLUP;
 206:./Core/Src/i2c.c ****     GPIO_InitStruct.Speed = GPIO_SPEED_FREQ_VERY_HIGH;
 207:./Core/Src/i2c.c ****     GPIO_InitStruct.Alternate = GPIO_AF4_I2C2;
 208:./Core/Src/i2c.c ****     HAL_GPIO_Init(GPIOB, &GPIO_InitStruct);
 209:./Core/Src/i2c.c **** 
 210:./Core/Src/i2c.c ****     /* I2C2 clock enable */
 211:./Core/Src/i2c.c ****     __HAL_RCC_I2C2_CLK_ENABLE();
 212:./Core/Src/i2c.c **** 
 213:./Core/Src/i2c.c ****     /* I2C2 interrupt Init */
 214:./Core/Src/i2c.c ****     HAL_NVIC_SetPriority(I2C2_EV_IRQn, 0, 0);
 215:./Core/Src/i2c.c ****     HAL_NVIC_EnableIRQ(I2C2_EV_IRQn);
 216:./Core/Src/i2c.c ****     HAL_NVIC_SetPriority(I2C2_ER_IRQn, 0, 0);
 217:./Core/Src/i2c.c ****     HAL_NVIC_EnableIRQ(I2C2_ER_IRQn);
 218:./Core/Src/i2c.c ****   /* USER CODE BEGIN I2C2_MspInit 1 */
 219:./Core/Src/i2c.c **** 
 220:./Core/Src/i2c.c ****   /* USER CODE END I2C2_MspInit 1 */
 221:./Core/Src/i2c.c ****   }
 222:./Core/Src/i2c.c ****   else if(i2cHandle->Instance==I2C3)
 289              		.loc 1 222 8 is_stmt 1 view .LVU84
 290              		.loc 1 222 10 is_stmt 0 view .LVU85
 291 0020 734A     		ldr	r2, .L31+8
 292 0022 9342     		cmp	r3, r2
 293 0024 00F0A480 		beq	.L28
 294              	.LVL7:
 295              	.L19:
ARM GAS  /tmp/ccYbc8yH.s 			page 10


 223:./Core/Src/i2c.c ****   {
 224:./Core/Src/i2c.c ****   /* USER CODE BEGIN I2C3_MspInit 0 */
 225:./Core/Src/i2c.c **** 
 226:./Core/Src/i2c.c ****   /* USER CODE END I2C3_MspInit 0 */
 227:./Core/Src/i2c.c **** 
 228:./Core/Src/i2c.c ****     __HAL_RCC_GPIOC_CLK_ENABLE();
 229:./Core/Src/i2c.c ****     __HAL_RCC_GPIOA_CLK_ENABLE();
 230:./Core/Src/i2c.c ****     /**I2C3 GPIO Configuration
 231:./Core/Src/i2c.c ****     PC9     ------> I2C3_SDA
 232:./Core/Src/i2c.c ****     PA8     ------> I2C3_SCL
 233:./Core/Src/i2c.c ****     */
 234:./Core/Src/i2c.c ****     GPIO_InitStruct.Pin = GPIO_PIN_9;
 235:./Core/Src/i2c.c ****     GPIO_InitStruct.Mode = GPIO_MODE_AF_OD;
 236:./Core/Src/i2c.c ****     GPIO_InitStruct.Pull = GPIO_NOPULL;
 237:./Core/Src/i2c.c ****     GPIO_InitStruct.Speed = GPIO_SPEED_FREQ_VERY_HIGH;
 238:./Core/Src/i2c.c ****     GPIO_InitStruct.Alternate = GPIO_AF4_I2C3;
 239:./Core/Src/i2c.c ****     HAL_GPIO_Init(GPIOC, &GPIO_InitStruct);
 240:./Core/Src/i2c.c **** 
 241:./Core/Src/i2c.c ****     GPIO_InitStruct.Pin = GPIO_PIN_8;
 242:./Core/Src/i2c.c ****     GPIO_InitStruct.Mode = GPIO_MODE_AF_OD;
 243:./Core/Src/i2c.c ****     GPIO_InitStruct.Pull = GPIO_NOPULL;
 244:./Core/Src/i2c.c ****     GPIO_InitStruct.Speed = GPIO_SPEED_FREQ_VERY_HIGH;
 245:./Core/Src/i2c.c ****     GPIO_InitStruct.Alternate = GPIO_AF4_I2C3;
 246:./Core/Src/i2c.c ****     HAL_GPIO_Init(GPIOA, &GPIO_InitStruct);
 247:./Core/Src/i2c.c **** 
 248:./Core/Src/i2c.c ****     /* I2C3 clock enable */
 249:./Core/Src/i2c.c ****     __HAL_RCC_I2C3_CLK_ENABLE();
 250:./Core/Src/i2c.c ****   /* USER CODE BEGIN I2C3_MspInit 1 */
 251:./Core/Src/i2c.c **** 
 252:./Core/Src/i2c.c ****   /* USER CODE END I2C3_MspInit 1 */
 253:./Core/Src/i2c.c ****   }
 254:./Core/Src/i2c.c **** }
 296              		.loc 1 254 1 view .LVU86
 297 0028 0CB0     		add	sp, sp, #48
 298              	.LCFI5:
 299              		.cfi_remember_state
 300              		.cfi_def_cfa_offset 24
 301              		@ sp needed
 302 002a BDE8F081 		pop	{r4, r5, r6, r7, r8, pc}
 303              	.LVL8:
 304              	.L26:
 305              	.LCFI6:
 306              		.cfi_restore_state
 307              		.loc 1 254 1 view .LVU87
 308 002e 0446     		mov	r4, r0
 131:./Core/Src/i2c.c ****     /**I2C1 GPIO Configuration
 309              		.loc 1 131 5 is_stmt 1 view .LVU88
 310              	.LBB2:
 131:./Core/Src/i2c.c ****     /**I2C1 GPIO Configuration
 311              		.loc 1 131 5 view .LVU89
 312 0030 0025     		movs	r5, #0
 313 0032 0095     		str	r5, [sp]
 131:./Core/Src/i2c.c ****     /**I2C1 GPIO Configuration
 314              		.loc 1 131 5 view .LVU90
 315 0034 6F4E     		ldr	r6, .L31+12
 316 0036 336B     		ldr	r3, [r6, #48]
 317 0038 43F00203 		orr	r3, r3, #2
ARM GAS  /tmp/ccYbc8yH.s 			page 11


 318 003c 3363     		str	r3, [r6, #48]
 131:./Core/Src/i2c.c ****     /**I2C1 GPIO Configuration
 319              		.loc 1 131 5 view .LVU91
 320 003e 336B     		ldr	r3, [r6, #48]
 321 0040 03F00203 		and	r3, r3, #2
 322 0044 0093     		str	r3, [sp]
 131:./Core/Src/i2c.c ****     /**I2C1 GPIO Configuration
 323              		.loc 1 131 5 view .LVU92
 324 0046 009B     		ldr	r3, [sp]
 325              	.LBE2:
 131:./Core/Src/i2c.c ****     /**I2C1 GPIO Configuration
 326              		.loc 1 131 5 view .LVU93
 136:./Core/Src/i2c.c ****     GPIO_InitStruct.Mode = GPIO_MODE_AF_OD;
 327              		.loc 1 136 5 view .LVU94
 136:./Core/Src/i2c.c ****     GPIO_InitStruct.Mode = GPIO_MODE_AF_OD;
 328              		.loc 1 136 25 is_stmt 0 view .LVU95
 329 0048 4FF44073 		mov	r3, #768
 330 004c 0793     		str	r3, [sp, #28]
 137:./Core/Src/i2c.c ****     GPIO_InitStruct.Pull = GPIO_PULLUP;
 331              		.loc 1 137 5 is_stmt 1 view .LVU96
 137:./Core/Src/i2c.c ****     GPIO_InitStruct.Pull = GPIO_PULLUP;
 332              		.loc 1 137 26 is_stmt 0 view .LVU97
 333 004e 1223     		movs	r3, #18
 334 0050 0893     		str	r3, [sp, #32]
 138:./Core/Src/i2c.c ****     GPIO_InitStruct.Speed = GPIO_SPEED_FREQ_VERY_HIGH;
 335              		.loc 1 138 5 is_stmt 1 view .LVU98
 138:./Core/Src/i2c.c ****     GPIO_InitStruct.Speed = GPIO_SPEED_FREQ_VERY_HIGH;
 336              		.loc 1 138 26 is_stmt 0 view .LVU99
 337 0052 0123     		movs	r3, #1
 338 0054 0993     		str	r3, [sp, #36]
 139:./Core/Src/i2c.c ****     GPIO_InitStruct.Alternate = GPIO_AF4_I2C1;
 339              		.loc 1 139 5 is_stmt 1 view .LVU100
 139:./Core/Src/i2c.c ****     GPIO_InitStruct.Alternate = GPIO_AF4_I2C1;
 340              		.loc 1 139 27 is_stmt 0 view .LVU101
 341 0056 0323     		movs	r3, #3
 342 0058 0A93     		str	r3, [sp, #40]
 140:./Core/Src/i2c.c ****     HAL_GPIO_Init(GPIOB, &GPIO_InitStruct);
 343              		.loc 1 140 5 is_stmt 1 view .LVU102
 140:./Core/Src/i2c.c ****     HAL_GPIO_Init(GPIOB, &GPIO_InitStruct);
 344              		.loc 1 140 31 is_stmt 0 view .LVU103
 345 005a 0423     		movs	r3, #4
 346 005c 0B93     		str	r3, [sp, #44]
 141:./Core/Src/i2c.c **** 
 347              		.loc 1 141 5 is_stmt 1 view .LVU104
 348 005e 07A9     		add	r1, sp, #28
 349 0060 6548     		ldr	r0, .L31+16
 350              	.LVL9:
 141:./Core/Src/i2c.c **** 
 351              		.loc 1 141 5 is_stmt 0 view .LVU105
 352 0062 FFF7FEFF 		bl	HAL_GPIO_Init
 353              	.LVL10:
 144:./Core/Src/i2c.c **** 
 354              		.loc 1 144 5 is_stmt 1 view .LVU106
 355              	.LBB3:
 144:./Core/Src/i2c.c **** 
 356              		.loc 1 144 5 view .LVU107
 357 0066 0195     		str	r5, [sp, #4]
ARM GAS  /tmp/ccYbc8yH.s 			page 12


 144:./Core/Src/i2c.c **** 
 358              		.loc 1 144 5 view .LVU108
 359 0068 336C     		ldr	r3, [r6, #64]
 360 006a 43F40013 		orr	r3, r3, #2097152
 361 006e 3364     		str	r3, [r6, #64]
 144:./Core/Src/i2c.c **** 
 362              		.loc 1 144 5 view .LVU109
 363 0070 336C     		ldr	r3, [r6, #64]
 364 0072 03F40013 		and	r3, r3, #2097152
 365 0076 0193     		str	r3, [sp, #4]
 144:./Core/Src/i2c.c **** 
 366              		.loc 1 144 5 view .LVU110
 367 0078 019B     		ldr	r3, [sp, #4]
 368              	.LBE3:
 144:./Core/Src/i2c.c **** 
 369              		.loc 1 144 5 view .LVU111
 148:./Core/Src/i2c.c ****     hdma_i2c1_rx.Init.Channel = DMA_CHANNEL_1;
 370              		.loc 1 148 5 view .LVU112
 148:./Core/Src/i2c.c ****     hdma_i2c1_rx.Init.Channel = DMA_CHANNEL_1;
 371              		.loc 1 148 27 is_stmt 0 view .LVU113
 372 007a 6048     		ldr	r0, .L31+20
 373 007c 604B     		ldr	r3, .L31+24
 374 007e 0360     		str	r3, [r0]
 149:./Core/Src/i2c.c ****     hdma_i2c1_rx.Init.Direction = DMA_PERIPH_TO_MEMORY;
 375              		.loc 1 149 5 is_stmt 1 view .LVU114
 149:./Core/Src/i2c.c ****     hdma_i2c1_rx.Init.Direction = DMA_PERIPH_TO_MEMORY;
 376              		.loc 1 149 31 is_stmt 0 view .LVU115
 377 0080 4FF00073 		mov	r3, #33554432
 378 0084 4360     		str	r3, [r0, #4]
 150:./Core/Src/i2c.c ****     hdma_i2c1_rx.Init.PeriphInc = DMA_PINC_DISABLE;
 379              		.loc 1 150 5 is_stmt 1 view .LVU116
 150:./Core/Src/i2c.c ****     hdma_i2c1_rx.Init.PeriphInc = DMA_PINC_DISABLE;
 380              		.loc 1 150 33 is_stmt 0 view .LVU117
 381 0086 8560     		str	r5, [r0, #8]
 151:./Core/Src/i2c.c ****     hdma_i2c1_rx.Init.MemInc = DMA_MINC_ENABLE;
 382              		.loc 1 151 5 is_stmt 1 view .LVU118
 151:./Core/Src/i2c.c ****     hdma_i2c1_rx.Init.MemInc = DMA_MINC_ENABLE;
 383              		.loc 1 151 33 is_stmt 0 view .LVU119
 384 0088 C560     		str	r5, [r0, #12]
 152:./Core/Src/i2c.c ****     hdma_i2c1_rx.Init.PeriphDataAlignment = DMA_PDATAALIGN_BYTE;
 385              		.loc 1 152 5 is_stmt 1 view .LVU120
 152:./Core/Src/i2c.c ****     hdma_i2c1_rx.Init.PeriphDataAlignment = DMA_PDATAALIGN_BYTE;
 386              		.loc 1 152 30 is_stmt 0 view .LVU121
 387 008a 4FF48063 		mov	r3, #1024
 388 008e 0361     		str	r3, [r0, #16]
 153:./Core/Src/i2c.c ****     hdma_i2c1_rx.Init.MemDataAlignment = DMA_MDATAALIGN_BYTE;
 389              		.loc 1 153 5 is_stmt 1 view .LVU122
 153:./Core/Src/i2c.c ****     hdma_i2c1_rx.Init.MemDataAlignment = DMA_MDATAALIGN_BYTE;
 390              		.loc 1 153 43 is_stmt 0 view .LVU123
 391 0090 4561     		str	r5, [r0, #20]
 154:./Core/Src/i2c.c ****     hdma_i2c1_rx.Init.Mode = DMA_NORMAL;
 392              		.loc 1 154 5 is_stmt 1 view .LVU124
 154:./Core/Src/i2c.c ****     hdma_i2c1_rx.Init.Mode = DMA_NORMAL;
 393              		.loc 1 154 40 is_stmt 0 view .LVU125
 394 0092 8561     		str	r5, [r0, #24]
 155:./Core/Src/i2c.c ****     hdma_i2c1_rx.Init.Priority = DMA_PRIORITY_LOW;
 395              		.loc 1 155 5 is_stmt 1 view .LVU126
ARM GAS  /tmp/ccYbc8yH.s 			page 13


 155:./Core/Src/i2c.c ****     hdma_i2c1_rx.Init.Priority = DMA_PRIORITY_LOW;
 396              		.loc 1 155 28 is_stmt 0 view .LVU127
 397 0094 C561     		str	r5, [r0, #28]
 156:./Core/Src/i2c.c ****     hdma_i2c1_rx.Init.FIFOMode = DMA_FIFOMODE_DISABLE;
 398              		.loc 1 156 5 is_stmt 1 view .LVU128
 156:./Core/Src/i2c.c ****     hdma_i2c1_rx.Init.FIFOMode = DMA_FIFOMODE_DISABLE;
 399              		.loc 1 156 32 is_stmt 0 view .LVU129
 400 0096 0562     		str	r5, [r0, #32]
 157:./Core/Src/i2c.c ****     if (HAL_DMA_Init(&hdma_i2c1_rx) != HAL_OK)
 401              		.loc 1 157 5 is_stmt 1 view .LVU130
 157:./Core/Src/i2c.c ****     if (HAL_DMA_Init(&hdma_i2c1_rx) != HAL_OK)
 402              		.loc 1 157 32 is_stmt 0 view .LVU131
 403 0098 4562     		str	r5, [r0, #36]
 158:./Core/Src/i2c.c ****     {
 404              		.loc 1 158 5 is_stmt 1 view .LVU132
 158:./Core/Src/i2c.c ****     {
 405              		.loc 1 158 9 is_stmt 0 view .LVU133
 406 009a FFF7FEFF 		bl	HAL_DMA_Init
 407              	.LVL11:
 158:./Core/Src/i2c.c ****     {
 408              		.loc 1 158 8 discriminator 1 view .LVU134
 409 009e 58BB     		cbnz	r0, .L29
 410              	.L21:
 163:./Core/Src/i2c.c **** 
 411              		.loc 1 163 5 is_stmt 1 view .LVU135
 163:./Core/Src/i2c.c **** 
 412              		.loc 1 163 5 view .LVU136
 413 00a0 564B     		ldr	r3, .L31+20
 414 00a2 A363     		str	r3, [r4, #56]
 163:./Core/Src/i2c.c **** 
 415              		.loc 1 163 5 view .LVU137
 416 00a4 9C63     		str	r4, [r3, #56]
 163:./Core/Src/i2c.c **** 
 417              		.loc 1 163 5 view .LVU138
 166:./Core/Src/i2c.c ****     hdma_i2c1_tx.Init.Channel = DMA_CHANNEL_1;
 418              		.loc 1 166 5 view .LVU139
 166:./Core/Src/i2c.c ****     hdma_i2c1_tx.Init.Channel = DMA_CHANNEL_1;
 419              		.loc 1 166 27 is_stmt 0 view .LVU140
 420 00a6 5748     		ldr	r0, .L31+28
 421 00a8 574B     		ldr	r3, .L31+32
 422 00aa 0360     		str	r3, [r0]
 167:./Core/Src/i2c.c ****     hdma_i2c1_tx.Init.Direction = DMA_MEMORY_TO_PERIPH;
 423              		.loc 1 167 5 is_stmt 1 view .LVU141
 167:./Core/Src/i2c.c ****     hdma_i2c1_tx.Init.Direction = DMA_MEMORY_TO_PERIPH;
 424              		.loc 1 167 31 is_stmt 0 view .LVU142
 425 00ac 4FF00073 		mov	r3, #33554432
 426 00b0 4360     		str	r3, [r0, #4]
 168:./Core/Src/i2c.c ****     hdma_i2c1_tx.Init.PeriphInc = DMA_PINC_DISABLE;
 427              		.loc 1 168 5 is_stmt 1 view .LVU143
 168:./Core/Src/i2c.c ****     hdma_i2c1_tx.Init.PeriphInc = DMA_PINC_DISABLE;
 428              		.loc 1 168 33 is_stmt 0 view .LVU144
 429 00b2 4023     		movs	r3, #64
 430 00b4 8360     		str	r3, [r0, #8]
 169:./Core/Src/i2c.c ****     hdma_i2c1_tx.Init.MemInc = DMA_MINC_ENABLE;
 431              		.loc 1 169 5 is_stmt 1 view .LVU145
 169:./Core/Src/i2c.c ****     hdma_i2c1_tx.Init.MemInc = DMA_MINC_ENABLE;
 432              		.loc 1 169 33 is_stmt 0 view .LVU146
ARM GAS  /tmp/ccYbc8yH.s 			page 14


 433 00b6 0023     		movs	r3, #0
 434 00b8 C360     		str	r3, [r0, #12]
 170:./Core/Src/i2c.c ****     hdma_i2c1_tx.Init.PeriphDataAlignment = DMA_PDATAALIGN_BYTE;
 435              		.loc 1 170 5 is_stmt 1 view .LVU147
 170:./Core/Src/i2c.c ****     hdma_i2c1_tx.Init.PeriphDataAlignment = DMA_PDATAALIGN_BYTE;
 436              		.loc 1 170 30 is_stmt 0 view .LVU148
 437 00ba 4FF48062 		mov	r2, #1024
 438 00be 0261     		str	r2, [r0, #16]
 171:./Core/Src/i2c.c ****     hdma_i2c1_tx.Init.MemDataAlignment = DMA_MDATAALIGN_BYTE;
 439              		.loc 1 171 5 is_stmt 1 view .LVU149
 171:./Core/Src/i2c.c ****     hdma_i2c1_tx.Init.MemDataAlignment = DMA_MDATAALIGN_BYTE;
 440              		.loc 1 171 43 is_stmt 0 view .LVU150
 441 00c0 4361     		str	r3, [r0, #20]
 172:./Core/Src/i2c.c ****     hdma_i2c1_tx.Init.Mode = DMA_NORMAL;
 442              		.loc 1 172 5 is_stmt 1 view .LVU151
 172:./Core/Src/i2c.c ****     hdma_i2c1_tx.Init.Mode = DMA_NORMAL;
 443              		.loc 1 172 40 is_stmt 0 view .LVU152
 444 00c2 8361     		str	r3, [r0, #24]
 173:./Core/Src/i2c.c ****     hdma_i2c1_tx.Init.Priority = DMA_PRIORITY_LOW;
 445              		.loc 1 173 5 is_stmt 1 view .LVU153
 173:./Core/Src/i2c.c ****     hdma_i2c1_tx.Init.Priority = DMA_PRIORITY_LOW;
 446              		.loc 1 173 28 is_stmt 0 view .LVU154
 447 00c4 C361     		str	r3, [r0, #28]
 174:./Core/Src/i2c.c ****     hdma_i2c1_tx.Init.FIFOMode = DMA_FIFOMODE_DISABLE;
 448              		.loc 1 174 5 is_stmt 1 view .LVU155
 174:./Core/Src/i2c.c ****     hdma_i2c1_tx.Init.FIFOMode = DMA_FIFOMODE_DISABLE;
 449              		.loc 1 174 32 is_stmt 0 view .LVU156
 450 00c6 0362     		str	r3, [r0, #32]
 175:./Core/Src/i2c.c ****     if (HAL_DMA_Init(&hdma_i2c1_tx) != HAL_OK)
 451              		.loc 1 175 5 is_stmt 1 view .LVU157
 175:./Core/Src/i2c.c ****     if (HAL_DMA_Init(&hdma_i2c1_tx) != HAL_OK)
 452              		.loc 1 175 32 is_stmt 0 view .LVU158
 453 00c8 4362     		str	r3, [r0, #36]
 176:./Core/Src/i2c.c ****     {
 454              		.loc 1 176 5 is_stmt 1 view .LVU159
 176:./Core/Src/i2c.c ****     {
 455              		.loc 1 176 9 is_stmt 0 view .LVU160
 456 00ca FFF7FEFF 		bl	HAL_DMA_Init
 457              	.LVL12:
 176:./Core/Src/i2c.c ****     {
 458              		.loc 1 176 8 discriminator 1 view .LVU161
 459 00ce B0B9     		cbnz	r0, .L30
 460              	.L22:
 181:./Core/Src/i2c.c **** 
 461              		.loc 1 181 5 is_stmt 1 view .LVU162
 181:./Core/Src/i2c.c **** 
 462              		.loc 1 181 5 view .LVU163
 463 00d0 4C4B     		ldr	r3, .L31+28
 464 00d2 6363     		str	r3, [r4, #52]
 181:./Core/Src/i2c.c **** 
 465              		.loc 1 181 5 view .LVU164
 466 00d4 9C63     		str	r4, [r3, #56]
 181:./Core/Src/i2c.c **** 
 467              		.loc 1 181 5 view .LVU165
 184:./Core/Src/i2c.c ****     HAL_NVIC_EnableIRQ(I2C1_EV_IRQn);
 468              		.loc 1 184 5 view .LVU166
 469 00d6 0022     		movs	r2, #0
ARM GAS  /tmp/ccYbc8yH.s 			page 15


 470 00d8 1146     		mov	r1, r2
 471 00da 1F20     		movs	r0, #31
 472 00dc FFF7FEFF 		bl	HAL_NVIC_SetPriority
 473              	.LVL13:
 185:./Core/Src/i2c.c ****     HAL_NVIC_SetPriority(I2C1_ER_IRQn, 0, 0);
 474              		.loc 1 185 5 view .LVU167
 475 00e0 1F20     		movs	r0, #31
 476 00e2 FFF7FEFF 		bl	HAL_NVIC_EnableIRQ
 477              	.LVL14:
 186:./Core/Src/i2c.c ****     HAL_NVIC_EnableIRQ(I2C1_ER_IRQn);
 478              		.loc 1 186 5 view .LVU168
 479 00e6 0022     		movs	r2, #0
 480 00e8 1146     		mov	r1, r2
 481 00ea 2020     		movs	r0, #32
 482 00ec FFF7FEFF 		bl	HAL_NVIC_SetPriority
 483              	.LVL15:
 187:./Core/Src/i2c.c ****   /* USER CODE BEGIN I2C1_MspInit 1 */
 484              		.loc 1 187 5 view .LVU169
 485 00f0 2020     		movs	r0, #32
 486 00f2 FFF7FEFF 		bl	HAL_NVIC_EnableIRQ
 487              	.LVL16:
 488 00f6 97E7     		b	.L19
 489              	.L29:
 160:./Core/Src/i2c.c ****     }
 490              		.loc 1 160 7 view .LVU170
 491 00f8 FFF7FEFF 		bl	Error_Handler
 492              	.LVL17:
 493 00fc D0E7     		b	.L21
 494              	.L30:
 178:./Core/Src/i2c.c ****     }
 495              		.loc 1 178 7 view .LVU171
 496 00fe FFF7FEFF 		bl	Error_Handler
 497              	.LVL18:
 498 0102 E5E7     		b	.L22
 499              	.LVL19:
 500              	.L27:
 198:./Core/Src/i2c.c ****     /**I2C2 GPIO Configuration
 501              		.loc 1 198 5 view .LVU172
 502              	.LBB4:
 198:./Core/Src/i2c.c ****     /**I2C2 GPIO Configuration
 503              		.loc 1 198 5 view .LVU173
 504 0104 0024     		movs	r4, #0
 505 0106 0294     		str	r4, [sp, #8]
 198:./Core/Src/i2c.c ****     /**I2C2 GPIO Configuration
 506              		.loc 1 198 5 view .LVU174
 507 0108 3A4D     		ldr	r5, .L31+12
 508 010a 2B6B     		ldr	r3, [r5, #48]
 509 010c 43F00203 		orr	r3, r3, #2
 510 0110 2B63     		str	r3, [r5, #48]
 198:./Core/Src/i2c.c ****     /**I2C2 GPIO Configuration
 511              		.loc 1 198 5 view .LVU175
 512 0112 2B6B     		ldr	r3, [r5, #48]
 513 0114 03F00203 		and	r3, r3, #2
 514 0118 0293     		str	r3, [sp, #8]
 198:./Core/Src/i2c.c ****     /**I2C2 GPIO Configuration
 515              		.loc 1 198 5 view .LVU176
 516 011a 029B     		ldr	r3, [sp, #8]
ARM GAS  /tmp/ccYbc8yH.s 			page 16


 517              	.LBE4:
 198:./Core/Src/i2c.c ****     /**I2C2 GPIO Configuration
 518              		.loc 1 198 5 view .LVU177
 203:./Core/Src/i2c.c ****     GPIO_InitStruct.Mode = GPIO_MODE_AF_OD;
 519              		.loc 1 203 5 view .LVU178
 203:./Core/Src/i2c.c ****     GPIO_InitStruct.Mode = GPIO_MODE_AF_OD;
 520              		.loc 1 203 25 is_stmt 0 view .LVU179
 521 011c 4FF44063 		mov	r3, #3072
 522 0120 0793     		str	r3, [sp, #28]
 204:./Core/Src/i2c.c ****     GPIO_InitStruct.Pull = GPIO_PULLUP;
 523              		.loc 1 204 5 is_stmt 1 view .LVU180
 204:./Core/Src/i2c.c ****     GPIO_InitStruct.Pull = GPIO_PULLUP;
 524              		.loc 1 204 26 is_stmt 0 view .LVU181
 525 0122 1223     		movs	r3, #18
 526 0124 0893     		str	r3, [sp, #32]
 205:./Core/Src/i2c.c ****     GPIO_InitStruct.Speed = GPIO_SPEED_FREQ_VERY_HIGH;
 527              		.loc 1 205 5 is_stmt 1 view .LVU182
 205:./Core/Src/i2c.c ****     GPIO_InitStruct.Speed = GPIO_SPEED_FREQ_VERY_HIGH;
 528              		.loc 1 205 26 is_stmt 0 view .LVU183
 529 0126 0123     		movs	r3, #1
 530 0128 0993     		str	r3, [sp, #36]
 206:./Core/Src/i2c.c ****     GPIO_InitStruct.Alternate = GPIO_AF4_I2C2;
 531              		.loc 1 206 5 is_stmt 1 view .LVU184
 206:./Core/Src/i2c.c ****     GPIO_InitStruct.Alternate = GPIO_AF4_I2C2;
 532              		.loc 1 206 27 is_stmt 0 view .LVU185
 533 012a 0323     		movs	r3, #3
 534 012c 0A93     		str	r3, [sp, #40]
 207:./Core/Src/i2c.c ****     HAL_GPIO_Init(GPIOB, &GPIO_InitStruct);
 535              		.loc 1 207 5 is_stmt 1 view .LVU186
 207:./Core/Src/i2c.c ****     HAL_GPIO_Init(GPIOB, &GPIO_InitStruct);
 536              		.loc 1 207 31 is_stmt 0 view .LVU187
 537 012e 0423     		movs	r3, #4
 538 0130 0B93     		str	r3, [sp, #44]
 208:./Core/Src/i2c.c **** 
 539              		.loc 1 208 5 is_stmt 1 view .LVU188
 540 0132 07A9     		add	r1, sp, #28
 541 0134 3048     		ldr	r0, .L31+16
 542              	.LVL20:
 208:./Core/Src/i2c.c **** 
 543              		.loc 1 208 5 is_stmt 0 view .LVU189
 544 0136 FFF7FEFF 		bl	HAL_GPIO_Init
 545              	.LVL21:
 211:./Core/Src/i2c.c **** 
 546              		.loc 1 211 5 is_stmt 1 view .LVU190
 547              	.LBB5:
 211:./Core/Src/i2c.c **** 
 548              		.loc 1 211 5 view .LVU191
 549 013a 0394     		str	r4, [sp, #12]
 211:./Core/Src/i2c.c **** 
 550              		.loc 1 211 5 view .LVU192
 551 013c 2B6C     		ldr	r3, [r5, #64]
 552 013e 43F48003 		orr	r3, r3, #4194304
 553 0142 2B64     		str	r3, [r5, #64]
 211:./Core/Src/i2c.c **** 
 554              		.loc 1 211 5 view .LVU193
 555 0144 2B6C     		ldr	r3, [r5, #64]
 556 0146 03F48003 		and	r3, r3, #4194304
ARM GAS  /tmp/ccYbc8yH.s 			page 17


 557 014a 0393     		str	r3, [sp, #12]
 211:./Core/Src/i2c.c **** 
 558              		.loc 1 211 5 view .LVU194
 559 014c 039B     		ldr	r3, [sp, #12]
 560              	.LBE5:
 211:./Core/Src/i2c.c **** 
 561              		.loc 1 211 5 view .LVU195
 214:./Core/Src/i2c.c ****     HAL_NVIC_EnableIRQ(I2C2_EV_IRQn);
 562              		.loc 1 214 5 view .LVU196
 563 014e 2246     		mov	r2, r4
 564 0150 2146     		mov	r1, r4
 565 0152 2120     		movs	r0, #33
 566 0154 FFF7FEFF 		bl	HAL_NVIC_SetPriority
 567              	.LVL22:
 215:./Core/Src/i2c.c ****     HAL_NVIC_SetPriority(I2C2_ER_IRQn, 0, 0);
 568              		.loc 1 215 5 view .LVU197
 569 0158 2120     		movs	r0, #33
 570 015a FFF7FEFF 		bl	HAL_NVIC_EnableIRQ
 571              	.LVL23:
 216:./Core/Src/i2c.c ****     HAL_NVIC_EnableIRQ(I2C2_ER_IRQn);
 572              		.loc 1 216 5 view .LVU198
 573 015e 2246     		mov	r2, r4
 574 0160 2146     		mov	r1, r4
 575 0162 2220     		movs	r0, #34
 576 0164 FFF7FEFF 		bl	HAL_NVIC_SetPriority
 577              	.LVL24:
 217:./Core/Src/i2c.c ****   /* USER CODE BEGIN I2C2_MspInit 1 */
 578              		.loc 1 217 5 view .LVU199
 579 0168 2220     		movs	r0, #34
 580 016a FFF7FEFF 		bl	HAL_NVIC_EnableIRQ
 581              	.LVL25:
 582 016e 5BE7     		b	.L19
 583              	.LVL26:
 584              	.L28:
 228:./Core/Src/i2c.c ****     __HAL_RCC_GPIOA_CLK_ENABLE();
 585              		.loc 1 228 5 view .LVU200
 586              	.LBB6:
 228:./Core/Src/i2c.c ****     __HAL_RCC_GPIOA_CLK_ENABLE();
 587              		.loc 1 228 5 view .LVU201
 588 0170 0025     		movs	r5, #0
 589 0172 0495     		str	r5, [sp, #16]
 228:./Core/Src/i2c.c ****     __HAL_RCC_GPIOA_CLK_ENABLE();
 590              		.loc 1 228 5 view .LVU202
 591 0174 1F4C     		ldr	r4, .L31+12
 592 0176 236B     		ldr	r3, [r4, #48]
 593 0178 43F00403 		orr	r3, r3, #4
 594 017c 2363     		str	r3, [r4, #48]
 228:./Core/Src/i2c.c ****     __HAL_RCC_GPIOA_CLK_ENABLE();
 595              		.loc 1 228 5 view .LVU203
 596 017e 236B     		ldr	r3, [r4, #48]
 597 0180 03F00403 		and	r3, r3, #4
 598 0184 0493     		str	r3, [sp, #16]
 228:./Core/Src/i2c.c ****     __HAL_RCC_GPIOA_CLK_ENABLE();
 599              		.loc 1 228 5 view .LVU204
 600 0186 049B     		ldr	r3, [sp, #16]
 601              	.LBE6:
 228:./Core/Src/i2c.c ****     __HAL_RCC_GPIOA_CLK_ENABLE();
ARM GAS  /tmp/ccYbc8yH.s 			page 18


 602              		.loc 1 228 5 view .LVU205
 229:./Core/Src/i2c.c ****     /**I2C3 GPIO Configuration
 603              		.loc 1 229 5 view .LVU206
 604              	.LBB7:
 229:./Core/Src/i2c.c ****     /**I2C3 GPIO Configuration
 605              		.loc 1 229 5 view .LVU207
 606 0188 0595     		str	r5, [sp, #20]
 229:./Core/Src/i2c.c ****     /**I2C3 GPIO Configuration
 607              		.loc 1 229 5 view .LVU208
 608 018a 236B     		ldr	r3, [r4, #48]
 609 018c 43F00103 		orr	r3, r3, #1
 610 0190 2363     		str	r3, [r4, #48]
 229:./Core/Src/i2c.c ****     /**I2C3 GPIO Configuration
 611              		.loc 1 229 5 view .LVU209
 612 0192 236B     		ldr	r3, [r4, #48]
 613 0194 03F00103 		and	r3, r3, #1
 614 0198 0593     		str	r3, [sp, #20]
 229:./Core/Src/i2c.c ****     /**I2C3 GPIO Configuration
 615              		.loc 1 229 5 view .LVU210
 616 019a 059B     		ldr	r3, [sp, #20]
 617              	.LBE7:
 229:./Core/Src/i2c.c ****     /**I2C3 GPIO Configuration
 618              		.loc 1 229 5 view .LVU211
 234:./Core/Src/i2c.c ****     GPIO_InitStruct.Mode = GPIO_MODE_AF_OD;
 619              		.loc 1 234 5 view .LVU212
 234:./Core/Src/i2c.c ****     GPIO_InitStruct.Mode = GPIO_MODE_AF_OD;
 620              		.loc 1 234 25 is_stmt 0 view .LVU213
 621 019c 4FF40073 		mov	r3, #512
 622 01a0 0793     		str	r3, [sp, #28]
 235:./Core/Src/i2c.c ****     GPIO_InitStruct.Pull = GPIO_NOPULL;
 623              		.loc 1 235 5 is_stmt 1 view .LVU214
 235:./Core/Src/i2c.c ****     GPIO_InitStruct.Pull = GPIO_NOPULL;
 624              		.loc 1 235 26 is_stmt 0 view .LVU215
 625 01a2 4FF01208 		mov	r8, #18
 626 01a6 CDF82080 		str	r8, [sp, #32]
 236:./Core/Src/i2c.c ****     GPIO_InitStruct.Speed = GPIO_SPEED_FREQ_VERY_HIGH;
 627              		.loc 1 236 5 is_stmt 1 view .LVU216
 237:./Core/Src/i2c.c ****     GPIO_InitStruct.Alternate = GPIO_AF4_I2C3;
 628              		.loc 1 237 5 view .LVU217
 237:./Core/Src/i2c.c ****     GPIO_InitStruct.Alternate = GPIO_AF4_I2C3;
 629              		.loc 1 237 27 is_stmt 0 view .LVU218
 630 01aa 0327     		movs	r7, #3
 631 01ac 0A97     		str	r7, [sp, #40]
 238:./Core/Src/i2c.c ****     HAL_GPIO_Init(GPIOC, &GPIO_InitStruct);
 632              		.loc 1 238 5 is_stmt 1 view .LVU219
 238:./Core/Src/i2c.c ****     HAL_GPIO_Init(GPIOC, &GPIO_InitStruct);
 633              		.loc 1 238 31 is_stmt 0 view .LVU220
 634 01ae 0426     		movs	r6, #4
 635 01b0 0B96     		str	r6, [sp, #44]
 239:./Core/Src/i2c.c **** 
 636              		.loc 1 239 5 is_stmt 1 view .LVU221
 637 01b2 07A9     		add	r1, sp, #28
 638 01b4 1548     		ldr	r0, .L31+36
 639              	.LVL27:
 239:./Core/Src/i2c.c **** 
 640              		.loc 1 239 5 is_stmt 0 view .LVU222
 641 01b6 FFF7FEFF 		bl	HAL_GPIO_Init
ARM GAS  /tmp/ccYbc8yH.s 			page 19


 642              	.LVL28:
 241:./Core/Src/i2c.c ****     GPIO_InitStruct.Mode = GPIO_MODE_AF_OD;
 643              		.loc 1 241 5 is_stmt 1 view .LVU223
 241:./Core/Src/i2c.c ****     GPIO_InitStruct.Mode = GPIO_MODE_AF_OD;
 644              		.loc 1 241 25 is_stmt 0 view .LVU224
 645 01ba 4FF48073 		mov	r3, #256
 646 01be 0793     		str	r3, [sp, #28]
 242:./Core/Src/i2c.c ****     GPIO_InitStruct.Pull = GPIO_NOPULL;
 647              		.loc 1 242 5 is_stmt 1 view .LVU225
 242:./Core/Src/i2c.c ****     GPIO_InitStruct.Pull = GPIO_NOPULL;
 648              		.loc 1 242 26 is_stmt 0 view .LVU226
 649 01c0 CDF82080 		str	r8, [sp, #32]
 243:./Core/Src/i2c.c ****     GPIO_InitStruct.Speed = GPIO_SPEED_FREQ_VERY_HIGH;
 650              		.loc 1 243 5 is_stmt 1 view .LVU227
 243:./Core/Src/i2c.c ****     GPIO_InitStruct.Speed = GPIO_SPEED_FREQ_VERY_HIGH;
 651              		.loc 1 243 26 is_stmt 0 view .LVU228
 652 01c4 0995     		str	r5, [sp, #36]
 244:./Core/Src/i2c.c ****     GPIO_InitStruct.Alternate = GPIO_AF4_I2C3;
 653              		.loc 1 244 5 is_stmt 1 view .LVU229
 244:./Core/Src/i2c.c ****     GPIO_InitStruct.Alternate = GPIO_AF4_I2C3;
 654              		.loc 1 244 27 is_stmt 0 view .LVU230
 655 01c6 0A97     		str	r7, [sp, #40]
 245:./Core/Src/i2c.c ****     HAL_GPIO_Init(GPIOA, &GPIO_InitStruct);
 656              		.loc 1 245 5 is_stmt 1 view .LVU231
 245:./Core/Src/i2c.c ****     HAL_GPIO_Init(GPIOA, &GPIO_InitStruct);
 657              		.loc 1 245 31 is_stmt 0 view .LVU232
 658 01c8 0B96     		str	r6, [sp, #44]
 246:./Core/Src/i2c.c **** 
 659              		.loc 1 246 5 is_stmt 1 view .LVU233
 660 01ca 07A9     		add	r1, sp, #28
 661 01cc 1048     		ldr	r0, .L31+40
 662 01ce FFF7FEFF 		bl	HAL_GPIO_Init
 663              	.LVL29:
 249:./Core/Src/i2c.c ****   /* USER CODE BEGIN I2C3_MspInit 1 */
 664              		.loc 1 249 5 view .LVU234
 665              	.LBB8:
 249:./Core/Src/i2c.c ****   /* USER CODE BEGIN I2C3_MspInit 1 */
 666              		.loc 1 249 5 view .LVU235
 667 01d2 0695     		str	r5, [sp, #24]
 249:./Core/Src/i2c.c ****   /* USER CODE BEGIN I2C3_MspInit 1 */
 668              		.loc 1 249 5 view .LVU236
 669 01d4 236C     		ldr	r3, [r4, #64]
 670 01d6 43F40003 		orr	r3, r3, #8388608
 671 01da 2364     		str	r3, [r4, #64]
 249:./Core/Src/i2c.c ****   /* USER CODE BEGIN I2C3_MspInit 1 */
 672              		.loc 1 249 5 view .LVU237
 673 01dc 236C     		ldr	r3, [r4, #64]
 674 01de 03F40003 		and	r3, r3, #8388608
 675 01e2 0693     		str	r3, [sp, #24]
 249:./Core/Src/i2c.c ****   /* USER CODE BEGIN I2C3_MspInit 1 */
 676              		.loc 1 249 5 view .LVU238
 677 01e4 069B     		ldr	r3, [sp, #24]
 678              	.LBE8:
 249:./Core/Src/i2c.c ****   /* USER CODE BEGIN I2C3_MspInit 1 */
 679              		.loc 1 249 5 discriminator 1 view .LVU239
 680              		.loc 1 254 1 is_stmt 0 view .LVU240
 681 01e6 1FE7     		b	.L19
ARM GAS  /tmp/ccYbc8yH.s 			page 20


 682              	.L32:
 683              		.align	2
 684              	.L31:
 685 01e8 00540040 		.word	1073763328
 686 01ec 00580040 		.word	1073764352
 687 01f0 005C0040 		.word	1073765376
 688 01f4 00380240 		.word	1073887232
 689 01f8 00040240 		.word	1073873920
 690 01fc 00000000 		.word	hdma_i2c1_rx
 691 0200 10600240 		.word	1073897488
 692 0204 00000000 		.word	hdma_i2c1_tx
 693 0208 B8600240 		.word	1073897656
 694 020c 00080240 		.word	1073874944
 695 0210 00000240 		.word	1073872896
 696              		.cfi_endproc
 697              	.LFE242:
 699              		.section	.text.HAL_I2C_MspDeInit,"ax",%progbits
 700              		.align	1
 701              		.global	HAL_I2C_MspDeInit
 702              		.syntax unified
 703              		.thumb
 704              		.thumb_func
 706              	HAL_I2C_MspDeInit:
 707              	.LVL30:
 708              	.LFB243:
 255:./Core/Src/i2c.c **** 
 256:./Core/Src/i2c.c **** void HAL_I2C_MspDeInit(I2C_HandleTypeDef* i2cHandle)
 257:./Core/Src/i2c.c **** {
 709              		.loc 1 257 1 is_stmt 1 view -0
 710              		.cfi_startproc
 711              		@ args = 0, pretend = 0, frame = 0
 712              		@ frame_needed = 0, uses_anonymous_args = 0
 713              		.loc 1 257 1 is_stmt 0 view .LVU242
 714 0000 38B5     		push	{r3, r4, r5, lr}
 715              	.LCFI7:
 716              		.cfi_def_cfa_offset 16
 717              		.cfi_offset 3, -16
 718              		.cfi_offset 4, -12
 719              		.cfi_offset 5, -8
 720              		.cfi_offset 14, -4
 258:./Core/Src/i2c.c **** 
 259:./Core/Src/i2c.c ****   if(i2cHandle->Instance==I2C1)
 721              		.loc 1 259 3 is_stmt 1 view .LVU243
 722              		.loc 1 259 15 is_stmt 0 view .LVU244
 723 0002 0368     		ldr	r3, [r0]
 724              		.loc 1 259 5 view .LVU245
 725 0004 284A     		ldr	r2, .L41
 726 0006 9342     		cmp	r3, r2
 727 0008 06D0     		beq	.L38
 260:./Core/Src/i2c.c ****   {
 261:./Core/Src/i2c.c ****   /* USER CODE BEGIN I2C1_MspDeInit 0 */
 262:./Core/Src/i2c.c **** 
 263:./Core/Src/i2c.c ****   /* USER CODE END I2C1_MspDeInit 0 */
 264:./Core/Src/i2c.c ****     /* Peripheral clock disable */
 265:./Core/Src/i2c.c ****     __HAL_RCC_I2C1_CLK_DISABLE();
 266:./Core/Src/i2c.c **** 
 267:./Core/Src/i2c.c ****     /**I2C1 GPIO Configuration
ARM GAS  /tmp/ccYbc8yH.s 			page 21


 268:./Core/Src/i2c.c ****     PB8     ------> I2C1_SCL
 269:./Core/Src/i2c.c ****     PB9     ------> I2C1_SDA
 270:./Core/Src/i2c.c ****     */
 271:./Core/Src/i2c.c ****     HAL_GPIO_DeInit(GPIOB, GPIO_PIN_8);
 272:./Core/Src/i2c.c **** 
 273:./Core/Src/i2c.c ****     HAL_GPIO_DeInit(GPIOB, GPIO_PIN_9);
 274:./Core/Src/i2c.c **** 
 275:./Core/Src/i2c.c ****     /* I2C1 DMA DeInit */
 276:./Core/Src/i2c.c ****     HAL_DMA_DeInit(i2cHandle->hdmarx);
 277:./Core/Src/i2c.c ****     HAL_DMA_DeInit(i2cHandle->hdmatx);
 278:./Core/Src/i2c.c **** 
 279:./Core/Src/i2c.c ****     /* I2C1 interrupt Deinit */
 280:./Core/Src/i2c.c ****     HAL_NVIC_DisableIRQ(I2C1_EV_IRQn);
 281:./Core/Src/i2c.c ****     HAL_NVIC_DisableIRQ(I2C1_ER_IRQn);
 282:./Core/Src/i2c.c ****   /* USER CODE BEGIN I2C1_MspDeInit 1 */
 283:./Core/Src/i2c.c **** 
 284:./Core/Src/i2c.c ****   /* USER CODE END I2C1_MspDeInit 1 */
 285:./Core/Src/i2c.c ****   }
 286:./Core/Src/i2c.c ****   else if(i2cHandle->Instance==I2C2)
 728              		.loc 1 286 8 is_stmt 1 view .LVU246
 729              		.loc 1 286 10 is_stmt 0 view .LVU247
 730 000a 284A     		ldr	r2, .L41+4
 731 000c 9342     		cmp	r3, r2
 732 000e 22D0     		beq	.L39
 287:./Core/Src/i2c.c ****   {
 288:./Core/Src/i2c.c ****   /* USER CODE BEGIN I2C2_MspDeInit 0 */
 289:./Core/Src/i2c.c **** 
 290:./Core/Src/i2c.c ****   /* USER CODE END I2C2_MspDeInit 0 */
 291:./Core/Src/i2c.c ****     /* Peripheral clock disable */
 292:./Core/Src/i2c.c ****     __HAL_RCC_I2C2_CLK_DISABLE();
 293:./Core/Src/i2c.c **** 
 294:./Core/Src/i2c.c ****     /**I2C2 GPIO Configuration
 295:./Core/Src/i2c.c ****     PB10     ------> I2C2_SCL
 296:./Core/Src/i2c.c ****     PB11     ------> I2C2_SDA
 297:./Core/Src/i2c.c ****     */
 298:./Core/Src/i2c.c ****     HAL_GPIO_DeInit(GPIOB, GPIO_PIN_10);
 299:./Core/Src/i2c.c **** 
 300:./Core/Src/i2c.c ****     HAL_GPIO_DeInit(GPIOB, GPIO_PIN_11);
 301:./Core/Src/i2c.c **** 
 302:./Core/Src/i2c.c ****     /* I2C2 interrupt Deinit */
 303:./Core/Src/i2c.c ****     HAL_NVIC_DisableIRQ(I2C2_EV_IRQn);
 304:./Core/Src/i2c.c ****     HAL_NVIC_DisableIRQ(I2C2_ER_IRQn);
 305:./Core/Src/i2c.c ****   /* USER CODE BEGIN I2C2_MspDeInit 1 */
 306:./Core/Src/i2c.c **** 
 307:./Core/Src/i2c.c ****   /* USER CODE END I2C2_MspDeInit 1 */
 308:./Core/Src/i2c.c ****   }
 309:./Core/Src/i2c.c ****   else if(i2cHandle->Instance==I2C3)
 733              		.loc 1 309 8 is_stmt 1 view .LVU248
 734              		.loc 1 309 10 is_stmt 0 view .LVU249
 735 0010 274A     		ldr	r2, .L41+8
 736 0012 9342     		cmp	r3, r2
 737 0014 37D0     		beq	.L40
 738              	.LVL31:
 739              	.L33:
 310:./Core/Src/i2c.c ****   {
 311:./Core/Src/i2c.c ****   /* USER CODE BEGIN I2C3_MspDeInit 0 */
 312:./Core/Src/i2c.c **** 
ARM GAS  /tmp/ccYbc8yH.s 			page 22


 313:./Core/Src/i2c.c ****   /* USER CODE END I2C3_MspDeInit 0 */
 314:./Core/Src/i2c.c ****     /* Peripheral clock disable */
 315:./Core/Src/i2c.c ****     __HAL_RCC_I2C3_CLK_DISABLE();
 316:./Core/Src/i2c.c **** 
 317:./Core/Src/i2c.c ****     /**I2C3 GPIO Configuration
 318:./Core/Src/i2c.c ****     PC9     ------> I2C3_SDA
 319:./Core/Src/i2c.c ****     PA8     ------> I2C3_SCL
 320:./Core/Src/i2c.c ****     */
 321:./Core/Src/i2c.c ****     HAL_GPIO_DeInit(GPIOC, GPIO_PIN_9);
 322:./Core/Src/i2c.c **** 
 323:./Core/Src/i2c.c ****     HAL_GPIO_DeInit(GPIOA, GPIO_PIN_8);
 324:./Core/Src/i2c.c **** 
 325:./Core/Src/i2c.c ****   /* USER CODE BEGIN I2C3_MspDeInit 1 */
 326:./Core/Src/i2c.c **** 
 327:./Core/Src/i2c.c ****   /* USER CODE END I2C3_MspDeInit 1 */
 328:./Core/Src/i2c.c ****   }
 329:./Core/Src/i2c.c **** }
 740              		.loc 1 329 1 view .LVU250
 741 0016 38BD     		pop	{r3, r4, r5, pc}
 742              	.LVL32:
 743              	.L38:
 744              		.loc 1 329 1 view .LVU251
 745 0018 0446     		mov	r4, r0
 265:./Core/Src/i2c.c **** 
 746              		.loc 1 265 5 is_stmt 1 view .LVU252
 747 001a 02F5F232 		add	r2, r2, #123904
 748 001e 136C     		ldr	r3, [r2, #64]
 749 0020 23F40013 		bic	r3, r3, #2097152
 750 0024 1364     		str	r3, [r2, #64]
 271:./Core/Src/i2c.c **** 
 751              		.loc 1 271 5 view .LVU253
 752 0026 234D     		ldr	r5, .L41+12
 753 0028 4FF48071 		mov	r1, #256
 754 002c 2846     		mov	r0, r5
 755              	.LVL33:
 271:./Core/Src/i2c.c **** 
 756              		.loc 1 271 5 is_stmt 0 view .LVU254
 757 002e FFF7FEFF 		bl	HAL_GPIO_DeInit
 758              	.LVL34:
 273:./Core/Src/i2c.c **** 
 759              		.loc 1 273 5 is_stmt 1 view .LVU255
 760 0032 4FF40071 		mov	r1, #512
 761 0036 2846     		mov	r0, r5
 762 0038 FFF7FEFF 		bl	HAL_GPIO_DeInit
 763              	.LVL35:
 276:./Core/Src/i2c.c ****     HAL_DMA_DeInit(i2cHandle->hdmatx);
 764              		.loc 1 276 5 view .LVU256
 765 003c A06B     		ldr	r0, [r4, #56]
 766 003e FFF7FEFF 		bl	HAL_DMA_DeInit
 767              	.LVL36:
 277:./Core/Src/i2c.c **** 
 768              		.loc 1 277 5 view .LVU257
 769 0042 606B     		ldr	r0, [r4, #52]
 770 0044 FFF7FEFF 		bl	HAL_DMA_DeInit
 771              	.LVL37:
 280:./Core/Src/i2c.c ****     HAL_NVIC_DisableIRQ(I2C1_ER_IRQn);
 772              		.loc 1 280 5 view .LVU258
ARM GAS  /tmp/ccYbc8yH.s 			page 23


 773 0048 1F20     		movs	r0, #31
 774 004a FFF7FEFF 		bl	HAL_NVIC_DisableIRQ
 775              	.LVL38:
 281:./Core/Src/i2c.c ****   /* USER CODE BEGIN I2C1_MspDeInit 1 */
 776              		.loc 1 281 5 view .LVU259
 777 004e 2020     		movs	r0, #32
 778 0050 FFF7FEFF 		bl	HAL_NVIC_DisableIRQ
 779              	.LVL39:
 780 0054 DFE7     		b	.L33
 781              	.LVL40:
 782              	.L39:
 292:./Core/Src/i2c.c **** 
 783              		.loc 1 292 5 view .LVU260
 784 0056 02F5F032 		add	r2, r2, #122880
 785 005a 136C     		ldr	r3, [r2, #64]
 786 005c 23F48003 		bic	r3, r3, #4194304
 787 0060 1364     		str	r3, [r2, #64]
 298:./Core/Src/i2c.c **** 
 788              		.loc 1 298 5 view .LVU261
 789 0062 144C     		ldr	r4, .L41+12
 790 0064 4FF48061 		mov	r1, #1024
 791 0068 2046     		mov	r0, r4
 792              	.LVL41:
 298:./Core/Src/i2c.c **** 
 793              		.loc 1 298 5 is_stmt 0 view .LVU262
 794 006a FFF7FEFF 		bl	HAL_GPIO_DeInit
 795              	.LVL42:
 300:./Core/Src/i2c.c **** 
 796              		.loc 1 300 5 is_stmt 1 view .LVU263
 797 006e 4FF40061 		mov	r1, #2048
 798 0072 2046     		mov	r0, r4
 799 0074 FFF7FEFF 		bl	HAL_GPIO_DeInit
 800              	.LVL43:
 303:./Core/Src/i2c.c ****     HAL_NVIC_DisableIRQ(I2C2_ER_IRQn);
 801              		.loc 1 303 5 view .LVU264
 802 0078 2120     		movs	r0, #33
 803 007a FFF7FEFF 		bl	HAL_NVIC_DisableIRQ
 804              	.LVL44:
 304:./Core/Src/i2c.c ****   /* USER CODE BEGIN I2C2_MspDeInit 1 */
 805              		.loc 1 304 5 view .LVU265
 806 007e 2220     		movs	r0, #34
 807 0080 FFF7FEFF 		bl	HAL_NVIC_DisableIRQ
 808              	.LVL45:
 809 0084 C7E7     		b	.L33
 810              	.LVL46:
 811              	.L40:
 315:./Core/Src/i2c.c **** 
 812              		.loc 1 315 5 view .LVU266
 813 0086 02F5EE32 		add	r2, r2, #121856
 814 008a 136C     		ldr	r3, [r2, #64]
 815 008c 23F40003 		bic	r3, r3, #8388608
 816 0090 1364     		str	r3, [r2, #64]
 321:./Core/Src/i2c.c **** 
 817              		.loc 1 321 5 view .LVU267
 818 0092 4FF40071 		mov	r1, #512
 819 0096 0848     		ldr	r0, .L41+16
 820              	.LVL47:
ARM GAS  /tmp/ccYbc8yH.s 			page 24


 321:./Core/Src/i2c.c **** 
 821              		.loc 1 321 5 is_stmt 0 view .LVU268
 822 0098 FFF7FEFF 		bl	HAL_GPIO_DeInit
 823              	.LVL48:
 323:./Core/Src/i2c.c **** 
 824              		.loc 1 323 5 is_stmt 1 view .LVU269
 825 009c 4FF48071 		mov	r1, #256
 826 00a0 0648     		ldr	r0, .L41+20
 827 00a2 FFF7FEFF 		bl	HAL_GPIO_DeInit
 828              	.LVL49:
 829              		.loc 1 329 1 is_stmt 0 view .LVU270
 830 00a6 B6E7     		b	.L33
 831              	.L42:
 832              		.align	2
 833              	.L41:
 834 00a8 00540040 		.word	1073763328
 835 00ac 00580040 		.word	1073764352
 836 00b0 005C0040 		.word	1073765376
 837 00b4 00040240 		.word	1073873920
 838 00b8 00080240 		.word	1073874944
 839 00bc 00000240 		.word	1073872896
 840              		.cfi_endproc
 841              	.LFE243:
 843              		.global	hdma_i2c1_tx
 844              		.section	.bss.hdma_i2c1_tx,"aw",%nobits
 845              		.align	2
 848              	hdma_i2c1_tx:
 849 0000 00000000 		.space	96
 849      00000000 
 849      00000000 
 849      00000000 
 849      00000000 
 850              		.global	hdma_i2c1_rx
 851              		.section	.bss.hdma_i2c1_rx,"aw",%nobits
 852              		.align	2
 855              	hdma_i2c1_rx:
 856 0000 00000000 		.space	96
 856      00000000 
 856      00000000 
 856      00000000 
 856      00000000 
 857              		.global	hi2c3
 858              		.section	.bss.hi2c3,"aw",%nobits
 859              		.align	2
 862              	hi2c3:
 863 0000 00000000 		.space	84
 863      00000000 
 863      00000000 
 863      00000000 
 863      00000000 
 864              		.global	hi2c2
 865              		.section	.bss.hi2c2,"aw",%nobits
 866              		.align	2
 869              	hi2c2:
 870 0000 00000000 		.space	84
 870      00000000 
 870      00000000 
ARM GAS  /tmp/ccYbc8yH.s 			page 25


 870      00000000 
 870      00000000 
 871              		.global	hi2c1
 872              		.section	.bss.hi2c1,"aw",%nobits
 873              		.align	2
 876              	hi2c1:
 877 0000 00000000 		.space	84
 877      00000000 
 877      00000000 
 877      00000000 
 877      00000000 
 878              		.text
 879              	.Letext0:
 880              		.file 2 "./Drivers/CMSIS/Device/ST/STM32F4xx/Include/stm32f407xx.h"
 881              		.file 3 "/usr/lib/gcc/arm-none-eabi/13.2.1/include/stdint.h"
 882              		.file 4 "./Drivers/STM32F4xx_HAL_Driver/Inc/stm32f4xx_hal_def.h"
 883              		.file 5 "./Drivers/STM32F4xx_HAL_Driver/Inc/stm32f4xx_hal_gpio.h"
 884              		.file 6 "./Drivers/STM32F4xx_HAL_Driver/Inc/stm32f4xx_hal_dma.h"
 885              		.file 7 "./Drivers/STM32F4xx_HAL_Driver/Inc/stm32f4xx_hal_i2c.h"
 886              		.file 8 "./Core/Inc/i2c.h"
 887              		.file 9 "./Drivers/STM32F4xx_HAL_Driver/Inc/stm32f4xx_hal_cortex.h"
 888              		.file 10 "./Core/Inc/main.h"
ARM GAS  /tmp/ccYbc8yH.s 			page 26

