ARM GAS  /tmp/ccjH8pbz.s 			page 1


   1              		.cpu cortex-m4
   2              		.eabi_attribute 27, 1
   3              		.eabi_attribute 28, 1
   4              		.eabi_attribute 20, 1
   5              		.eabi_attribute 21, 1
   6              		.eabi_attribute 23, 3
   7              		.eabi_attribute 24, 1
   8              		.eabi_attribute 25, 1
   9              		.eabi_attribute 26, 1
  10              		.eabi_attribute 30, 1
  11              		.eabi_attribute 34, 1
  12              		.eabi_attribute 18, 4
  13              		.file	"as5600.c"
  14              		.text
  15              	.Ltext0:
  16              		.cfi_sections	.debug_frame
  17              		.section	.rodata.Read_AS5600_Angle.str1.4,"aMS",%progbits,1
  18              		.align	2
  19              	.LC0:
  20 0000 416E676C 		.ascii	"Angle: %d  \015\012\000"
  20      653A2025 
  20      6420200D 
  20      0A00
  21              		.section	.text.Read_AS5600_Angle,"ax",%progbits
  22              		.align	1
  23              		.global	Read_AS5600_Angle
  24              		.arch armv7e-m
  25              		.syntax unified
  26              		.thumb
  27              		.thumb_func
  28              		.fpu fpv4-sp-d16
  30              	Read_AS5600_Angle:
  31              	.LVL0:
  32              	.LFB223:
  33              		.file 1 "usr/as5600.c"
   1:usr/as5600.c  **** #include "as5600.h"
   2:usr/as5600.c  **** 
   3:usr/as5600.c  **** 
   4:usr/as5600.c  **** 
   5:usr/as5600.c  **** 
   6:usr/as5600.c  **** uint16_t Read_AS5600_Angle(As5600_Sensor_Typedef* as5600) 
   7:usr/as5600.c  **** {
  34              		.loc 1 7 1 view -0
  35              		.cfi_startproc
  36              		@ args = 0, pretend = 0, frame = 8
  37              		@ frame_needed = 0, uses_anonymous_args = 0
  38              		.loc 1 7 1 is_stmt 0 view .LVU1
  39 0000 70B5     		push	{r4, r5, r6, lr}
  40              	.LCFI0:
  41              		.cfi_def_cfa_offset 16
  42              		.cfi_offset 4, -16
  43              		.cfi_offset 5, -12
  44              		.cfi_offset 6, -8
  45              		.cfi_offset 14, -4
  46 0002 86B0     		sub	sp, sp, #24
  47              	.LCFI1:
  48              		.cfi_def_cfa_offset 40
ARM GAS  /tmp/ccjH8pbz.s 			page 2


  49 0004 0446     		mov	r4, r0
   8:usr/as5600.c  ****     uint8_t data[2] = {0, 0};
  50              		.loc 1 8 5 is_stmt 1 view .LVU2
  51              		.loc 1 8 13 is_stmt 0 view .LVU3
  52 0006 0026     		movs	r6, #0
  53 0008 ADF81460 		strh	r6, [sp, #20]	@ movhi
   9:usr/as5600.c  ****     HAL_I2C_Mem_Read(&hi2c1, AS5600_ADDRESS, ANGLE_REGISTER, I2C_MEMADD_SIZE_8BIT, data, 2, HAL_MAX
  54              		.loc 1 9 5 is_stmt 1 view .LVU4
  55 000c 4FF0FF33 		mov	r3, #-1
  56 0010 0293     		str	r3, [sp, #8]
  57 0012 0223     		movs	r3, #2
  58 0014 0193     		str	r3, [sp, #4]
  59 0016 05AB     		add	r3, sp, #20
  60 0018 0093     		str	r3, [sp]
  61 001a 0123     		movs	r3, #1
  62 001c 0C22     		movs	r2, #12
  63 001e 6C21     		movs	r1, #108
  64 0020 1D48     		ldr	r0, .L3
  65              	.LVL1:
  66              		.loc 1 9 5 is_stmt 0 view .LVU5
  67 0022 FFF7FEFF 		bl	HAL_I2C_Mem_Read
  68              	.LVL2:
  10:usr/as5600.c  ****     float angle = (data[0] << 8) | data[1];
  69              		.loc 1 10 5 is_stmt 1 view .LVU6
  70              		.loc 1 10 24 is_stmt 0 view .LVU7
  71 0026 9DF81420 		ldrb	r2, [sp, #20]	@ zero_extendqisi2
  72              		.loc 1 10 40 view .LVU8
  73 002a 9DF81530 		ldrb	r3, [sp, #21]	@ zero_extendqisi2
  74              		.loc 1 10 34 view .LVU9
  75 002e 43EA0223 		orr	r3, r3, r2, lsl #8
  76 0032 07EE903A 		vmov	s15, r3	@ int
  77              		.loc 1 10 11 view .LVU10
  78 0036 F8EEE77A 		vcvt.f32.s32	s15, s15
  79              	.LVL3:
  11:usr/as5600.c  ****     as5600->Angle = (((angle * _2PI) / 4096.0));
  80              		.loc 1 11 5 is_stmt 1 view .LVU11
  81              		.loc 1 11 30 is_stmt 0 view .LVU12
  82 003a 9FED187A 		vldr.32	s14, .L3+4
  83 003e 67EE877A 		vmul.f32	s15, s15, s14
  84              	.LVL4:
  85              		.loc 1 11 38 view .LVU13
  86 0042 9FED177A 		vldr.32	s14, .L3+8
  87 0046 67EE877A 		vmul.f32	s15, s15, s14
  88              		.loc 1 11 19 view .LVU14
  89 004a C4ED017A 		vstr.32	s15, [r4, #4]
  12:usr/as5600.c  **** #ifdef AS5600_DEBUG
  13:usr/as5600.c  ****     sprintf(Uart_DeBug_Buffer, "Angle: %d  \r\n", (int)as5600->Angle);
  90              		.loc 1 13 5 is_stmt 1 view .LVU15
  91 004e 154D     		ldr	r5, .L3+12
  92 0050 FDEEE77A 		vcvt.s32.f32	s15, s15
  93 0054 17EE902A 		vmov	r2, s15	@ int
  94 0058 1349     		ldr	r1, .L3+16
  95 005a 2846     		mov	r0, r5
  96 005c FFF7FEFF 		bl	sprintf
  97              	.LVL5:
  14:usr/as5600.c  ****     HAL_UART_Transmit(Uart_DeBug, (uint8_t*)Uart_DeBug_Buffer, strlen(Uart_DeBug_Buffer), 100);
  98              		.loc 1 14 5 view .LVU16
ARM GAS  /tmp/ccjH8pbz.s 			page 3


  99              		.loc 1 14 64 is_stmt 0 view .LVU17
 100 0060 2846     		mov	r0, r5
 101 0062 FFF7FEFF 		bl	strlen
 102              	.LVL6:
 103              		.loc 1 14 5 view .LVU18
 104 0066 6423     		movs	r3, #100
 105 0068 82B2     		uxth	r2, r0
 106 006a 2946     		mov	r1, r5
 107 006c 0F48     		ldr	r0, .L3+20
 108 006e 0068     		ldr	r0, [r0]
 109 0070 FFF7FEFF 		bl	HAL_UART_Transmit
 110              	.LVL7:
  15:usr/as5600.c  ****     memset(Uart_DeBug_Buffer, 0, sizeof(Uart_DeBug_Buffer));
 111              		.loc 1 15 5 is_stmt 1 view .LVU19
 112 0074 4FF48072 		mov	r2, #256
 113 0078 3146     		mov	r1, r6
 114 007a 2846     		mov	r0, r5
 115 007c FFF7FEFF 		bl	memset
 116              	.LVL8:
  16:usr/as5600.c  **** #endif
  17:usr/as5600.c  ****     as5600->angle_ts = HAL_GetTick();
 117              		.loc 1 17 5 view .LVU20
 118              		.loc 1 17 24 is_stmt 0 view .LVU21
 119 0080 FFF7FEFF 		bl	HAL_GetTick
 120              	.LVL9:
 121              		.loc 1 17 22 view .LVU22
 122 0084 A060     		str	r0, [r4, #8]
  18:usr/as5600.c  ****     return as5600->Angle;
 123              		.loc 1 18 5 is_stmt 1 view .LVU23
 124              		.loc 1 18 18 is_stmt 0 view .LVU24
 125 0086 D4ED017A 		vldr.32	s15, [r4, #4]
 126 008a FCEEE77A 		vcvt.u32.f32	s15, s15
  19:usr/as5600.c  **** }
 127              		.loc 1 19 1 view .LVU25
 128 008e 17EE903A 		vmov	r3, s15	@ int
 129 0092 98B2     		uxth	r0, r3
 130 0094 06B0     		add	sp, sp, #24
 131              	.LCFI2:
 132              		.cfi_def_cfa_offset 16
 133              		@ sp needed
 134 0096 70BD     		pop	{r4, r5, r6, pc}
 135              	.LVL10:
 136              	.L4:
 137              		.loc 1 19 1 view .LVU26
 138              		.align	2
 139              	.L3:
 140 0098 00000000 		.word	hi2c1
 141 009c DB0FC940 		.word	1086918619
 142 00a0 00008039 		.word	964689920
 143 00a4 00000000 		.word	Uart_DeBug_Buffer
 144 00a8 00000000 		.word	.LC0
 145 00ac 00000000 		.word	Uart_DeBug
 146              		.cfi_endproc
 147              	.LFE223:
 149              		.text
 150              	.Letext0:
 151              		.file 2 "/usr/lib/gcc/arm-none-eabi/10.3.1/include/stdint.h"
ARM GAS  /tmp/ccjH8pbz.s 			page 4


 152              		.file 3 "Drivers/CMSIS/Device/ST/STM32F4xx/Include/stm32f411xe.h"
 153              		.file 4 "Drivers/STM32F4xx_HAL_Driver/Inc/stm32f4xx_hal_def.h"
 154              		.file 5 "Drivers/STM32F4xx_HAL_Driver/Inc/stm32f4xx_hal_dma.h"
 155              		.file 6 "Drivers/STM32F4xx_HAL_Driver/Inc/stm32f4xx_hal_i2c.h"
 156              		.file 7 "Drivers/STM32F4xx_HAL_Driver/Inc/stm32f4xx_hal_uart.h"
 157              		.file 8 "Core/Inc/i2c.h"
 158              		.file 9 "Core/Inc/usart.h"
 159              		.file 10 "usr/as5600.h"
 160              		.file 11 "/usr/include/newlib/stdio.h"
 161              		.file 12 "/usr/include/newlib/string.h"
 162              		.file 13 "Drivers/STM32F4xx_HAL_Driver/Inc/stm32f4xx_hal.h"
 163              		.file 14 "<built-in>"
ARM GAS  /tmp/ccjH8pbz.s 			page 5

