ARM GAS  /tmp/cckiEKWH.s 			page 1


   1              		.cpu cortex-m4
   2              		.eabi_attribute 27, 1
   3              		.eabi_attribute 28, 1
   4              		.eabi_attribute 20, 1
   5              		.eabi_attribute 21, 1
   6              		.eabi_attribute 23, 3
   7              		.eabi_attribute 24, 1
   8              		.eabi_attribute 25, 1
   9              		.eabi_attribute 26, 1
  10              		.eabi_attribute 30, 1
  11              		.eabi_attribute 34, 1
  12              		.eabi_attribute 18, 4
  13              		.file	"as5600.c"
  14              		.text
  15              	.Ltext0:
  16              		.cfi_sections	.debug_frame
  17              		.global	__aeabi_i2d
  18              		.global	__aeabi_dmul
  19              		.global	__aeabi_d2uiz
  20              		.section	.text.Read_AS5600_Angle,"ax",%progbits
  21              		.align	1
  22              		.global	Read_AS5600_Angle
  23              		.arch armv7e-m
  24              		.syntax unified
  25              		.thumb
  26              		.thumb_func
  27              		.fpu fpv4-sp-d16
  29              	Read_AS5600_Angle:
  30              	.LFB223:
  31              		.file 1 "usr/as5600.c"
   1:usr/as5600.c  **** #include "as5600.h"
   2:usr/as5600.c  **** 
   3:usr/as5600.c  **** 
   4:usr/as5600.c  **** 
   5:usr/as5600.c  **** 
   6:usr/as5600.c  **** uint16_t Read_AS5600_Angle(void) {
  32              		.loc 1 6 34 view -0
  33              		.cfi_startproc
  34              		@ args = 0, pretend = 0, frame = 8
  35              		@ frame_needed = 0, uses_anonymous_args = 0
  36 0000 00B5     		push	{lr}
  37              	.LCFI0:
  38              		.cfi_def_cfa_offset 4
  39              		.cfi_offset 14, -4
  40 0002 87B0     		sub	sp, sp, #28
  41              	.LCFI1:
  42              		.cfi_def_cfa_offset 32
   7:usr/as5600.c  ****     uint8_t data[2] = {0, 0};
  43              		.loc 1 7 5 view .LVU1
  44              		.loc 1 7 13 is_stmt 0 view .LVU2
  45 0004 0023     		movs	r3, #0
  46 0006 ADF81430 		strh	r3, [sp, #20]	@ movhi
   8:usr/as5600.c  ****     HAL_I2C_Mem_Read(&hi2c1, AS5600_ADDRESS, ANGLE_REGISTER, I2C_MEMADD_SIZE_8BIT, data, 2, HAL_MAX
  47              		.loc 1 8 5 is_stmt 1 view .LVU3
  48 000a 4FF0FF33 		mov	r3, #-1
  49 000e 0293     		str	r3, [sp, #8]
  50 0010 0223     		movs	r3, #2
ARM GAS  /tmp/cckiEKWH.s 			page 2


  51 0012 0193     		str	r3, [sp, #4]
  52 0014 05AB     		add	r3, sp, #20
  53 0016 0093     		str	r3, [sp]
  54 0018 0123     		movs	r3, #1
  55 001a 0C22     		movs	r2, #12
  56 001c 6C21     		movs	r1, #108
  57 001e 0C48     		ldr	r0, .L3
  58 0020 FFF7FEFF 		bl	HAL_I2C_Mem_Read
  59              	.LVL0:
   9:usr/as5600.c  ****     uint16_t angle = (data[0] << 8) | data[1];
  60              		.loc 1 9 5 view .LVU4
  61              		.loc 1 9 27 is_stmt 0 view .LVU5
  62 0024 9DF81400 		ldrb	r0, [sp, #20]	@ zero_extendqisi2
  63              		.loc 1 9 43 view .LVU6
  64 0028 9DF81530 		ldrb	r3, [sp, #21]	@ zero_extendqisi2
  65              	.LVL1:
  10:usr/as5600.c  ****     angle = (angle * 360.0) / 4096.0;
  66              		.loc 1 10 5 is_stmt 1 view .LVU7
  67              		.loc 1 10 20 is_stmt 0 view .LVU8
  68 002c 43EA0020 		orr	r0, r3, r0, lsl #8
  69              	.LVL2:
  70              		.loc 1 10 20 view .LVU9
  71 0030 FFF7FEFF 		bl	__aeabi_i2d
  72              	.LVL3:
  73              		.loc 1 10 20 view .LVU10
  74 0034 0022     		movs	r2, #0
  75 0036 074B     		ldr	r3, .L3+4
  76 0038 FFF7FEFF 		bl	__aeabi_dmul
  77              	.LVL4:
  78              		.loc 1 10 29 view .LVU11
  79 003c 0022     		movs	r2, #0
  80 003e 064B     		ldr	r3, .L3+8
  81 0040 FFF7FEFF 		bl	__aeabi_dmul
  82              	.LVL5:
  83              		.loc 1 10 11 view .LVU12
  84 0044 FFF7FEFF 		bl	__aeabi_d2uiz
  85              	.LVL6:
  11:usr/as5600.c  **** #ifdef AS5600_DEBUG
  12:usr/as5600.c  ****     sprintf(Uart_DeBug_Buffer, "Angle: %d  \r\n", (int)angle);
  13:usr/as5600.c  ****     HAL_UART_Transmit(Uart_DeBug, (uint8_t*)Uart_DeBug_Buffer, strlen(Uart_DeBug_Buffer), 100);
  14:usr/as5600.c  ****     memset(Uart_DeBug_Buffer, 0, sizeof(Uart_DeBug_Buffer));
  15:usr/as5600.c  **** #endif
  16:usr/as5600.c  **** 
  17:usr/as5600.c  ****     return angle;
  86              		.loc 1 17 5 is_stmt 1 view .LVU13
  18:usr/as5600.c  **** }
  87              		.loc 1 18 1 is_stmt 0 view .LVU14
  88 0048 80B2     		uxth	r0, r0
  89              		.loc 1 18 1 view .LVU15
  90 004a 07B0     		add	sp, sp, #28
  91              	.LCFI2:
  92              		.cfi_def_cfa_offset 4
  93              		@ sp needed
  94 004c 5DF804FB 		ldr	pc, [sp], #4
  95              	.L4:
  96              		.align	2
  97              	.L3:
ARM GAS  /tmp/cckiEKWH.s 			page 3


  98 0050 00000000 		.word	hi2c1
  99 0054 00807640 		.word	1081507840
 100 0058 0000303F 		.word	1060110336
 101              		.cfi_endproc
 102              	.LFE223:
 104              		.text
 105              	.Letext0:
 106              		.file 2 "/usr/lib/gcc/arm-none-eabi/10.3.1/include/stdint.h"
 107              		.file 3 "Drivers/CMSIS/Device/ST/STM32F4xx/Include/stm32f411xe.h"
 108              		.file 4 "Drivers/STM32F4xx_HAL_Driver/Inc/stm32f4xx_hal_def.h"
 109              		.file 5 "Drivers/STM32F4xx_HAL_Driver/Inc/stm32f4xx_hal_dma.h"
 110              		.file 6 "Drivers/STM32F4xx_HAL_Driver/Inc/stm32f4xx_hal_i2c.h"
 111              		.file 7 "Core/Inc/i2c.h"
ARM GAS  /tmp/cckiEKWH.s 			page 4


DEFINED SYMBOLS
                            *ABS*:0000000000000000 as5600.c
     /tmp/cckiEKWH.s:21     .text.Read_AS5600_Angle:0000000000000000 $t
     /tmp/cckiEKWH.s:29     .text.Read_AS5600_Angle:0000000000000000 Read_AS5600_Angle
     /tmp/cckiEKWH.s:98     .text.Read_AS5600_Angle:0000000000000050 $d

UNDEFINED SYMBOLS
__aeabi_i2d
__aeabi_dmul
__aeabi_d2uiz
HAL_I2C_Mem_Read
hi2c1
