ARM GAS  /tmp/ccg8o1kF.s 			page 1


   1              		.cpu cortex-m4
   2              		.eabi_attribute 27, 1
   3              		.eabi_attribute 28, 1
   4              		.eabi_attribute 20, 1
   5              		.eabi_attribute 21, 1
   6              		.eabi_attribute 23, 3
   7              		.eabi_attribute 24, 1
   8              		.eabi_attribute 25, 1
   9              		.eabi_attribute 26, 1
  10              		.eabi_attribute 30, 1
  11              		.eabi_attribute 34, 1
  12              		.eabi_attribute 18, 4
  13              		.file	"as5600.c"
  14              		.text
  15              	.Ltext0:
  16              		.cfi_sections	.debug_frame
  17              		.section	.text.Read_AS5600_Angle,"ax",%progbits
  18              		.align	1
  19              		.global	Read_AS5600_Angle
  20              		.arch armv7e-m
  21              		.syntax unified
  22              		.thumb
  23              		.thumb_func
  24              		.fpu fpv4-sp-d16
  26              	Read_AS5600_Angle:
  27              	.LVL0:
  28              	.LFB223:
  29              		.file 1 "usr/as5600.c"
   1:usr/as5600.c  **** #include "as5600.h"
   2:usr/as5600.c  **** 
   3:usr/as5600.c  **** 
   4:usr/as5600.c  **** 
   5:usr/as5600.c  **** // ËØªÂèñAS5600ËßíÂ∫¶(0-360¬∞)
   6:usr/as5600.c  **** // ËæìÂÖ•Ôºöas5600 ÁªìÊûÑ‰ΩìÊåáÈíà
   7:usr/as5600.c  **** // ËøîÂõûÔºöËßíÂ∫¶ÂÄº Âçï‰ΩçÔºöÂºßÂ∫¶
   8:usr/as5600.c  **** // ËØ¥ÊòéÔºöËØªÂèñAS5600ËßíÂ∫¶Ôºå{Âπ∂Êõ¥Êñ∞}as5600ÁªìÊûÑ‰Ωì‰∏≠ÁöÑËßíÂ∫¶ÂÄºÂíåÊóãËΩ¨Êï∞ÂÄº
   9:usr/as5600.c  **** float Read_AS5600_Angle(As5600_Sensor_Typedef* as5600) 
  10:usr/as5600.c  **** {
  30              		.loc 1 10 1 view -0
  31              		.cfi_startproc
  32              		@ args = 0, pretend = 0, frame = 8
  33              		@ frame_needed = 0, uses_anonymous_args = 0
  34              		.loc 1 10 1 is_stmt 0 view .LVU1
  35 0000 10B5     		push	{r4, lr}
  36              	.LCFI0:
  37              		.cfi_def_cfa_offset 8
  38              		.cfi_offset 4, -8
  39              		.cfi_offset 14, -4
  40 0002 86B0     		sub	sp, sp, #24
  41              	.LCFI1:
  42              		.cfi_def_cfa_offset 32
  43 0004 0446     		mov	r4, r0
  11:usr/as5600.c  ****     uint8_t data[2] = {0, 0};
  44              		.loc 1 11 5 is_stmt 1 view .LVU2
  45              		.loc 1 11 13 is_stmt 0 view .LVU3
  46 0006 0023     		movs	r3, #0
  47 0008 ADF81430 		strh	r3, [sp, #20]	@ movhi
ARM GAS  /tmp/ccg8o1kF.s 			page 2


  12:usr/as5600.c  ****     HAL_I2C_Mem_Read(&hi2c1, AS5600_ADDRESS, ANGLE_REGISTER, I2C_MEMADD_SIZE_8BIT, data, 2, HAL_MAX
  48              		.loc 1 12 5 is_stmt 1 view .LVU4
  49 000c 4FF0FF33 		mov	r3, #-1
  50 0010 0293     		str	r3, [sp, #8]
  51 0012 0223     		movs	r3, #2
  52 0014 0193     		str	r3, [sp, #4]
  53 0016 05AB     		add	r3, sp, #20
  54 0018 0093     		str	r3, [sp]
  55 001a 0123     		movs	r3, #1
  56 001c 0E22     		movs	r2, #14
  57 001e 6C21     		movs	r1, #108
  58 0020 1B48     		ldr	r0, .L11
  59              	.LVL1:
  60              		.loc 1 12 5 is_stmt 0 view .LVU5
  61 0022 FFF7FEFF 		bl	HAL_I2C_Mem_Read
  62              	.LVL2:
  13:usr/as5600.c  ****     float angle = (data[0] << 8) | data[1];
  63              		.loc 1 13 5 is_stmt 1 view .LVU6
  64              		.loc 1 13 24 is_stmt 0 view .LVU7
  65 0026 9DF81420 		ldrb	r2, [sp, #20]	@ zero_extendqisi2
  66              		.loc 1 13 40 view .LVU8
  67 002a 9DF81530 		ldrb	r3, [sp, #21]	@ zero_extendqisi2
  68              		.loc 1 13 34 view .LVU9
  69 002e 43EA0223 		orr	r3, r3, r2, lsl #8
  70 0032 07EE903A 		vmov	s15, r3	@ int
  71              		.loc 1 13 11 view .LVU10
  72 0036 F8EEE77A 		vcvt.f32.s32	s15, s15
  73              	.LVL3:
  14:usr/as5600.c  ****     angle = (((angle * _2PI) / 4096.0));
  74              		.loc 1 14 5 is_stmt 1 view .LVU11
  75              		.loc 1 14 22 is_stmt 0 view .LVU12
  76 003a 9FED167A 		vldr.32	s14, .L11+4
  77 003e 67EE877A 		vmul.f32	s15, s15, s14
  78              	.LVL4:
  79              		.loc 1 14 11 view .LVU13
  80 0042 9FED157A 		vldr.32	s14, .L11+8
  81 0046 67EE877A 		vmul.f32	s15, s15, s14
  82              	.LVL5:
  15:usr/as5600.c  ****     float d_angle = angle - as5600->Angle;
  83              		.loc 1 15 5 is_stmt 1 view .LVU14
  84              		.loc 1 15 35 is_stmt 0 view .LVU15
  85 004a 94ED017A 		vldr.32	s14, [r4, #4]
  86              		.loc 1 15 11 view .LVU16
  87 004e 37EEC77A 		vsub.f32	s14, s15, s14
  88              	.LVL6:
  16:usr/as5600.c  ****     // ÂúàÊï∞Ê£ÄÊµã
  17:usr/as5600.c  ****     if(fabs(d_angle) > (0.8f*_2PI) ) as5600->Rotations += ( d_angle > 0 ) ? -1 : 1; 
  89              		.loc 1 17 5 is_stmt 1 view .LVU17
  90              		.loc 1 17 8 is_stmt 0 view .LVU18
  91 0052 B0EEC76A 		vabs.f32	s12, s14
  92              		.loc 1 17 7 view .LVU19
  93 0056 DFED116A 		vldr.32	s13, .L11+12
  94 005a B4EEE66A 		vcmpe.f32	s12, s13
  95 005e F1EE10FA 		vmrs	APSR_nzcv, FPSCR
  96 0062 09DD     		ble	.L2
  97              		.loc 1 17 38 is_stmt 1 discriminator 1 view .LVU20
  98              		.loc 1 17 56 is_stmt 0 discriminator 1 view .LVU21
ARM GAS  /tmp/ccg8o1kF.s 			page 3


  99 0064 2369     		ldr	r3, [r4, #16]
 100              		.loc 1 17 80 discriminator 1 view .LVU22
 101 0066 B5EEC07A 		vcmpe.f32	s14, #0
 102 006a F1EE10FA 		vmrs	APSR_nzcv, FPSCR
 103 006e 0CDD     		ble	.L9
 104              		.loc 1 17 80 view .LVU23
 105 0070 4FF0FF32 		mov	r2, #-1
 106              	.L4:
 107              		.loc 1 17 56 discriminator 5 view .LVU24
 108 0074 1344     		add	r3, r3, r2
 109 0076 2361     		str	r3, [r4, #16]
 110              	.L2:
  18:usr/as5600.c  ****     as5600->Angle = angle;
 111              		.loc 1 18 5 is_stmt 1 view .LVU25
 112              		.loc 1 18 19 is_stmt 0 view .LVU26
 113 0078 C4ED017A 		vstr.32	s15, [r4, #4]
  19:usr/as5600.c  **** #ifdef AS5600_DEBUG
  20:usr/as5600.c  ****     sprintf(Uart_DeBug_Buffer, "Angle: %d  \r\n", (int)as5600->Angle);
  21:usr/as5600.c  ****     HAL_UART_Transmit(Uart_DeBug, (uint8_t*)Uart_DeBug_Buffer, strlen(Uart_DeBug_Buffer), 100);
  22:usr/as5600.c  ****     memset(Uart_DeBug_Buffer, 0, sizeof(Uart_DeBug_Buffer));
  23:usr/as5600.c  **** #endif
  24:usr/as5600.c  ****     as5600->angle_ts = HAL_GetTick();
 114              		.loc 1 24 5 is_stmt 1 view .LVU27
 115              		.loc 1 24 24 is_stmt 0 view .LVU28
 116 007c FFF7FEFF 		bl	HAL_GetTick
 117              	.LVL7:
 118              		.loc 1 24 22 view .LVU29
 119 0080 A060     		str	r0, [r4, #8]
  25:usr/as5600.c  ****     return as5600->Angle;
 120              		.loc 1 25 5 is_stmt 1 view .LVU30
  26:usr/as5600.c  **** }
 121              		.loc 1 26 1 is_stmt 0 view .LVU31
 122 0082 94ED010A 		vldr.32	s0, [r4, #4]
 123 0086 06B0     		add	sp, sp, #24
 124              	.LCFI2:
 125              		.cfi_remember_state
 126              		.cfi_def_cfa_offset 8
 127              		@ sp needed
 128 0088 10BD     		pop	{r4, pc}
 129              	.LVL8:
 130              	.L9:
 131              	.LCFI3:
 132              		.cfi_restore_state
  17:usr/as5600.c  ****     as5600->Angle = angle;
 133              		.loc 1 17 80 view .LVU32
 134 008a 0122     		movs	r2, #1
 135 008c F2E7     		b	.L4
 136              	.L12:
 137 008e 00BF     		.align	2
 138              	.L11:
 139 0090 00000000 		.word	hi2c1
 140 0094 DB0FC940 		.word	1086918619
 141 0098 00008039 		.word	964689920
 142 009c 7CD9A040 		.word	1084283260
 143              		.cfi_endproc
 144              	.LFE223:
 146              		.section	.text.Get_AS5600_Angle,"ax",%progbits
ARM GAS  /tmp/ccg8o1kF.s 			page 4


 147              		.align	1
 148              		.global	Get_AS5600_Angle
 149              		.syntax unified
 150              		.thumb
 151              		.thumb_func
 152              		.fpu fpv4-sp-d16
 154              	Get_AS5600_Angle:
 155              	.LVL9:
 156              	.LFB224:
  27:usr/as5600.c  **** // Ëé∑ÂèñAS5600ËßíÂ∫¶(Â∏¶ÊóãËΩ¨Êï∞ÂÄº)
  28:usr/as5600.c  **** // ËæìÂÖ•Ôºöas5600 ÁªìÊûÑ‰ΩìÊåáÈíà
  29:usr/as5600.c  **** // ËøîÂõûÔºöËßíÂ∫¶ÂÄº Âçï‰ΩçÔºöÂºßÂ∫¶
  30:usr/as5600.c  **** // ËØ¥ÊòéÔºöËé∑ÂèñAS5600ËßíÂ∫¶(Â∏¶ÊóãËΩ¨Êï∞ÂÄº)Ôºå‰∏çÊõ¥Êñ∞as5600ÁªìÊûÑ‰Ωì‰∏≠ÁöÑËßíÂ∫¶ÂÄºÂíåÊóãËΩ¨Ê
  31:usr/as5600.c  **** float Get_AS5600_Angle(As5600_Sensor_Typedef* as5600) 
  32:usr/as5600.c  **** {
 157              		.loc 1 32 1 is_stmt 1 view -0
 158              		.cfi_startproc
 159              		@ args = 0, pretend = 0, frame = 0
 160              		@ frame_needed = 0, uses_anonymous_args = 0
 161              		@ link register save eliminated.
  33:usr/as5600.c  ****     return as5600->Angle + as5600->Rotations*_2PI;
 162              		.loc 1 33 5 view .LVU34
 163              		.loc 1 33 18 is_stmt 0 view .LVU35
 164 0000 90ED010A 		vldr.32	s0, [r0, #4]
 165              		.loc 1 33 34 view .LVU36
 166 0004 D0ED047A 		vldr.32	s15, [r0, #16]	@ int
 167              		.loc 1 33 45 view .LVU37
 168 0008 F8EEE77A 		vcvt.f32.s32	s15, s15
 169 000c 9FED037A 		vldr.32	s14, .L14
 170 0010 67EE877A 		vmul.f32	s15, s15, s14
  34:usr/as5600.c  **** }
 171              		.loc 1 34 1 view .LVU38
 172 0014 30EE270A 		vadd.f32	s0, s0, s15
 173 0018 7047     		bx	lr
 174              	.L15:
 175 001a 00BF     		.align	2
 176              	.L14:
 177 001c DB0FC940 		.word	1086918619
 178              		.cfi_endproc
 179              	.LFE224:
 181              		.text
 182              	.Letext0:
 183              		.file 2 "/usr/lib/gcc/arm-none-eabi/10.3.1/include/stdint.h"
 184              		.file 3 "Drivers/CMSIS/Device/ST/STM32F4xx/Include/stm32f411xe.h"
 185              		.file 4 "Drivers/STM32F4xx_HAL_Driver/Inc/stm32f4xx_hal_def.h"
 186              		.file 5 "Drivers/STM32F4xx_HAL_Driver/Inc/stm32f4xx_hal_dma.h"
 187              		.file 6 "Drivers/STM32F4xx_HAL_Driver/Inc/stm32f4xx_hal_i2c.h"
 188              		.file 7 "usr/as5600.h"
 189              		.file 8 "Core/Inc/i2c.h"
 190              		.file 9 "Drivers/STM32F4xx_HAL_Driver/Inc/stm32f4xx_hal.h"
ARM GAS  /tmp/ccg8o1kF.s 			page 5


DEFINED SYMBOLS
                            *ABS*:0000000000000000 as5600.c
     /tmp/ccg8o1kF.s:18     .text.Read_AS5600_Angle:0000000000000000 $t
     /tmp/ccg8o1kF.s:26     .text.Read_AS5600_Angle:0000000000000000 Read_AS5600_Angle
     /tmp/ccg8o1kF.s:139    .text.Read_AS5600_Angle:0000000000000090 $d
     /tmp/ccg8o1kF.s:147    .text.Get_AS5600_Angle:0000000000000000 $t
     /tmp/ccg8o1kF.s:154    .text.Get_AS5600_Angle:0000000000000000 Get_AS5600_Angle
     /tmp/ccg8o1kF.s:177    .text.Get_AS5600_Angle:000000000000001c $d

UNDEFINED SYMBOLS
HAL_I2C_Mem_Read
HAL_GetTick
hi2c1
