ARM GAS  /tmp/ccnSL42Z.s 			page 1


   1              		.cpu cortex-m4
   2              		.eabi_attribute 27, 1
   3              		.eabi_attribute 28, 1
   4              		.eabi_attribute 20, 1
   5              		.eabi_attribute 21, 1
   6              		.eabi_attribute 23, 3
   7              		.eabi_attribute 24, 1
   8              		.eabi_attribute 25, 1
   9              		.eabi_attribute 26, 1
  10              		.eabi_attribute 30, 1
  11              		.eabi_attribute 34, 1
  12              		.eabi_attribute 18, 4
  13              		.file	"i2c.c"
  14              		.text
  15              	.Ltext0:
  16              		.cfi_sections	.debug_frame
  17              		.section	.text.MX_I2C1_Init,"ax",%progbits
  18              		.align	1
  19              		.global	MX_I2C1_Init
  20              		.arch armv7e-m
  21              		.syntax unified
  22              		.thumb
  23              		.thumb_func
  24              		.fpu fpv4-sp-d16
  26              	MX_I2C1_Init:
  27              	.LFB134:
  28              		.file 1 "Core/Src/i2c.c"
   1:Core/Src/i2c.c **** /* USER CODE BEGIN Header */
   2:Core/Src/i2c.c **** /**
   3:Core/Src/i2c.c ****   ******************************************************************************
   4:Core/Src/i2c.c ****   * @file    i2c.c
   5:Core/Src/i2c.c ****   * @brief   This file provides code for the configuration
   6:Core/Src/i2c.c ****   *          of the I2C instances.
   7:Core/Src/i2c.c ****   ******************************************************************************
   8:Core/Src/i2c.c ****   * @attention
   9:Core/Src/i2c.c ****   *
  10:Core/Src/i2c.c ****   * Copyright (c) 2024 STMicroelectronics.
  11:Core/Src/i2c.c ****   * All rights reserved.
  12:Core/Src/i2c.c ****   *
  13:Core/Src/i2c.c ****   * This software is licensed under terms that can be found in the LICENSE file
  14:Core/Src/i2c.c ****   * in the root directory of this software component.
  15:Core/Src/i2c.c ****   * If no LICENSE file comes with this software, it is provided AS-IS.
  16:Core/Src/i2c.c ****   *
  17:Core/Src/i2c.c ****   ******************************************************************************
  18:Core/Src/i2c.c ****   */
  19:Core/Src/i2c.c **** /* USER CODE END Header */
  20:Core/Src/i2c.c **** /* Includes ------------------------------------------------------------------*/
  21:Core/Src/i2c.c **** #include "i2c.h"
  22:Core/Src/i2c.c **** 
  23:Core/Src/i2c.c **** /* USER CODE BEGIN 0 */
  24:Core/Src/i2c.c **** 
  25:Core/Src/i2c.c **** /* USER CODE END 0 */
  26:Core/Src/i2c.c **** 
  27:Core/Src/i2c.c **** I2C_HandleTypeDef hi2c1;
  28:Core/Src/i2c.c **** I2C_HandleTypeDef hi2c2;
  29:Core/Src/i2c.c **** 
  30:Core/Src/i2c.c **** /* I2C1 init function */
ARM GAS  /tmp/ccnSL42Z.s 			page 2


  31:Core/Src/i2c.c **** void MX_I2C1_Init(void)
  32:Core/Src/i2c.c **** {
  29              		.loc 1 32 1 view -0
  30              		.cfi_startproc
  31              		@ args = 0, pretend = 0, frame = 0
  32              		@ frame_needed = 0, uses_anonymous_args = 0
  33 0000 08B5     		push	{r3, lr}
  34              	.LCFI0:
  35              		.cfi_def_cfa_offset 8
  36              		.cfi_offset 3, -8
  37              		.cfi_offset 14, -4
  33:Core/Src/i2c.c **** 
  34:Core/Src/i2c.c ****   /* USER CODE BEGIN I2C1_Init 0 */
  35:Core/Src/i2c.c **** 
  36:Core/Src/i2c.c ****   /* USER CODE END I2C1_Init 0 */
  37:Core/Src/i2c.c **** 
  38:Core/Src/i2c.c ****   /* USER CODE BEGIN I2C1_Init 1 */
  39:Core/Src/i2c.c **** 
  40:Core/Src/i2c.c ****   /* USER CODE END I2C1_Init 1 */
  41:Core/Src/i2c.c ****   hi2c1.Instance = I2C1;
  38              		.loc 1 41 3 view .LVU1
  39              		.loc 1 41 18 is_stmt 0 view .LVU2
  40 0002 0B48     		ldr	r0, .L5
  41 0004 0B4B     		ldr	r3, .L5+4
  42 0006 0360     		str	r3, [r0]
  42:Core/Src/i2c.c ****   hi2c1.Init.ClockSpeed = 400000;
  43              		.loc 1 42 3 is_stmt 1 view .LVU3
  44              		.loc 1 42 25 is_stmt 0 view .LVU4
  45 0008 0B4B     		ldr	r3, .L5+8
  46 000a 4360     		str	r3, [r0, #4]
  43:Core/Src/i2c.c ****   hi2c1.Init.DutyCycle = I2C_DUTYCYCLE_2;
  47              		.loc 1 43 3 is_stmt 1 view .LVU5
  48              		.loc 1 43 24 is_stmt 0 view .LVU6
  49 000c 0023     		movs	r3, #0
  50 000e 8360     		str	r3, [r0, #8]
  44:Core/Src/i2c.c ****   hi2c1.Init.OwnAddress1 = 0;
  51              		.loc 1 44 3 is_stmt 1 view .LVU7
  52              		.loc 1 44 26 is_stmt 0 view .LVU8
  53 0010 C360     		str	r3, [r0, #12]
  45:Core/Src/i2c.c ****   hi2c1.Init.AddressingMode = I2C_ADDRESSINGMODE_7BIT;
  54              		.loc 1 45 3 is_stmt 1 view .LVU9
  55              		.loc 1 45 29 is_stmt 0 view .LVU10
  56 0012 4FF48042 		mov	r2, #16384
  57 0016 0261     		str	r2, [r0, #16]
  46:Core/Src/i2c.c ****   hi2c1.Init.DualAddressMode = I2C_DUALADDRESS_DISABLE;
  58              		.loc 1 46 3 is_stmt 1 view .LVU11
  59              		.loc 1 46 30 is_stmt 0 view .LVU12
  60 0018 4361     		str	r3, [r0, #20]
  47:Core/Src/i2c.c ****   hi2c1.Init.OwnAddress2 = 0;
  61              		.loc 1 47 3 is_stmt 1 view .LVU13
  62              		.loc 1 47 26 is_stmt 0 view .LVU14
  63 001a 8361     		str	r3, [r0, #24]
  48:Core/Src/i2c.c ****   hi2c1.Init.GeneralCallMode = I2C_GENERALCALL_DISABLE;
  64              		.loc 1 48 3 is_stmt 1 view .LVU15
  65              		.loc 1 48 30 is_stmt 0 view .LVU16
  66 001c C361     		str	r3, [r0, #28]
  49:Core/Src/i2c.c ****   hi2c1.Init.NoStretchMode = I2C_NOSTRETCH_DISABLE;
ARM GAS  /tmp/ccnSL42Z.s 			page 3


  67              		.loc 1 49 3 is_stmt 1 view .LVU17
  68              		.loc 1 49 28 is_stmt 0 view .LVU18
  69 001e 0362     		str	r3, [r0, #32]
  50:Core/Src/i2c.c ****   if (HAL_I2C_Init(&hi2c1) != HAL_OK)
  70              		.loc 1 50 3 is_stmt 1 view .LVU19
  71              		.loc 1 50 7 is_stmt 0 view .LVU20
  72 0020 FFF7FEFF 		bl	HAL_I2C_Init
  73              	.LVL0:
  74              		.loc 1 50 6 view .LVU21
  75 0024 00B9     		cbnz	r0, .L4
  76              	.L1:
  51:Core/Src/i2c.c ****   {
  52:Core/Src/i2c.c ****     Error_Handler();
  53:Core/Src/i2c.c ****   }
  54:Core/Src/i2c.c ****   /* USER CODE BEGIN I2C1_Init 2 */
  55:Core/Src/i2c.c **** 
  56:Core/Src/i2c.c ****   /* USER CODE END I2C1_Init 2 */
  57:Core/Src/i2c.c **** 
  58:Core/Src/i2c.c **** }
  77              		.loc 1 58 1 view .LVU22
  78 0026 08BD     		pop	{r3, pc}
  79              	.L4:
  52:Core/Src/i2c.c ****   }
  80              		.loc 1 52 5 is_stmt 1 view .LVU23
  81 0028 FFF7FEFF 		bl	Error_Handler
  82              	.LVL1:
  83              		.loc 1 58 1 is_stmt 0 view .LVU24
  84 002c FBE7     		b	.L1
  85              	.L6:
  86 002e 00BF     		.align	2
  87              	.L5:
  88 0030 00000000 		.word	.LANCHOR0
  89 0034 00540040 		.word	1073763328
  90 0038 801A0600 		.word	400000
  91              		.cfi_endproc
  92              	.LFE134:
  94              		.section	.text.MX_I2C2_Init,"ax",%progbits
  95              		.align	1
  96              		.global	MX_I2C2_Init
  97              		.syntax unified
  98              		.thumb
  99              		.thumb_func
 100              		.fpu fpv4-sp-d16
 102              	MX_I2C2_Init:
 103              	.LFB135:
  59:Core/Src/i2c.c **** /* I2C2 init function */
  60:Core/Src/i2c.c **** void MX_I2C2_Init(void)
  61:Core/Src/i2c.c **** {
 104              		.loc 1 61 1 is_stmt 1 view -0
 105              		.cfi_startproc
 106              		@ args = 0, pretend = 0, frame = 0
 107              		@ frame_needed = 0, uses_anonymous_args = 0
 108 0000 08B5     		push	{r3, lr}
 109              	.LCFI1:
 110              		.cfi_def_cfa_offset 8
 111              		.cfi_offset 3, -8
 112              		.cfi_offset 14, -4
ARM GAS  /tmp/ccnSL42Z.s 			page 4


  62:Core/Src/i2c.c **** 
  63:Core/Src/i2c.c ****   /* USER CODE BEGIN I2C2_Init 0 */
  64:Core/Src/i2c.c **** 
  65:Core/Src/i2c.c ****   /* USER CODE END I2C2_Init 0 */
  66:Core/Src/i2c.c **** 
  67:Core/Src/i2c.c ****   /* USER CODE BEGIN I2C2_Init 1 */
  68:Core/Src/i2c.c **** 
  69:Core/Src/i2c.c ****   /* USER CODE END I2C2_Init 1 */
  70:Core/Src/i2c.c ****   hi2c2.Instance = I2C2;
 113              		.loc 1 70 3 view .LVU26
 114              		.loc 1 70 18 is_stmt 0 view .LVU27
 115 0002 0B48     		ldr	r0, .L11
 116 0004 0B4B     		ldr	r3, .L11+4
 117 0006 0360     		str	r3, [r0]
  71:Core/Src/i2c.c ****   hi2c2.Init.ClockSpeed = 400000;
 118              		.loc 1 71 3 is_stmt 1 view .LVU28
 119              		.loc 1 71 25 is_stmt 0 view .LVU29
 120 0008 0B4B     		ldr	r3, .L11+8
 121 000a 4360     		str	r3, [r0, #4]
  72:Core/Src/i2c.c ****   hi2c2.Init.DutyCycle = I2C_DUTYCYCLE_2;
 122              		.loc 1 72 3 is_stmt 1 view .LVU30
 123              		.loc 1 72 24 is_stmt 0 view .LVU31
 124 000c 0023     		movs	r3, #0
 125 000e 8360     		str	r3, [r0, #8]
  73:Core/Src/i2c.c ****   hi2c2.Init.OwnAddress1 = 0;
 126              		.loc 1 73 3 is_stmt 1 view .LVU32
 127              		.loc 1 73 26 is_stmt 0 view .LVU33
 128 0010 C360     		str	r3, [r0, #12]
  74:Core/Src/i2c.c ****   hi2c2.Init.AddressingMode = I2C_ADDRESSINGMODE_7BIT;
 129              		.loc 1 74 3 is_stmt 1 view .LVU34
 130              		.loc 1 74 29 is_stmt 0 view .LVU35
 131 0012 4FF48042 		mov	r2, #16384
 132 0016 0261     		str	r2, [r0, #16]
  75:Core/Src/i2c.c ****   hi2c2.Init.DualAddressMode = I2C_DUALADDRESS_DISABLE;
 133              		.loc 1 75 3 is_stmt 1 view .LVU36
 134              		.loc 1 75 30 is_stmt 0 view .LVU37
 135 0018 4361     		str	r3, [r0, #20]
  76:Core/Src/i2c.c ****   hi2c2.Init.OwnAddress2 = 0;
 136              		.loc 1 76 3 is_stmt 1 view .LVU38
 137              		.loc 1 76 26 is_stmt 0 view .LVU39
 138 001a 8361     		str	r3, [r0, #24]
  77:Core/Src/i2c.c ****   hi2c2.Init.GeneralCallMode = I2C_GENERALCALL_DISABLE;
 139              		.loc 1 77 3 is_stmt 1 view .LVU40
 140              		.loc 1 77 30 is_stmt 0 view .LVU41
 141 001c C361     		str	r3, [r0, #28]
  78:Core/Src/i2c.c ****   hi2c2.Init.NoStretchMode = I2C_NOSTRETCH_DISABLE;
 142              		.loc 1 78 3 is_stmt 1 view .LVU42
 143              		.loc 1 78 28 is_stmt 0 view .LVU43
 144 001e 0362     		str	r3, [r0, #32]
  79:Core/Src/i2c.c ****   if (HAL_I2C_Init(&hi2c2) != HAL_OK)
 145              		.loc 1 79 3 is_stmt 1 view .LVU44
 146              		.loc 1 79 7 is_stmt 0 view .LVU45
 147 0020 FFF7FEFF 		bl	HAL_I2C_Init
 148              	.LVL2:
 149              		.loc 1 79 6 view .LVU46
 150 0024 00B9     		cbnz	r0, .L10
 151              	.L7:
ARM GAS  /tmp/ccnSL42Z.s 			page 5


  80:Core/Src/i2c.c ****   {
  81:Core/Src/i2c.c ****     Error_Handler();
  82:Core/Src/i2c.c ****   }
  83:Core/Src/i2c.c ****   /* USER CODE BEGIN I2C2_Init 2 */
  84:Core/Src/i2c.c **** 
  85:Core/Src/i2c.c ****   /* USER CODE END I2C2_Init 2 */
  86:Core/Src/i2c.c **** 
  87:Core/Src/i2c.c **** }
 152              		.loc 1 87 1 view .LVU47
 153 0026 08BD     		pop	{r3, pc}
 154              	.L10:
  81:Core/Src/i2c.c ****   }
 155              		.loc 1 81 5 is_stmt 1 view .LVU48
 156 0028 FFF7FEFF 		bl	Error_Handler
 157              	.LVL3:
 158              		.loc 1 87 1 is_stmt 0 view .LVU49
 159 002c FBE7     		b	.L7
 160              	.L12:
 161 002e 00BF     		.align	2
 162              	.L11:
 163 0030 00000000 		.word	.LANCHOR1
 164 0034 00580040 		.word	1073764352
 165 0038 801A0600 		.word	400000
 166              		.cfi_endproc
 167              	.LFE135:
 169              		.section	.text.HAL_I2C_MspInit,"ax",%progbits
 170              		.align	1
 171              		.global	HAL_I2C_MspInit
 172              		.syntax unified
 173              		.thumb
 174              		.thumb_func
 175              		.fpu fpv4-sp-d16
 177              	HAL_I2C_MspInit:
 178              	.LVL4:
 179              	.LFB136:
  88:Core/Src/i2c.c **** 
  89:Core/Src/i2c.c **** void HAL_I2C_MspInit(I2C_HandleTypeDef* i2cHandle)
  90:Core/Src/i2c.c **** {
 180              		.loc 1 90 1 is_stmt 1 view -0
 181              		.cfi_startproc
 182              		@ args = 0, pretend = 0, frame = 40
 183              		@ frame_needed = 0, uses_anonymous_args = 0
 184              		.loc 1 90 1 is_stmt 0 view .LVU51
 185 0000 2DE9F041 		push	{r4, r5, r6, r7, r8, lr}
 186              	.LCFI2:
 187              		.cfi_def_cfa_offset 24
 188              		.cfi_offset 4, -24
 189              		.cfi_offset 5, -20
 190              		.cfi_offset 6, -16
 191              		.cfi_offset 7, -12
 192              		.cfi_offset 8, -8
 193              		.cfi_offset 14, -4
 194 0004 8AB0     		sub	sp, sp, #40
 195              	.LCFI3:
 196              		.cfi_def_cfa_offset 64
  91:Core/Src/i2c.c **** 
  92:Core/Src/i2c.c ****   GPIO_InitTypeDef GPIO_InitStruct = {0};
ARM GAS  /tmp/ccnSL42Z.s 			page 6


 197              		.loc 1 92 3 is_stmt 1 view .LVU52
 198              		.loc 1 92 20 is_stmt 0 view .LVU53
 199 0006 0023     		movs	r3, #0
 200 0008 0593     		str	r3, [sp, #20]
 201 000a 0693     		str	r3, [sp, #24]
 202 000c 0793     		str	r3, [sp, #28]
 203 000e 0893     		str	r3, [sp, #32]
 204 0010 0993     		str	r3, [sp, #36]
  93:Core/Src/i2c.c ****   if(i2cHandle->Instance==I2C1)
 205              		.loc 1 93 3 is_stmt 1 view .LVU54
 206              		.loc 1 93 15 is_stmt 0 view .LVU55
 207 0012 0368     		ldr	r3, [r0]
 208              		.loc 1 93 5 view .LVU56
 209 0014 2F4A     		ldr	r2, .L19
 210 0016 9342     		cmp	r3, r2
 211 0018 05D0     		beq	.L17
  94:Core/Src/i2c.c ****   {
  95:Core/Src/i2c.c ****   /* USER CODE BEGIN I2C1_MspInit 0 */
  96:Core/Src/i2c.c **** 
  97:Core/Src/i2c.c ****   /* USER CODE END I2C1_MspInit 0 */
  98:Core/Src/i2c.c **** 
  99:Core/Src/i2c.c ****     __HAL_RCC_GPIOB_CLK_ENABLE();
 100:Core/Src/i2c.c ****     /**I2C1 GPIO Configuration
 101:Core/Src/i2c.c ****     PB6     ------> I2C1_SCL
 102:Core/Src/i2c.c ****     PB7     ------> I2C1_SDA
 103:Core/Src/i2c.c ****     */
 104:Core/Src/i2c.c ****     GPIO_InitStruct.Pin = GPIO_PIN_6|GPIO_PIN_7;
 105:Core/Src/i2c.c ****     GPIO_InitStruct.Mode = GPIO_MODE_AF_OD;
 106:Core/Src/i2c.c ****     GPIO_InitStruct.Pull = GPIO_NOPULL;
 107:Core/Src/i2c.c ****     GPIO_InitStruct.Speed = GPIO_SPEED_FREQ_VERY_HIGH;
 108:Core/Src/i2c.c ****     GPIO_InitStruct.Alternate = GPIO_AF4_I2C1;
 109:Core/Src/i2c.c ****     HAL_GPIO_Init(GPIOB, &GPIO_InitStruct);
 110:Core/Src/i2c.c **** 
 111:Core/Src/i2c.c ****     /* I2C1 clock enable */
 112:Core/Src/i2c.c ****     __HAL_RCC_I2C1_CLK_ENABLE();
 113:Core/Src/i2c.c ****   /* USER CODE BEGIN I2C1_MspInit 1 */
 114:Core/Src/i2c.c **** 
 115:Core/Src/i2c.c ****   /* USER CODE END I2C1_MspInit 1 */
 116:Core/Src/i2c.c ****   }
 117:Core/Src/i2c.c ****   else if(i2cHandle->Instance==I2C2)
 212              		.loc 1 117 8 is_stmt 1 view .LVU57
 213              		.loc 1 117 10 is_stmt 0 view .LVU58
 214 001a 2F4A     		ldr	r2, .L19+4
 215 001c 9342     		cmp	r3, r2
 216 001e 25D0     		beq	.L18
 217              	.LVL5:
 218              	.L13:
 118:Core/Src/i2c.c ****   {
 119:Core/Src/i2c.c ****   /* USER CODE BEGIN I2C2_MspInit 0 */
 120:Core/Src/i2c.c **** 
 121:Core/Src/i2c.c ****   /* USER CODE END I2C2_MspInit 0 */
 122:Core/Src/i2c.c **** 
 123:Core/Src/i2c.c ****     __HAL_RCC_GPIOB_CLK_ENABLE();
 124:Core/Src/i2c.c ****     /**I2C2 GPIO Configuration
 125:Core/Src/i2c.c ****     PB10     ------> I2C2_SCL
 126:Core/Src/i2c.c ****     PB3     ------> I2C2_SDA
 127:Core/Src/i2c.c ****     */
ARM GAS  /tmp/ccnSL42Z.s 			page 7


 128:Core/Src/i2c.c ****     GPIO_InitStruct.Pin = GPIO_PIN_10;
 129:Core/Src/i2c.c ****     GPIO_InitStruct.Mode = GPIO_MODE_AF_OD;
 130:Core/Src/i2c.c ****     GPIO_InitStruct.Pull = GPIO_NOPULL;
 131:Core/Src/i2c.c ****     GPIO_InitStruct.Speed = GPIO_SPEED_FREQ_VERY_HIGH;
 132:Core/Src/i2c.c ****     GPIO_InitStruct.Alternate = GPIO_AF4_I2C2;
 133:Core/Src/i2c.c ****     HAL_GPIO_Init(GPIOB, &GPIO_InitStruct);
 134:Core/Src/i2c.c **** 
 135:Core/Src/i2c.c ****     GPIO_InitStruct.Pin = GPIO_PIN_3;
 136:Core/Src/i2c.c ****     GPIO_InitStruct.Mode = GPIO_MODE_AF_OD;
 137:Core/Src/i2c.c ****     GPIO_InitStruct.Pull = GPIO_NOPULL;
 138:Core/Src/i2c.c ****     GPIO_InitStruct.Speed = GPIO_SPEED_FREQ_VERY_HIGH;
 139:Core/Src/i2c.c ****     GPIO_InitStruct.Alternate = GPIO_AF9_I2C2;
 140:Core/Src/i2c.c ****     HAL_GPIO_Init(GPIOB, &GPIO_InitStruct);
 141:Core/Src/i2c.c **** 
 142:Core/Src/i2c.c ****     /* I2C2 clock enable */
 143:Core/Src/i2c.c ****     __HAL_RCC_I2C2_CLK_ENABLE();
 144:Core/Src/i2c.c ****   /* USER CODE BEGIN I2C2_MspInit 1 */
 145:Core/Src/i2c.c **** 
 146:Core/Src/i2c.c ****   /* USER CODE END I2C2_MspInit 1 */
 147:Core/Src/i2c.c ****   }
 148:Core/Src/i2c.c **** }
 219              		.loc 1 148 1 view .LVU59
 220 0020 0AB0     		add	sp, sp, #40
 221              	.LCFI4:
 222              		.cfi_remember_state
 223              		.cfi_def_cfa_offset 24
 224              		@ sp needed
 225 0022 BDE8F081 		pop	{r4, r5, r6, r7, r8, pc}
 226              	.LVL6:
 227              	.L17:
 228              	.LCFI5:
 229              		.cfi_restore_state
  99:Core/Src/i2c.c ****     /**I2C1 GPIO Configuration
 230              		.loc 1 99 5 is_stmt 1 view .LVU60
 231              	.LBB2:
  99:Core/Src/i2c.c ****     /**I2C1 GPIO Configuration
 232              		.loc 1 99 5 view .LVU61
 233 0026 0025     		movs	r5, #0
 234 0028 0195     		str	r5, [sp, #4]
  99:Core/Src/i2c.c ****     /**I2C1 GPIO Configuration
 235              		.loc 1 99 5 view .LVU62
 236 002a 2C4C     		ldr	r4, .L19+8
 237 002c 236B     		ldr	r3, [r4, #48]
 238 002e 43F00203 		orr	r3, r3, #2
 239 0032 2363     		str	r3, [r4, #48]
  99:Core/Src/i2c.c ****     /**I2C1 GPIO Configuration
 240              		.loc 1 99 5 view .LVU63
 241 0034 236B     		ldr	r3, [r4, #48]
 242 0036 03F00203 		and	r3, r3, #2
 243 003a 0193     		str	r3, [sp, #4]
  99:Core/Src/i2c.c ****     /**I2C1 GPIO Configuration
 244              		.loc 1 99 5 view .LVU64
 245 003c 019B     		ldr	r3, [sp, #4]
 246              	.LBE2:
  99:Core/Src/i2c.c ****     /**I2C1 GPIO Configuration
 247              		.loc 1 99 5 view .LVU65
 104:Core/Src/i2c.c ****     GPIO_InitStruct.Mode = GPIO_MODE_AF_OD;
ARM GAS  /tmp/ccnSL42Z.s 			page 8


 248              		.loc 1 104 5 view .LVU66
 104:Core/Src/i2c.c ****     GPIO_InitStruct.Mode = GPIO_MODE_AF_OD;
 249              		.loc 1 104 25 is_stmt 0 view .LVU67
 250 003e C023     		movs	r3, #192
 251 0040 0593     		str	r3, [sp, #20]
 105:Core/Src/i2c.c ****     GPIO_InitStruct.Pull = GPIO_NOPULL;
 252              		.loc 1 105 5 is_stmt 1 view .LVU68
 105:Core/Src/i2c.c ****     GPIO_InitStruct.Pull = GPIO_NOPULL;
 253              		.loc 1 105 26 is_stmt 0 view .LVU69
 254 0042 1223     		movs	r3, #18
 255 0044 0693     		str	r3, [sp, #24]
 106:Core/Src/i2c.c ****     GPIO_InitStruct.Speed = GPIO_SPEED_FREQ_VERY_HIGH;
 256              		.loc 1 106 5 is_stmt 1 view .LVU70
 107:Core/Src/i2c.c ****     GPIO_InitStruct.Alternate = GPIO_AF4_I2C1;
 257              		.loc 1 107 5 view .LVU71
 107:Core/Src/i2c.c ****     GPIO_InitStruct.Alternate = GPIO_AF4_I2C1;
 258              		.loc 1 107 27 is_stmt 0 view .LVU72
 259 0046 0323     		movs	r3, #3
 260 0048 0893     		str	r3, [sp, #32]
 108:Core/Src/i2c.c ****     HAL_GPIO_Init(GPIOB, &GPIO_InitStruct);
 261              		.loc 1 108 5 is_stmt 1 view .LVU73
 108:Core/Src/i2c.c ****     HAL_GPIO_Init(GPIOB, &GPIO_InitStruct);
 262              		.loc 1 108 31 is_stmt 0 view .LVU74
 263 004a 0423     		movs	r3, #4
 264 004c 0993     		str	r3, [sp, #36]
 109:Core/Src/i2c.c **** 
 265              		.loc 1 109 5 is_stmt 1 view .LVU75
 266 004e 05A9     		add	r1, sp, #20
 267 0050 2348     		ldr	r0, .L19+12
 268              	.LVL7:
 109:Core/Src/i2c.c **** 
 269              		.loc 1 109 5 is_stmt 0 view .LVU76
 270 0052 FFF7FEFF 		bl	HAL_GPIO_Init
 271              	.LVL8:
 112:Core/Src/i2c.c ****   /* USER CODE BEGIN I2C1_MspInit 1 */
 272              		.loc 1 112 5 is_stmt 1 view .LVU77
 273              	.LBB3:
 112:Core/Src/i2c.c ****   /* USER CODE BEGIN I2C1_MspInit 1 */
 274              		.loc 1 112 5 view .LVU78
 275 0056 0295     		str	r5, [sp, #8]
 112:Core/Src/i2c.c ****   /* USER CODE BEGIN I2C1_MspInit 1 */
 276              		.loc 1 112 5 view .LVU79
 277 0058 236C     		ldr	r3, [r4, #64]
 278 005a 43F40013 		orr	r3, r3, #2097152
 279 005e 2364     		str	r3, [r4, #64]
 112:Core/Src/i2c.c ****   /* USER CODE BEGIN I2C1_MspInit 1 */
 280              		.loc 1 112 5 view .LVU80
 281 0060 236C     		ldr	r3, [r4, #64]
 282 0062 03F40013 		and	r3, r3, #2097152
 283 0066 0293     		str	r3, [sp, #8]
 112:Core/Src/i2c.c ****   /* USER CODE BEGIN I2C1_MspInit 1 */
 284              		.loc 1 112 5 view .LVU81
 285 0068 029B     		ldr	r3, [sp, #8]
 286              	.LBE3:
 112:Core/Src/i2c.c ****   /* USER CODE BEGIN I2C1_MspInit 1 */
 287              		.loc 1 112 5 view .LVU82
 288 006a D9E7     		b	.L13
ARM GAS  /tmp/ccnSL42Z.s 			page 9


 289              	.LVL9:
 290              	.L18:
 123:Core/Src/i2c.c ****     /**I2C2 GPIO Configuration
 291              		.loc 1 123 5 view .LVU83
 292              	.LBB4:
 123:Core/Src/i2c.c ****     /**I2C2 GPIO Configuration
 293              		.loc 1 123 5 view .LVU84
 294 006c 0025     		movs	r5, #0
 295 006e 0395     		str	r5, [sp, #12]
 123:Core/Src/i2c.c ****     /**I2C2 GPIO Configuration
 296              		.loc 1 123 5 view .LVU85
 297 0070 1A4C     		ldr	r4, .L19+8
 298 0072 236B     		ldr	r3, [r4, #48]
 299 0074 43F00203 		orr	r3, r3, #2
 300 0078 2363     		str	r3, [r4, #48]
 123:Core/Src/i2c.c ****     /**I2C2 GPIO Configuration
 301              		.loc 1 123 5 view .LVU86
 302 007a 236B     		ldr	r3, [r4, #48]
 303 007c 03F00203 		and	r3, r3, #2
 304 0080 0393     		str	r3, [sp, #12]
 123:Core/Src/i2c.c ****     /**I2C2 GPIO Configuration
 305              		.loc 1 123 5 view .LVU87
 306 0082 039B     		ldr	r3, [sp, #12]
 307              	.LBE4:
 123:Core/Src/i2c.c ****     /**I2C2 GPIO Configuration
 308              		.loc 1 123 5 view .LVU88
 128:Core/Src/i2c.c ****     GPIO_InitStruct.Mode = GPIO_MODE_AF_OD;
 309              		.loc 1 128 5 view .LVU89
 128:Core/Src/i2c.c ****     GPIO_InitStruct.Mode = GPIO_MODE_AF_OD;
 310              		.loc 1 128 25 is_stmt 0 view .LVU90
 311 0084 4FF48063 		mov	r3, #1024
 312 0088 0593     		str	r3, [sp, #20]
 129:Core/Src/i2c.c ****     GPIO_InitStruct.Pull = GPIO_NOPULL;
 313              		.loc 1 129 5 is_stmt 1 view .LVU91
 129:Core/Src/i2c.c ****     GPIO_InitStruct.Pull = GPIO_NOPULL;
 314              		.loc 1 129 26 is_stmt 0 view .LVU92
 315 008a 4FF01208 		mov	r8, #18
 316 008e CDF81880 		str	r8, [sp, #24]
 130:Core/Src/i2c.c ****     GPIO_InitStruct.Speed = GPIO_SPEED_FREQ_VERY_HIGH;
 317              		.loc 1 130 5 is_stmt 1 view .LVU93
 131:Core/Src/i2c.c ****     GPIO_InitStruct.Alternate = GPIO_AF4_I2C2;
 318              		.loc 1 131 5 view .LVU94
 131:Core/Src/i2c.c ****     GPIO_InitStruct.Alternate = GPIO_AF4_I2C2;
 319              		.loc 1 131 27 is_stmt 0 view .LVU95
 320 0092 0327     		movs	r7, #3
 321 0094 0897     		str	r7, [sp, #32]
 132:Core/Src/i2c.c ****     HAL_GPIO_Init(GPIOB, &GPIO_InitStruct);
 322              		.loc 1 132 5 is_stmt 1 view .LVU96
 132:Core/Src/i2c.c ****     HAL_GPIO_Init(GPIOB, &GPIO_InitStruct);
 323              		.loc 1 132 31 is_stmt 0 view .LVU97
 324 0096 0423     		movs	r3, #4
 325 0098 0993     		str	r3, [sp, #36]
 133:Core/Src/i2c.c **** 
 326              		.loc 1 133 5 is_stmt 1 view .LVU98
 327 009a 114E     		ldr	r6, .L19+12
 328 009c 05A9     		add	r1, sp, #20
 329 009e 3046     		mov	r0, r6
ARM GAS  /tmp/ccnSL42Z.s 			page 10


 330              	.LVL10:
 133:Core/Src/i2c.c **** 
 331              		.loc 1 133 5 is_stmt 0 view .LVU99
 332 00a0 FFF7FEFF 		bl	HAL_GPIO_Init
 333              	.LVL11:
 135:Core/Src/i2c.c ****     GPIO_InitStruct.Mode = GPIO_MODE_AF_OD;
 334              		.loc 1 135 5 is_stmt 1 view .LVU100
 135:Core/Src/i2c.c ****     GPIO_InitStruct.Mode = GPIO_MODE_AF_OD;
 335              		.loc 1 135 25 is_stmt 0 view .LVU101
 336 00a4 0823     		movs	r3, #8
 337 00a6 0593     		str	r3, [sp, #20]
 136:Core/Src/i2c.c ****     GPIO_InitStruct.Pull = GPIO_NOPULL;
 338              		.loc 1 136 5 is_stmt 1 view .LVU102
 136:Core/Src/i2c.c ****     GPIO_InitStruct.Pull = GPIO_NOPULL;
 339              		.loc 1 136 26 is_stmt 0 view .LVU103
 340 00a8 CDF81880 		str	r8, [sp, #24]
 137:Core/Src/i2c.c ****     GPIO_InitStruct.Speed = GPIO_SPEED_FREQ_VERY_HIGH;
 341              		.loc 1 137 5 is_stmt 1 view .LVU104
 137:Core/Src/i2c.c ****     GPIO_InitStruct.Speed = GPIO_SPEED_FREQ_VERY_HIGH;
 342              		.loc 1 137 26 is_stmt 0 view .LVU105
 343 00ac 0795     		str	r5, [sp, #28]
 138:Core/Src/i2c.c ****     GPIO_InitStruct.Alternate = GPIO_AF9_I2C2;
 344              		.loc 1 138 5 is_stmt 1 view .LVU106
 138:Core/Src/i2c.c ****     GPIO_InitStruct.Alternate = GPIO_AF9_I2C2;
 345              		.loc 1 138 27 is_stmt 0 view .LVU107
 346 00ae 0897     		str	r7, [sp, #32]
 139:Core/Src/i2c.c ****     HAL_GPIO_Init(GPIOB, &GPIO_InitStruct);
 347              		.loc 1 139 5 is_stmt 1 view .LVU108
 139:Core/Src/i2c.c ****     HAL_GPIO_Init(GPIOB, &GPIO_InitStruct);
 348              		.loc 1 139 31 is_stmt 0 view .LVU109
 349 00b0 0923     		movs	r3, #9
 350 00b2 0993     		str	r3, [sp, #36]
 140:Core/Src/i2c.c **** 
 351              		.loc 1 140 5 is_stmt 1 view .LVU110
 352 00b4 05A9     		add	r1, sp, #20
 353 00b6 3046     		mov	r0, r6
 354 00b8 FFF7FEFF 		bl	HAL_GPIO_Init
 355              	.LVL12:
 143:Core/Src/i2c.c ****   /* USER CODE BEGIN I2C2_MspInit 1 */
 356              		.loc 1 143 5 view .LVU111
 357              	.LBB5:
 143:Core/Src/i2c.c ****   /* USER CODE BEGIN I2C2_MspInit 1 */
 358              		.loc 1 143 5 view .LVU112
 359 00bc 0495     		str	r5, [sp, #16]
 143:Core/Src/i2c.c ****   /* USER CODE BEGIN I2C2_MspInit 1 */
 360              		.loc 1 143 5 view .LVU113
 361 00be 236C     		ldr	r3, [r4, #64]
 362 00c0 43F48003 		orr	r3, r3, #4194304
 363 00c4 2364     		str	r3, [r4, #64]
 143:Core/Src/i2c.c ****   /* USER CODE BEGIN I2C2_MspInit 1 */
 364              		.loc 1 143 5 view .LVU114
 365 00c6 236C     		ldr	r3, [r4, #64]
 366 00c8 03F48003 		and	r3, r3, #4194304
 367 00cc 0493     		str	r3, [sp, #16]
 143:Core/Src/i2c.c ****   /* USER CODE BEGIN I2C2_MspInit 1 */
 368              		.loc 1 143 5 view .LVU115
 369 00ce 049B     		ldr	r3, [sp, #16]
ARM GAS  /tmp/ccnSL42Z.s 			page 11


 370              	.LBE5:
 143:Core/Src/i2c.c ****   /* USER CODE BEGIN I2C2_MspInit 1 */
 371              		.loc 1 143 5 view .LVU116
 372              		.loc 1 148 1 is_stmt 0 view .LVU117
 373 00d0 A6E7     		b	.L13
 374              	.L20:
 375 00d2 00BF     		.align	2
 376              	.L19:
 377 00d4 00540040 		.word	1073763328
 378 00d8 00580040 		.word	1073764352
 379 00dc 00380240 		.word	1073887232
 380 00e0 00040240 		.word	1073873920
 381              		.cfi_endproc
 382              	.LFE136:
 384              		.section	.text.HAL_I2C_MspDeInit,"ax",%progbits
 385              		.align	1
 386              		.global	HAL_I2C_MspDeInit
 387              		.syntax unified
 388              		.thumb
 389              		.thumb_func
 390              		.fpu fpv4-sp-d16
 392              	HAL_I2C_MspDeInit:
 393              	.LVL13:
 394              	.LFB137:
 149:Core/Src/i2c.c **** 
 150:Core/Src/i2c.c **** void HAL_I2C_MspDeInit(I2C_HandleTypeDef* i2cHandle)
 151:Core/Src/i2c.c **** {
 395              		.loc 1 151 1 is_stmt 1 view -0
 396              		.cfi_startproc
 397              		@ args = 0, pretend = 0, frame = 0
 398              		@ frame_needed = 0, uses_anonymous_args = 0
 399              		.loc 1 151 1 is_stmt 0 view .LVU119
 400 0000 10B5     		push	{r4, lr}
 401              	.LCFI6:
 402              		.cfi_def_cfa_offset 8
 403              		.cfi_offset 4, -8
 404              		.cfi_offset 14, -4
 152:Core/Src/i2c.c **** 
 153:Core/Src/i2c.c ****   if(i2cHandle->Instance==I2C1)
 405              		.loc 1 153 3 is_stmt 1 view .LVU120
 406              		.loc 1 153 15 is_stmt 0 view .LVU121
 407 0002 0368     		ldr	r3, [r0]
 408              		.loc 1 153 5 view .LVU122
 409 0004 134A     		ldr	r2, .L27
 410 0006 9342     		cmp	r3, r2
 411 0008 03D0     		beq	.L25
 154:Core/Src/i2c.c ****   {
 155:Core/Src/i2c.c ****   /* USER CODE BEGIN I2C1_MspDeInit 0 */
 156:Core/Src/i2c.c **** 
 157:Core/Src/i2c.c ****   /* USER CODE END I2C1_MspDeInit 0 */
 158:Core/Src/i2c.c ****     /* Peripheral clock disable */
 159:Core/Src/i2c.c ****     __HAL_RCC_I2C1_CLK_DISABLE();
 160:Core/Src/i2c.c **** 
 161:Core/Src/i2c.c ****     /**I2C1 GPIO Configuration
 162:Core/Src/i2c.c ****     PB6     ------> I2C1_SCL
 163:Core/Src/i2c.c ****     PB7     ------> I2C1_SDA
 164:Core/Src/i2c.c ****     */
ARM GAS  /tmp/ccnSL42Z.s 			page 12


 165:Core/Src/i2c.c ****     HAL_GPIO_DeInit(GPIOB, GPIO_PIN_6);
 166:Core/Src/i2c.c **** 
 167:Core/Src/i2c.c ****     HAL_GPIO_DeInit(GPIOB, GPIO_PIN_7);
 168:Core/Src/i2c.c **** 
 169:Core/Src/i2c.c ****   /* USER CODE BEGIN I2C1_MspDeInit 1 */
 170:Core/Src/i2c.c **** 
 171:Core/Src/i2c.c ****   /* USER CODE END I2C1_MspDeInit 1 */
 172:Core/Src/i2c.c ****   }
 173:Core/Src/i2c.c ****   else if(i2cHandle->Instance==I2C2)
 412              		.loc 1 173 8 is_stmt 1 view .LVU123
 413              		.loc 1 173 10 is_stmt 0 view .LVU124
 414 000a 134A     		ldr	r2, .L27+4
 415 000c 9342     		cmp	r3, r2
 416 000e 10D0     		beq	.L26
 417              	.LVL14:
 418              	.L21:
 174:Core/Src/i2c.c ****   {
 175:Core/Src/i2c.c ****   /* USER CODE BEGIN I2C2_MspDeInit 0 */
 176:Core/Src/i2c.c **** 
 177:Core/Src/i2c.c ****   /* USER CODE END I2C2_MspDeInit 0 */
 178:Core/Src/i2c.c ****     /* Peripheral clock disable */
 179:Core/Src/i2c.c ****     __HAL_RCC_I2C2_CLK_DISABLE();
 180:Core/Src/i2c.c **** 
 181:Core/Src/i2c.c ****     /**I2C2 GPIO Configuration
 182:Core/Src/i2c.c ****     PB10     ------> I2C2_SCL
 183:Core/Src/i2c.c ****     PB3     ------> I2C2_SDA
 184:Core/Src/i2c.c ****     */
 185:Core/Src/i2c.c ****     HAL_GPIO_DeInit(GPIOB, GPIO_PIN_10);
 186:Core/Src/i2c.c **** 
 187:Core/Src/i2c.c ****     HAL_GPIO_DeInit(GPIOB, GPIO_PIN_3);
 188:Core/Src/i2c.c **** 
 189:Core/Src/i2c.c ****   /* USER CODE BEGIN I2C2_MspDeInit 1 */
 190:Core/Src/i2c.c **** 
 191:Core/Src/i2c.c ****   /* USER CODE END I2C2_MspDeInit 1 */
 192:Core/Src/i2c.c ****   }
 193:Core/Src/i2c.c **** }
 419              		.loc 1 193 1 view .LVU125
 420 0010 10BD     		pop	{r4, pc}
 421              	.LVL15:
 422              	.L25:
 159:Core/Src/i2c.c **** 
 423              		.loc 1 159 5 is_stmt 1 view .LVU126
 424 0012 02F5F232 		add	r2, r2, #123904
 425 0016 136C     		ldr	r3, [r2, #64]
 426 0018 23F40013 		bic	r3, r3, #2097152
 427 001c 1364     		str	r3, [r2, #64]
 165:Core/Src/i2c.c **** 
 428              		.loc 1 165 5 view .LVU127
 429 001e 0F4C     		ldr	r4, .L27+8
 430 0020 4021     		movs	r1, #64
 431 0022 2046     		mov	r0, r4
 432              	.LVL16:
 165:Core/Src/i2c.c **** 
 433              		.loc 1 165 5 is_stmt 0 view .LVU128
 434 0024 FFF7FEFF 		bl	HAL_GPIO_DeInit
 435              	.LVL17:
 167:Core/Src/i2c.c **** 
ARM GAS  /tmp/ccnSL42Z.s 			page 13


 436              		.loc 1 167 5 is_stmt 1 view .LVU129
 437 0028 8021     		movs	r1, #128
 438 002a 2046     		mov	r0, r4
 439 002c FFF7FEFF 		bl	HAL_GPIO_DeInit
 440              	.LVL18:
 441 0030 EEE7     		b	.L21
 442              	.LVL19:
 443              	.L26:
 179:Core/Src/i2c.c **** 
 444              		.loc 1 179 5 view .LVU130
 445 0032 02F5F032 		add	r2, r2, #122880
 446 0036 136C     		ldr	r3, [r2, #64]
 447 0038 23F48003 		bic	r3, r3, #4194304
 448 003c 1364     		str	r3, [r2, #64]
 185:Core/Src/i2c.c **** 
 449              		.loc 1 185 5 view .LVU131
 450 003e 074C     		ldr	r4, .L27+8
 451 0040 4FF48061 		mov	r1, #1024
 452 0044 2046     		mov	r0, r4
 453              	.LVL20:
 185:Core/Src/i2c.c **** 
 454              		.loc 1 185 5 is_stmt 0 view .LVU132
 455 0046 FFF7FEFF 		bl	HAL_GPIO_DeInit
 456              	.LVL21:
 187:Core/Src/i2c.c **** 
 457              		.loc 1 187 5 is_stmt 1 view .LVU133
 458 004a 0821     		movs	r1, #8
 459 004c 2046     		mov	r0, r4
 460 004e FFF7FEFF 		bl	HAL_GPIO_DeInit
 461              	.LVL22:
 462              		.loc 1 193 1 is_stmt 0 view .LVU134
 463 0052 DDE7     		b	.L21
 464              	.L28:
 465              		.align	2
 466              	.L27:
 467 0054 00540040 		.word	1073763328
 468 0058 00580040 		.word	1073764352
 469 005c 00040240 		.word	1073873920
 470              		.cfi_endproc
 471              	.LFE137:
 473              		.global	hi2c2
 474              		.global	hi2c1
 475              		.section	.bss.hi2c1,"aw",%nobits
 476              		.align	2
 477              		.set	.LANCHOR0,. + 0
 480              	hi2c1:
 481 0000 00000000 		.space	84
 481      00000000 
 481      00000000 
 481      00000000 
 481      00000000 
 482              		.section	.bss.hi2c2,"aw",%nobits
 483              		.align	2
 484              		.set	.LANCHOR1,. + 0
 487              	hi2c2:
 488 0000 00000000 		.space	84
 488      00000000 
ARM GAS  /tmp/ccnSL42Z.s 			page 14


 488      00000000 
 488      00000000 
 488      00000000 
 489              		.text
 490              	.Letext0:
 491              		.file 2 "/usr/lib/gcc/arm-none-eabi/10.3.1/include/stdint.h"
 492              		.file 3 "Drivers/CMSIS/Device/ST/STM32F4xx/Include/stm32f411xe.h"
 493              		.file 4 "Drivers/STM32F4xx_HAL_Driver/Inc/stm32f4xx_hal_def.h"
 494              		.file 5 "Drivers/STM32F4xx_HAL_Driver/Inc/stm32f4xx_hal_gpio.h"
 495              		.file 6 "Drivers/STM32F4xx_HAL_Driver/Inc/stm32f4xx_hal_dma.h"
 496              		.file 7 "Drivers/STM32F4xx_HAL_Driver/Inc/stm32f4xx_hal_i2c.h"
 497              		.file 8 "Core/Inc/i2c.h"
 498              		.file 9 "Core/Inc/main.h"
ARM GAS  /tmp/ccnSL42Z.s 			page 15


DEFINED SYMBOLS
                            *ABS*:0000000000000000 i2c.c
     /tmp/ccnSL42Z.s:18     .text.MX_I2C1_Init:0000000000000000 $t
     /tmp/ccnSL42Z.s:26     .text.MX_I2C1_Init:0000000000000000 MX_I2C1_Init
     /tmp/ccnSL42Z.s:88     .text.MX_I2C1_Init:0000000000000030 $d
     /tmp/ccnSL42Z.s:95     .text.MX_I2C2_Init:0000000000000000 $t
     /tmp/ccnSL42Z.s:102    .text.MX_I2C2_Init:0000000000000000 MX_I2C2_Init
     /tmp/ccnSL42Z.s:163    .text.MX_I2C2_Init:0000000000000030 $d
     /tmp/ccnSL42Z.s:170    .text.HAL_I2C_MspInit:0000000000000000 $t
     /tmp/ccnSL42Z.s:177    .text.HAL_I2C_MspInit:0000000000000000 HAL_I2C_MspInit
     /tmp/ccnSL42Z.s:377    .text.HAL_I2C_MspInit:00000000000000d4 $d
     /tmp/ccnSL42Z.s:385    .text.HAL_I2C_MspDeInit:0000000000000000 $t
     /tmp/ccnSL42Z.s:392    .text.HAL_I2C_MspDeInit:0000000000000000 HAL_I2C_MspDeInit
     /tmp/ccnSL42Z.s:467    .text.HAL_I2C_MspDeInit:0000000000000054 $d
     /tmp/ccnSL42Z.s:487    .bss.hi2c2:0000000000000000 hi2c2
     /tmp/ccnSL42Z.s:480    .bss.hi2c1:0000000000000000 hi2c1
     /tmp/ccnSL42Z.s:476    .bss.hi2c1:0000000000000000 $d
     /tmp/ccnSL42Z.s:483    .bss.hi2c2:0000000000000000 $d

UNDEFINED SYMBOLS
HAL_I2C_Init
Error_Handler
HAL_GPIO_Init
HAL_GPIO_DeInit
