ARM GAS  C:\Users\Dennis\AppData\Local\Temp\ccZNJjMf.s 			page 1


   1              		.cpu cortex-m4
   2              		.arch armv7e-m
   3              		.fpu fpv4-sp-d16
   4              		.eabi_attribute 27, 1
   5              		.eabi_attribute 28, 1
   6              		.eabi_attribute 20, 1
   7              		.eabi_attribute 21, 1
   8              		.eabi_attribute 23, 3
   9              		.eabi_attribute 24, 1
  10              		.eabi_attribute 25, 1
  11              		.eabi_attribute 26, 1
  12              		.eabi_attribute 30, 1
  13              		.eabi_attribute 34, 1
  14              		.eabi_attribute 18, 4
  15              		.file	"get_cmd.c"
  16              		.text
  17              	.Ltext0:
  18              		.cfi_sections	.debug_frame
  19              		.section	.rodata.Get_Cmd.str1.4,"aMS",%progbits,1
  20              		.align	2
  21              	.LC0:
  22 0000 7365745F 		.ascii	"set_angle:\000"
  22      616E676C 
  22      653A00
  23 000b 00       		.align	2
  24              	.LC1:
  25 000c E6B2A1E6 		.ascii	"\346\262\241\346\234\211\346\211\276\345\210\260 \""
  25      9C89E689 
  25      BEE588B0 
  25      2022
  26 001a 7365745F 		.ascii	"set_angle:\" \345\221\275\344\273\244\000"
  26      616E676C 
  26      653A2220 
  26      E591BDE4 
  26      BBA400
  27              		.section	.text.Get_Cmd,"ax",%progbits
  28              		.align	1
  29              		.global	Get_Cmd
  30              		.syntax unified
  31              		.thumb
  32              		.thumb_func
  34              	Get_Cmd:
  35              	.LVL0:
  36              	.LFB223:
  37              		.file 1 "usr/get_cmd.c"
   1:usr/get_cmd.c **** #include "get_cmd.h"
   2:usr/get_cmd.c **** 
   3:usr/get_cmd.c **** struct UART_RECEIVE_IDLE_DataStructure
   4:usr/get_cmd.c **** {
   5:usr/get_cmd.c **** 	volatile uint8_t rxlen; 
   6:usr/get_cmd.c **** 	volatile uint8_t rxok; 
   7:usr/get_cmd.c **** 	uint8_t rxbuf[UART_RECEIVE_IDLE_RX_MAXLEN]; 
   8:usr/get_cmd.c **** } Uart_Receive_Data ={ 0, 1 };
   9:usr/get_cmd.c **** 
  10:usr/get_cmd.c **** 
  11:usr/get_cmd.c **** int8_t Get_Cmd(UART_HandleTypeDef *huart)
  12:usr/get_cmd.c **** {
ARM GAS  C:\Users\Dennis\AppData\Local\Temp\ccZNJjMf.s 			page 2


  38              		.loc 1 12 1 view -0
  39              		.cfi_startproc
  40              		@ args = 0, pretend = 0, frame = 0
  41              		@ frame_needed = 0, uses_anonymous_args = 0
  42              		.loc 1 12 1 is_stmt 0 view .LVU1
  43 0000 F8B5     		push	{r3, r4, r5, r6, r7, lr}
  44              	.LCFI0:
  45              		.cfi_def_cfa_offset 24
  46              		.cfi_offset 3, -24
  47              		.cfi_offset 4, -20
  48              		.cfi_offset 5, -16
  49              		.cfi_offset 6, -12
  50              		.cfi_offset 7, -8
  51              		.cfi_offset 14, -4
  13:usr/get_cmd.c **** 
  14:usr/get_cmd.c **** 	int8_t nret = 0;
  52              		.loc 1 14 2 is_stmt 1 view .LVU2
  53              	.LVL1:
  15:usr/get_cmd.c **** 	if (Uart_Receive_Data.rxok == 0)
  54              		.loc 1 15 2 view .LVU3
  55              		.loc 1 15 23 is_stmt 0 view .LVU4
  56 0002 154B     		ldr	r3, .L7
  57 0004 5B78     		ldrb	r3, [r3, #1]	@ zero_extendqisi2
  58              		.loc 1 15 5 view .LVU5
  59 0006 1BB3     		cbz	r3, .L5
  60 0008 0646     		mov	r6, r0
  16:usr/get_cmd.c **** 	{
  17:usr/get_cmd.c **** 		nret = -1;
  18:usr/get_cmd.c **** 	}
  19:usr/get_cmd.c **** 	else
  20:usr/get_cmd.c **** 	{
  21:usr/get_cmd.c **** 		if (nret == 0)
  61              		.loc 1 21 3 is_stmt 1 view .LVU6
  62              	.LBB2:
  22:usr/get_cmd.c **** 		{
  23:usr/get_cmd.c ****             //æ•°æ®æŽ¥æ”¶æˆåŠŸ
  24:usr/get_cmd.c ****             char *command = (char *)Uart_Receive_Data.rxbuf; // æŒ‡å‘ cmd_data.data çš„èµ·å§‹åœ°å
  63              		.loc 1 24 13 view .LVU7
  64              	.LVL2:
  25:usr/get_cmd.c ****             char *angle_str;
  65              		.loc 1 25 13 view .LVU8
  26:usr/get_cmd.c **** 
  27:usr/get_cmd.c **** 
  28:usr/get_cmd.c ****             angle_str = strstr(command, "set_angle:"); // æ‰¾åˆ° "set_angle:" çš„ä½ç½®
  66              		.loc 1 28 13 view .LVU9
  67              		.loc 1 28 25 is_stmt 0 view .LVU10
  68 000a 1449     		ldr	r1, .L7+4
  69 000c 1448     		ldr	r0, .L7+8
  70              	.LVL3:
  71              		.loc 1 28 25 view .LVU11
  72 000e FFF7FEFF 		bl	strstr
  73              	.LVL4:
  29:usr/get_cmd.c ****             if (angle_str != NULL) {
  74              		.loc 1 29 13 is_stmt 1 view .LVU12
  75              		.loc 1 29 16 is_stmt 0 view .LVU13
  76 0012 C8B1     		cbz	r0, .L3
  77              	.LBB3:
ARM GAS  C:\Users\Dennis\AppData\Local\Temp\ccZNJjMf.s 			page 3


  30:usr/get_cmd.c ****                 angle_str += strlen("set_angle:"); // æŒ‡å‘è§’åº¦å€¼çš„èµ·å§‹ä½ç½®
  78              		.loc 1 30 17 is_stmt 1 view .LVU14
  79              	.LVL5:
  31:usr/get_cmd.c ****                 // printf("%s\r\n",angle_str);
  32:usr/get_cmd.c ****                 float angle = atof(angle_str); // å°†å­—ç¬¦ä¸²è½¬æ¢ä¸ºæµ®ç‚¹æ•°
  80              		.loc 1 32 17 view .LVU15
  81              		.loc 1 32 31 is_stmt 0 view .LVU16
  82 0014 0A30     		adds	r0, r0, #10
  83              	.LVL6:
  84              		.loc 1 32 31 view .LVU17
  85 0016 FFF7FEFF 		bl	atof
  86              	.LVL7:
  87              	.L4:
  88              		.loc 1 32 31 view .LVU18
  89              	.LBE3:
  90              	.LBE2:
  33:usr/get_cmd.c ****                 // printf("è®¾ç½®è§’åº¦ä¸º:%f\r\n",angle);
  34:usr/get_cmd.c ****                 // target_angle1 = angle;
  35:usr/get_cmd.c ****             } else {
  36:usr/get_cmd.c ****                 printf("æ²¡æœ‰æ‰¾åˆ° \"set_angle:\" å‘½ä»¤\n");
  37:usr/get_cmd.c ****             }
  38:usr/get_cmd.c **** 
  39:usr/get_cmd.c **** 
  40:usr/get_cmd.c **** 
  41:usr/get_cmd.c **** 		}
  42:usr/get_cmd.c **** 		Uart_Receive_Data.rxok = 0;
  91              		.loc 1 42 3 is_stmt 1 view .LVU19
  92              		.loc 1 42 26 is_stmt 0 view .LVU20
  93 001a 0F4D     		ldr	r5, .L7
  94 001c 0024     		movs	r4, #0
  95 001e 6C70     		strb	r4, [r5, #1]
  43:usr/get_cmd.c **** 		__HAL_UART_ENABLE_IT(huart, UART_IT_IDLE);
  96              		.loc 1 43 3 is_stmt 1 view .LVU21
  97 0020 3268     		ldr	r2, [r6]
  98 0022 D368     		ldr	r3, [r2, #12]
  99 0024 43F01003 		orr	r3, r3, #16
 100 0028 D360     		str	r3, [r2, #12]
  44:usr/get_cmd.c **** 		memset(Uart_Receive_Data.rxbuf, 0, UART_RECEIVE_IDLE_RX_MAXLEN);
 101              		.loc 1 44 3 view .LVU22
 102 002a 0235     		adds	r5, r5, #2
 103 002c 4FF48077 		mov	r7, #256
 104 0030 3A46     		mov	r2, r7
 105 0032 2146     		mov	r1, r4
 106 0034 2846     		mov	r0, r5
 107 0036 FFF7FEFF 		bl	memset
 108              	.LVL8:
  45:usr/get_cmd.c **** 		HAL_UART_Receive_DMA(huart, Uart_Receive_Data.rxbuf, UART_RECEIVE_IDLE_RX_MAXLEN);
 109              		.loc 1 45 3 view .LVU23
 110 003a 3A46     		mov	r2, r7
 111 003c 2946     		mov	r1, r5
 112 003e 3046     		mov	r0, r6
 113 0040 FFF7FEFF 		bl	HAL_UART_Receive_DMA
 114              	.LVL9:
  14:usr/get_cmd.c **** 	if (Uart_Receive_Data.rxok == 0)
 115              		.loc 1 14 9 is_stmt 0 view .LVU24
 116 0044 2046     		mov	r0, r4
 117              	.LVL10:
ARM GAS  C:\Users\Dennis\AppData\Local\Temp\ccZNJjMf.s 			page 4


 118              	.L2:
  46:usr/get_cmd.c **** 	}
  47:usr/get_cmd.c **** 	return nret;
 119              		.loc 1 47 2 is_stmt 1 view .LVU25
  48:usr/get_cmd.c **** }
 120              		.loc 1 48 1 is_stmt 0 view .LVU26
 121 0046 F8BD     		pop	{r3, r4, r5, r6, r7, pc}
 122              	.LVL11:
 123              	.L3:
 124              	.LBB4:
  36:usr/get_cmd.c ****             }
 125              		.loc 1 36 17 is_stmt 1 view .LVU27
 126 0048 0648     		ldr	r0, .L7+12
 127              	.LVL12:
  36:usr/get_cmd.c ****             }
 128              		.loc 1 36 17 is_stmt 0 view .LVU28
 129 004a FFF7FEFF 		bl	puts
 130              	.LVL13:
 131 004e E4E7     		b	.L4
 132              	.LVL14:
 133              	.L5:
  36:usr/get_cmd.c ****             }
 134              		.loc 1 36 17 view .LVU29
 135              	.LBE4:
  17:usr/get_cmd.c **** 	}
 136              		.loc 1 17 8 view .LVU30
 137 0050 4FF0FF30 		mov	r0, #-1
 138              	.LVL15:
  17:usr/get_cmd.c **** 	}
 139              		.loc 1 17 8 view .LVU31
 140 0054 F7E7     		b	.L2
 141              	.L8:
 142 0056 00BF     		.align	2
 143              	.L7:
 144 0058 00000000 		.word	.LANCHOR0
 145 005c 00000000 		.word	.LC0
 146 0060 02000000 		.word	.LANCHOR0+2
 147 0064 0C000000 		.word	.LC1
 148              		.cfi_endproc
 149              	.LFE223:
 151              		.section	.text.BSP_UART_IDLE_CallBack,"ax",%progbits
 152              		.align	1
 153              		.global	BSP_UART_IDLE_CallBack
 154              		.syntax unified
 155              		.thumb
 156              		.thumb_func
 158              	BSP_UART_IDLE_CallBack:
 159              	.LVL16:
 160              	.LFB224:
  49:usr/get_cmd.c **** 
  50:usr/get_cmd.c **** /// @brief ç©ºé—²ä¸­æ–­å›žè°ƒå‡½æ•°
  51:usr/get_cmd.c **** /// @param huart 
  52:usr/get_cmd.c **** void BSP_UART_IDLE_CallBack(UART_HandleTypeDef *huart)
  53:usr/get_cmd.c **** {
 161              		.loc 1 53 1 is_stmt 1 view -0
 162              		.cfi_startproc
 163              		@ args = 0, pretend = 0, frame = 8
ARM GAS  C:\Users\Dennis\AppData\Local\Temp\ccZNJjMf.s 			page 5


 164              		@ frame_needed = 0, uses_anonymous_args = 0
  54:usr/get_cmd.c **** 	if ((__HAL_UART_GET_FLAG(huart, UART_FLAG_IDLE) != RESET))
 165              		.loc 1 54 2 view .LVU33
 166              		.loc 1 54 7 is_stmt 0 view .LVU34
 167 0000 0368     		ldr	r3, [r0]
 168 0002 1B68     		ldr	r3, [r3]
 169              		.loc 1 54 5 view .LVU35
 170 0004 13F0100F 		tst	r3, #16
 171 0008 00D1     		bne	.L15
 172 000a 7047     		bx	lr
 173              	.L15:
  53:usr/get_cmd.c **** 	if ((__HAL_UART_GET_FLAG(huart, UART_FLAG_IDLE) != RESET))
 174              		.loc 1 53 1 view .LVU36
 175 000c 10B5     		push	{r4, lr}
 176              	.LCFI1:
 177              		.cfi_def_cfa_offset 8
 178              		.cfi_offset 4, -8
 179              		.cfi_offset 14, -4
 180 000e 82B0     		sub	sp, sp, #8
 181              	.LCFI2:
 182              		.cfi_def_cfa_offset 16
 183 0010 0446     		mov	r4, r0
  55:usr/get_cmd.c **** 	{
  56:usr/get_cmd.c **** 		HAL_UART_DMAStop(huart);
 184              		.loc 1 56 3 is_stmt 1 view .LVU37
 185 0012 FFF7FEFF 		bl	HAL_UART_DMAStop
 186              	.LVL17:
  57:usr/get_cmd.c **** 		__HAL_UART_CLEAR_IDLEFLAG(huart);
 187              		.loc 1 57 3 view .LVU38
 188              	.LBB5:
 189              		.loc 1 57 3 view .LVU39
 190 0016 0023     		movs	r3, #0
 191 0018 0193     		str	r3, [sp, #4]
 192              		.loc 1 57 3 view .LVU40
 193 001a 2368     		ldr	r3, [r4]
 194 001c 1A68     		ldr	r2, [r3]
 195 001e 0192     		str	r2, [sp, #4]
 196              		.loc 1 57 3 view .LVU41
 197 0020 5B68     		ldr	r3, [r3, #4]
 198 0022 0193     		str	r3, [sp, #4]
 199              		.loc 1 57 3 view .LVU42
 200 0024 019B     		ldr	r3, [sp, #4]
 201              	.LBE5:
 202              		.loc 1 57 3 view .LVU43
  58:usr/get_cmd.c **** 		Uart_Receive_Data.rxlen = UART_RECEIVE_IDLE_RX_MAXLEN - __HAL_DMA_GET_COUNTER(huart->hdmarx);
 203              		.loc 1 58 3 view .LVU44
 204              		.loc 1 58 59 is_stmt 0 view .LVU45
 205 0026 E36B     		ldr	r3, [r4, #60]
 206 0028 1B68     		ldr	r3, [r3]
 207 002a 5B68     		ldr	r3, [r3, #4]
 208              		.loc 1 58 57 view .LVU46
 209 002c 5B42     		rsbs	r3, r3, #0
 210 002e DBB2     		uxtb	r3, r3
 211              		.loc 1 58 27 view .LVU47
 212 0030 024A     		ldr	r2, .L16
 213 0032 1370     		strb	r3, [r2]
  59:usr/get_cmd.c **** 		Uart_Receive_Data.rxok = 1;
ARM GAS  C:\Users\Dennis\AppData\Local\Temp\ccZNJjMf.s 			page 6


 214              		.loc 1 59 3 is_stmt 1 view .LVU48
 215              		.loc 1 59 26 is_stmt 0 view .LVU49
 216 0034 0123     		movs	r3, #1
 217 0036 5370     		strb	r3, [r2, #1]
  60:usr/get_cmd.c **** 	}
  61:usr/get_cmd.c **** }
 218              		.loc 1 61 1 view .LVU50
 219 0038 02B0     		add	sp, sp, #8
 220              	.LCFI3:
 221              		.cfi_def_cfa_offset 8
 222              		@ sp needed
 223 003a 10BD     		pop	{r4, pc}
 224              	.LVL18:
 225              	.L17:
 226              		.loc 1 61 1 view .LVU51
 227              		.align	2
 228              	.L16:
 229 003c 00000000 		.word	.LANCHOR0
 230              		.cfi_endproc
 231              	.LFE224:
 233              		.global	Uart_Receive_Data
 234              		.section	.data.Uart_Receive_Data,"aw"
 235              		.align	2
 236              		.set	.LANCHOR0,. + 0
 239              	Uart_Receive_Data:
 240 0000 00       		.byte	0
 241 0001 01       		.byte	1
 242 0002 00000000 		.space	256
 242      00000000 
 242      00000000 
 242      00000000 
 242      00000000 
 243              		.text
 244              	.Letext0:
 245              		.file 2 "c:\\software_user\\armgcc\\arm-none-eabi\\include\\machine\\_default_types.h"
 246              		.file 3 "c:\\software_user\\armgcc\\arm-none-eabi\\include\\sys\\_stdint.h"
 247              		.file 4 "Drivers/CMSIS/Device/ST/STM32F4xx/Include/stm32f411xe.h"
 248              		.file 5 "Drivers/CMSIS/Device/ST/STM32F4xx/Include/stm32f4xx.h"
 249              		.file 6 "Drivers/STM32F4xx_HAL_Driver/Inc/stm32f4xx_hal_def.h"
 250              		.file 7 "Drivers/STM32F4xx_HAL_Driver/Inc/stm32f4xx_hal_dma.h"
 251              		.file 8 "Drivers/STM32F4xx_HAL_Driver/Inc/stm32f4xx_hal_uart.h"
 252              		.file 9 "usr/get_cmd.h"
 253              		.file 10 "c:\\software_user\\armgcc\\arm-none-eabi\\include\\stdlib.h"
 254              		.file 11 "c:\\software_user\\armgcc\\arm-none-eabi\\include\\string.h"
 255              		.file 12 "<built-in>"
ARM GAS  C:\Users\Dennis\AppData\Local\Temp\ccZNJjMf.s 			page 7

