ARM GAS  C:\Users\Dennis\AppData\Local\Temp\cce6KUii.s 			page 1


   1              		.cpu cortex-m4
   2              		.arch armv7e-m
   3              		.fpu fpv4-sp-d16
   4              		.eabi_attribute 27, 1
   5              		.eabi_attribute 28, 1
   6              		.eabi_attribute 20, 1
   7              		.eabi_attribute 21, 1
   8              		.eabi_attribute 23, 3
   9              		.eabi_attribute 24, 1
  10              		.eabi_attribute 25, 1
  11              		.eabi_attribute 26, 1
  12              		.eabi_attribute 30, 1
  13              		.eabi_attribute 34, 1
  14              		.eabi_attribute 18, 4
  15              		.file	"app_threadx.c"
  16              		.text
  17              	.Ltext0:
  18              		.cfi_sections	.debug_frame
  19              		.section	.rodata.App_ThreadX_Init.str1.4,"aMS",%progbits,1
  20              		.align	2
  21              	.LC0:
  22 0000 54687265 		.ascii	"Thread_Template\000"
  22      61645F54 
  22      656D706C 
  22      61746500 
  23              		.align	2
  24              	.LC1:
  25 0010 54687265 		.ascii	"Thread_Cmd\000"
  25      61645F43 
  25      6D6400
  26 001b 00       		.align	2
  27              	.LC2:
  28 001c 54687265 		.ascii	"Thread_Motor_Control\000"
  28      61645F4D 
  28      6F746F72 
  28      5F436F6E 
  28      74726F6C 
  29 0031 000000   		.align	2
  30              	.LC3:
  31 0034 54687265 		.ascii	"Thread_oled\000"
  31      61645F6F 
  31      6C656400 
  32              		.align	2
  33              	.LC4:
  34 0040 54687265 		.ascii	"Thread_led\000"
  34      61645F6C 
  34      656400
  35              		.section	.text.App_ThreadX_Init,"ax",%progbits
  36              		.align	1
  37              		.global	App_ThreadX_Init
  38              		.syntax unified
  39              		.thumb
  40              		.thumb_func
  42              	App_ThreadX_Init:
  43              	.LVL0:
  44              	.LFB250:
  45              		.file 1 "./Core/Src/app_threadx.c"
ARM GAS  C:\Users\Dennis\AppData\Local\Temp\cce6KUii.s 			page 2


   1:./Core/Src/app_threadx.c **** /* USER CODE BEGIN Header */
   2:./Core/Src/app_threadx.c **** /**
   3:./Core/Src/app_threadx.c ****   ******************************************************************************
   4:./Core/Src/app_threadx.c ****   * @file    app_threadx.c
   5:./Core/Src/app_threadx.c ****   * @author  MCD Application Team
   6:./Core/Src/app_threadx.c ****   * @brief   ThreadX applicative file
   7:./Core/Src/app_threadx.c ****   ******************************************************************************
   8:./Core/Src/app_threadx.c ****   * @attention
   9:./Core/Src/app_threadx.c ****   *
  10:./Core/Src/app_threadx.c ****   * Copyright (c) 2021 STMicroelectronics.
  11:./Core/Src/app_threadx.c ****   * All rights reserved.
  12:./Core/Src/app_threadx.c ****   *
  13:./Core/Src/app_threadx.c ****   * This software is licensed under terms that can be found in the LICENSE file
  14:./Core/Src/app_threadx.c ****   * in the root directory of this software component.
  15:./Core/Src/app_threadx.c ****   * If no LICENSE file comes with this software, it is provided AS-IS.
  16:./Core/Src/app_threadx.c ****   *
  17:./Core/Src/app_threadx.c ****   ******************************************************************************
  18:./Core/Src/app_threadx.c ****   */
  19:./Core/Src/app_threadx.c **** /* USER CODE END Header */
  20:./Core/Src/app_threadx.c **** 
  21:./Core/Src/app_threadx.c **** /* Includes ------------------------------------------------------------------*/
  22:./Core/Src/app_threadx.c **** #include "app_threadx.h"
  23:./Core/Src/app_threadx.c **** 
  24:./Core/Src/app_threadx.c **** /* Private includes ----------------------------------------------------------*/
  25:./Core/Src/app_threadx.c **** /* USER CODE BEGIN Includes */
  26:./Core/Src/app_threadx.c **** 
  27:./Core/Src/app_threadx.c **** /* USER CODE END Includes */
  28:./Core/Src/app_threadx.c **** 
  29:./Core/Src/app_threadx.c **** /* Private typedef -----------------------------------------------------------*/
  30:./Core/Src/app_threadx.c **** /* USER CODE BEGIN PTD */
  31:./Core/Src/app_threadx.c **** 
  32:./Core/Src/app_threadx.c **** /* USER CODE END PTD */
  33:./Core/Src/app_threadx.c **** 
  34:./Core/Src/app_threadx.c **** /* Private define ------------------------------------------------------------*/
  35:./Core/Src/app_threadx.c **** /* USER CODE BEGIN PD */
  36:./Core/Src/app_threadx.c **** 
  37:./Core/Src/app_threadx.c **** /* USER CODE END PD */
  38:./Core/Src/app_threadx.c **** 
  39:./Core/Src/app_threadx.c **** /* Private macro -------------------------------------------------------------*/
  40:./Core/Src/app_threadx.c **** /* USER CODE BEGIN PM */
  41:./Core/Src/app_threadx.c **** 
  42:./Core/Src/app_threadx.c **** /* USER CODE END PM */
  43:./Core/Src/app_threadx.c **** 
  44:./Core/Src/app_threadx.c **** /* Private variables ---------------------------------------------------------*/
  45:./Core/Src/app_threadx.c **** /* USER CODE BEGIN PV */
  46:./Core/Src/app_threadx.c **** 
  47:./Core/Src/app_threadx.c **** /* USER CODE END PV */
  48:./Core/Src/app_threadx.c **** 
  49:./Core/Src/app_threadx.c **** /* Private function prototypes -----------------------------------------------*/
  50:./Core/Src/app_threadx.c **** /* USER CODE BEGIN PFP */
  51:./Core/Src/app_threadx.c **** 
  52:./Core/Src/app_threadx.c **** /* USER CODE END PFP */
  53:./Core/Src/app_threadx.c **** 
  54:./Core/Src/app_threadx.c **** /**
  55:./Core/Src/app_threadx.c ****   * @brief  Application ThreadX Initialization.
  56:./Core/Src/app_threadx.c ****   * @param memory_ptr: memory pointer
  57:./Core/Src/app_threadx.c ****   * @retval int
ARM GAS  C:\Users\Dennis\AppData\Local\Temp\cce6KUii.s 			page 3


  58:./Core/Src/app_threadx.c ****   */
  59:./Core/Src/app_threadx.c **** UINT App_ThreadX_Init(VOID *memory_ptr)
  60:./Core/Src/app_threadx.c **** {
  46              		.loc 1 60 1 view -0
  47              		.cfi_startproc
  48              		@ args = 0, pretend = 0, frame = 8
  49              		@ frame_needed = 0, uses_anonymous_args = 0
  50              		.loc 1 60 1 is_stmt 0 view .LVU1
  51 0000 30B5     		push	{r4, r5, lr}
  52              	.LCFI0:
  53              		.cfi_def_cfa_offset 12
  54              		.cfi_offset 4, -12
  55              		.cfi_offset 5, -8
  56              		.cfi_offset 14, -4
  57 0002 8BB0     		sub	sp, sp, #44
  58              	.LCFI1:
  59              		.cfi_def_cfa_offset 56
  60 0004 0446     		mov	r4, r0
  61:./Core/Src/app_threadx.c ****   UINT ret = TX_SUCCESS;
  61              		.loc 1 61 3 is_stmt 1 view .LVU2
  62              	.LVL1:
  62:./Core/Src/app_threadx.c ****   TX_BYTE_POOL *byte_pool = (TX_BYTE_POOL*)memory_ptr;
  63              		.loc 1 62 3 view .LVU3
  63:./Core/Src/app_threadx.c **** 
  64:./Core/Src/app_threadx.c ****   /* USER CODE BEGIN App_ThreadX_Init */
  65:./Core/Src/app_threadx.c **** 
  66:./Core/Src/app_threadx.c **** 
  67:./Core/Src/app_threadx.c ****   (void)byte_pool;
  64              		.loc 1 67 3 view .LVU4
  68:./Core/Src/app_threadx.c ****   CHAR *pointer;
  65              		.loc 1 68 3 view .LVU5
  69:./Core/Src/app_threadx.c **** 
  70:./Core/Src/app_threadx.c **** //************************************************template线程***********************************
  71:./Core/Src/app_threadx.c ****   if (tx_byte_allocate(byte_pool, (VOID **) &pointer,
  66              		.loc 1 71 3 view .LVU6
  67              		.loc 1 71 7 is_stmt 0 view .LVU7
  68 0006 0023     		movs	r3, #0
  69 0008 4FF40072 		mov	r2, #512
  70 000c 09A9     		add	r1, sp, #36
  71 000e FFF7FEFF 		bl	_txe_byte_allocate
  72              	.LVL2:
  73              		.loc 1 71 6 view .LVU8
  74 0012 0546     		mov	r5, r0
  75 0014 00B1     		cbz	r0, .L2
  72:./Core/Src/app_threadx.c ****                       Thread_Template_Size, TX_NO_WAIT) != TX_SUCCESS)    ret = TX_POOL_ERROR;
  76              		.loc 1 72 79 view .LVU9
  77 0016 0225     		movs	r5, #2
  78              	.L2:
  79              	.LVL3:
  73:./Core/Src/app_threadx.c ****   if(tx_thread_create(&Thread_Template, "Thread_Template",
  80              		.loc 1 73 3 is_stmt 1 view .LVU10
  81              		.loc 1 73 6 is_stmt 0 view .LVU11
  82 0018 B023     		movs	r3, #176
  83 001a 0693     		str	r3, [sp, #24]
  84 001c 0123     		movs	r3, #1
  85 001e 0593     		str	r3, [sp, #20]
  86 0020 0023     		movs	r3, #0
ARM GAS  C:\Users\Dennis\AppData\Local\Temp\cce6KUii.s 			page 4


  87 0022 0493     		str	r3, [sp, #16]
  88 0024 1F23     		movs	r3, #31
  89 0026 0393     		str	r3, [sp, #12]
  90 0028 0293     		str	r3, [sp, #8]
  91 002a 4FF40073 		mov	r3, #512
  92 002e 0193     		str	r3, [sp, #4]
  93 0030 099B     		ldr	r3, [sp, #36]
  94 0032 0093     		str	r3, [sp]
  95 0034 434B     		ldr	r3, .L24
  96 0036 444A     		ldr	r2, .L24+4
  97 0038 4449     		ldr	r1, .L24+8
  98 003a 4548     		ldr	r0, .L24+12
  99 003c FFF7FEFF 		bl	_txe_thread_create
 100              	.LVL4:
 101              		.loc 1 73 5 view .LVU12
 102 0040 00B1     		cbz	r0, .L3
  74:./Core/Src/app_threadx.c ****                       Thread_Template_Entry, (ULONG)&Thread_Template_parama1, pointer, Thread_Templ
  75:./Core/Src/app_threadx.c ****                       Thread_Template_PRIO, Thread_Template_threshold,
  76:./Core/Src/app_threadx.c ****                       TX_NO_TIME_SLICE, TX_AUTO_START) != TX_SUCCESS) ret = TX_THREAD_ERROR;
 103              		.loc 1 76 75 view .LVU13
 104 0042 0E25     		movs	r5, #14
 105              	.LVL5:
 106              	.L3:
  77:./Core/Src/app_threadx.c **** 
  78:./Core/Src/app_threadx.c **** //************************************************Cmd线程****************************************
  79:./Core/Src/app_threadx.c ****   if (tx_byte_allocate(byte_pool, (VOID **) &pointer,
 107              		.loc 1 79 3 is_stmt 1 view .LVU14
 108              		.loc 1 79 7 is_stmt 0 view .LVU15
 109 0044 0023     		movs	r3, #0
 110 0046 4FF40062 		mov	r2, #2048
 111 004a 09A9     		add	r1, sp, #36
 112 004c 2046     		mov	r0, r4
 113 004e FFF7FEFF 		bl	_txe_byte_allocate
 114              	.LVL6:
 115              		.loc 1 79 6 view .LVU16
 116 0052 00B1     		cbz	r0, .L4
  80:./Core/Src/app_threadx.c ****                       Thread_Cmd_Size, TX_NO_WAIT) != TX_SUCCESS)    ret = TX_POOL_ERROR;
 117              		.loc 1 80 74 view .LVU17
 118 0054 0225     		movs	r5, #2
 119              	.LVL7:
 120              	.L4:
  81:./Core/Src/app_threadx.c ****   if(tx_thread_create(&Thread_Cmd, "Thread_Cmd",
 121              		.loc 1 81 3 is_stmt 1 view .LVU18
 122              		.loc 1 81 6 is_stmt 0 view .LVU19
 123 0056 B023     		movs	r3, #176
 124 0058 0693     		str	r3, [sp, #24]
 125 005a 0123     		movs	r3, #1
 126 005c 0593     		str	r3, [sp, #20]
 127 005e 0023     		movs	r3, #0
 128 0060 0493     		str	r3, [sp, #16]
 129 0062 1123     		movs	r3, #17
 130 0064 0393     		str	r3, [sp, #12]
 131 0066 0293     		str	r3, [sp, #8]
 132 0068 4FF40063 		mov	r3, #2048
 133 006c 0193     		str	r3, [sp, #4]
 134 006e 099B     		ldr	r3, [sp, #36]
 135 0070 0093     		str	r3, [sp]
ARM GAS  C:\Users\Dennis\AppData\Local\Temp\cce6KUii.s 			page 5


 136 0072 384B     		ldr	r3, .L24+16
 137 0074 384A     		ldr	r2, .L24+20
 138 0076 3949     		ldr	r1, .L24+24
 139 0078 3948     		ldr	r0, .L24+28
 140 007a FFF7FEFF 		bl	_txe_thread_create
 141              	.LVL8:
 142              		.loc 1 81 5 view .LVU20
 143 007e 00B1     		cbz	r0, .L5
  82:./Core/Src/app_threadx.c ****                       Thread_Cmd_Entry, (ULONG)&Thread_Cmd_parama1, pointer, Thread_Cmd_Size,
  83:./Core/Src/app_threadx.c ****                       Thread_Cmd_PRIO, Thread_Cmd_threshold,
  84:./Core/Src/app_threadx.c ****                       TX_NO_TIME_SLICE, TX_AUTO_START) != TX_SUCCESS) ret = TX_THREAD_ERROR;
 144              		.loc 1 84 75 view .LVU21
 145 0080 0E25     		movs	r5, #14
 146              	.LVL9:
 147              	.L5:
  85:./Core/Src/app_threadx.c **** 
  86:./Core/Src/app_threadx.c **** //************************************************Motor_Ctrl线程*********************************
  87:./Core/Src/app_threadx.c **** if (tx_byte_allocate(byte_pool, (VOID **) &pointer,
 148              		.loc 1 87 1 is_stmt 1 view .LVU22
 149              		.loc 1 87 5 is_stmt 0 view .LVU23
 150 0082 0023     		movs	r3, #0
 151 0084 4FF48052 		mov	r2, #4096
 152 0088 09A9     		add	r1, sp, #36
 153 008a 2046     		mov	r0, r4
 154 008c FFF7FEFF 		bl	_txe_byte_allocate
 155              	.LVL10:
 156              		.loc 1 87 4 view .LVU24
 157 0090 00B1     		cbz	r0, .L6
  88:./Core/Src/app_threadx.c ****                       Thread_Motor_Control_Size, TX_NO_WAIT) != TX_SUCCESS)    ret = TX_POOL_ERROR;
 158              		.loc 1 88 84 view .LVU25
 159 0092 0225     		movs	r5, #2
 160              	.LVL11:
 161              	.L6:
  89:./Core/Src/app_threadx.c **** if(tx_thread_create(&Thread_Motor_Control, "Thread_Motor_Control",
 162              		.loc 1 89 1 is_stmt 1 view .LVU26
 163              		.loc 1 89 4 is_stmt 0 view .LVU27
 164 0094 B023     		movs	r3, #176
 165 0096 0693     		str	r3, [sp, #24]
 166 0098 0123     		movs	r3, #1
 167 009a 0593     		str	r3, [sp, #20]
 168 009c 0023     		movs	r3, #0
 169 009e 0493     		str	r3, [sp, #16]
 170 00a0 0F23     		movs	r3, #15
 171 00a2 0393     		str	r3, [sp, #12]
 172 00a4 0293     		str	r3, [sp, #8]
 173 00a6 4FF48053 		mov	r3, #4096
 174 00aa 0193     		str	r3, [sp, #4]
 175 00ac 099B     		ldr	r3, [sp, #36]
 176 00ae 0093     		str	r3, [sp]
 177 00b0 2C4B     		ldr	r3, .L24+32
 178 00b2 2D4A     		ldr	r2, .L24+36
 179 00b4 2D49     		ldr	r1, .L24+40
 180 00b6 2E48     		ldr	r0, .L24+44
 181 00b8 FFF7FEFF 		bl	_txe_thread_create
 182              	.LVL12:
 183              		.loc 1 89 3 view .LVU28
 184 00bc 00B1     		cbz	r0, .L7
ARM GAS  C:\Users\Dennis\AppData\Local\Temp\cce6KUii.s 			page 6


  90:./Core/Src/app_threadx.c ****                       Thread_Motor_Control_Entry, (ULONG)&Thread_Motor_Control_parama1, pointer, Th
  91:./Core/Src/app_threadx.c ****                       Thread_Motor_Control_PRIO, Thread_Motor_Control_threshold,
  92:./Core/Src/app_threadx.c ****                       TX_NO_TIME_SLICE, TX_AUTO_START) != TX_SUCCESS) ret = TX_THREAD_ERROR;
 185              		.loc 1 92 75 view .LVU29
 186 00be 0E25     		movs	r5, #14
 187              	.LVL13:
 188              	.L7:
  93:./Core/Src/app_threadx.c **** 
  94:./Core/Src/app_threadx.c **** //************************************************oled线程***************************************
  95:./Core/Src/app_threadx.c **** if (tx_byte_allocate(byte_pool, (VOID **) &pointer,
 189              		.loc 1 95 1 is_stmt 1 view .LVU30
 190              		.loc 1 95 5 is_stmt 0 view .LVU31
 191 00c0 0023     		movs	r3, #0
 192 00c2 4FF40062 		mov	r2, #2048
 193 00c6 09A9     		add	r1, sp, #36
 194 00c8 2046     		mov	r0, r4
 195 00ca FFF7FEFF 		bl	_txe_byte_allocate
 196              	.LVL14:
 197              		.loc 1 95 4 view .LVU32
 198 00ce 00B1     		cbz	r0, .L8
  96:./Core/Src/app_threadx.c ****                       Thread_oled_Size, TX_NO_WAIT) != TX_SUCCESS)    ret = TX_POOL_ERROR;
 199              		.loc 1 96 75 view .LVU33
 200 00d0 0225     		movs	r5, #2
 201              	.LVL15:
 202              	.L8:
  97:./Core/Src/app_threadx.c **** if(tx_thread_create(&Thread_oled, "Thread_oled",
 203              		.loc 1 97 1 is_stmt 1 view .LVU34
 204              		.loc 1 97 4 is_stmt 0 view .LVU35
 205 00d2 B023     		movs	r3, #176
 206 00d4 0693     		str	r3, [sp, #24]
 207 00d6 0123     		movs	r3, #1
 208 00d8 0593     		str	r3, [sp, #20]
 209 00da 0023     		movs	r3, #0
 210 00dc 0493     		str	r3, [sp, #16]
 211 00de 1423     		movs	r3, #20
 212 00e0 0393     		str	r3, [sp, #12]
 213 00e2 0293     		str	r3, [sp, #8]
 214 00e4 4FF40063 		mov	r3, #2048
 215 00e8 0193     		str	r3, [sp, #4]
 216 00ea 099B     		ldr	r3, [sp, #36]
 217 00ec 0093     		str	r3, [sp]
 218 00ee 214B     		ldr	r3, .L24+48
 219 00f0 214A     		ldr	r2, .L24+52
 220 00f2 2249     		ldr	r1, .L24+56
 221 00f4 2248     		ldr	r0, .L24+60
 222 00f6 FFF7FEFF 		bl	_txe_thread_create
 223              	.LVL16:
 224              		.loc 1 97 3 view .LVU36
 225 00fa 00B1     		cbz	r0, .L9
  98:./Core/Src/app_threadx.c ****                       Thread_oled_Entry, (ULONG)&Thread_oled_parama1, pointer, Thread_oled_Size,
  99:./Core/Src/app_threadx.c ****                       Thread_oled_PRIO, Thread_oled_threshold,
 100:./Core/Src/app_threadx.c ****                       TX_NO_TIME_SLICE, TX_AUTO_START) != TX_SUCCESS) ret = TX_THREAD_ERROR;
 226              		.loc 1 100 75 view .LVU37
 227 00fc 0E25     		movs	r5, #14
 228              	.LVL17:
 229              	.L9:
 101:./Core/Src/app_threadx.c **** 
ARM GAS  C:\Users\Dennis\AppData\Local\Temp\cce6KUii.s 			page 7


 102:./Core/Src/app_threadx.c **** //************************************************led线程****************************************
 103:./Core/Src/app_threadx.c **** if (tx_byte_allocate(byte_pool, (VOID **) &pointer,
 230              		.loc 1 103 1 is_stmt 1 view .LVU38
 231              		.loc 1 103 5 is_stmt 0 view .LVU39
 232 00fe 0023     		movs	r3, #0
 233 0100 4FF40072 		mov	r2, #512
 234 0104 09A9     		add	r1, sp, #36
 235 0106 2046     		mov	r0, r4
 236 0108 FFF7FEFF 		bl	_txe_byte_allocate
 237              	.LVL18:
 238              		.loc 1 103 4 view .LVU40
 239 010c 00B1     		cbz	r0, .L10
 104:./Core/Src/app_threadx.c ****                       Thread_led_Size, TX_NO_WAIT) != TX_SUCCESS)    ret = TX_POOL_ERROR;
 240              		.loc 1 104 74 view .LVU41
 241 010e 0225     		movs	r5, #2
 242              	.LVL19:
 243              	.L10:
 105:./Core/Src/app_threadx.c **** if(tx_thread_create(&Thread_led, "Thread_led",
 244              		.loc 1 105 1 is_stmt 1 view .LVU42
 245              		.loc 1 105 4 is_stmt 0 view .LVU43
 246 0110 B023     		movs	r3, #176
 247 0112 0693     		str	r3, [sp, #24]
 248 0114 0123     		movs	r3, #1
 249 0116 0593     		str	r3, [sp, #20]
 250 0118 0023     		movs	r3, #0
 251 011a 0493     		str	r3, [sp, #16]
 252 011c 1323     		movs	r3, #19
 253 011e 0393     		str	r3, [sp, #12]
 254 0120 0293     		str	r3, [sp, #8]
 255 0122 4FF40073 		mov	r3, #512
 256 0126 0193     		str	r3, [sp, #4]
 257 0128 099B     		ldr	r3, [sp, #36]
 258 012a 0093     		str	r3, [sp]
 259 012c 154B     		ldr	r3, .L24+64
 260 012e 164A     		ldr	r2, .L24+68
 261 0130 1649     		ldr	r1, .L24+72
 262 0132 1748     		ldr	r0, .L24+76
 263 0134 FFF7FEFF 		bl	_txe_thread_create
 264              	.LVL20:
 265              		.loc 1 105 3 view .LVU44
 266 0138 10B9     		cbnz	r0, .L23
 267              	.LVL21:
 268              	.L1:
 106:./Core/Src/app_threadx.c ****                       Thread_led_Entry, (ULONG)&Thread_led_parama1, pointer, Thread_led_Size,
 107:./Core/Src/app_threadx.c ****                       Thread_led_PRIO, Thread_led_threshold,
 108:./Core/Src/app_threadx.c ****                       TX_NO_TIME_SLICE, TX_AUTO_START) != TX_SUCCESS) ret = TX_THREAD_ERROR;
 109:./Core/Src/app_threadx.c **** 
 110:./Core/Src/app_threadx.c **** 
 111:./Core/Src/app_threadx.c **** 
 112:./Core/Src/app_threadx.c **** 
 113:./Core/Src/app_threadx.c **** 
 114:./Core/Src/app_threadx.c **** 
 115:./Core/Src/app_threadx.c **** 
 116:./Core/Src/app_threadx.c **** 
 117:./Core/Src/app_threadx.c ****   /* USER CODE END App_ThreadX_Init */
 118:./Core/Src/app_threadx.c **** 
 119:./Core/Src/app_threadx.c ****   return ret;
ARM GAS  C:\Users\Dennis\AppData\Local\Temp\cce6KUii.s 			page 8


 120:./Core/Src/app_threadx.c **** }
 269              		.loc 1 120 1 view .LVU45
 270 013a 2846     		mov	r0, r5
 271 013c 0BB0     		add	sp, sp, #44
 272              	.LCFI2:
 273              		.cfi_remember_state
 274              		.cfi_def_cfa_offset 12
 275              		@ sp needed
 276 013e 30BD     		pop	{r4, r5, pc}
 277              	.LVL22:
 278              	.L23:
 279              	.LCFI3:
 280              		.cfi_restore_state
 108:./Core/Src/app_threadx.c **** 
 281              		.loc 1 108 75 view .LVU46
 282 0140 0E25     		movs	r5, #14
 283              	.LVL23:
 119:./Core/Src/app_threadx.c **** }
 284              		.loc 1 119 3 is_stmt 1 view .LVU47
 119:./Core/Src/app_threadx.c **** }
 285              		.loc 1 119 10 is_stmt 0 view .LVU48
 286 0142 FAE7     		b	.L1
 287              	.L25:
 288              		.align	2
 289              	.L24:
 290 0144 00000000 		.word	Thread_Template_parama1
 291 0148 00000000 		.word	Thread_Template_Entry
 292 014c 00000000 		.word	.LC0
 293 0150 00000000 		.word	Thread_Template
 294 0154 00000000 		.word	Thread_Cmd_parama1
 295 0158 00000000 		.word	Thread_Cmd_Entry
 296 015c 10000000 		.word	.LC1
 297 0160 00000000 		.word	Thread_Cmd
 298 0164 00000000 		.word	Thread_Motor_Control_parama1
 299 0168 00000000 		.word	Thread_Motor_Control_Entry
 300 016c 1C000000 		.word	.LC2
 301 0170 00000000 		.word	Thread_Motor_Control
 302 0174 00000000 		.word	Thread_oled_parama1
 303 0178 00000000 		.word	Thread_oled_Entry
 304 017c 34000000 		.word	.LC3
 305 0180 00000000 		.word	Thread_oled
 306 0184 00000000 		.word	Thread_led_parama1
 307 0188 00000000 		.word	Thread_led_Entry
 308 018c 40000000 		.word	.LC4
 309 0190 00000000 		.word	Thread_led
 310              		.cfi_endproc
 311              	.LFE250:
 313              		.section	.text.MX_ThreadX_Init,"ax",%progbits
 314              		.align	1
 315              		.global	MX_ThreadX_Init
 316              		.syntax unified
 317              		.thumb
 318              		.thumb_func
 320              	MX_ThreadX_Init:
 321              	.LFB251:
 121:./Core/Src/app_threadx.c **** 
 122:./Core/Src/app_threadx.c **** /**
ARM GAS  C:\Users\Dennis\AppData\Local\Temp\cce6KUii.s 			page 9


 123:./Core/Src/app_threadx.c ****   * @brief  MX_ThreadX_Init
 124:./Core/Src/app_threadx.c ****   * @param  None
 125:./Core/Src/app_threadx.c ****   * @retval None
 126:./Core/Src/app_threadx.c ****   */
 127:./Core/Src/app_threadx.c **** void MX_ThreadX_Init(void)
 128:./Core/Src/app_threadx.c **** {
 322              		.loc 1 128 1 is_stmt 1 view -0
 323              		.cfi_startproc
 324              		@ args = 0, pretend = 0, frame = 0
 325              		@ frame_needed = 0, uses_anonymous_args = 0
 326 0000 08B5     		push	{r3, lr}
 327              	.LCFI4:
 328              		.cfi_def_cfa_offset 8
 329              		.cfi_offset 3, -8
 330              		.cfi_offset 14, -4
 129:./Core/Src/app_threadx.c ****   /* USER CODE BEGIN  Before_Kernel_Start */
 130:./Core/Src/app_threadx.c **** 
 131:./Core/Src/app_threadx.c ****   /* USER CODE END  Before_Kernel_Start */
 132:./Core/Src/app_threadx.c **** 
 133:./Core/Src/app_threadx.c ****   tx_kernel_enter();
 331              		.loc 1 133 3 view .LVU50
 332 0002 FFF7FEFF 		bl	_tx_initialize_kernel_enter
 333              	.LVL24:
 134:./Core/Src/app_threadx.c **** 
 135:./Core/Src/app_threadx.c ****   /* USER CODE BEGIN  Kernel_Start_Error */
 136:./Core/Src/app_threadx.c **** 
 137:./Core/Src/app_threadx.c ****   /* USER CODE END  Kernel_Start_Error */
 138:./Core/Src/app_threadx.c **** }
 334              		.loc 1 138 1 is_stmt 0 view .LVU51
 335 0006 08BD     		pop	{r3, pc}
 336              		.cfi_endproc
 337              	.LFE251:
 339              		.text
 340              	.Letext0:
 341              		.file 2 "c:\\software_user\\armgcc\\arm-none-eabi\\include\\machine\\_default_types.h"
 342              		.file 3 "./Middlewares/ST/threadx/ports/cortex_m4/gnu/inc/tx_port.h"
 343              		.file 4 "./Middlewares/ST/threadx/common/inc/tx_api.h"
 344              		.file 5 "c:\\software_user\\armgcc\\arm-none-eabi\\include\\sys\\_stdint.h"
 345              		.file 6 "./app/Threads/Thread_template/Thread_template.h"
 346              		.file 7 "./app/Threads/Thread_cmd/Thread_cmd.h"
 347              		.file 8 "./app/Threads/Thread_Motor_Control/Thread_Motor_Control.h"
 348              		.file 9 "./app/peripheral/inc/OLED_Front.h"
 349              		.file 10 "./app/Threads/Thread_oled/Thread_oled.h"
 350              		.file 11 "./app/Threads/Thread_led/Thread_led.h"
ARM GAS  C:\Users\Dennis\AppData\Local\Temp\cce6KUii.s 			page 10

