ARM GAS  C:\Users\Dennis\AppData\Local\Temp\ccK9Vbwl.s 			page 1


   1              		.cpu cortex-m4
   2              		.arch armv7e-m
   3              		.fpu fpv4-sp-d16
   4              		.eabi_attribute 27, 1
   5              		.eabi_attribute 28, 1
   6              		.eabi_attribute 20, 1
   7              		.eabi_attribute 21, 1
   8              		.eabi_attribute 23, 3
   9              		.eabi_attribute 24, 1
  10              		.eabi_attribute 25, 1
  11              		.eabi_attribute 26, 1
  12              		.eabi_attribute 30, 1
  13              		.eabi_attribute 34, 1
  14              		.eabi_attribute 18, 4
  15              		.file	"app_threadx.c"
  16              		.text
  17              	.Ltext0:
  18              		.cfi_sections	.debug_frame
  19              		.section	.rodata.App_ThreadX_Init.str1.4,"aMS",%progbits,1
  20              		.align	2
  21              	.LC0:
  22 0000 54687265 		.ascii	"Thread_Template\000"
  22      61645F54 
  22      656D706C 
  22      61746500 
  23              		.align	2
  24              	.LC1:
  25 0010 54687265 		.ascii	"Thread_Cmd\000"
  25      61645F43 
  25      6D6400
  26 001b 00       		.align	2
  27              	.LC2:
  28 001c 54687265 		.ascii	"Thread_Motor_Control\000"
  28      61645F4D 
  28      6F746F72 
  28      5F436F6E 
  28      74726F6C 
  29              		.section	.text.App_ThreadX_Init,"ax",%progbits
  30              		.align	1
  31              		.global	App_ThreadX_Init
  32              		.syntax unified
  33              		.thumb
  34              		.thumb_func
  36              	App_ThreadX_Init:
  37              	.LVL0:
  38              	.LFB250:
  39              		.file 1 "./Core/Src/app_threadx.c"
   1:./Core/Src/app_threadx.c **** /* USER CODE BEGIN Header */
   2:./Core/Src/app_threadx.c **** /**
   3:./Core/Src/app_threadx.c ****   ******************************************************************************
   4:./Core/Src/app_threadx.c ****   * @file    app_threadx.c
   5:./Core/Src/app_threadx.c ****   * @author  MCD Application Team
   6:./Core/Src/app_threadx.c ****   * @brief   ThreadX applicative file
   7:./Core/Src/app_threadx.c ****   ******************************************************************************
   8:./Core/Src/app_threadx.c ****   * @attention
   9:./Core/Src/app_threadx.c ****   *
  10:./Core/Src/app_threadx.c ****   * Copyright (c) 2021 STMicroelectronics.
ARM GAS  C:\Users\Dennis\AppData\Local\Temp\ccK9Vbwl.s 			page 2


  11:./Core/Src/app_threadx.c ****   * All rights reserved.
  12:./Core/Src/app_threadx.c ****   *
  13:./Core/Src/app_threadx.c ****   * This software is licensed under terms that can be found in the LICENSE file
  14:./Core/Src/app_threadx.c ****   * in the root directory of this software component.
  15:./Core/Src/app_threadx.c ****   * If no LICENSE file comes with this software, it is provided AS-IS.
  16:./Core/Src/app_threadx.c ****   *
  17:./Core/Src/app_threadx.c ****   ******************************************************************************
  18:./Core/Src/app_threadx.c ****   */
  19:./Core/Src/app_threadx.c **** /* USER CODE END Header */
  20:./Core/Src/app_threadx.c **** 
  21:./Core/Src/app_threadx.c **** /* Includes ------------------------------------------------------------------*/
  22:./Core/Src/app_threadx.c **** #include "app_threadx.h"
  23:./Core/Src/app_threadx.c **** 
  24:./Core/Src/app_threadx.c **** /* Private includes ----------------------------------------------------------*/
  25:./Core/Src/app_threadx.c **** /* USER CODE BEGIN Includes */
  26:./Core/Src/app_threadx.c **** 
  27:./Core/Src/app_threadx.c **** /* USER CODE END Includes */
  28:./Core/Src/app_threadx.c **** 
  29:./Core/Src/app_threadx.c **** /* Private typedef -----------------------------------------------------------*/
  30:./Core/Src/app_threadx.c **** /* USER CODE BEGIN PTD */
  31:./Core/Src/app_threadx.c **** 
  32:./Core/Src/app_threadx.c **** /* USER CODE END PTD */
  33:./Core/Src/app_threadx.c **** 
  34:./Core/Src/app_threadx.c **** /* Private define ------------------------------------------------------------*/
  35:./Core/Src/app_threadx.c **** /* USER CODE BEGIN PD */
  36:./Core/Src/app_threadx.c **** 
  37:./Core/Src/app_threadx.c **** /* USER CODE END PD */
  38:./Core/Src/app_threadx.c **** 
  39:./Core/Src/app_threadx.c **** /* Private macro -------------------------------------------------------------*/
  40:./Core/Src/app_threadx.c **** /* USER CODE BEGIN PM */
  41:./Core/Src/app_threadx.c **** 
  42:./Core/Src/app_threadx.c **** /* USER CODE END PM */
  43:./Core/Src/app_threadx.c **** 
  44:./Core/Src/app_threadx.c **** /* Private variables ---------------------------------------------------------*/
  45:./Core/Src/app_threadx.c **** /* USER CODE BEGIN PV */
  46:./Core/Src/app_threadx.c **** 
  47:./Core/Src/app_threadx.c **** /* USER CODE END PV */
  48:./Core/Src/app_threadx.c **** 
  49:./Core/Src/app_threadx.c **** /* Private function prototypes -----------------------------------------------*/
  50:./Core/Src/app_threadx.c **** /* USER CODE BEGIN PFP */
  51:./Core/Src/app_threadx.c **** 
  52:./Core/Src/app_threadx.c **** /* USER CODE END PFP */
  53:./Core/Src/app_threadx.c **** 
  54:./Core/Src/app_threadx.c **** /**
  55:./Core/Src/app_threadx.c ****   * @brief  Application ThreadX Initialization.
  56:./Core/Src/app_threadx.c ****   * @param memory_ptr: memory pointer
  57:./Core/Src/app_threadx.c ****   * @retval int
  58:./Core/Src/app_threadx.c ****   */
  59:./Core/Src/app_threadx.c **** UINT App_ThreadX_Init(VOID *memory_ptr)
  60:./Core/Src/app_threadx.c **** {
  40              		.loc 1 60 1 view -0
  41              		.cfi_startproc
  42              		@ args = 0, pretend = 0, frame = 8
  43              		@ frame_needed = 0, uses_anonymous_args = 0
  44              		.loc 1 60 1 is_stmt 0 view .LVU1
  45 0000 30B5     		push	{r4, r5, lr}
  46              	.LCFI0:
ARM GAS  C:\Users\Dennis\AppData\Local\Temp\ccK9Vbwl.s 			page 3


  47              		.cfi_def_cfa_offset 12
  48              		.cfi_offset 4, -12
  49              		.cfi_offset 5, -8
  50              		.cfi_offset 14, -4
  51 0002 8BB0     		sub	sp, sp, #44
  52              	.LCFI1:
  53              		.cfi_def_cfa_offset 56
  54 0004 0446     		mov	r4, r0
  61:./Core/Src/app_threadx.c ****   UINT ret = TX_SUCCESS;
  55              		.loc 1 61 3 is_stmt 1 view .LVU2
  56              	.LVL1:
  62:./Core/Src/app_threadx.c ****   TX_BYTE_POOL *byte_pool = (TX_BYTE_POOL*)memory_ptr;
  57              		.loc 1 62 3 view .LVU3
  63:./Core/Src/app_threadx.c **** 
  64:./Core/Src/app_threadx.c ****   /* USER CODE BEGIN App_ThreadX_Init */
  65:./Core/Src/app_threadx.c **** 
  66:./Core/Src/app_threadx.c **** 
  67:./Core/Src/app_threadx.c ****   (void)byte_pool;
  58              		.loc 1 67 3 view .LVU4
  68:./Core/Src/app_threadx.c ****   CHAR *pointer;
  59              		.loc 1 68 3 view .LVU5
  69:./Core/Src/app_threadx.c **** 
  70:./Core/Src/app_threadx.c **** //************************************************template线程***********************************
  71:./Core/Src/app_threadx.c ****   if (tx_byte_allocate(byte_pool, (VOID **) &pointer,
  60              		.loc 1 71 3 view .LVU6
  61              		.loc 1 71 7 is_stmt 0 view .LVU7
  62 0006 0023     		movs	r3, #0
  63 0008 4FF40072 		mov	r2, #512
  64 000c 09A9     		add	r1, sp, #36
  65 000e FFF7FEFF 		bl	_txe_byte_allocate
  66              	.LVL2:
  67              		.loc 1 71 6 view .LVU8
  68 0012 0546     		mov	r5, r0
  69 0014 00B1     		cbz	r0, .L2
  72:./Core/Src/app_threadx.c ****                       Thread_Template_Size, TX_NO_WAIT) != TX_SUCCESS)    ret = TX_POOL_ERROR;
  70              		.loc 1 72 79 view .LVU9
  71 0016 0225     		movs	r5, #2
  72              	.L2:
  73              	.LVL3:
  73:./Core/Src/app_threadx.c ****   if(tx_thread_create(&Thread_Template, "Thread_Template",
  74              		.loc 1 73 3 is_stmt 1 view .LVU10
  75              		.loc 1 73 6 is_stmt 0 view .LVU11
  76 0018 B023     		movs	r3, #176
  77 001a 0693     		str	r3, [sp, #24]
  78 001c 0123     		movs	r3, #1
  79 001e 0593     		str	r3, [sp, #20]
  80 0020 0023     		movs	r3, #0
  81 0022 0493     		str	r3, [sp, #16]
  82 0024 1423     		movs	r3, #20
  83 0026 0393     		str	r3, [sp, #12]
  84 0028 0293     		str	r3, [sp, #8]
  85 002a 4FF40073 		mov	r3, #512
  86 002e 0193     		str	r3, [sp, #4]
  87 0030 099B     		ldr	r3, [sp, #36]
  88 0032 0093     		str	r3, [sp]
  89 0034 244B     		ldr	r3, .L16
  90 0036 254A     		ldr	r2, .L16+4
ARM GAS  C:\Users\Dennis\AppData\Local\Temp\ccK9Vbwl.s 			page 4


  91 0038 2549     		ldr	r1, .L16+8
  92 003a 2648     		ldr	r0, .L16+12
  93 003c FFF7FEFF 		bl	_txe_thread_create
  94              	.LVL4:
  95              		.loc 1 73 5 view .LVU12
  96 0040 00B1     		cbz	r0, .L3
  74:./Core/Src/app_threadx.c ****                       Thread_Template_Entry, (ULONG)&Thread_Template_parama1, pointer, Thread_Templ
  75:./Core/Src/app_threadx.c ****                       Thread_Template_PRIO, Thread_Template_threshold,
  76:./Core/Src/app_threadx.c ****                       TX_NO_TIME_SLICE, TX_AUTO_START) != TX_SUCCESS) ret = TX_THREAD_ERROR;
  97              		.loc 1 76 75 view .LVU13
  98 0042 0E25     		movs	r5, #14
  99              	.LVL5:
 100              	.L3:
  77:./Core/Src/app_threadx.c **** 
  78:./Core/Src/app_threadx.c **** //************************************************Cmd线程****************************************
  79:./Core/Src/app_threadx.c ****   if (tx_byte_allocate(byte_pool, (VOID **) &pointer,
 101              		.loc 1 79 3 is_stmt 1 view .LVU14
 102              		.loc 1 79 7 is_stmt 0 view .LVU15
 103 0044 0023     		movs	r3, #0
 104 0046 4FF40062 		mov	r2, #2048
 105 004a 09A9     		add	r1, sp, #36
 106 004c 2046     		mov	r0, r4
 107 004e FFF7FEFF 		bl	_txe_byte_allocate
 108              	.LVL6:
 109              		.loc 1 79 6 view .LVU16
 110 0052 00B1     		cbz	r0, .L4
  80:./Core/Src/app_threadx.c ****                       Thread_Cmd_Size, TX_NO_WAIT) != TX_SUCCESS)    ret = TX_POOL_ERROR;
 111              		.loc 1 80 74 view .LVU17
 112 0054 0225     		movs	r5, #2
 113              	.LVL7:
 114              	.L4:
  81:./Core/Src/app_threadx.c ****   if(tx_thread_create(&Thread_Cmd, "Thread_Cmd",
 115              		.loc 1 81 3 is_stmt 1 view .LVU18
 116              		.loc 1 81 6 is_stmt 0 view .LVU19
 117 0056 B023     		movs	r3, #176
 118 0058 0693     		str	r3, [sp, #24]
 119 005a 0123     		movs	r3, #1
 120 005c 0593     		str	r3, [sp, #20]
 121 005e 0023     		movs	r3, #0
 122 0060 0493     		str	r3, [sp, #16]
 123 0062 1423     		movs	r3, #20
 124 0064 0393     		str	r3, [sp, #12]
 125 0066 0293     		str	r3, [sp, #8]
 126 0068 4FF40063 		mov	r3, #2048
 127 006c 0193     		str	r3, [sp, #4]
 128 006e 099B     		ldr	r3, [sp, #36]
 129 0070 0093     		str	r3, [sp]
 130 0072 194B     		ldr	r3, .L16+16
 131 0074 194A     		ldr	r2, .L16+20
 132 0076 1A49     		ldr	r1, .L16+24
 133 0078 1A48     		ldr	r0, .L16+28
 134 007a FFF7FEFF 		bl	_txe_thread_create
 135              	.LVL8:
 136              		.loc 1 81 5 view .LVU20
 137 007e 00B1     		cbz	r0, .L5
  82:./Core/Src/app_threadx.c ****                       Thread_Cmd_Entry, (ULONG)&Thread_Cmd_parama1, pointer, Thread_Cmd_Size,
  83:./Core/Src/app_threadx.c ****                       Thread_Cmd_PRIO, Thread_Cmd_threshold,
ARM GAS  C:\Users\Dennis\AppData\Local\Temp\ccK9Vbwl.s 			page 5


  84:./Core/Src/app_threadx.c ****                       TX_NO_TIME_SLICE, TX_AUTO_START) != TX_SUCCESS) ret = TX_THREAD_ERROR;
 138              		.loc 1 84 75 view .LVU21
 139 0080 0E25     		movs	r5, #14
 140              	.LVL9:
 141              	.L5:
  85:./Core/Src/app_threadx.c **** 
  86:./Core/Src/app_threadx.c **** //************************************************Motor_Ctrl线程*********************************
  87:./Core/Src/app_threadx.c **** if (tx_byte_allocate(byte_pool, (VOID **) &pointer,
 142              		.loc 1 87 1 is_stmt 1 view .LVU22
 143              		.loc 1 87 5 is_stmt 0 view .LVU23
 144 0082 0023     		movs	r3, #0
 145 0084 4FF48052 		mov	r2, #4096
 146 0088 09A9     		add	r1, sp, #36
 147 008a 2046     		mov	r0, r4
 148 008c FFF7FEFF 		bl	_txe_byte_allocate
 149              	.LVL10:
 150              		.loc 1 87 4 view .LVU24
 151 0090 00B1     		cbz	r0, .L6
  88:./Core/Src/app_threadx.c ****                       Thread_Motor_Control_Size, TX_NO_WAIT) != TX_SUCCESS)    ret = TX_POOL_ERROR;
 152              		.loc 1 88 84 view .LVU25
 153 0092 0225     		movs	r5, #2
 154              	.LVL11:
 155              	.L6:
  89:./Core/Src/app_threadx.c **** if(tx_thread_create(&Thread_Motor_Control, "Thread_Motor_Control",
 156              		.loc 1 89 1 is_stmt 1 view .LVU26
 157              		.loc 1 89 4 is_stmt 0 view .LVU27
 158 0094 B023     		movs	r3, #176
 159 0096 0693     		str	r3, [sp, #24]
 160 0098 0123     		movs	r3, #1
 161 009a 0593     		str	r3, [sp, #20]
 162 009c 0023     		movs	r3, #0
 163 009e 0493     		str	r3, [sp, #16]
 164 00a0 1423     		movs	r3, #20
 165 00a2 0393     		str	r3, [sp, #12]
 166 00a4 0293     		str	r3, [sp, #8]
 167 00a6 4FF48053 		mov	r3, #4096
 168 00aa 0193     		str	r3, [sp, #4]
 169 00ac 099B     		ldr	r3, [sp, #36]
 170 00ae 0093     		str	r3, [sp]
 171 00b0 0D4B     		ldr	r3, .L16+32
 172 00b2 0E4A     		ldr	r2, .L16+36
 173 00b4 0E49     		ldr	r1, .L16+40
 174 00b6 0F48     		ldr	r0, .L16+44
 175 00b8 FFF7FEFF 		bl	_txe_thread_create
 176              	.LVL12:
 177              		.loc 1 89 3 view .LVU28
 178 00bc 10B9     		cbnz	r0, .L15
 179              	.LVL13:
 180              	.L1:
  90:./Core/Src/app_threadx.c ****                       Thread_Motor_Control_Entry, (ULONG)&Thread_Motor_Control_parama1, pointer, Th
  91:./Core/Src/app_threadx.c ****                       Thread_Motor_Control_PRIO, Thread_Motor_Control_threshold,
  92:./Core/Src/app_threadx.c ****                       TX_NO_TIME_SLICE, TX_AUTO_START) != TX_SUCCESS) ret = TX_THREAD_ERROR;
  93:./Core/Src/app_threadx.c **** 
  94:./Core/Src/app_threadx.c **** 
  95:./Core/Src/app_threadx.c **** 
  96:./Core/Src/app_threadx.c **** 
  97:./Core/Src/app_threadx.c **** 
ARM GAS  C:\Users\Dennis\AppData\Local\Temp\ccK9Vbwl.s 			page 6


  98:./Core/Src/app_threadx.c **** 
  99:./Core/Src/app_threadx.c **** 
 100:./Core/Src/app_threadx.c **** 
 101:./Core/Src/app_threadx.c **** 
 102:./Core/Src/app_threadx.c ****   /* USER CODE END App_ThreadX_Init */
 103:./Core/Src/app_threadx.c **** 
 104:./Core/Src/app_threadx.c ****   return ret;
 105:./Core/Src/app_threadx.c **** }
 181              		.loc 1 105 1 view .LVU29
 182 00be 2846     		mov	r0, r5
 183 00c0 0BB0     		add	sp, sp, #44
 184              	.LCFI2:
 185              		.cfi_remember_state
 186              		.cfi_def_cfa_offset 12
 187              		@ sp needed
 188 00c2 30BD     		pop	{r4, r5, pc}
 189              	.LVL14:
 190              	.L15:
 191              	.LCFI3:
 192              		.cfi_restore_state
  92:./Core/Src/app_threadx.c **** 
 193              		.loc 1 92 75 view .LVU30
 194 00c4 0E25     		movs	r5, #14
 195              	.LVL15:
 104:./Core/Src/app_threadx.c **** }
 196              		.loc 1 104 3 is_stmt 1 view .LVU31
 104:./Core/Src/app_threadx.c **** }
 197              		.loc 1 104 10 is_stmt 0 view .LVU32
 198 00c6 FAE7     		b	.L1
 199              	.L17:
 200              		.align	2
 201              	.L16:
 202 00c8 00000000 		.word	Thread_Template_parama1
 203 00cc 00000000 		.word	Thread_Template_Entry
 204 00d0 00000000 		.word	.LC0
 205 00d4 00000000 		.word	Thread_Template
 206 00d8 00000000 		.word	Thread_Cmd_parama1
 207 00dc 00000000 		.word	Thread_Cmd_Entry
 208 00e0 10000000 		.word	.LC1
 209 00e4 00000000 		.word	Thread_Cmd
 210 00e8 00000000 		.word	Thread_Motor_Control_parama1
 211 00ec 00000000 		.word	Thread_Motor_Control_Entry
 212 00f0 1C000000 		.word	.LC2
 213 00f4 00000000 		.word	Thread_Motor_Control
 214              		.cfi_endproc
 215              	.LFE250:
 217              		.section	.text.MX_ThreadX_Init,"ax",%progbits
 218              		.align	1
 219              		.global	MX_ThreadX_Init
 220              		.syntax unified
 221              		.thumb
 222              		.thumb_func
 224              	MX_ThreadX_Init:
 225              	.LFB251:
 106:./Core/Src/app_threadx.c **** 
 107:./Core/Src/app_threadx.c **** /**
 108:./Core/Src/app_threadx.c ****   * @brief  MX_ThreadX_Init
ARM GAS  C:\Users\Dennis\AppData\Local\Temp\ccK9Vbwl.s 			page 7


 109:./Core/Src/app_threadx.c ****   * @param  None
 110:./Core/Src/app_threadx.c ****   * @retval None
 111:./Core/Src/app_threadx.c ****   */
 112:./Core/Src/app_threadx.c **** void MX_ThreadX_Init(void)
 113:./Core/Src/app_threadx.c **** {
 226              		.loc 1 113 1 is_stmt 1 view -0
 227              		.cfi_startproc
 228              		@ args = 0, pretend = 0, frame = 0
 229              		@ frame_needed = 0, uses_anonymous_args = 0
 230 0000 08B5     		push	{r3, lr}
 231              	.LCFI4:
 232              		.cfi_def_cfa_offset 8
 233              		.cfi_offset 3, -8
 234              		.cfi_offset 14, -4
 114:./Core/Src/app_threadx.c ****   /* USER CODE BEGIN  Before_Kernel_Start */
 115:./Core/Src/app_threadx.c **** 
 116:./Core/Src/app_threadx.c ****   /* USER CODE END  Before_Kernel_Start */
 117:./Core/Src/app_threadx.c **** 
 118:./Core/Src/app_threadx.c ****   tx_kernel_enter();
 235              		.loc 1 118 3 view .LVU34
 236 0002 FFF7FEFF 		bl	_tx_initialize_kernel_enter
 237              	.LVL16:
 119:./Core/Src/app_threadx.c **** 
 120:./Core/Src/app_threadx.c ****   /* USER CODE BEGIN  Kernel_Start_Error */
 121:./Core/Src/app_threadx.c **** 
 122:./Core/Src/app_threadx.c ****   /* USER CODE END  Kernel_Start_Error */
 123:./Core/Src/app_threadx.c **** }
 238              		.loc 1 123 1 is_stmt 0 view .LVU35
 239 0006 08BD     		pop	{r3, pc}
 240              		.cfi_endproc
 241              	.LFE251:
 243              		.text
 244              	.Letext0:
 245              		.file 2 "c:\\software_user\\armgcc\\arm-none-eabi\\include\\machine\\_default_types.h"
 246              		.file 3 "./Middlewares/ST/threadx/ports/cortex_m4/gnu/inc/tx_port.h"
 247              		.file 4 "./Middlewares/ST/threadx/common/inc/tx_api.h"
 248              		.file 5 "c:\\software_user\\armgcc\\arm-none-eabi\\include\\sys\\_stdint.h"
 249              		.file 6 "./app/Threads/Thread_template/Thread_template.h"
 250              		.file 7 "./app/Threads/Thread_cmd/Thread_cmd.h"
 251              		.file 8 "./app/Threads/Thread_Motor_Control/Thread_Motor_Control.h"
ARM GAS  C:\Users\Dennis\AppData\Local\Temp\ccK9Vbwl.s 			page 8


DEFINED SYMBOLS
                            *ABS*:00000000 app_threadx.c
C:\Users\Dennis\AppData\Local\Temp\ccK9Vbwl.s:20     .rodata.App_ThreadX_Init.str1.4:00000000 $d
C:\Users\Dennis\AppData\Local\Temp\ccK9Vbwl.s:30     .text.App_ThreadX_Init:00000000 $t
C:\Users\Dennis\AppData\Local\Temp\ccK9Vbwl.s:36     .text.App_ThreadX_Init:00000000 App_ThreadX_Init
C:\Users\Dennis\AppData\Local\Temp\ccK9Vbwl.s:202    .text.App_ThreadX_Init:000000c8 $d
C:\Users\Dennis\AppData\Local\Temp\ccK9Vbwl.s:218    .text.MX_ThreadX_Init:00000000 $t
C:\Users\Dennis\AppData\Local\Temp\ccK9Vbwl.s:224    .text.MX_ThreadX_Init:00000000 MX_ThreadX_Init

UNDEFINED SYMBOLS
_txe_byte_allocate
_txe_thread_create
Thread_Template_parama1
Thread_Template_Entry
Thread_Template
Thread_Cmd_parama1
Thread_Cmd_Entry
Thread_Cmd
Thread_Motor_Control_parama1
Thread_Motor_Control_Entry
Thread_Motor_Control
_tx_initialize_kernel_enter
