ARM GAS  C:\Users\Dennis\AppData\Local\Temp\ccvBQvb6.s 			page 1


   1              		.cpu cortex-m4
   2              		.arch armv7e-m
   3              		.fpu fpv4-sp-d16
   4              		.eabi_attribute 27, 1
   5              		.eabi_attribute 28, 1
   6              		.eabi_attribute 20, 1
   7              		.eabi_attribute 21, 1
   8              		.eabi_attribute 23, 3
   9              		.eabi_attribute 24, 1
  10              		.eabi_attribute 25, 1
  11              		.eabi_attribute 26, 1
  12              		.eabi_attribute 30, 1
  13              		.eabi_attribute 34, 1
  14              		.eabi_attribute 18, 4
  15              		.file	"app_azure_rtos.c"
  16              		.text
  17              	.Ltext0:
  18              		.cfi_sections	.debug_frame
  19              		.section	.rodata.tx_application_define.str1.4,"aMS",%progbits,1
  20              		.align	2
  21              	.LC0:
  22 0000 54782041 		.ascii	"Tx App memory pool\000"
  22      7070206D 
  22      656D6F72 
  22      7920706F 
  22      6F6C00
  23 0013 00       		.align	2
  24              	.LC1:
  25 0014 55782041 		.ascii	"Ux App memory pool\000"
  25      7070206D 
  25      656D6F72 
  25      7920706F 
  25      6F6C00
  26              		.section	.text.tx_application_define,"ax",%progbits
  27              		.align	1
  28              		.global	tx_application_define
  29              		.syntax unified
  30              		.thumb
  31              		.thumb_func
  33              	tx_application_define:
  34              	.LVL0:
  35              	.LFB250:
  36              		.file 1 "./AZURE_RTOS/App/app_azure_rtos.c"
   1:./AZURE_RTOS/App/app_azure_rtos.c **** 
   2:./AZURE_RTOS/App/app_azure_rtos.c **** /* USER CODE BEGIN Header */
   3:./AZURE_RTOS/App/app_azure_rtos.c **** /**
   4:./AZURE_RTOS/App/app_azure_rtos.c ****   ******************************************************************************
   5:./AZURE_RTOS/App/app_azure_rtos.c ****   * @file    app_azure_rtos.c
   6:./AZURE_RTOS/App/app_azure_rtos.c ****   * @author  MCD Application Team
   7:./AZURE_RTOS/App/app_azure_rtos.c ****   * @brief   azure_rtos application implementation file
   8:./AZURE_RTOS/App/app_azure_rtos.c ****   ******************************************************************************
   9:./AZURE_RTOS/App/app_azure_rtos.c ****   * @attention
  10:./AZURE_RTOS/App/app_azure_rtos.c ****   *
  11:./AZURE_RTOS/App/app_azure_rtos.c ****   * Copyright (c) 2021 STMicroelectronics.
  12:./AZURE_RTOS/App/app_azure_rtos.c ****   * All rights reserved.
  13:./AZURE_RTOS/App/app_azure_rtos.c ****   *
  14:./AZURE_RTOS/App/app_azure_rtos.c ****   * This software is licensed under terms that can be found in the LICENSE file
ARM GAS  C:\Users\Dennis\AppData\Local\Temp\ccvBQvb6.s 			page 2


  15:./AZURE_RTOS/App/app_azure_rtos.c ****   * in the root directory of this software component.
  16:./AZURE_RTOS/App/app_azure_rtos.c ****   * If no LICENSE file comes with this software, it is provided AS-IS.
  17:./AZURE_RTOS/App/app_azure_rtos.c ****   *
  18:./AZURE_RTOS/App/app_azure_rtos.c ****   ******************************************************************************
  19:./AZURE_RTOS/App/app_azure_rtos.c ****   */
  20:./AZURE_RTOS/App/app_azure_rtos.c **** /* USER CODE END Header */
  21:./AZURE_RTOS/App/app_azure_rtos.c **** 
  22:./AZURE_RTOS/App/app_azure_rtos.c **** /* Includes ------------------------------------------------------------------*/
  23:./AZURE_RTOS/App/app_azure_rtos.c **** 
  24:./AZURE_RTOS/App/app_azure_rtos.c **** #include "app_azure_rtos.h"
  25:./AZURE_RTOS/App/app_azure_rtos.c **** 
  26:./AZURE_RTOS/App/app_azure_rtos.c **** /* Private includes ----------------------------------------------------------*/
  27:./AZURE_RTOS/App/app_azure_rtos.c **** /* USER CODE BEGIN Includes */
  28:./AZURE_RTOS/App/app_azure_rtos.c **** 
  29:./AZURE_RTOS/App/app_azure_rtos.c **** /* USER CODE END Includes */
  30:./AZURE_RTOS/App/app_azure_rtos.c **** 
  31:./AZURE_RTOS/App/app_azure_rtos.c **** /* Private typedef -----------------------------------------------------------*/
  32:./AZURE_RTOS/App/app_azure_rtos.c **** /* USER CODE BEGIN PTD */
  33:./AZURE_RTOS/App/app_azure_rtos.c **** 
  34:./AZURE_RTOS/App/app_azure_rtos.c **** /* USER CODE END PTD */
  35:./AZURE_RTOS/App/app_azure_rtos.c **** 
  36:./AZURE_RTOS/App/app_azure_rtos.c **** /* Private define ------------------------------------------------------------*/
  37:./AZURE_RTOS/App/app_azure_rtos.c **** /* USER CODE BEGIN PD */
  38:./AZURE_RTOS/App/app_azure_rtos.c **** 
  39:./AZURE_RTOS/App/app_azure_rtos.c **** /* USER CODE END PD */
  40:./AZURE_RTOS/App/app_azure_rtos.c **** 
  41:./AZURE_RTOS/App/app_azure_rtos.c **** /* Private macro -------------------------------------------------------------*/
  42:./AZURE_RTOS/App/app_azure_rtos.c **** /* USER CODE BEGIN PM */
  43:./AZURE_RTOS/App/app_azure_rtos.c **** 
  44:./AZURE_RTOS/App/app_azure_rtos.c **** /* USER CODE END PM */
  45:./AZURE_RTOS/App/app_azure_rtos.c **** 
  46:./AZURE_RTOS/App/app_azure_rtos.c **** /* Private variables ---------------------------------------------------------*/
  47:./AZURE_RTOS/App/app_azure_rtos.c **** /* USER CODE BEGIN TX_Pool_Buffer */
  48:./AZURE_RTOS/App/app_azure_rtos.c **** /* USER CODE END TX_Pool_Buffer */
  49:./AZURE_RTOS/App/app_azure_rtos.c **** static UCHAR tx_byte_pool_buffer[TX_APP_MEM_POOL_SIZE];
  50:./AZURE_RTOS/App/app_azure_rtos.c **** static TX_BYTE_POOL tx_app_byte_pool;
  51:./AZURE_RTOS/App/app_azure_rtos.c **** 
  52:./AZURE_RTOS/App/app_azure_rtos.c **** /* USER CODE BEGIN UX_HOST_Pool_Buffer */
  53:./AZURE_RTOS/App/app_azure_rtos.c **** /* USER CODE END UX_HOST_Pool_Buffer */
  54:./AZURE_RTOS/App/app_azure_rtos.c **** static UCHAR  ux_host_byte_pool_buffer[UX_HOST_APP_MEM_POOL_SIZE];
  55:./AZURE_RTOS/App/app_azure_rtos.c **** static TX_BYTE_POOL ux_host_app_byte_pool;
  56:./AZURE_RTOS/App/app_azure_rtos.c **** 
  57:./AZURE_RTOS/App/app_azure_rtos.c **** /* USER CODE BEGIN UX_Device_Pool_Buffer */
  58:./AZURE_RTOS/App/app_azure_rtos.c **** /* USER CODE END UX_Device_Pool_Buffer */
  59:./AZURE_RTOS/App/app_azure_rtos.c **** static UCHAR  ux_device_byte_pool_buffer[UX_DEVICE_APP_MEM_POOL_SIZE];
  60:./AZURE_RTOS/App/app_azure_rtos.c **** static TX_BYTE_POOL ux_device_app_byte_pool;
  61:./AZURE_RTOS/App/app_azure_rtos.c **** 
  62:./AZURE_RTOS/App/app_azure_rtos.c **** /* USER CODE BEGIN PV */
  63:./AZURE_RTOS/App/app_azure_rtos.c **** 
  64:./AZURE_RTOS/App/app_azure_rtos.c **** /* USER CODE END PV */
  65:./AZURE_RTOS/App/app_azure_rtos.c **** 
  66:./AZURE_RTOS/App/app_azure_rtos.c **** /* Private function prototypes -----------------------------------------------*/
  67:./AZURE_RTOS/App/app_azure_rtos.c **** /* USER CODE BEGIN PFP */
  68:./AZURE_RTOS/App/app_azure_rtos.c **** 
  69:./AZURE_RTOS/App/app_azure_rtos.c **** /* USER CODE END PFP */
  70:./AZURE_RTOS/App/app_azure_rtos.c **** 
  71:./AZURE_RTOS/App/app_azure_rtos.c **** /**
ARM GAS  C:\Users\Dennis\AppData\Local\Temp\ccvBQvb6.s 			page 3


  72:./AZURE_RTOS/App/app_azure_rtos.c ****   * @brief  Define the initial system.
  73:./AZURE_RTOS/App/app_azure_rtos.c ****   * @param  first_unused_memory : Pointer to the first unused memory
  74:./AZURE_RTOS/App/app_azure_rtos.c ****   * @retval None
  75:./AZURE_RTOS/App/app_azure_rtos.c ****   */
  76:./AZURE_RTOS/App/app_azure_rtos.c **** VOID tx_application_define(VOID *first_unused_memory)
  77:./AZURE_RTOS/App/app_azure_rtos.c **** {
  37              		.loc 1 77 1 view -0
  38              		.cfi_startproc
  39              		@ args = 0, pretend = 0, frame = 0
  40              		@ frame_needed = 0, uses_anonymous_args = 0
  41              		.loc 1 77 1 is_stmt 0 view .LVU1
  42 0000 00B5     		push	{lr}
  43              	.LCFI0:
  44              		.cfi_def_cfa_offset 4
  45              		.cfi_offset 14, -4
  46 0002 83B0     		sub	sp, sp, #12
  47              	.LCFI1:
  48              		.cfi_def_cfa_offset 16
  78:./AZURE_RTOS/App/app_azure_rtos.c ****   /* USER CODE BEGIN  tx_application_define */
  79:./AZURE_RTOS/App/app_azure_rtos.c **** 
  80:./AZURE_RTOS/App/app_azure_rtos.c ****   /* USER CODE END  tx_application_define */
  81:./AZURE_RTOS/App/app_azure_rtos.c **** 
  82:./AZURE_RTOS/App/app_azure_rtos.c ****   VOID *memory_ptr;
  49              		.loc 1 82 3 is_stmt 1 view .LVU2
  83:./AZURE_RTOS/App/app_azure_rtos.c **** 
  84:./AZURE_RTOS/App/app_azure_rtos.c ****   if (tx_byte_pool_create(&tx_app_byte_pool, "Tx App memory pool", tx_byte_pool_buffer, TX_APP_MEM_
  50              		.loc 1 84 3 view .LVU3
  51              		.loc 1 84 7 is_stmt 0 view .LVU4
  52 0004 3423     		movs	r3, #52
  53 0006 0093     		str	r3, [sp]
  54 0008 4FF4A043 		mov	r3, #20480
  55 000c 144A     		ldr	r2, .L9
  56 000e 1549     		ldr	r1, .L9+4
  57 0010 1548     		ldr	r0, .L9+8
  58              	.LVL1:
  59              		.loc 1 84 7 view .LVU5
  60 0012 FFF7FEFF 		bl	_txe_byte_pool_create
  61              	.LVL2:
  62              		.loc 1 84 6 view .LVU6
  63 0016 B0B1     		cbz	r0, .L6
  64              	.L2:
  85:./AZURE_RTOS/App/app_azure_rtos.c ****   {
  86:./AZURE_RTOS/App/app_azure_rtos.c ****     /* USER CODE BEGIN TX_Byte_Pool_Error */
  87:./AZURE_RTOS/App/app_azure_rtos.c **** 
  88:./AZURE_RTOS/App/app_azure_rtos.c ****     /* USER CODE END TX_Byte_Pool_Error */
  89:./AZURE_RTOS/App/app_azure_rtos.c ****   }
  90:./AZURE_RTOS/App/app_azure_rtos.c ****   else
  91:./AZURE_RTOS/App/app_azure_rtos.c ****   {
  92:./AZURE_RTOS/App/app_azure_rtos.c ****     /* USER CODE BEGIN TX_Byte_Pool_Success */
  93:./AZURE_RTOS/App/app_azure_rtos.c **** 
  94:./AZURE_RTOS/App/app_azure_rtos.c ****     /* USER CODE END TX_Byte_Pool_Success */
  95:./AZURE_RTOS/App/app_azure_rtos.c **** 
  96:./AZURE_RTOS/App/app_azure_rtos.c ****     memory_ptr = (VOID *)&tx_app_byte_pool;
  97:./AZURE_RTOS/App/app_azure_rtos.c **** 
  98:./AZURE_RTOS/App/app_azure_rtos.c ****     if (App_ThreadX_Init(memory_ptr) != TX_SUCCESS)
  99:./AZURE_RTOS/App/app_azure_rtos.c ****     {
 100:./AZURE_RTOS/App/app_azure_rtos.c ****       /* USER CODE BEGIN  App_ThreadX_Init_Error */
ARM GAS  C:\Users\Dennis\AppData\Local\Temp\ccvBQvb6.s 			page 4


 101:./AZURE_RTOS/App/app_azure_rtos.c **** 
 102:./AZURE_RTOS/App/app_azure_rtos.c ****       /* USER CODE END  App_ThreadX_Init_Error */
 103:./AZURE_RTOS/App/app_azure_rtos.c ****     }
  65              		.loc 1 103 5 is_stmt 1 view .LVU7
 104:./AZURE_RTOS/App/app_azure_rtos.c **** 
 105:./AZURE_RTOS/App/app_azure_rtos.c ****     /* USER CODE BEGIN  App_ThreadX_Init_Success */
 106:./AZURE_RTOS/App/app_azure_rtos.c **** 
 107:./AZURE_RTOS/App/app_azure_rtos.c ****     /* USER CODE END  App_ThreadX_Init_Success */
 108:./AZURE_RTOS/App/app_azure_rtos.c **** 
 109:./AZURE_RTOS/App/app_azure_rtos.c ****   }
 110:./AZURE_RTOS/App/app_azure_rtos.c **** 
 111:./AZURE_RTOS/App/app_azure_rtos.c ****   if (tx_byte_pool_create(&ux_host_app_byte_pool, "Ux App memory pool", ux_host_byte_pool_buffer, U
  66              		.loc 1 111 3 view .LVU8
  67              		.loc 1 111 7 is_stmt 0 view .LVU9
  68 0018 3423     		movs	r3, #52
  69 001a 0093     		str	r3, [sp]
  70 001c 4FF48063 		mov	r3, #1024
  71 0020 124A     		ldr	r2, .L9+12
  72 0022 1349     		ldr	r1, .L9+16
  73 0024 1348     		ldr	r0, .L9+20
  74 0026 FFF7FEFF 		bl	_txe_byte_pool_create
  75              	.LVL3:
  76              		.loc 1 111 6 view .LVU10
  77 002a 80B1     		cbz	r0, .L7
  78              	.L3:
 112:./AZURE_RTOS/App/app_azure_rtos.c ****   {
 113:./AZURE_RTOS/App/app_azure_rtos.c ****     /* USER CODE BEGIN TX_Byte_Pool_Error */
 114:./AZURE_RTOS/App/app_azure_rtos.c **** 
 115:./AZURE_RTOS/App/app_azure_rtos.c ****     /* USER CODE END TX_Byte_Pool_Error */
 116:./AZURE_RTOS/App/app_azure_rtos.c ****   }
 117:./AZURE_RTOS/App/app_azure_rtos.c ****   else
 118:./AZURE_RTOS/App/app_azure_rtos.c ****   {
 119:./AZURE_RTOS/App/app_azure_rtos.c ****     /* USER CODE BEGIN UX_HOST_Byte_Pool_Success */
 120:./AZURE_RTOS/App/app_azure_rtos.c **** 
 121:./AZURE_RTOS/App/app_azure_rtos.c ****     /* USER CODE END UX_HOST_Byte_Pool_Success */
 122:./AZURE_RTOS/App/app_azure_rtos.c **** 
 123:./AZURE_RTOS/App/app_azure_rtos.c ****     memory_ptr = (VOID *)&ux_host_app_byte_pool;
 124:./AZURE_RTOS/App/app_azure_rtos.c **** 
 125:./AZURE_RTOS/App/app_azure_rtos.c ****     if (MX_USBX_Host_Init(memory_ptr) != UX_SUCCESS)
 126:./AZURE_RTOS/App/app_azure_rtos.c ****     {
 127:./AZURE_RTOS/App/app_azure_rtos.c ****       /* USER CODE BEGIN MX_USBX_Host_Init_Error */
 128:./AZURE_RTOS/App/app_azure_rtos.c **** 
 129:./AZURE_RTOS/App/app_azure_rtos.c ****       /* USER CODE END MX_USBX_Host_Init_Error */
 130:./AZURE_RTOS/App/app_azure_rtos.c ****     }
  79              		.loc 1 130 5 is_stmt 1 view .LVU11
 131:./AZURE_RTOS/App/app_azure_rtos.c **** 
 132:./AZURE_RTOS/App/app_azure_rtos.c ****     /* USER CODE BEGIN MX_USBX_Host_Init_Success */
 133:./AZURE_RTOS/App/app_azure_rtos.c **** 
 134:./AZURE_RTOS/App/app_azure_rtos.c ****     /* USER CODE END MX_USBX_Host_Init_Success */
 135:./AZURE_RTOS/App/app_azure_rtos.c ****   }
 136:./AZURE_RTOS/App/app_azure_rtos.c **** 
 137:./AZURE_RTOS/App/app_azure_rtos.c ****   if (tx_byte_pool_create(&ux_device_app_byte_pool, "Ux App memory pool", ux_device_byte_pool_buffe
  80              		.loc 1 137 3 view .LVU12
  81              		.loc 1 137 7 is_stmt 0 view .LVU13
  82 002c 3423     		movs	r3, #52
  83 002e 0093     		str	r3, [sp]
  84 0030 4FF48063 		mov	r3, #1024
ARM GAS  C:\Users\Dennis\AppData\Local\Temp\ccvBQvb6.s 			page 5


  85 0034 104A     		ldr	r2, .L9+24
  86 0036 0E49     		ldr	r1, .L9+16
  87 0038 1048     		ldr	r0, .L9+28
  88 003a FFF7FEFF 		bl	_txe_byte_pool_create
  89              	.LVL4:
  90              		.loc 1 137 6 view .LVU14
  91 003e 50B1     		cbz	r0, .L8
  92              	.L1:
 138:./AZURE_RTOS/App/app_azure_rtos.c ****   {
 139:./AZURE_RTOS/App/app_azure_rtos.c ****     /* USER CODE BEGIN UX_Device_Byte_Pool_Error */
 140:./AZURE_RTOS/App/app_azure_rtos.c **** 
 141:./AZURE_RTOS/App/app_azure_rtos.c ****     /* USER CODE END UX_Device_Byte_Pool_Error */
 142:./AZURE_RTOS/App/app_azure_rtos.c ****   }
 143:./AZURE_RTOS/App/app_azure_rtos.c ****   else
 144:./AZURE_RTOS/App/app_azure_rtos.c ****   {
 145:./AZURE_RTOS/App/app_azure_rtos.c ****     /* USER CODE BEGIN UX_Device_Byte_Pool_Success */
 146:./AZURE_RTOS/App/app_azure_rtos.c **** 
 147:./AZURE_RTOS/App/app_azure_rtos.c ****     /* USER CODE END UX_Device_Byte_Pool_Success */
 148:./AZURE_RTOS/App/app_azure_rtos.c **** 
 149:./AZURE_RTOS/App/app_azure_rtos.c ****     memory_ptr = (VOID *)&ux_device_app_byte_pool;
 150:./AZURE_RTOS/App/app_azure_rtos.c **** 
 151:./AZURE_RTOS/App/app_azure_rtos.c ****     if (MX_USBX_Device_Init(memory_ptr) != UX_SUCCESS)
 152:./AZURE_RTOS/App/app_azure_rtos.c ****     {
 153:./AZURE_RTOS/App/app_azure_rtos.c ****       /* USER CODE BEGIN MX_USBX_Device_Init_Error */
 154:./AZURE_RTOS/App/app_azure_rtos.c **** 
 155:./AZURE_RTOS/App/app_azure_rtos.c ****       /* USER CODE END MX_USBX_Device_Init_Error */
 156:./AZURE_RTOS/App/app_azure_rtos.c ****     }
 157:./AZURE_RTOS/App/app_azure_rtos.c **** 
 158:./AZURE_RTOS/App/app_azure_rtos.c ****     /* USER CODE BEGIN MX_USBX_Device_Init_Success */
 159:./AZURE_RTOS/App/app_azure_rtos.c **** 
 160:./AZURE_RTOS/App/app_azure_rtos.c ****     /* USER CODE END MX_USBX_Device_Init_Success */
 161:./AZURE_RTOS/App/app_azure_rtos.c ****   }
 162:./AZURE_RTOS/App/app_azure_rtos.c **** }
  93              		.loc 1 162 1 view .LVU15
  94 0040 03B0     		add	sp, sp, #12
  95              	.LCFI2:
  96              		.cfi_remember_state
  97              		.cfi_def_cfa_offset 4
  98              		@ sp needed
  99 0042 5DF804FB 		ldr	pc, [sp], #4
 100              	.L6:
 101              	.LCFI3:
 102              		.cfi_restore_state
  96:./AZURE_RTOS/App/app_azure_rtos.c **** 
 103              		.loc 1 96 5 is_stmt 1 view .LVU16
 104              	.LVL5:
  98:./AZURE_RTOS/App/app_azure_rtos.c ****     {
 105              		.loc 1 98 5 view .LVU17
  98:./AZURE_RTOS/App/app_azure_rtos.c ****     {
 106              		.loc 1 98 9 is_stmt 0 view .LVU18
 107 0046 0848     		ldr	r0, .L9+8
 108 0048 FFF7FEFF 		bl	App_ThreadX_Init
 109              	.LVL6:
 110 004c E4E7     		b	.L2
 111              	.LVL7:
 112              	.L7:
 123:./AZURE_RTOS/App/app_azure_rtos.c **** 
ARM GAS  C:\Users\Dennis\AppData\Local\Temp\ccvBQvb6.s 			page 6


 113              		.loc 1 123 5 is_stmt 1 view .LVU19
 125:./AZURE_RTOS/App/app_azure_rtos.c ****     {
 114              		.loc 1 125 5 view .LVU20
 125:./AZURE_RTOS/App/app_azure_rtos.c ****     {
 115              		.loc 1 125 9 is_stmt 0 view .LVU21
 116 004e 0948     		ldr	r0, .L9+20
 117 0050 FFF7FEFF 		bl	MX_USBX_Host_Init
 118              	.LVL8:
 119 0054 EAE7     		b	.L3
 120              	.LVL9:
 121              	.L8:
 149:./AZURE_RTOS/App/app_azure_rtos.c **** 
 122              		.loc 1 149 5 is_stmt 1 view .LVU22
 151:./AZURE_RTOS/App/app_azure_rtos.c ****     {
 123              		.loc 1 151 5 view .LVU23
 151:./AZURE_RTOS/App/app_azure_rtos.c ****     {
 124              		.loc 1 151 9 is_stmt 0 view .LVU24
 125 0056 0948     		ldr	r0, .L9+28
 126 0058 FFF7FEFF 		bl	MX_USBX_Device_Init
 127              	.LVL10:
 156:./AZURE_RTOS/App/app_azure_rtos.c **** 
 128              		.loc 1 156 5 is_stmt 1 view .LVU25
 129              		.loc 1 162 1 is_stmt 0 view .LVU26
 130 005c F0E7     		b	.L1
 131              	.L10:
 132 005e 00BF     		.align	2
 133              	.L9:
 134 0060 00000000 		.word	tx_byte_pool_buffer
 135 0064 00000000 		.word	.LC0
 136 0068 00000000 		.word	.LANCHOR0
 137 006c 00000000 		.word	.LANCHOR1
 138 0070 14000000 		.word	.LC1
 139 0074 00000000 		.word	.LANCHOR2
 140 0078 00000000 		.word	.LANCHOR3
 141 007c 00000000 		.word	.LANCHOR4
 142              		.cfi_endproc
 143              	.LFE250:
 145              		.section	.bss.tx_app_byte_pool,"aw",%nobits
 146              		.align	2
 147              		.set	.LANCHOR0,. + 0
 150              	tx_app_byte_pool:
 151 0000 00000000 		.space	52
 151      00000000 
 151      00000000 
 151      00000000 
 151      00000000 
 152              		.section	.bss.tx_byte_pool_buffer,"aw",%nobits
 153              		.align	2
 156              	tx_byte_pool_buffer:
 157 0000 00000000 		.space	20480
 157      00000000 
 157      00000000 
 157      00000000 
 157      00000000 
 158              		.section	.bss.ux_device_app_byte_pool,"aw",%nobits
 159              		.align	2
 160              		.set	.LANCHOR4,. + 0
ARM GAS  C:\Users\Dennis\AppData\Local\Temp\ccvBQvb6.s 			page 7


 163              	ux_device_app_byte_pool:
 164 0000 00000000 		.space	52
 164      00000000 
 164      00000000 
 164      00000000 
 164      00000000 
 165              		.section	.bss.ux_device_byte_pool_buffer,"aw",%nobits
 166              		.align	2
 167              		.set	.LANCHOR3,. + 0
 170              	ux_device_byte_pool_buffer:
 171 0000 00000000 		.space	1024
 171      00000000 
 171      00000000 
 171      00000000 
 171      00000000 
 172              		.section	.bss.ux_host_app_byte_pool,"aw",%nobits
 173              		.align	2
 174              		.set	.LANCHOR2,. + 0
 177              	ux_host_app_byte_pool:
 178 0000 00000000 		.space	52
 178      00000000 
 178      00000000 
 178      00000000 
 178      00000000 
 179              		.section	.bss.ux_host_byte_pool_buffer,"aw",%nobits
 180              		.align	2
 181              		.set	.LANCHOR1,. + 0
 184              	ux_host_byte_pool_buffer:
 185 0000 00000000 		.space	1024
 185      00000000 
 185      00000000 
 185      00000000 
 185      00000000 
 186              		.text
 187              	.Letext0:
 188              		.file 2 "./Middlewares/ST/threadx/ports/cortex_m4/gnu/inc/tx_port.h"
 189              		.file 3 "./Middlewares/ST/threadx/common/inc/tx_api.h"
 190              		.file 4 "./app/peripheral/inc/OLED_Front.h"
 191              		.file 5 "./Core/Inc/app_threadx.h"
 192              		.file 6 "./USBX/App/app_usbx_host.h"
 193              		.file 7 "./USBX/App/app_usbx_device.h"
ARM GAS  C:\Users\Dennis\AppData\Local\Temp\ccvBQvb6.s 			page 8


DEFINED SYMBOLS
                            *ABS*:00000000 app_azure_rtos.c
C:\Users\Dennis\AppData\Local\Temp\ccvBQvb6.s:20     .rodata.tx_application_define.str1.4:00000000 $d
C:\Users\Dennis\AppData\Local\Temp\ccvBQvb6.s:27     .text.tx_application_define:00000000 $t
C:\Users\Dennis\AppData\Local\Temp\ccvBQvb6.s:33     .text.tx_application_define:00000000 tx_application_define
C:\Users\Dennis\AppData\Local\Temp\ccvBQvb6.s:134    .text.tx_application_define:00000060 $d
C:\Users\Dennis\AppData\Local\Temp\ccvBQvb6.s:156    .bss.tx_byte_pool_buffer:00000000 tx_byte_pool_buffer
C:\Users\Dennis\AppData\Local\Temp\ccvBQvb6.s:146    .bss.tx_app_byte_pool:00000000 $d
C:\Users\Dennis\AppData\Local\Temp\ccvBQvb6.s:150    .bss.tx_app_byte_pool:00000000 tx_app_byte_pool
C:\Users\Dennis\AppData\Local\Temp\ccvBQvb6.s:153    .bss.tx_byte_pool_buffer:00000000 $d
C:\Users\Dennis\AppData\Local\Temp\ccvBQvb6.s:159    .bss.ux_device_app_byte_pool:00000000 $d
C:\Users\Dennis\AppData\Local\Temp\ccvBQvb6.s:163    .bss.ux_device_app_byte_pool:00000000 ux_device_app_byte_pool
C:\Users\Dennis\AppData\Local\Temp\ccvBQvb6.s:166    .bss.ux_device_byte_pool_buffer:00000000 $d
C:\Users\Dennis\AppData\Local\Temp\ccvBQvb6.s:170    .bss.ux_device_byte_pool_buffer:00000000 ux_device_byte_pool_buffer
C:\Users\Dennis\AppData\Local\Temp\ccvBQvb6.s:173    .bss.ux_host_app_byte_pool:00000000 $d
C:\Users\Dennis\AppData\Local\Temp\ccvBQvb6.s:177    .bss.ux_host_app_byte_pool:00000000 ux_host_app_byte_pool
C:\Users\Dennis\AppData\Local\Temp\ccvBQvb6.s:180    .bss.ux_host_byte_pool_buffer:00000000 $d
C:\Users\Dennis\AppData\Local\Temp\ccvBQvb6.s:184    .bss.ux_host_byte_pool_buffer:00000000 ux_host_byte_pool_buffer

UNDEFINED SYMBOLS
_txe_byte_pool_create
App_ThreadX_Init
MX_USBX_Host_Init
MX_USBX_Device_Init
