ARM GAS  C:\Users\Dennis\AppData\Local\Temp\ccYcq7BK.s 			page 1


   1              		.cpu cortex-m4
   2              		.arch armv7e-m
   3              		.fpu fpv4-sp-d16
   4              		.eabi_attribute 27, 1
   5              		.eabi_attribute 28, 1
   6              		.eabi_attribute 20, 1
   7              		.eabi_attribute 21, 1
   8              		.eabi_attribute 23, 3
   9              		.eabi_attribute 24, 1
  10              		.eabi_attribute 25, 1
  11              		.eabi_attribute 26, 1
  12              		.eabi_attribute 30, 1
  13              		.eabi_attribute 34, 1
  14              		.eabi_attribute 18, 4
  15              		.file	"as5600.c"
  16              		.text
  17              	.Ltext0:
  18              		.cfi_sections	.debug_frame
  19              		.section	.text.Read_AS5600_Angle,"ax",%progbits
  20              		.align	1
  21              		.global	Read_AS5600_Angle
  22              		.syntax unified
  23              		.thumb
  24              		.thumb_func
  26              	Read_AS5600_Angle:
  27              	.LVL0:
  28              	.LFB242:
  29              		.file 1 "./app/peripheral/src/as5600.c"
   1:./app/peripheral/src/as5600.c **** #include "as5600.h"
   2:./app/peripheral/src/as5600.c **** 
   3:./app/peripheral/src/as5600.c **** 
   4:./app/peripheral/src/as5600.c **** 
   5:./app/peripheral/src/as5600.c **** // è¯»å–AS5600è§’åº¦(0-360Â°)
   6:./app/peripheral/src/as5600.c **** // è¾“å…¥ï¼šas5600 ç»“æž„ä½“æŒ‡é’ˆ
   7:./app/peripheral/src/as5600.c **** // è¿”å›žï¼šè§’åº¦å€¼ å•ä½ï¼šå¼§åº¦
   8:./app/peripheral/src/as5600.c **** // è¯´æ˜Žï¼šè¯»å–AS5600è§’åº¦ï¼Œ{å¹¶æ›´æ–°}as5600ç»“æž„ä½“ä¸­çš„è§’åº¦å€¼å’Œæ—‹è½¬æ•°å€¼
   9:./app/peripheral/src/as5600.c **** float Read_AS5600_Angle(As5600_Sensor_Typedef* as5600) 
  10:./app/peripheral/src/as5600.c **** {
  30              		.loc 1 10 1 view -0
  31              		.cfi_startproc
  32              		@ args = 0, pretend = 0, frame = 8
  33              		@ frame_needed = 0, uses_anonymous_args = 0
  34              		.loc 1 10 1 is_stmt 0 view .LVU1
  35 0000 10B5     		push	{r4, lr}
  36              	.LCFI0:
  37              		.cfi_def_cfa_offset 8
  38              		.cfi_offset 4, -8
  39              		.cfi_offset 14, -4
  40 0002 86B0     		sub	sp, sp, #24
  41              	.LCFI1:
  42              		.cfi_def_cfa_offset 32
  43 0004 0446     		mov	r4, r0
  11:./app/peripheral/src/as5600.c ****     uint8_t data[2] = {0, 0};
  44              		.loc 1 11 5 is_stmt 1 view .LVU2
  45              		.loc 1 11 13 is_stmt 0 view .LVU3
  46 0006 0023     		movs	r3, #0
  47 0008 ADF81430 		strh	r3, [sp, #20]	@ movhi
ARM GAS  C:\Users\Dennis\AppData\Local\Temp\ccYcq7BK.s 			page 2


  12:./app/peripheral/src/as5600.c ****     HAL_I2C_Mem_Read(as5600->i2c_handle, AS5600_ADDRESS, ANGLE_REGISTER, I2C_MEMADD_SIZE_8BIT, data
  48              		.loc 1 12 5 is_stmt 1 view .LVU4
  49 000c 4FF0FF33 		mov	r3, #-1
  50 0010 0293     		str	r3, [sp, #8]
  51 0012 0223     		movs	r3, #2
  52 0014 0193     		str	r3, [sp, #4]
  53 0016 05AB     		add	r3, sp, #20
  54 0018 0093     		str	r3, [sp]
  55 001a 0123     		movs	r3, #1
  56 001c 0E22     		movs	r2, #14
  57 001e 6C21     		movs	r1, #108
  58 0020 4069     		ldr	r0, [r0, #20]
  59              	.LVL1:
  60              		.loc 1 12 5 is_stmt 0 view .LVU5
  61 0022 FFF7FEFF 		bl	HAL_I2C_Mem_Read
  62              	.LVL2:
  13:./app/peripheral/src/as5600.c ****     float angle = (data[0] << 8) | data[1];
  63              		.loc 1 13 5 is_stmt 1 view .LVU6
  64              		.loc 1 13 24 is_stmt 0 view .LVU7
  65 0026 9DF81420 		ldrb	r2, [sp, #20]	@ zero_extendqisi2
  66              		.loc 1 13 40 view .LVU8
  67 002a 9DF81530 		ldrb	r3, [sp, #21]	@ zero_extendqisi2
  68              		.loc 1 13 34 view .LVU9
  69 002e 43EA0223 		orr	r3, r3, r2, lsl #8
  70 0032 07EE903A 		vmov	s15, r3	@ int
  71              		.loc 1 13 11 view .LVU10
  72 0036 F8EEE77A 		vcvt.f32.s32	s15, s15
  73              	.LVL3:
  14:./app/peripheral/src/as5600.c ****     angle = (((angle * _2PI) / 4096.0f));
  74              		.loc 1 14 5 is_stmt 1 view .LVU11
  75              		.loc 1 14 22 is_stmt 0 view .LVU12
  76 003a 9FED157A 		vldr.32	s14, .L11
  77 003e 67EE877A 		vmul.f32	s15, s15, s14
  78              	.LVL4:
  79              		.loc 1 14 11 view .LVU13
  80 0042 9FED147A 		vldr.32	s14, .L11+4
  81 0046 67EE877A 		vmul.f32	s15, s15, s14
  82              	.LVL5:
  15:./app/peripheral/src/as5600.c ****     float d_angle = angle - as5600->Angle;
  83              		.loc 1 15 5 is_stmt 1 view .LVU14
  84              		.loc 1 15 35 is_stmt 0 view .LVU15
  85 004a 94ED017A 		vldr.32	s14, [r4, #4]
  86              		.loc 1 15 11 view .LVU16
  87 004e 37EEC77A 		vsub.f32	s14, s15, s14
  88              	.LVL6:
  16:./app/peripheral/src/as5600.c ****     // åœˆæ•°æ£€æµ‹
  17:./app/peripheral/src/as5600.c ****     if(fabs(d_angle) > (0.8f*_2PI) ) as5600->Rotations += ( d_angle > 0 ) ? -1 : 1; 
  89              		.loc 1 17 5 is_stmt 1 view .LVU17
  90              		.loc 1 17 8 is_stmt 0 view .LVU18
  91 0052 B0EEC76A 		vabs.f32	s12, s14
  92              		.loc 1 17 7 view .LVU19
  93 0056 DFED106A 		vldr.32	s13, .L11+8
  94 005a B4EEE66A 		vcmpe.f32	s12, s13
  95 005e F1EE10FA 		vmrs	APSR_nzcv, FPSCR
  96 0062 09DD     		ble	.L2
  97              		.loc 1 17 38 is_stmt 1 discriminator 1 view .LVU20
  98              		.loc 1 17 56 is_stmt 0 discriminator 1 view .LVU21
ARM GAS  C:\Users\Dennis\AppData\Local\Temp\ccYcq7BK.s 			page 3


  99 0064 2369     		ldr	r3, [r4, #16]
 100              		.loc 1 17 80 discriminator 1 view .LVU22
 101 0066 B5EEC07A 		vcmpe.f32	s14, #0
 102 006a F1EE10FA 		vmrs	APSR_nzcv, FPSCR
 103 006e 0CDD     		ble	.L9
 104              		.loc 1 17 80 view .LVU23
 105 0070 4FF0FF32 		mov	r2, #-1
 106              	.L4:
 107              		.loc 1 17 56 discriminator 5 view .LVU24
 108 0074 1344     		add	r3, r3, r2
 109 0076 2361     		str	r3, [r4, #16]
 110              	.L2:
  18:./app/peripheral/src/as5600.c ****     as5600->Angle = angle;
 111              		.loc 1 18 5 is_stmt 1 view .LVU25
 112              		.loc 1 18 19 is_stmt 0 view .LVU26
 113 0078 C4ED017A 		vstr.32	s15, [r4, #4]
  19:./app/peripheral/src/as5600.c ****     as5600->angle_ts = HAL_GetTick();
 114              		.loc 1 19 5 is_stmt 1 view .LVU27
 115              		.loc 1 19 24 is_stmt 0 view .LVU28
 116 007c FFF7FEFF 		bl	HAL_GetTick
 117              	.LVL7:
 118              		.loc 1 19 22 view .LVU29
 119 0080 A060     		str	r0, [r4, #8]
  20:./app/peripheral/src/as5600.c ****     return as5600->Angle;
 120              		.loc 1 20 5 is_stmt 1 view .LVU30
  21:./app/peripheral/src/as5600.c **** }
 121              		.loc 1 21 1 is_stmt 0 view .LVU31
 122 0082 94ED010A 		vldr.32	s0, [r4, #4]
 123 0086 06B0     		add	sp, sp, #24
 124              	.LCFI2:
 125              		.cfi_remember_state
 126              		.cfi_def_cfa_offset 8
 127              		@ sp needed
 128 0088 10BD     		pop	{r4, pc}
 129              	.LVL8:
 130              	.L9:
 131              	.LCFI3:
 132              		.cfi_restore_state
  17:./app/peripheral/src/as5600.c ****     as5600->Angle = angle;
 133              		.loc 1 17 80 view .LVU32
 134 008a 0122     		movs	r2, #1
 135 008c F2E7     		b	.L4
 136              	.L12:
 137 008e 00BF     		.align	2
 138              	.L11:
 139 0090 DB0FC940 		.word	1086918619
 140 0094 00008039 		.word	964689920
 141 0098 7CD9A040 		.word	1084283260
 142              		.cfi_endproc
 143              	.LFE242:
 145              		.section	.text.Get_AS5600_Angle,"ax",%progbits
 146              		.align	1
 147              		.global	Get_AS5600_Angle
 148              		.syntax unified
 149              		.thumb
 150              		.thumb_func
 152              	Get_AS5600_Angle:
ARM GAS  C:\Users\Dennis\AppData\Local\Temp\ccYcq7BK.s 			page 4


 153              	.LVL9:
 154              	.LFB243:
  22:./app/peripheral/src/as5600.c **** // èŽ·å–AS5600è§’åº¦(å¸¦æ—‹è½¬æ•°å€¼)
  23:./app/peripheral/src/as5600.c **** // è¾“å…¥ï¼šas5600 ç»“æž„ä½“æŒ‡é’ˆ
  24:./app/peripheral/src/as5600.c **** // è¿”å›žï¼šè§’åº¦å€¼ å•ä½ï¼šå¼§åº¦
  25:./app/peripheral/src/as5600.c **** // è¯´æ˜Žï¼šèŽ·å–AS5600è§’åº¦(å¸¦æ—‹è½¬æ•°å€¼)ï¼Œä¸æ›´æ–°as5600ç»“æž„ä½“ä¸­çš„è§’åº¦å€¼å’Œæ—‹è½¬æ
  26:./app/peripheral/src/as5600.c **** float Get_AS5600_Angle(As5600_Sensor_Typedef* as5600) 
  27:./app/peripheral/src/as5600.c **** {
 155              		.loc 1 27 1 is_stmt 1 view -0
 156              		.cfi_startproc
 157              		@ args = 0, pretend = 0, frame = 0
 158              		@ frame_needed = 0, uses_anonymous_args = 0
 159              		@ link register save eliminated.
  28:./app/peripheral/src/as5600.c ****     return as5600->Angle + as5600->Rotations*_2PI;
 160              		.loc 1 28 5 view .LVU34
 161              		.loc 1 28 18 is_stmt 0 view .LVU35
 162 0000 90ED010A 		vldr.32	s0, [r0, #4]
 163              		.loc 1 28 34 view .LVU36
 164 0004 D0ED047A 		vldr.32	s15, [r0, #16]	@ int
 165              		.loc 1 28 45 view .LVU37
 166 0008 F8EEE77A 		vcvt.f32.s32	s15, s15
 167 000c 9FED037A 		vldr.32	s14, .L14
 168 0010 67EE877A 		vmul.f32	s15, s15, s14
  29:./app/peripheral/src/as5600.c **** }
 169              		.loc 1 29 1 view .LVU38
 170 0014 30EE270A 		vadd.f32	s0, s0, s15
 171 0018 7047     		bx	lr
 172              	.L15:
 173 001a 00BF     		.align	2
 174              	.L14:
 175 001c DB0FC940 		.word	1086918619
 176              		.cfi_endproc
 177              	.LFE243:
 179              		.text
 180              	.Letext0:
 181              		.file 2 "c:\\software_user\\armgcc\\arm-none-eabi\\include\\machine\\_default_types.h"
 182              		.file 3 "c:\\software_user\\armgcc\\arm-none-eabi\\include\\sys\\_stdint.h"
 183              		.file 4 "./Drivers/CMSIS/Device/ST/STM32F4xx/Include/stm32f407xx.h"
 184              		.file 5 "./Drivers/STM32F4xx_HAL_Driver/Inc/stm32f4xx_hal_def.h"
 185              		.file 6 "./Drivers/STM32F4xx_HAL_Driver/Inc/stm32f4xx_hal_dma.h"
 186              		.file 7 "./Drivers/STM32F4xx_HAL_Driver/Inc/stm32f4xx_hal_i2c.h"
 187              		.file 8 "./app/peripheral/inc/as5600.h"
 188              		.file 9 "./Drivers/STM32F4xx_HAL_Driver/Inc/stm32f4xx_hal.h"
ARM GAS  C:\Users\Dennis\AppData\Local\Temp\ccYcq7BK.s 			page 5

