ARM GAS  C:\Users\Dennis\AppData\Local\Temp\ccJpIuvd.s 			page 1


   1              		.cpu cortex-m4
   2              		.arch armv7e-m
   3              		.fpu fpv4-sp-d16
   4              		.eabi_attribute 27, 1
   5              		.eabi_attribute 28, 1
   6              		.eabi_attribute 20, 1
   7              		.eabi_attribute 21, 1
   8              		.eabi_attribute 23, 3
   9              		.eabi_attribute 24, 1
  10              		.eabi_attribute 25, 1
  11              		.eabi_attribute 26, 1
  12              		.eabi_attribute 30, 1
  13              		.eabi_attribute 34, 1
  14              		.eabi_attribute 18, 4
  15              		.file	"can.c"
  16              		.text
  17              	.Ltext0:
  18              		.cfi_sections	.debug_frame
  19              		.section	.text.MX_CAN1_Init,"ax",%progbits
  20              		.align	1
  21              		.global	MX_CAN1_Init
  22              		.syntax unified
  23              		.thumb
  24              		.thumb_func
  26              	MX_CAN1_Init:
  27              	.LFB239:
  28              		.file 1 "./Core/Src/can.c"
   1:./Core/Src/can.c **** /* USER CODE BEGIN Header */
   2:./Core/Src/can.c **** /**
   3:./Core/Src/can.c ****   ******************************************************************************
   4:./Core/Src/can.c ****   * @file    can.c
   5:./Core/Src/can.c ****   * @brief   This file provides code for the configuration
   6:./Core/Src/can.c ****   *          of the CAN instances.
   7:./Core/Src/can.c ****   ******************************************************************************
   8:./Core/Src/can.c ****   * @attention
   9:./Core/Src/can.c ****   *
  10:./Core/Src/can.c ****   * Copyright (c) 2025 STMicroelectronics.
  11:./Core/Src/can.c ****   * All rights reserved.
  12:./Core/Src/can.c ****   *
  13:./Core/Src/can.c ****   * This software is licensed under terms that can be found in the LICENSE file
  14:./Core/Src/can.c ****   * in the root directory of this software component.
  15:./Core/Src/can.c ****   * If no LICENSE file comes with this software, it is provided AS-IS.
  16:./Core/Src/can.c ****   *
  17:./Core/Src/can.c ****   ******************************************************************************
  18:./Core/Src/can.c ****   */
  19:./Core/Src/can.c **** /* USER CODE END Header */
  20:./Core/Src/can.c **** /* Includes ------------------------------------------------------------------*/
  21:./Core/Src/can.c **** #include "can.h"
  22:./Core/Src/can.c **** 
  23:./Core/Src/can.c **** /* USER CODE BEGIN 0 */
  24:./Core/Src/can.c **** 
  25:./Core/Src/can.c **** /* USER CODE END 0 */
  26:./Core/Src/can.c **** 
  27:./Core/Src/can.c **** CAN_HandleTypeDef hcan1;
  28:./Core/Src/can.c **** CAN_HandleTypeDef hcan2;
  29:./Core/Src/can.c **** 
  30:./Core/Src/can.c **** /* CAN1 init function */
ARM GAS  C:\Users\Dennis\AppData\Local\Temp\ccJpIuvd.s 			page 2


  31:./Core/Src/can.c **** void MX_CAN1_Init(void)
  32:./Core/Src/can.c **** {
  29              		.loc 1 32 1 view -0
  30              		.cfi_startproc
  31              		@ args = 0, pretend = 0, frame = 0
  32              		@ frame_needed = 0, uses_anonymous_args = 0
  33 0000 08B5     		push	{r3, lr}
  34              	.LCFI0:
  35              		.cfi_def_cfa_offset 8
  36              		.cfi_offset 3, -8
  37              		.cfi_offset 14, -4
  33:./Core/Src/can.c **** 
  34:./Core/Src/can.c ****   /* USER CODE BEGIN CAN1_Init 0 */
  35:./Core/Src/can.c **** 
  36:./Core/Src/can.c ****   /* USER CODE END CAN1_Init 0 */
  37:./Core/Src/can.c **** 
  38:./Core/Src/can.c ****   /* USER CODE BEGIN CAN1_Init 1 */
  39:./Core/Src/can.c **** 
  40:./Core/Src/can.c ****   /* USER CODE END CAN1_Init 1 */
  41:./Core/Src/can.c ****   hcan1.Instance = CAN1;
  38              		.loc 1 41 3 view .LVU1
  39              		.loc 1 41 18 is_stmt 0 view .LVU2
  40 0002 0D48     		ldr	r0, .L5
  41 0004 0D4B     		ldr	r3, .L5+4
  42 0006 0360     		str	r3, [r0]
  42:./Core/Src/can.c ****   hcan1.Init.Prescaler = 42;
  43              		.loc 1 42 3 is_stmt 1 view .LVU3
  44              		.loc 1 42 24 is_stmt 0 view .LVU4
  45 0008 2A23     		movs	r3, #42
  46 000a 4360     		str	r3, [r0, #4]
  43:./Core/Src/can.c ****   hcan1.Init.Mode = CAN_MODE_NORMAL;
  47              		.loc 1 43 3 is_stmt 1 view .LVU5
  48              		.loc 1 43 19 is_stmt 0 view .LVU6
  49 000c 0023     		movs	r3, #0
  50 000e 8360     		str	r3, [r0, #8]
  44:./Core/Src/can.c ****   hcan1.Init.SyncJumpWidth = CAN_SJW_1TQ;
  51              		.loc 1 44 3 is_stmt 1 view .LVU7
  52              		.loc 1 44 28 is_stmt 0 view .LVU8
  53 0010 C360     		str	r3, [r0, #12]
  45:./Core/Src/can.c ****   hcan1.Init.TimeSeg1 = CAN_BS1_7TQ;
  54              		.loc 1 45 3 is_stmt 1 view .LVU9
  55              		.loc 1 45 23 is_stmt 0 view .LVU10
  56 0012 4FF4C022 		mov	r2, #393216
  57 0016 0261     		str	r2, [r0, #16]
  46:./Core/Src/can.c ****   hcan1.Init.TimeSeg2 = CAN_BS2_2TQ;
  58              		.loc 1 46 3 is_stmt 1 view .LVU11
  59              		.loc 1 46 23 is_stmt 0 view .LVU12
  60 0018 4FF48012 		mov	r2, #1048576
  61 001c 4261     		str	r2, [r0, #20]
  47:./Core/Src/can.c ****   hcan1.Init.TimeTriggeredMode = DISABLE;
  62              		.loc 1 47 3 is_stmt 1 view .LVU13
  63              		.loc 1 47 32 is_stmt 0 view .LVU14
  64 001e 0376     		strb	r3, [r0, #24]
  48:./Core/Src/can.c ****   hcan1.Init.AutoBusOff = DISABLE;
  65              		.loc 1 48 3 is_stmt 1 view .LVU15
  66              		.loc 1 48 25 is_stmt 0 view .LVU16
  67 0020 4376     		strb	r3, [r0, #25]
ARM GAS  C:\Users\Dennis\AppData\Local\Temp\ccJpIuvd.s 			page 3


  49:./Core/Src/can.c ****   hcan1.Init.AutoWakeUp = DISABLE;
  68              		.loc 1 49 3 is_stmt 1 view .LVU17
  69              		.loc 1 49 25 is_stmt 0 view .LVU18
  70 0022 8376     		strb	r3, [r0, #26]
  50:./Core/Src/can.c ****   hcan1.Init.AutoRetransmission = DISABLE;
  71              		.loc 1 50 3 is_stmt 1 view .LVU19
  72              		.loc 1 50 33 is_stmt 0 view .LVU20
  73 0024 C376     		strb	r3, [r0, #27]
  51:./Core/Src/can.c ****   hcan1.Init.ReceiveFifoLocked = DISABLE;
  74              		.loc 1 51 3 is_stmt 1 view .LVU21
  75              		.loc 1 51 32 is_stmt 0 view .LVU22
  76 0026 0377     		strb	r3, [r0, #28]
  52:./Core/Src/can.c ****   hcan1.Init.TransmitFifoPriority = DISABLE;
  77              		.loc 1 52 3 is_stmt 1 view .LVU23
  78              		.loc 1 52 35 is_stmt 0 view .LVU24
  79 0028 4377     		strb	r3, [r0, #29]
  53:./Core/Src/can.c ****   if (HAL_CAN_Init(&hcan1) != HAL_OK)
  80              		.loc 1 53 3 is_stmt 1 view .LVU25
  81              		.loc 1 53 7 is_stmt 0 view .LVU26
  82 002a FFF7FEFF 		bl	HAL_CAN_Init
  83              	.LVL0:
  84              		.loc 1 53 6 view .LVU27
  85 002e 00B9     		cbnz	r0, .L4
  86              	.L1:
  54:./Core/Src/can.c ****   {
  55:./Core/Src/can.c ****     Error_Handler();
  56:./Core/Src/can.c ****   }
  57:./Core/Src/can.c ****   /* USER CODE BEGIN CAN1_Init 2 */
  58:./Core/Src/can.c **** 
  59:./Core/Src/can.c ****   /* USER CODE END CAN1_Init 2 */
  60:./Core/Src/can.c **** 
  61:./Core/Src/can.c **** }
  87              		.loc 1 61 1 view .LVU28
  88 0030 08BD     		pop	{r3, pc}
  89              	.L4:
  55:./Core/Src/can.c ****   }
  90              		.loc 1 55 5 is_stmt 1 view .LVU29
  91 0032 FFF7FEFF 		bl	Error_Handler
  92              	.LVL1:
  93              		.loc 1 61 1 is_stmt 0 view .LVU30
  94 0036 FBE7     		b	.L1
  95              	.L6:
  96              		.align	2
  97              	.L5:
  98 0038 00000000 		.word	.LANCHOR0
  99 003c 00640040 		.word	1073767424
 100              		.cfi_endproc
 101              	.LFE239:
 103              		.section	.text.MX_CAN2_Init,"ax",%progbits
 104              		.align	1
 105              		.global	MX_CAN2_Init
 106              		.syntax unified
 107              		.thumb
 108              		.thumb_func
 110              	MX_CAN2_Init:
 111              	.LFB240:
  62:./Core/Src/can.c **** /* CAN2 init function */
ARM GAS  C:\Users\Dennis\AppData\Local\Temp\ccJpIuvd.s 			page 4


  63:./Core/Src/can.c **** void MX_CAN2_Init(void)
  64:./Core/Src/can.c **** {
 112              		.loc 1 64 1 is_stmt 1 view -0
 113              		.cfi_startproc
 114              		@ args = 0, pretend = 0, frame = 0
 115              		@ frame_needed = 0, uses_anonymous_args = 0
 116 0000 08B5     		push	{r3, lr}
 117              	.LCFI1:
 118              		.cfi_def_cfa_offset 8
 119              		.cfi_offset 3, -8
 120              		.cfi_offset 14, -4
  65:./Core/Src/can.c **** 
  66:./Core/Src/can.c ****   /* USER CODE BEGIN CAN2_Init 0 */
  67:./Core/Src/can.c **** 
  68:./Core/Src/can.c ****   /* USER CODE END CAN2_Init 0 */
  69:./Core/Src/can.c **** 
  70:./Core/Src/can.c ****   /* USER CODE BEGIN CAN2_Init 1 */
  71:./Core/Src/can.c **** 
  72:./Core/Src/can.c ****   /* USER CODE END CAN2_Init 1 */
  73:./Core/Src/can.c ****   hcan2.Instance = CAN2;
 121              		.loc 1 73 3 view .LVU32
 122              		.loc 1 73 18 is_stmt 0 view .LVU33
 123 0002 0D48     		ldr	r0, .L11
 124 0004 0D4B     		ldr	r3, .L11+4
 125 0006 0360     		str	r3, [r0]
  74:./Core/Src/can.c ****   hcan2.Init.Prescaler = 42;
 126              		.loc 1 74 3 is_stmt 1 view .LVU34
 127              		.loc 1 74 24 is_stmt 0 view .LVU35
 128 0008 2A23     		movs	r3, #42
 129 000a 4360     		str	r3, [r0, #4]
  75:./Core/Src/can.c ****   hcan2.Init.Mode = CAN_MODE_NORMAL;
 130              		.loc 1 75 3 is_stmt 1 view .LVU36
 131              		.loc 1 75 19 is_stmt 0 view .LVU37
 132 000c 0023     		movs	r3, #0
 133 000e 8360     		str	r3, [r0, #8]
  76:./Core/Src/can.c ****   hcan2.Init.SyncJumpWidth = CAN_SJW_1TQ;
 134              		.loc 1 76 3 is_stmt 1 view .LVU38
 135              		.loc 1 76 28 is_stmt 0 view .LVU39
 136 0010 C360     		str	r3, [r0, #12]
  77:./Core/Src/can.c ****   hcan2.Init.TimeSeg1 = CAN_BS1_7TQ;
 137              		.loc 1 77 3 is_stmt 1 view .LVU40
 138              		.loc 1 77 23 is_stmt 0 view .LVU41
 139 0012 4FF4C022 		mov	r2, #393216
 140 0016 0261     		str	r2, [r0, #16]
  78:./Core/Src/can.c ****   hcan2.Init.TimeSeg2 = CAN_BS2_2TQ;
 141              		.loc 1 78 3 is_stmt 1 view .LVU42
 142              		.loc 1 78 23 is_stmt 0 view .LVU43
 143 0018 4FF48012 		mov	r2, #1048576
 144 001c 4261     		str	r2, [r0, #20]
  79:./Core/Src/can.c ****   hcan2.Init.TimeTriggeredMode = DISABLE;
 145              		.loc 1 79 3 is_stmt 1 view .LVU44
 146              		.loc 1 79 32 is_stmt 0 view .LVU45
 147 001e 0376     		strb	r3, [r0, #24]
  80:./Core/Src/can.c ****   hcan2.Init.AutoBusOff = DISABLE;
 148              		.loc 1 80 3 is_stmt 1 view .LVU46
 149              		.loc 1 80 25 is_stmt 0 view .LVU47
 150 0020 4376     		strb	r3, [r0, #25]
ARM GAS  C:\Users\Dennis\AppData\Local\Temp\ccJpIuvd.s 			page 5


  81:./Core/Src/can.c ****   hcan2.Init.AutoWakeUp = DISABLE;
 151              		.loc 1 81 3 is_stmt 1 view .LVU48
 152              		.loc 1 81 25 is_stmt 0 view .LVU49
 153 0022 8376     		strb	r3, [r0, #26]
  82:./Core/Src/can.c ****   hcan2.Init.AutoRetransmission = DISABLE;
 154              		.loc 1 82 3 is_stmt 1 view .LVU50
 155              		.loc 1 82 33 is_stmt 0 view .LVU51
 156 0024 C376     		strb	r3, [r0, #27]
  83:./Core/Src/can.c ****   hcan2.Init.ReceiveFifoLocked = DISABLE;
 157              		.loc 1 83 3 is_stmt 1 view .LVU52
 158              		.loc 1 83 32 is_stmt 0 view .LVU53
 159 0026 0377     		strb	r3, [r0, #28]
  84:./Core/Src/can.c ****   hcan2.Init.TransmitFifoPriority = DISABLE;
 160              		.loc 1 84 3 is_stmt 1 view .LVU54
 161              		.loc 1 84 35 is_stmt 0 view .LVU55
 162 0028 4377     		strb	r3, [r0, #29]
  85:./Core/Src/can.c ****   if (HAL_CAN_Init(&hcan2) != HAL_OK)
 163              		.loc 1 85 3 is_stmt 1 view .LVU56
 164              		.loc 1 85 7 is_stmt 0 view .LVU57
 165 002a FFF7FEFF 		bl	HAL_CAN_Init
 166              	.LVL2:
 167              		.loc 1 85 6 view .LVU58
 168 002e 00B9     		cbnz	r0, .L10
 169              	.L7:
  86:./Core/Src/can.c ****   {
  87:./Core/Src/can.c ****     Error_Handler();
  88:./Core/Src/can.c ****   }
  89:./Core/Src/can.c ****   /* USER CODE BEGIN CAN2_Init 2 */
  90:./Core/Src/can.c **** 
  91:./Core/Src/can.c ****   /* USER CODE END CAN2_Init 2 */
  92:./Core/Src/can.c **** 
  93:./Core/Src/can.c **** }
 170              		.loc 1 93 1 view .LVU59
 171 0030 08BD     		pop	{r3, pc}
 172              	.L10:
  87:./Core/Src/can.c ****   }
 173              		.loc 1 87 5 is_stmt 1 view .LVU60
 174 0032 FFF7FEFF 		bl	Error_Handler
 175              	.LVL3:
 176              		.loc 1 93 1 is_stmt 0 view .LVU61
 177 0036 FBE7     		b	.L7
 178              	.L12:
 179              		.align	2
 180              	.L11:
 181 0038 00000000 		.word	.LANCHOR1
 182 003c 00680040 		.word	1073768448
 183              		.cfi_endproc
 184              	.LFE240:
 186              		.section	.text.HAL_CAN_MspInit,"ax",%progbits
 187              		.align	1
 188              		.global	HAL_CAN_MspInit
 189              		.syntax unified
 190              		.thumb
 191              		.thumb_func
 193              	HAL_CAN_MspInit:
 194              	.LVL4:
 195              	.LFB241:
ARM GAS  C:\Users\Dennis\AppData\Local\Temp\ccJpIuvd.s 			page 6


  94:./Core/Src/can.c **** 
  95:./Core/Src/can.c **** static uint32_t HAL_RCC_CAN1_CLK_ENABLED=0;
  96:./Core/Src/can.c **** 
  97:./Core/Src/can.c **** void HAL_CAN_MspInit(CAN_HandleTypeDef* canHandle)
  98:./Core/Src/can.c **** {
 196              		.loc 1 98 1 is_stmt 1 view -0
 197              		.cfi_startproc
 198              		@ args = 0, pretend = 0, frame = 40
 199              		@ frame_needed = 0, uses_anonymous_args = 0
 200              		.loc 1 98 1 is_stmt 0 view .LVU63
 201 0000 10B5     		push	{r4, lr}
 202              	.LCFI2:
 203              		.cfi_def_cfa_offset 8
 204              		.cfi_offset 4, -8
 205              		.cfi_offset 14, -4
 206 0002 8AB0     		sub	sp, sp, #40
 207              	.LCFI3:
 208              		.cfi_def_cfa_offset 48
  99:./Core/Src/can.c **** 
 100:./Core/Src/can.c ****   GPIO_InitTypeDef GPIO_InitStruct = {0};
 209              		.loc 1 100 3 is_stmt 1 view .LVU64
 210              		.loc 1 100 20 is_stmt 0 view .LVU65
 211 0004 0023     		movs	r3, #0
 212 0006 0593     		str	r3, [sp, #20]
 213 0008 0693     		str	r3, [sp, #24]
 214 000a 0793     		str	r3, [sp, #28]
 215 000c 0893     		str	r3, [sp, #32]
 216 000e 0993     		str	r3, [sp, #36]
 101:./Core/Src/can.c ****   if(canHandle->Instance==CAN1)
 217              		.loc 1 101 3 is_stmt 1 view .LVU66
 218              		.loc 1 101 15 is_stmt 0 view .LVU67
 219 0010 0368     		ldr	r3, [r0]
 220              		.loc 1 101 5 view .LVU68
 221 0012 554A     		ldr	r2, .L23
 222 0014 9342     		cmp	r3, r2
 223 0016 04D0     		beq	.L19
 102:./Core/Src/can.c ****   {
 103:./Core/Src/can.c ****   /* USER CODE BEGIN CAN1_MspInit 0 */
 104:./Core/Src/can.c **** 
 105:./Core/Src/can.c ****   /* USER CODE END CAN1_MspInit 0 */
 106:./Core/Src/can.c ****     /* CAN1 clock enable */
 107:./Core/Src/can.c ****     HAL_RCC_CAN1_CLK_ENABLED++;
 108:./Core/Src/can.c ****     if(HAL_RCC_CAN1_CLK_ENABLED==1){
 109:./Core/Src/can.c ****       __HAL_RCC_CAN1_CLK_ENABLE();
 110:./Core/Src/can.c ****     }
 111:./Core/Src/can.c **** 
 112:./Core/Src/can.c ****     __HAL_RCC_GPIOD_CLK_ENABLE();
 113:./Core/Src/can.c ****     /**CAN1 GPIO Configuration
 114:./Core/Src/can.c ****     PD0     ------> CAN1_RX
 115:./Core/Src/can.c ****     PD1     ------> CAN1_TX
 116:./Core/Src/can.c ****     */
 117:./Core/Src/can.c ****     GPIO_InitStruct.Pin = GPIO_PIN_0|GPIO_PIN_1;
 118:./Core/Src/can.c ****     GPIO_InitStruct.Mode = GPIO_MODE_AF_PP;
 119:./Core/Src/can.c ****     GPIO_InitStruct.Pull = GPIO_NOPULL;
 120:./Core/Src/can.c ****     GPIO_InitStruct.Speed = GPIO_SPEED_FREQ_VERY_HIGH;
 121:./Core/Src/can.c ****     GPIO_InitStruct.Alternate = GPIO_AF9_CAN1;
 122:./Core/Src/can.c ****     HAL_GPIO_Init(GPIOD, &GPIO_InitStruct);
ARM GAS  C:\Users\Dennis\AppData\Local\Temp\ccJpIuvd.s 			page 7


 123:./Core/Src/can.c **** 
 124:./Core/Src/can.c ****     /* CAN1 interrupt Init */
 125:./Core/Src/can.c ****     HAL_NVIC_SetPriority(CAN1_TX_IRQn, 0, 0);
 126:./Core/Src/can.c ****     HAL_NVIC_EnableIRQ(CAN1_TX_IRQn);
 127:./Core/Src/can.c ****     HAL_NVIC_SetPriority(CAN1_RX0_IRQn, 0, 0);
 128:./Core/Src/can.c ****     HAL_NVIC_EnableIRQ(CAN1_RX0_IRQn);
 129:./Core/Src/can.c ****     HAL_NVIC_SetPriority(CAN1_RX1_IRQn, 0, 0);
 130:./Core/Src/can.c ****     HAL_NVIC_EnableIRQ(CAN1_RX1_IRQn);
 131:./Core/Src/can.c ****     HAL_NVIC_SetPriority(CAN1_SCE_IRQn, 0, 0);
 132:./Core/Src/can.c ****     HAL_NVIC_EnableIRQ(CAN1_SCE_IRQn);
 133:./Core/Src/can.c ****   /* USER CODE BEGIN CAN1_MspInit 1 */
 134:./Core/Src/can.c **** 
 135:./Core/Src/can.c ****   /* USER CODE END CAN1_MspInit 1 */
 136:./Core/Src/can.c ****   }
 137:./Core/Src/can.c ****   else if(canHandle->Instance==CAN2)
 224              		.loc 1 137 8 is_stmt 1 view .LVU69
 225              		.loc 1 137 10 is_stmt 0 view .LVU70
 226 0018 544A     		ldr	r2, .L23+4
 227 001a 9342     		cmp	r3, r2
 228 001c 4CD0     		beq	.L20
 229              	.LVL5:
 230              	.L13:
 138:./Core/Src/can.c ****   {
 139:./Core/Src/can.c ****   /* USER CODE BEGIN CAN2_MspInit 0 */
 140:./Core/Src/can.c **** 
 141:./Core/Src/can.c ****   /* USER CODE END CAN2_MspInit 0 */
 142:./Core/Src/can.c ****     /* CAN2 clock enable */
 143:./Core/Src/can.c ****     __HAL_RCC_CAN2_CLK_ENABLE();
 144:./Core/Src/can.c ****     HAL_RCC_CAN1_CLK_ENABLED++;
 145:./Core/Src/can.c ****     if(HAL_RCC_CAN1_CLK_ENABLED==1){
 146:./Core/Src/can.c ****       __HAL_RCC_CAN1_CLK_ENABLE();
 147:./Core/Src/can.c ****     }
 148:./Core/Src/can.c **** 
 149:./Core/Src/can.c ****     __HAL_RCC_GPIOB_CLK_ENABLE();
 150:./Core/Src/can.c ****     /**CAN2 GPIO Configuration
 151:./Core/Src/can.c ****     PB5     ------> CAN2_RX
 152:./Core/Src/can.c ****     PB6     ------> CAN2_TX
 153:./Core/Src/can.c ****     */
 154:./Core/Src/can.c ****     GPIO_InitStruct.Pin = GPIO_PIN_5|GPIO_PIN_6;
 155:./Core/Src/can.c ****     GPIO_InitStruct.Mode = GPIO_MODE_AF_PP;
 156:./Core/Src/can.c ****     GPIO_InitStruct.Pull = GPIO_NOPULL;
 157:./Core/Src/can.c ****     GPIO_InitStruct.Speed = GPIO_SPEED_FREQ_VERY_HIGH;
 158:./Core/Src/can.c ****     GPIO_InitStruct.Alternate = GPIO_AF9_CAN2;
 159:./Core/Src/can.c ****     HAL_GPIO_Init(GPIOB, &GPIO_InitStruct);
 160:./Core/Src/can.c **** 
 161:./Core/Src/can.c ****     /* CAN2 interrupt Init */
 162:./Core/Src/can.c ****     HAL_NVIC_SetPriority(CAN2_TX_IRQn, 0, 0);
 163:./Core/Src/can.c ****     HAL_NVIC_EnableIRQ(CAN2_TX_IRQn);
 164:./Core/Src/can.c ****     HAL_NVIC_SetPriority(CAN2_RX0_IRQn, 0, 0);
 165:./Core/Src/can.c ****     HAL_NVIC_EnableIRQ(CAN2_RX0_IRQn);
 166:./Core/Src/can.c ****     HAL_NVIC_SetPriority(CAN2_RX1_IRQn, 0, 0);
 167:./Core/Src/can.c ****     HAL_NVIC_EnableIRQ(CAN2_RX1_IRQn);
 168:./Core/Src/can.c ****     HAL_NVIC_SetPriority(CAN2_SCE_IRQn, 0, 0);
 169:./Core/Src/can.c ****     HAL_NVIC_EnableIRQ(CAN2_SCE_IRQn);
 170:./Core/Src/can.c ****   /* USER CODE BEGIN CAN2_MspInit 1 */
 171:./Core/Src/can.c **** 
 172:./Core/Src/can.c ****   /* USER CODE END CAN2_MspInit 1 */
ARM GAS  C:\Users\Dennis\AppData\Local\Temp\ccJpIuvd.s 			page 8


 173:./Core/Src/can.c ****   }
 174:./Core/Src/can.c **** }
 231              		.loc 1 174 1 view .LVU71
 232 001e 0AB0     		add	sp, sp, #40
 233              	.LCFI4:
 234              		.cfi_remember_state
 235              		.cfi_def_cfa_offset 8
 236              		@ sp needed
 237 0020 10BD     		pop	{r4, pc}
 238              	.LVL6:
 239              	.L19:
 240              	.LCFI5:
 241              		.cfi_restore_state
 107:./Core/Src/can.c ****     if(HAL_RCC_CAN1_CLK_ENABLED==1){
 242              		.loc 1 107 5 is_stmt 1 view .LVU72
 107:./Core/Src/can.c ****     if(HAL_RCC_CAN1_CLK_ENABLED==1){
 243              		.loc 1 107 29 is_stmt 0 view .LVU73
 244 0022 534A     		ldr	r2, .L23+8
 245 0024 1368     		ldr	r3, [r2]
 246 0026 0133     		adds	r3, r3, #1
 247 0028 1360     		str	r3, [r2]
 108:./Core/Src/can.c ****       __HAL_RCC_CAN1_CLK_ENABLE();
 248              		.loc 1 108 5 is_stmt 1 view .LVU74
 108:./Core/Src/can.c ****       __HAL_RCC_CAN1_CLK_ENABLE();
 249              		.loc 1 108 7 is_stmt 0 view .LVU75
 250 002a 012B     		cmp	r3, #1
 251 002c 37D0     		beq	.L21
 252              	.L15:
 109:./Core/Src/can.c ****     }
 253              		.loc 1 109 7 is_stmt 1 discriminator 1 view .LVU76
 112:./Core/Src/can.c ****     /**CAN1 GPIO Configuration
 254              		.loc 1 112 5 discriminator 1 view .LVU77
 255              	.LBB2:
 112:./Core/Src/can.c ****     /**CAN1 GPIO Configuration
 256              		.loc 1 112 5 discriminator 1 view .LVU78
 257 002e 0024     		movs	r4, #0
 258 0030 0194     		str	r4, [sp, #4]
 112:./Core/Src/can.c ****     /**CAN1 GPIO Configuration
 259              		.loc 1 112 5 discriminator 1 view .LVU79
 260 0032 504B     		ldr	r3, .L23+12
 261 0034 1A6B     		ldr	r2, [r3, #48]
 262 0036 42F00802 		orr	r2, r2, #8
 263 003a 1A63     		str	r2, [r3, #48]
 112:./Core/Src/can.c ****     /**CAN1 GPIO Configuration
 264              		.loc 1 112 5 discriminator 1 view .LVU80
 265 003c 1B6B     		ldr	r3, [r3, #48]
 266 003e 03F00803 		and	r3, r3, #8
 267 0042 0193     		str	r3, [sp, #4]
 112:./Core/Src/can.c ****     /**CAN1 GPIO Configuration
 268              		.loc 1 112 5 discriminator 1 view .LVU81
 269 0044 019B     		ldr	r3, [sp, #4]
 270              	.LBE2:
 112:./Core/Src/can.c ****     /**CAN1 GPIO Configuration
 271              		.loc 1 112 5 discriminator 1 view .LVU82
 117:./Core/Src/can.c ****     GPIO_InitStruct.Mode = GPIO_MODE_AF_PP;
 272              		.loc 1 117 5 discriminator 1 view .LVU83
 117:./Core/Src/can.c ****     GPIO_InitStruct.Mode = GPIO_MODE_AF_PP;
ARM GAS  C:\Users\Dennis\AppData\Local\Temp\ccJpIuvd.s 			page 9


 273              		.loc 1 117 25 is_stmt 0 discriminator 1 view .LVU84
 274 0046 0323     		movs	r3, #3
 275 0048 0593     		str	r3, [sp, #20]
 118:./Core/Src/can.c ****     GPIO_InitStruct.Pull = GPIO_NOPULL;
 276              		.loc 1 118 5 is_stmt 1 discriminator 1 view .LVU85
 118:./Core/Src/can.c ****     GPIO_InitStruct.Pull = GPIO_NOPULL;
 277              		.loc 1 118 26 is_stmt 0 discriminator 1 view .LVU86
 278 004a 0222     		movs	r2, #2
 279 004c 0692     		str	r2, [sp, #24]
 119:./Core/Src/can.c ****     GPIO_InitStruct.Speed = GPIO_SPEED_FREQ_VERY_HIGH;
 280              		.loc 1 119 5 is_stmt 1 discriminator 1 view .LVU87
 120:./Core/Src/can.c ****     GPIO_InitStruct.Alternate = GPIO_AF9_CAN1;
 281              		.loc 1 120 5 discriminator 1 view .LVU88
 120:./Core/Src/can.c ****     GPIO_InitStruct.Alternate = GPIO_AF9_CAN1;
 282              		.loc 1 120 27 is_stmt 0 discriminator 1 view .LVU89
 283 004e 0893     		str	r3, [sp, #32]
 121:./Core/Src/can.c ****     HAL_GPIO_Init(GPIOD, &GPIO_InitStruct);
 284              		.loc 1 121 5 is_stmt 1 discriminator 1 view .LVU90
 121:./Core/Src/can.c ****     HAL_GPIO_Init(GPIOD, &GPIO_InitStruct);
 285              		.loc 1 121 31 is_stmt 0 discriminator 1 view .LVU91
 286 0050 0923     		movs	r3, #9
 287 0052 0993     		str	r3, [sp, #36]
 122:./Core/Src/can.c **** 
 288              		.loc 1 122 5 is_stmt 1 discriminator 1 view .LVU92
 289 0054 05A9     		add	r1, sp, #20
 290 0056 4848     		ldr	r0, .L23+16
 291              	.LVL7:
 122:./Core/Src/can.c **** 
 292              		.loc 1 122 5 is_stmt 0 discriminator 1 view .LVU93
 293 0058 FFF7FEFF 		bl	HAL_GPIO_Init
 294              	.LVL8:
 125:./Core/Src/can.c ****     HAL_NVIC_EnableIRQ(CAN1_TX_IRQn);
 295              		.loc 1 125 5 is_stmt 1 discriminator 1 view .LVU94
 296 005c 2246     		mov	r2, r4
 297 005e 2146     		mov	r1, r4
 298 0060 1320     		movs	r0, #19
 299 0062 FFF7FEFF 		bl	HAL_NVIC_SetPriority
 300              	.LVL9:
 126:./Core/Src/can.c ****     HAL_NVIC_SetPriority(CAN1_RX0_IRQn, 0, 0);
 301              		.loc 1 126 5 discriminator 1 view .LVU95
 302 0066 1320     		movs	r0, #19
 303 0068 FFF7FEFF 		bl	HAL_NVIC_EnableIRQ
 304              	.LVL10:
 127:./Core/Src/can.c ****     HAL_NVIC_EnableIRQ(CAN1_RX0_IRQn);
 305              		.loc 1 127 5 discriminator 1 view .LVU96
 306 006c 2246     		mov	r2, r4
 307 006e 2146     		mov	r1, r4
 308 0070 1420     		movs	r0, #20
 309 0072 FFF7FEFF 		bl	HAL_NVIC_SetPriority
 310              	.LVL11:
 128:./Core/Src/can.c ****     HAL_NVIC_SetPriority(CAN1_RX1_IRQn, 0, 0);
 311              		.loc 1 128 5 discriminator 1 view .LVU97
 312 0076 1420     		movs	r0, #20
 313 0078 FFF7FEFF 		bl	HAL_NVIC_EnableIRQ
 314              	.LVL12:
 129:./Core/Src/can.c ****     HAL_NVIC_EnableIRQ(CAN1_RX1_IRQn);
 315              		.loc 1 129 5 discriminator 1 view .LVU98
ARM GAS  C:\Users\Dennis\AppData\Local\Temp\ccJpIuvd.s 			page 10


 316 007c 2246     		mov	r2, r4
 317 007e 2146     		mov	r1, r4
 318 0080 1520     		movs	r0, #21
 319 0082 FFF7FEFF 		bl	HAL_NVIC_SetPriority
 320              	.LVL13:
 130:./Core/Src/can.c ****     HAL_NVIC_SetPriority(CAN1_SCE_IRQn, 0, 0);
 321              		.loc 1 130 5 discriminator 1 view .LVU99
 322 0086 1520     		movs	r0, #21
 323 0088 FFF7FEFF 		bl	HAL_NVIC_EnableIRQ
 324              	.LVL14:
 131:./Core/Src/can.c ****     HAL_NVIC_EnableIRQ(CAN1_SCE_IRQn);
 325              		.loc 1 131 5 discriminator 1 view .LVU100
 326 008c 2246     		mov	r2, r4
 327 008e 2146     		mov	r1, r4
 328 0090 1620     		movs	r0, #22
 329 0092 FFF7FEFF 		bl	HAL_NVIC_SetPriority
 330              	.LVL15:
 132:./Core/Src/can.c ****   /* USER CODE BEGIN CAN1_MspInit 1 */
 331              		.loc 1 132 5 discriminator 1 view .LVU101
 332 0096 1620     		movs	r0, #22
 333 0098 FFF7FEFF 		bl	HAL_NVIC_EnableIRQ
 334              	.LVL16:
 335 009c BFE7     		b	.L13
 336              	.LVL17:
 337              	.L21:
 109:./Core/Src/can.c ****     }
 338              		.loc 1 109 7 view .LVU102
 339              	.LBB3:
 109:./Core/Src/can.c ****     }
 340              		.loc 1 109 7 view .LVU103
 341 009e 0023     		movs	r3, #0
 342 00a0 0093     		str	r3, [sp]
 109:./Core/Src/can.c ****     }
 343              		.loc 1 109 7 view .LVU104
 344 00a2 344B     		ldr	r3, .L23+12
 345 00a4 1A6C     		ldr	r2, [r3, #64]
 346 00a6 42F00072 		orr	r2, r2, #33554432
 347 00aa 1A64     		str	r2, [r3, #64]
 109:./Core/Src/can.c ****     }
 348              		.loc 1 109 7 view .LVU105
 349 00ac 1B6C     		ldr	r3, [r3, #64]
 350 00ae 03F00073 		and	r3, r3, #33554432
 351 00b2 0093     		str	r3, [sp]
 109:./Core/Src/can.c ****     }
 352              		.loc 1 109 7 view .LVU106
 353 00b4 009B     		ldr	r3, [sp]
 354 00b6 BAE7     		b	.L15
 355              	.L20:
 356              	.LBE3:
 143:./Core/Src/can.c ****     HAL_RCC_CAN1_CLK_ENABLED++;
 357              		.loc 1 143 5 view .LVU107
 358              	.LBB4:
 143:./Core/Src/can.c ****     HAL_RCC_CAN1_CLK_ENABLED++;
 359              		.loc 1 143 5 view .LVU108
 360 00b8 0023     		movs	r3, #0
 361 00ba 0293     		str	r3, [sp, #8]
 143:./Core/Src/can.c ****     HAL_RCC_CAN1_CLK_ENABLED++;
ARM GAS  C:\Users\Dennis\AppData\Local\Temp\ccJpIuvd.s 			page 11


 362              		.loc 1 143 5 view .LVU109
 363 00bc 2D4B     		ldr	r3, .L23+12
 364 00be 1A6C     		ldr	r2, [r3, #64]
 365 00c0 42F08062 		orr	r2, r2, #67108864
 366 00c4 1A64     		str	r2, [r3, #64]
 143:./Core/Src/can.c ****     HAL_RCC_CAN1_CLK_ENABLED++;
 367              		.loc 1 143 5 view .LVU110
 368 00c6 1B6C     		ldr	r3, [r3, #64]
 369 00c8 03F08063 		and	r3, r3, #67108864
 370 00cc 0293     		str	r3, [sp, #8]
 143:./Core/Src/can.c ****     HAL_RCC_CAN1_CLK_ENABLED++;
 371              		.loc 1 143 5 view .LVU111
 372 00ce 029B     		ldr	r3, [sp, #8]
 373              	.LBE4:
 143:./Core/Src/can.c ****     HAL_RCC_CAN1_CLK_ENABLED++;
 374              		.loc 1 143 5 view .LVU112
 144:./Core/Src/can.c ****     if(HAL_RCC_CAN1_CLK_ENABLED==1){
 375              		.loc 1 144 5 view .LVU113
 144:./Core/Src/can.c ****     if(HAL_RCC_CAN1_CLK_ENABLED==1){
 376              		.loc 1 144 29 is_stmt 0 view .LVU114
 377 00d0 274A     		ldr	r2, .L23+8
 378 00d2 1368     		ldr	r3, [r2]
 379 00d4 0133     		adds	r3, r3, #1
 380 00d6 1360     		str	r3, [r2]
 145:./Core/Src/can.c ****       __HAL_RCC_CAN1_CLK_ENABLE();
 381              		.loc 1 145 5 is_stmt 1 view .LVU115
 145:./Core/Src/can.c ****       __HAL_RCC_CAN1_CLK_ENABLE();
 382              		.loc 1 145 7 is_stmt 0 view .LVU116
 383 00d8 012B     		cmp	r3, #1
 384 00da 38D0     		beq	.L22
 385              	.L17:
 146:./Core/Src/can.c ****     }
 386              		.loc 1 146 7 is_stmt 1 discriminator 1 view .LVU117
 149:./Core/Src/can.c ****     /**CAN2 GPIO Configuration
 387              		.loc 1 149 5 discriminator 1 view .LVU118
 388              	.LBB5:
 149:./Core/Src/can.c ****     /**CAN2 GPIO Configuration
 389              		.loc 1 149 5 discriminator 1 view .LVU119
 390 00dc 0024     		movs	r4, #0
 391 00de 0494     		str	r4, [sp, #16]
 149:./Core/Src/can.c ****     /**CAN2 GPIO Configuration
 392              		.loc 1 149 5 discriminator 1 view .LVU120
 393 00e0 244B     		ldr	r3, .L23+12
 394 00e2 1A6B     		ldr	r2, [r3, #48]
 395 00e4 42F00202 		orr	r2, r2, #2
 396 00e8 1A63     		str	r2, [r3, #48]
 149:./Core/Src/can.c ****     /**CAN2 GPIO Configuration
 397              		.loc 1 149 5 discriminator 1 view .LVU121
 398 00ea 1B6B     		ldr	r3, [r3, #48]
 399 00ec 03F00203 		and	r3, r3, #2
 400 00f0 0493     		str	r3, [sp, #16]
 149:./Core/Src/can.c ****     /**CAN2 GPIO Configuration
 401              		.loc 1 149 5 discriminator 1 view .LVU122
 402 00f2 049B     		ldr	r3, [sp, #16]
 403              	.LBE5:
 149:./Core/Src/can.c ****     /**CAN2 GPIO Configuration
 404              		.loc 1 149 5 discriminator 1 view .LVU123
ARM GAS  C:\Users\Dennis\AppData\Local\Temp\ccJpIuvd.s 			page 12


 154:./Core/Src/can.c ****     GPIO_InitStruct.Mode = GPIO_MODE_AF_PP;
 405              		.loc 1 154 5 discriminator 1 view .LVU124
 154:./Core/Src/can.c ****     GPIO_InitStruct.Mode = GPIO_MODE_AF_PP;
 406              		.loc 1 154 25 is_stmt 0 discriminator 1 view .LVU125
 407 00f4 6023     		movs	r3, #96
 408 00f6 0593     		str	r3, [sp, #20]
 155:./Core/Src/can.c ****     GPIO_InitStruct.Pull = GPIO_NOPULL;
 409              		.loc 1 155 5 is_stmt 1 discriminator 1 view .LVU126
 155:./Core/Src/can.c ****     GPIO_InitStruct.Pull = GPIO_NOPULL;
 410              		.loc 1 155 26 is_stmt 0 discriminator 1 view .LVU127
 411 00f8 0223     		movs	r3, #2
 412 00fa 0693     		str	r3, [sp, #24]
 156:./Core/Src/can.c ****     GPIO_InitStruct.Speed = GPIO_SPEED_FREQ_VERY_HIGH;
 413              		.loc 1 156 5 is_stmt 1 discriminator 1 view .LVU128
 157:./Core/Src/can.c ****     GPIO_InitStruct.Alternate = GPIO_AF9_CAN2;
 414              		.loc 1 157 5 discriminator 1 view .LVU129
 157:./Core/Src/can.c ****     GPIO_InitStruct.Alternate = GPIO_AF9_CAN2;
 415              		.loc 1 157 27 is_stmt 0 discriminator 1 view .LVU130
 416 00fc 0323     		movs	r3, #3
 417 00fe 0893     		str	r3, [sp, #32]
 158:./Core/Src/can.c ****     HAL_GPIO_Init(GPIOB, &GPIO_InitStruct);
 418              		.loc 1 158 5 is_stmt 1 discriminator 1 view .LVU131
 158:./Core/Src/can.c ****     HAL_GPIO_Init(GPIOB, &GPIO_InitStruct);
 419              		.loc 1 158 31 is_stmt 0 discriminator 1 view .LVU132
 420 0100 0923     		movs	r3, #9
 421 0102 0993     		str	r3, [sp, #36]
 159:./Core/Src/can.c **** 
 422              		.loc 1 159 5 is_stmt 1 discriminator 1 view .LVU133
 423 0104 05A9     		add	r1, sp, #20
 424 0106 1D48     		ldr	r0, .L23+20
 425              	.LVL18:
 159:./Core/Src/can.c **** 
 426              		.loc 1 159 5 is_stmt 0 discriminator 1 view .LVU134
 427 0108 FFF7FEFF 		bl	HAL_GPIO_Init
 428              	.LVL19:
 162:./Core/Src/can.c ****     HAL_NVIC_EnableIRQ(CAN2_TX_IRQn);
 429              		.loc 1 162 5 is_stmt 1 discriminator 1 view .LVU135
 430 010c 2246     		mov	r2, r4
 431 010e 2146     		mov	r1, r4
 432 0110 3F20     		movs	r0, #63
 433 0112 FFF7FEFF 		bl	HAL_NVIC_SetPriority
 434              	.LVL20:
 163:./Core/Src/can.c ****     HAL_NVIC_SetPriority(CAN2_RX0_IRQn, 0, 0);
 435              		.loc 1 163 5 discriminator 1 view .LVU136
 436 0116 3F20     		movs	r0, #63
 437 0118 FFF7FEFF 		bl	HAL_NVIC_EnableIRQ
 438              	.LVL21:
 164:./Core/Src/can.c ****     HAL_NVIC_EnableIRQ(CAN2_RX0_IRQn);
 439              		.loc 1 164 5 discriminator 1 view .LVU137
 440 011c 2246     		mov	r2, r4
 441 011e 2146     		mov	r1, r4
 442 0120 4020     		movs	r0, #64
 443 0122 FFF7FEFF 		bl	HAL_NVIC_SetPriority
 444              	.LVL22:
 165:./Core/Src/can.c ****     HAL_NVIC_SetPriority(CAN2_RX1_IRQn, 0, 0);
 445              		.loc 1 165 5 discriminator 1 view .LVU138
 446 0126 4020     		movs	r0, #64
ARM GAS  C:\Users\Dennis\AppData\Local\Temp\ccJpIuvd.s 			page 13


 447 0128 FFF7FEFF 		bl	HAL_NVIC_EnableIRQ
 448              	.LVL23:
 166:./Core/Src/can.c ****     HAL_NVIC_EnableIRQ(CAN2_RX1_IRQn);
 449              		.loc 1 166 5 discriminator 1 view .LVU139
 450 012c 2246     		mov	r2, r4
 451 012e 2146     		mov	r1, r4
 452 0130 4120     		movs	r0, #65
 453 0132 FFF7FEFF 		bl	HAL_NVIC_SetPriority
 454              	.LVL24:
 167:./Core/Src/can.c ****     HAL_NVIC_SetPriority(CAN2_SCE_IRQn, 0, 0);
 455              		.loc 1 167 5 discriminator 1 view .LVU140
 456 0136 4120     		movs	r0, #65
 457 0138 FFF7FEFF 		bl	HAL_NVIC_EnableIRQ
 458              	.LVL25:
 168:./Core/Src/can.c ****     HAL_NVIC_EnableIRQ(CAN2_SCE_IRQn);
 459              		.loc 1 168 5 discriminator 1 view .LVU141
 460 013c 2246     		mov	r2, r4
 461 013e 2146     		mov	r1, r4
 462 0140 4220     		movs	r0, #66
 463 0142 FFF7FEFF 		bl	HAL_NVIC_SetPriority
 464              	.LVL26:
 169:./Core/Src/can.c ****   /* USER CODE BEGIN CAN2_MspInit 1 */
 465              		.loc 1 169 5 discriminator 1 view .LVU142
 466 0146 4220     		movs	r0, #66
 467 0148 FFF7FEFF 		bl	HAL_NVIC_EnableIRQ
 468              	.LVL27:
 469              		.loc 1 174 1 is_stmt 0 discriminator 1 view .LVU143
 470 014c 67E7     		b	.L13
 471              	.LVL28:
 472              	.L22:
 146:./Core/Src/can.c ****     }
 473              		.loc 1 146 7 is_stmt 1 view .LVU144
 474              	.LBB6:
 146:./Core/Src/can.c ****     }
 475              		.loc 1 146 7 view .LVU145
 476 014e 0023     		movs	r3, #0
 477 0150 0393     		str	r3, [sp, #12]
 146:./Core/Src/can.c ****     }
 478              		.loc 1 146 7 view .LVU146
 479 0152 084B     		ldr	r3, .L23+12
 480 0154 1A6C     		ldr	r2, [r3, #64]
 481 0156 42F00072 		orr	r2, r2, #33554432
 482 015a 1A64     		str	r2, [r3, #64]
 146:./Core/Src/can.c ****     }
 483              		.loc 1 146 7 view .LVU147
 484 015c 1B6C     		ldr	r3, [r3, #64]
 485 015e 03F00073 		and	r3, r3, #33554432
 486 0162 0393     		str	r3, [sp, #12]
 146:./Core/Src/can.c ****     }
 487              		.loc 1 146 7 view .LVU148
 488 0164 039B     		ldr	r3, [sp, #12]
 489 0166 B9E7     		b	.L17
 490              	.L24:
 491              		.align	2
 492              	.L23:
 493 0168 00640040 		.word	1073767424
 494 016c 00680040 		.word	1073768448
ARM GAS  C:\Users\Dennis\AppData\Local\Temp\ccJpIuvd.s 			page 14


 495 0170 00000000 		.word	.LANCHOR2
 496 0174 00380240 		.word	1073887232
 497 0178 000C0240 		.word	1073875968
 498 017c 00040240 		.word	1073873920
 499              	.LBE6:
 500              		.cfi_endproc
 501              	.LFE241:
 503              		.section	.text.HAL_CAN_MspDeInit,"ax",%progbits
 504              		.align	1
 505              		.global	HAL_CAN_MspDeInit
 506              		.syntax unified
 507              		.thumb
 508              		.thumb_func
 510              	HAL_CAN_MspDeInit:
 511              	.LVL29:
 512              	.LFB242:
 175:./Core/Src/can.c **** 
 176:./Core/Src/can.c **** void HAL_CAN_MspDeInit(CAN_HandleTypeDef* canHandle)
 177:./Core/Src/can.c **** {
 513              		.loc 1 177 1 view -0
 514              		.cfi_startproc
 515              		@ args = 0, pretend = 0, frame = 0
 516              		@ frame_needed = 0, uses_anonymous_args = 0
 517              		.loc 1 177 1 is_stmt 0 view .LVU150
 518 0000 08B5     		push	{r3, lr}
 519              	.LCFI6:
 520              		.cfi_def_cfa_offset 8
 521              		.cfi_offset 3, -8
 522              		.cfi_offset 14, -4
 178:./Core/Src/can.c **** 
 179:./Core/Src/can.c ****   if(canHandle->Instance==CAN1)
 523              		.loc 1 179 3 is_stmt 1 view .LVU151
 524              		.loc 1 179 15 is_stmt 0 view .LVU152
 525 0002 0368     		ldr	r3, [r0]
 526              		.loc 1 179 5 view .LVU153
 527 0004 214A     		ldr	r2, .L33
 528 0006 9342     		cmp	r3, r2
 529 0008 03D0     		beq	.L31
 180:./Core/Src/can.c ****   {
 181:./Core/Src/can.c ****   /* USER CODE BEGIN CAN1_MspDeInit 0 */
 182:./Core/Src/can.c **** 
 183:./Core/Src/can.c ****   /* USER CODE END CAN1_MspDeInit 0 */
 184:./Core/Src/can.c ****     /* Peripheral clock disable */
 185:./Core/Src/can.c ****     HAL_RCC_CAN1_CLK_ENABLED--;
 186:./Core/Src/can.c ****     if(HAL_RCC_CAN1_CLK_ENABLED==0){
 187:./Core/Src/can.c ****       __HAL_RCC_CAN1_CLK_DISABLE();
 188:./Core/Src/can.c ****     }
 189:./Core/Src/can.c **** 
 190:./Core/Src/can.c ****     /**CAN1 GPIO Configuration
 191:./Core/Src/can.c ****     PD0     ------> CAN1_RX
 192:./Core/Src/can.c ****     PD1     ------> CAN1_TX
 193:./Core/Src/can.c ****     */
 194:./Core/Src/can.c ****     HAL_GPIO_DeInit(GPIOD, GPIO_PIN_0|GPIO_PIN_1);
 195:./Core/Src/can.c **** 
 196:./Core/Src/can.c ****     /* CAN1 interrupt Deinit */
 197:./Core/Src/can.c ****     HAL_NVIC_DisableIRQ(CAN1_TX_IRQn);
 198:./Core/Src/can.c ****     HAL_NVIC_DisableIRQ(CAN1_RX0_IRQn);
ARM GAS  C:\Users\Dennis\AppData\Local\Temp\ccJpIuvd.s 			page 15


 199:./Core/Src/can.c ****     HAL_NVIC_DisableIRQ(CAN1_RX1_IRQn);
 200:./Core/Src/can.c ****     HAL_NVIC_DisableIRQ(CAN1_SCE_IRQn);
 201:./Core/Src/can.c ****   /* USER CODE BEGIN CAN1_MspDeInit 1 */
 202:./Core/Src/can.c **** 
 203:./Core/Src/can.c ****   /* USER CODE END CAN1_MspDeInit 1 */
 204:./Core/Src/can.c ****   }
 205:./Core/Src/can.c ****   else if(canHandle->Instance==CAN2)
 530              		.loc 1 205 8 is_stmt 1 view .LVU154
 531              		.loc 1 205 10 is_stmt 0 view .LVU155
 532 000a 214A     		ldr	r2, .L33+4
 533 000c 9342     		cmp	r3, r2
 534 000e 1BD0     		beq	.L32
 535              	.LVL30:
 536              	.L25:
 206:./Core/Src/can.c ****   {
 207:./Core/Src/can.c ****   /* USER CODE BEGIN CAN2_MspDeInit 0 */
 208:./Core/Src/can.c **** 
 209:./Core/Src/can.c ****   /* USER CODE END CAN2_MspDeInit 0 */
 210:./Core/Src/can.c ****     /* Peripheral clock disable */
 211:./Core/Src/can.c ****     __HAL_RCC_CAN2_CLK_DISABLE();
 212:./Core/Src/can.c ****     HAL_RCC_CAN1_CLK_ENABLED--;
 213:./Core/Src/can.c ****     if(HAL_RCC_CAN1_CLK_ENABLED==0){
 214:./Core/Src/can.c ****       __HAL_RCC_CAN1_CLK_DISABLE();
 215:./Core/Src/can.c ****     }
 216:./Core/Src/can.c **** 
 217:./Core/Src/can.c ****     /**CAN2 GPIO Configuration
 218:./Core/Src/can.c ****     PB5     ------> CAN2_RX
 219:./Core/Src/can.c ****     PB6     ------> CAN2_TX
 220:./Core/Src/can.c ****     */
 221:./Core/Src/can.c ****     HAL_GPIO_DeInit(GPIOB, GPIO_PIN_5|GPIO_PIN_6);
 222:./Core/Src/can.c **** 
 223:./Core/Src/can.c ****     /* CAN2 interrupt Deinit */
 224:./Core/Src/can.c ****     HAL_NVIC_DisableIRQ(CAN2_TX_IRQn);
 225:./Core/Src/can.c ****     HAL_NVIC_DisableIRQ(CAN2_RX0_IRQn);
 226:./Core/Src/can.c ****     HAL_NVIC_DisableIRQ(CAN2_RX1_IRQn);
 227:./Core/Src/can.c ****     HAL_NVIC_DisableIRQ(CAN2_SCE_IRQn);
 228:./Core/Src/can.c ****   /* USER CODE BEGIN CAN2_MspDeInit 1 */
 229:./Core/Src/can.c **** 
 230:./Core/Src/can.c ****   /* USER CODE END CAN2_MspDeInit 1 */
 231:./Core/Src/can.c ****   }
 232:./Core/Src/can.c **** }
 537              		.loc 1 232 1 view .LVU156
 538 0010 08BD     		pop	{r3, pc}
 539              	.LVL31:
 540              	.L31:
 185:./Core/Src/can.c ****     if(HAL_RCC_CAN1_CLK_ENABLED==0){
 541              		.loc 1 185 5 is_stmt 1 view .LVU157
 185:./Core/Src/can.c ****     if(HAL_RCC_CAN1_CLK_ENABLED==0){
 542              		.loc 1 185 29 is_stmt 0 view .LVU158
 543 0012 204A     		ldr	r2, .L33+8
 544 0014 1368     		ldr	r3, [r2]
 545 0016 013B     		subs	r3, r3, #1
 546 0018 1360     		str	r3, [r2]
 186:./Core/Src/can.c ****       __HAL_RCC_CAN1_CLK_DISABLE();
 547              		.loc 1 186 5 is_stmt 1 view .LVU159
 186:./Core/Src/can.c ****       __HAL_RCC_CAN1_CLK_DISABLE();
 548              		.loc 1 186 7 is_stmt 0 view .LVU160
ARM GAS  C:\Users\Dennis\AppData\Local\Temp\ccJpIuvd.s 			page 16


 549 001a 23B9     		cbnz	r3, .L27
 187:./Core/Src/can.c ****     }
 550              		.loc 1 187 7 is_stmt 1 view .LVU161
 551 001c 1E4A     		ldr	r2, .L33+12
 552 001e 136C     		ldr	r3, [r2, #64]
 553 0020 23F00073 		bic	r3, r3, #33554432
 554 0024 1364     		str	r3, [r2, #64]
 555              	.L27:
 194:./Core/Src/can.c **** 
 556              		.loc 1 194 5 view .LVU162
 557 0026 0321     		movs	r1, #3
 558 0028 1C48     		ldr	r0, .L33+16
 559              	.LVL32:
 194:./Core/Src/can.c **** 
 560              		.loc 1 194 5 is_stmt 0 view .LVU163
 561 002a FFF7FEFF 		bl	HAL_GPIO_DeInit
 562              	.LVL33:
 197:./Core/Src/can.c ****     HAL_NVIC_DisableIRQ(CAN1_RX0_IRQn);
 563              		.loc 1 197 5 is_stmt 1 view .LVU164
 564 002e 1320     		movs	r0, #19
 565 0030 FFF7FEFF 		bl	HAL_NVIC_DisableIRQ
 566              	.LVL34:
 198:./Core/Src/can.c ****     HAL_NVIC_DisableIRQ(CAN1_RX1_IRQn);
 567              		.loc 1 198 5 view .LVU165
 568 0034 1420     		movs	r0, #20
 569 0036 FFF7FEFF 		bl	HAL_NVIC_DisableIRQ
 570              	.LVL35:
 199:./Core/Src/can.c ****     HAL_NVIC_DisableIRQ(CAN1_SCE_IRQn);
 571              		.loc 1 199 5 view .LVU166
 572 003a 1520     		movs	r0, #21
 573 003c FFF7FEFF 		bl	HAL_NVIC_DisableIRQ
 574              	.LVL36:
 200:./Core/Src/can.c ****   /* USER CODE BEGIN CAN1_MspDeInit 1 */
 575              		.loc 1 200 5 view .LVU167
 576 0040 1620     		movs	r0, #22
 577 0042 FFF7FEFF 		bl	HAL_NVIC_DisableIRQ
 578              	.LVL37:
 579 0046 E3E7     		b	.L25
 580              	.LVL38:
 581              	.L32:
 211:./Core/Src/can.c ****     HAL_RCC_CAN1_CLK_ENABLED--;
 582              		.loc 1 211 5 view .LVU168
 583 0048 02F5E832 		add	r2, r2, #118784
 584 004c 136C     		ldr	r3, [r2, #64]
 585 004e 23F08063 		bic	r3, r3, #67108864
 586 0052 1364     		str	r3, [r2, #64]
 212:./Core/Src/can.c ****     if(HAL_RCC_CAN1_CLK_ENABLED==0){
 587              		.loc 1 212 5 view .LVU169
 212:./Core/Src/can.c ****     if(HAL_RCC_CAN1_CLK_ENABLED==0){
 588              		.loc 1 212 29 is_stmt 0 view .LVU170
 589 0054 0F4A     		ldr	r2, .L33+8
 590 0056 1368     		ldr	r3, [r2]
 591 0058 013B     		subs	r3, r3, #1
 592 005a 1360     		str	r3, [r2]
 213:./Core/Src/can.c ****       __HAL_RCC_CAN1_CLK_DISABLE();
 593              		.loc 1 213 5 is_stmt 1 view .LVU171
 213:./Core/Src/can.c ****       __HAL_RCC_CAN1_CLK_DISABLE();
ARM GAS  C:\Users\Dennis\AppData\Local\Temp\ccJpIuvd.s 			page 17


 594              		.loc 1 213 7 is_stmt 0 view .LVU172
 595 005c 23B9     		cbnz	r3, .L29
 214:./Core/Src/can.c ****     }
 596              		.loc 1 214 7 is_stmt 1 view .LVU173
 597 005e 0E4A     		ldr	r2, .L33+12
 598 0060 136C     		ldr	r3, [r2, #64]
 599 0062 23F00073 		bic	r3, r3, #33554432
 600 0066 1364     		str	r3, [r2, #64]
 601              	.L29:
 221:./Core/Src/can.c **** 
 602              		.loc 1 221 5 view .LVU174
 603 0068 6021     		movs	r1, #96
 604 006a 0D48     		ldr	r0, .L33+20
 605              	.LVL39:
 221:./Core/Src/can.c **** 
 606              		.loc 1 221 5 is_stmt 0 view .LVU175
 607 006c FFF7FEFF 		bl	HAL_GPIO_DeInit
 608              	.LVL40:
 224:./Core/Src/can.c ****     HAL_NVIC_DisableIRQ(CAN2_RX0_IRQn);
 609              		.loc 1 224 5 is_stmt 1 view .LVU176
 610 0070 3F20     		movs	r0, #63
 611 0072 FFF7FEFF 		bl	HAL_NVIC_DisableIRQ
 612              	.LVL41:
 225:./Core/Src/can.c ****     HAL_NVIC_DisableIRQ(CAN2_RX1_IRQn);
 613              		.loc 1 225 5 view .LVU177
 614 0076 4020     		movs	r0, #64
 615 0078 FFF7FEFF 		bl	HAL_NVIC_DisableIRQ
 616              	.LVL42:
 226:./Core/Src/can.c ****     HAL_NVIC_DisableIRQ(CAN2_SCE_IRQn);
 617              		.loc 1 226 5 view .LVU178
 618 007c 4120     		movs	r0, #65
 619 007e FFF7FEFF 		bl	HAL_NVIC_DisableIRQ
 620              	.LVL43:
 227:./Core/Src/can.c ****   /* USER CODE BEGIN CAN2_MspDeInit 1 */
 621              		.loc 1 227 5 view .LVU179
 622 0082 4220     		movs	r0, #66
 623 0084 FFF7FEFF 		bl	HAL_NVIC_DisableIRQ
 624              	.LVL44:
 625              		.loc 1 232 1 is_stmt 0 view .LVU180
 626 0088 C2E7     		b	.L25
 627              	.L34:
 628 008a 00BF     		.align	2
 629              	.L33:
 630 008c 00640040 		.word	1073767424
 631 0090 00680040 		.word	1073768448
 632 0094 00000000 		.word	.LANCHOR2
 633 0098 00380240 		.word	1073887232
 634 009c 000C0240 		.word	1073875968
 635 00a0 00040240 		.word	1073873920
 636              		.cfi_endproc
 637              	.LFE242:
 639              		.global	hcan2
 640              		.global	hcan1
 641              		.section	.bss.HAL_RCC_CAN1_CLK_ENABLED,"aw",%nobits
 642              		.align	2
 643              		.set	.LANCHOR2,. + 0
 646              	HAL_RCC_CAN1_CLK_ENABLED:
ARM GAS  C:\Users\Dennis\AppData\Local\Temp\ccJpIuvd.s 			page 18


 647 0000 00000000 		.space	4
 648              		.section	.bss.hcan1,"aw",%nobits
 649              		.align	2
 650              		.set	.LANCHOR0,. + 0
 653              	hcan1:
 654 0000 00000000 		.space	40
 654      00000000 
 654      00000000 
 654      00000000 
 654      00000000 
 655              		.section	.bss.hcan2,"aw",%nobits
 656              		.align	2
 657              		.set	.LANCHOR1,. + 0
 660              	hcan2:
 661 0000 00000000 		.space	40
 661      00000000 
 661      00000000 
 661      00000000 
 661      00000000 
 662              		.text
 663              	.Letext0:
 664              		.file 2 "c:\\software_user\\armgcc\\arm-none-eabi\\include\\machine\\_default_types.h"
 665              		.file 3 "c:\\software_user\\armgcc\\arm-none-eabi\\include\\sys\\_stdint.h"
 666              		.file 4 "./Drivers/CMSIS/Device/ST/STM32F4xx/Include/stm32f407xx.h"
 667              		.file 5 "./Drivers/CMSIS/Device/ST/STM32F4xx/Include/stm32f4xx.h"
 668              		.file 6 "./Drivers/STM32F4xx_HAL_Driver/Inc/stm32f4xx_hal_def.h"
 669              		.file 7 "./Drivers/STM32F4xx_HAL_Driver/Inc/stm32f4xx_hal_gpio.h"
 670              		.file 8 "./Drivers/STM32F4xx_HAL_Driver/Inc/stm32f4xx_hal_can.h"
 671              		.file 9 "./Core/Inc/can.h"
 672              		.file 10 "./Drivers/STM32F4xx_HAL_Driver/Inc/stm32f4xx_hal_cortex.h"
 673              		.file 11 "./Core/Inc/main.h"
ARM GAS  C:\Users\Dennis\AppData\Local\Temp\ccJpIuvd.s 			page 19

