ARM GAS  C:\Users\Dennis\AppData\Local\Temp\ccxuXC2i.s 			page 1


   1              		.cpu cortex-m4
   2              		.arch armv7e-m
   3              		.fpu fpv4-sp-d16
   4              		.eabi_attribute 27, 1
   5              		.eabi_attribute 28, 1
   6              		.eabi_attribute 20, 1
   7              		.eabi_attribute 21, 1
   8              		.eabi_attribute 23, 3
   9              		.eabi_attribute 24, 1
  10              		.eabi_attribute 25, 1
  11              		.eabi_attribute 26, 1
  12              		.eabi_attribute 30, 1
  13              		.eabi_attribute 34, 1
  14              		.eabi_attribute 18, 4
  15              		.file	"i2c.c"
  16              		.text
  17              	.Ltext0:
  18              		.cfi_sections	.debug_frame
  19              		.section	.text.MX_I2C1_Init,"ax",%progbits
  20              		.align	1
  21              		.global	MX_I2C1_Init
  22              		.syntax unified
  23              		.thumb
  24              		.thumb_func
  26              	MX_I2C1_Init:
  27              	.LFB239:
  28              		.file 1 "./Core/Src/i2c.c"
   1:./Core/Src/i2c.c **** /* USER CODE BEGIN Header */
   2:./Core/Src/i2c.c **** /**
   3:./Core/Src/i2c.c ****   ******************************************************************************
   4:./Core/Src/i2c.c ****   * @file    i2c.c
   5:./Core/Src/i2c.c ****   * @brief   This file provides code for the configuration
   6:./Core/Src/i2c.c ****   *          of the I2C instances.
   7:./Core/Src/i2c.c ****   ******************************************************************************
   8:./Core/Src/i2c.c ****   * @attention
   9:./Core/Src/i2c.c ****   *
  10:./Core/Src/i2c.c ****   * Copyright (c) 2025 STMicroelectronics.
  11:./Core/Src/i2c.c ****   * All rights reserved.
  12:./Core/Src/i2c.c ****   *
  13:./Core/Src/i2c.c ****   * This software is licensed under terms that can be found in the LICENSE file
  14:./Core/Src/i2c.c ****   * in the root directory of this software component.
  15:./Core/Src/i2c.c ****   * If no LICENSE file comes with this software, it is provided AS-IS.
  16:./Core/Src/i2c.c ****   *
  17:./Core/Src/i2c.c ****   ******************************************************************************
  18:./Core/Src/i2c.c ****   */
  19:./Core/Src/i2c.c **** /* USER CODE END Header */
  20:./Core/Src/i2c.c **** /* Includes ------------------------------------------------------------------*/
  21:./Core/Src/i2c.c **** #include "i2c.h"
  22:./Core/Src/i2c.c **** 
  23:./Core/Src/i2c.c **** /* USER CODE BEGIN 0 */
  24:./Core/Src/i2c.c **** 
  25:./Core/Src/i2c.c **** /* USER CODE END 0 */
  26:./Core/Src/i2c.c **** 
  27:./Core/Src/i2c.c **** I2C_HandleTypeDef hi2c1;
  28:./Core/Src/i2c.c **** I2C_HandleTypeDef hi2c2;
  29:./Core/Src/i2c.c **** DMA_HandleTypeDef hdma_i2c1_rx;
  30:./Core/Src/i2c.c **** DMA_HandleTypeDef hdma_i2c1_tx;
ARM GAS  C:\Users\Dennis\AppData\Local\Temp\ccxuXC2i.s 			page 2


  31:./Core/Src/i2c.c **** 
  32:./Core/Src/i2c.c **** /* I2C1 init function */
  33:./Core/Src/i2c.c **** void MX_I2C1_Init(void)
  34:./Core/Src/i2c.c **** {
  29              		.loc 1 34 1 view -0
  30              		.cfi_startproc
  31              		@ args = 0, pretend = 0, frame = 0
  32              		@ frame_needed = 0, uses_anonymous_args = 0
  33 0000 08B5     		push	{r3, lr}
  34              	.LCFI0:
  35              		.cfi_def_cfa_offset 8
  36              		.cfi_offset 3, -8
  37              		.cfi_offset 14, -4
  35:./Core/Src/i2c.c **** 
  36:./Core/Src/i2c.c ****   /* USER CODE BEGIN I2C1_Init 0 */
  37:./Core/Src/i2c.c **** 
  38:./Core/Src/i2c.c ****   /* USER CODE END I2C1_Init 0 */
  39:./Core/Src/i2c.c **** 
  40:./Core/Src/i2c.c ****   /* USER CODE BEGIN I2C1_Init 1 */
  41:./Core/Src/i2c.c **** 
  42:./Core/Src/i2c.c ****   /* USER CODE END I2C1_Init 1 */
  43:./Core/Src/i2c.c ****   hi2c1.Instance = I2C1;
  38              		.loc 1 43 3 view .LVU1
  39              		.loc 1 43 18 is_stmt 0 view .LVU2
  40 0002 0B48     		ldr	r0, .L5
  41 0004 0B4B     		ldr	r3, .L5+4
  42 0006 0360     		str	r3, [r0]
  44:./Core/Src/i2c.c ****   hi2c1.Init.ClockSpeed = 400000;
  43              		.loc 1 44 3 is_stmt 1 view .LVU3
  44              		.loc 1 44 25 is_stmt 0 view .LVU4
  45 0008 0B4B     		ldr	r3, .L5+8
  46 000a 4360     		str	r3, [r0, #4]
  45:./Core/Src/i2c.c ****   hi2c1.Init.DutyCycle = I2C_DUTYCYCLE_2;
  47              		.loc 1 45 3 is_stmt 1 view .LVU5
  48              		.loc 1 45 24 is_stmt 0 view .LVU6
  49 000c 0023     		movs	r3, #0
  50 000e 8360     		str	r3, [r0, #8]
  46:./Core/Src/i2c.c ****   hi2c1.Init.OwnAddress1 = 0;
  51              		.loc 1 46 3 is_stmt 1 view .LVU7
  52              		.loc 1 46 26 is_stmt 0 view .LVU8
  53 0010 C360     		str	r3, [r0, #12]
  47:./Core/Src/i2c.c ****   hi2c1.Init.AddressingMode = I2C_ADDRESSINGMODE_7BIT;
  54              		.loc 1 47 3 is_stmt 1 view .LVU9
  55              		.loc 1 47 29 is_stmt 0 view .LVU10
  56 0012 4FF48042 		mov	r2, #16384
  57 0016 0261     		str	r2, [r0, #16]
  48:./Core/Src/i2c.c ****   hi2c1.Init.DualAddressMode = I2C_DUALADDRESS_DISABLE;
  58              		.loc 1 48 3 is_stmt 1 view .LVU11
  59              		.loc 1 48 30 is_stmt 0 view .LVU12
  60 0018 4361     		str	r3, [r0, #20]
  49:./Core/Src/i2c.c ****   hi2c1.Init.OwnAddress2 = 0;
  61              		.loc 1 49 3 is_stmt 1 view .LVU13
  62              		.loc 1 49 26 is_stmt 0 view .LVU14
  63 001a 8361     		str	r3, [r0, #24]
  50:./Core/Src/i2c.c ****   hi2c1.Init.GeneralCallMode = I2C_GENERALCALL_DISABLE;
  64              		.loc 1 50 3 is_stmt 1 view .LVU15
  65              		.loc 1 50 30 is_stmt 0 view .LVU16
ARM GAS  C:\Users\Dennis\AppData\Local\Temp\ccxuXC2i.s 			page 3


  66 001c C361     		str	r3, [r0, #28]
  51:./Core/Src/i2c.c ****   hi2c1.Init.NoStretchMode = I2C_NOSTRETCH_DISABLE;
  67              		.loc 1 51 3 is_stmt 1 view .LVU17
  68              		.loc 1 51 28 is_stmt 0 view .LVU18
  69 001e 0362     		str	r3, [r0, #32]
  52:./Core/Src/i2c.c ****   if (HAL_I2C_Init(&hi2c1) != HAL_OK)
  70              		.loc 1 52 3 is_stmt 1 view .LVU19
  71              		.loc 1 52 7 is_stmt 0 view .LVU20
  72 0020 FFF7FEFF 		bl	HAL_I2C_Init
  73              	.LVL0:
  74              		.loc 1 52 6 view .LVU21
  75 0024 00B9     		cbnz	r0, .L4
  76              	.L1:
  53:./Core/Src/i2c.c ****   {
  54:./Core/Src/i2c.c ****     Error_Handler();
  55:./Core/Src/i2c.c ****   }
  56:./Core/Src/i2c.c ****   /* USER CODE BEGIN I2C1_Init 2 */
  57:./Core/Src/i2c.c **** 
  58:./Core/Src/i2c.c ****   /* USER CODE END I2C1_Init 2 */
  59:./Core/Src/i2c.c **** 
  60:./Core/Src/i2c.c **** }
  77              		.loc 1 60 1 view .LVU22
  78 0026 08BD     		pop	{r3, pc}
  79              	.L4:
  54:./Core/Src/i2c.c ****   }
  80              		.loc 1 54 5 is_stmt 1 view .LVU23
  81 0028 FFF7FEFF 		bl	Error_Handler
  82              	.LVL1:
  83              		.loc 1 60 1 is_stmt 0 view .LVU24
  84 002c FBE7     		b	.L1
  85              	.L6:
  86 002e 00BF     		.align	2
  87              	.L5:
  88 0030 00000000 		.word	.LANCHOR0
  89 0034 00540040 		.word	1073763328
  90 0038 801A0600 		.word	400000
  91              		.cfi_endproc
  92              	.LFE239:
  94              		.section	.text.MX_I2C2_Init,"ax",%progbits
  95              		.align	1
  96              		.global	MX_I2C2_Init
  97              		.syntax unified
  98              		.thumb
  99              		.thumb_func
 101              	MX_I2C2_Init:
 102              	.LFB240:
  61:./Core/Src/i2c.c **** /* I2C2 init function */
  62:./Core/Src/i2c.c **** void MX_I2C2_Init(void)
  63:./Core/Src/i2c.c **** {
 103              		.loc 1 63 1 is_stmt 1 view -0
 104              		.cfi_startproc
 105              		@ args = 0, pretend = 0, frame = 0
 106              		@ frame_needed = 0, uses_anonymous_args = 0
 107 0000 08B5     		push	{r3, lr}
 108              	.LCFI1:
 109              		.cfi_def_cfa_offset 8
 110              		.cfi_offset 3, -8
ARM GAS  C:\Users\Dennis\AppData\Local\Temp\ccxuXC2i.s 			page 4


 111              		.cfi_offset 14, -4
  64:./Core/Src/i2c.c **** 
  65:./Core/Src/i2c.c ****   /* USER CODE BEGIN I2C2_Init 0 */
  66:./Core/Src/i2c.c **** 
  67:./Core/Src/i2c.c ****   /* USER CODE END I2C2_Init 0 */
  68:./Core/Src/i2c.c **** 
  69:./Core/Src/i2c.c ****   /* USER CODE BEGIN I2C2_Init 1 */
  70:./Core/Src/i2c.c **** 
  71:./Core/Src/i2c.c ****   /* USER CODE END I2C2_Init 1 */
  72:./Core/Src/i2c.c ****   hi2c2.Instance = I2C2;
 112              		.loc 1 72 3 view .LVU26
 113              		.loc 1 72 18 is_stmt 0 view .LVU27
 114 0002 0B48     		ldr	r0, .L11
 115 0004 0B4B     		ldr	r3, .L11+4
 116 0006 0360     		str	r3, [r0]
  73:./Core/Src/i2c.c ****   hi2c2.Init.ClockSpeed = 400000;
 117              		.loc 1 73 3 is_stmt 1 view .LVU28
 118              		.loc 1 73 25 is_stmt 0 view .LVU29
 119 0008 0B4B     		ldr	r3, .L11+8
 120 000a 4360     		str	r3, [r0, #4]
  74:./Core/Src/i2c.c ****   hi2c2.Init.DutyCycle = I2C_DUTYCYCLE_2;
 121              		.loc 1 74 3 is_stmt 1 view .LVU30
 122              		.loc 1 74 24 is_stmt 0 view .LVU31
 123 000c 0023     		movs	r3, #0
 124 000e 8360     		str	r3, [r0, #8]
  75:./Core/Src/i2c.c ****   hi2c2.Init.OwnAddress1 = 0;
 125              		.loc 1 75 3 is_stmt 1 view .LVU32
 126              		.loc 1 75 26 is_stmt 0 view .LVU33
 127 0010 C360     		str	r3, [r0, #12]
  76:./Core/Src/i2c.c ****   hi2c2.Init.AddressingMode = I2C_ADDRESSINGMODE_7BIT;
 128              		.loc 1 76 3 is_stmt 1 view .LVU34
 129              		.loc 1 76 29 is_stmt 0 view .LVU35
 130 0012 4FF48042 		mov	r2, #16384
 131 0016 0261     		str	r2, [r0, #16]
  77:./Core/Src/i2c.c ****   hi2c2.Init.DualAddressMode = I2C_DUALADDRESS_DISABLE;
 132              		.loc 1 77 3 is_stmt 1 view .LVU36
 133              		.loc 1 77 30 is_stmt 0 view .LVU37
 134 0018 4361     		str	r3, [r0, #20]
  78:./Core/Src/i2c.c ****   hi2c2.Init.OwnAddress2 = 0;
 135              		.loc 1 78 3 is_stmt 1 view .LVU38
 136              		.loc 1 78 26 is_stmt 0 view .LVU39
 137 001a 8361     		str	r3, [r0, #24]
  79:./Core/Src/i2c.c ****   hi2c2.Init.GeneralCallMode = I2C_GENERALCALL_DISABLE;
 138              		.loc 1 79 3 is_stmt 1 view .LVU40
 139              		.loc 1 79 30 is_stmt 0 view .LVU41
 140 001c C361     		str	r3, [r0, #28]
  80:./Core/Src/i2c.c ****   hi2c2.Init.NoStretchMode = I2C_NOSTRETCH_DISABLE;
 141              		.loc 1 80 3 is_stmt 1 view .LVU42
 142              		.loc 1 80 28 is_stmt 0 view .LVU43
 143 001e 0362     		str	r3, [r0, #32]
  81:./Core/Src/i2c.c ****   if (HAL_I2C_Init(&hi2c2) != HAL_OK)
 144              		.loc 1 81 3 is_stmt 1 view .LVU44
 145              		.loc 1 81 7 is_stmt 0 view .LVU45
 146 0020 FFF7FEFF 		bl	HAL_I2C_Init
 147              	.LVL2:
 148              		.loc 1 81 6 view .LVU46
 149 0024 00B9     		cbnz	r0, .L10
ARM GAS  C:\Users\Dennis\AppData\Local\Temp\ccxuXC2i.s 			page 5


 150              	.L7:
  82:./Core/Src/i2c.c ****   {
  83:./Core/Src/i2c.c ****     Error_Handler();
  84:./Core/Src/i2c.c ****   }
  85:./Core/Src/i2c.c ****   /* USER CODE BEGIN I2C2_Init 2 */
  86:./Core/Src/i2c.c **** 
  87:./Core/Src/i2c.c ****   /* USER CODE END I2C2_Init 2 */
  88:./Core/Src/i2c.c **** 
  89:./Core/Src/i2c.c **** }
 151              		.loc 1 89 1 view .LVU47
 152 0026 08BD     		pop	{r3, pc}
 153              	.L10:
  83:./Core/Src/i2c.c ****   }
 154              		.loc 1 83 5 is_stmt 1 view .LVU48
 155 0028 FFF7FEFF 		bl	Error_Handler
 156              	.LVL3:
 157              		.loc 1 89 1 is_stmt 0 view .LVU49
 158 002c FBE7     		b	.L7
 159              	.L12:
 160 002e 00BF     		.align	2
 161              	.L11:
 162 0030 00000000 		.word	.LANCHOR1
 163 0034 00580040 		.word	1073764352
 164 0038 801A0600 		.word	400000
 165              		.cfi_endproc
 166              	.LFE240:
 168              		.section	.text.HAL_I2C_MspInit,"ax",%progbits
 169              		.align	1
 170              		.global	HAL_I2C_MspInit
 171              		.syntax unified
 172              		.thumb
 173              		.thumb_func
 175              	HAL_I2C_MspInit:
 176              	.LVL4:
 177              	.LFB241:
  90:./Core/Src/i2c.c **** 
  91:./Core/Src/i2c.c **** void HAL_I2C_MspInit(I2C_HandleTypeDef* i2cHandle)
  92:./Core/Src/i2c.c **** {
 178              		.loc 1 92 1 is_stmt 1 view -0
 179              		.cfi_startproc
 180              		@ args = 0, pretend = 0, frame = 40
 181              		@ frame_needed = 0, uses_anonymous_args = 0
 182              		.loc 1 92 1 is_stmt 0 view .LVU51
 183 0000 70B5     		push	{r4, r5, r6, lr}
 184              	.LCFI2:
 185              		.cfi_def_cfa_offset 16
 186              		.cfi_offset 4, -16
 187              		.cfi_offset 5, -12
 188              		.cfi_offset 6, -8
 189              		.cfi_offset 14, -4
 190 0002 8AB0     		sub	sp, sp, #40
 191              	.LCFI3:
 192              		.cfi_def_cfa_offset 56
  93:./Core/Src/i2c.c **** 
  94:./Core/Src/i2c.c ****   GPIO_InitTypeDef GPIO_InitStruct = {0};
 193              		.loc 1 94 3 is_stmt 1 view .LVU52
 194              		.loc 1 94 20 is_stmt 0 view .LVU53
ARM GAS  C:\Users\Dennis\AppData\Local\Temp\ccxuXC2i.s 			page 6


 195 0004 0023     		movs	r3, #0
 196 0006 0593     		str	r3, [sp, #20]
 197 0008 0693     		str	r3, [sp, #24]
 198 000a 0793     		str	r3, [sp, #28]
 199 000c 0893     		str	r3, [sp, #32]
 200 000e 0993     		str	r3, [sp, #36]
  95:./Core/Src/i2c.c ****   if(i2cHandle->Instance==I2C1)
 201              		.loc 1 95 3 is_stmt 1 view .LVU54
 202              		.loc 1 95 15 is_stmt 0 view .LVU55
 203 0010 0368     		ldr	r3, [r0]
 204              		.loc 1 95 5 view .LVU56
 205 0012 544A     		ldr	r2, .L23
 206 0014 9342     		cmp	r3, r2
 207 0016 04D0     		beq	.L19
  96:./Core/Src/i2c.c ****   {
  97:./Core/Src/i2c.c ****   /* USER CODE BEGIN I2C1_MspInit 0 */
  98:./Core/Src/i2c.c **** 
  99:./Core/Src/i2c.c ****   /* USER CODE END I2C1_MspInit 0 */
 100:./Core/Src/i2c.c **** 
 101:./Core/Src/i2c.c ****     __HAL_RCC_GPIOB_CLK_ENABLE();
 102:./Core/Src/i2c.c ****     /**I2C1 GPIO Configuration
 103:./Core/Src/i2c.c ****     PB8     ------> I2C1_SCL
 104:./Core/Src/i2c.c ****     PB9     ------> I2C1_SDA
 105:./Core/Src/i2c.c ****     */
 106:./Core/Src/i2c.c ****     GPIO_InitStruct.Pin = GPIO_PIN_8|GPIO_PIN_9;
 107:./Core/Src/i2c.c ****     GPIO_InitStruct.Mode = GPIO_MODE_AF_OD;
 108:./Core/Src/i2c.c ****     GPIO_InitStruct.Pull = GPIO_PULLUP;
 109:./Core/Src/i2c.c ****     GPIO_InitStruct.Speed = GPIO_SPEED_FREQ_VERY_HIGH;
 110:./Core/Src/i2c.c ****     GPIO_InitStruct.Alternate = GPIO_AF4_I2C1;
 111:./Core/Src/i2c.c ****     HAL_GPIO_Init(GPIOB, &GPIO_InitStruct);
 112:./Core/Src/i2c.c **** 
 113:./Core/Src/i2c.c ****     /* I2C1 clock enable */
 114:./Core/Src/i2c.c ****     __HAL_RCC_I2C1_CLK_ENABLE();
 115:./Core/Src/i2c.c **** 
 116:./Core/Src/i2c.c ****     /* I2C1 DMA Init */
 117:./Core/Src/i2c.c ****     /* I2C1_RX Init */
 118:./Core/Src/i2c.c ****     hdma_i2c1_rx.Instance = DMA1_Stream0;
 119:./Core/Src/i2c.c ****     hdma_i2c1_rx.Init.Channel = DMA_CHANNEL_1;
 120:./Core/Src/i2c.c ****     hdma_i2c1_rx.Init.Direction = DMA_PERIPH_TO_MEMORY;
 121:./Core/Src/i2c.c ****     hdma_i2c1_rx.Init.PeriphInc = DMA_PINC_DISABLE;
 122:./Core/Src/i2c.c ****     hdma_i2c1_rx.Init.MemInc = DMA_MINC_ENABLE;
 123:./Core/Src/i2c.c ****     hdma_i2c1_rx.Init.PeriphDataAlignment = DMA_PDATAALIGN_BYTE;
 124:./Core/Src/i2c.c ****     hdma_i2c1_rx.Init.MemDataAlignment = DMA_MDATAALIGN_BYTE;
 125:./Core/Src/i2c.c ****     hdma_i2c1_rx.Init.Mode = DMA_NORMAL;
 126:./Core/Src/i2c.c ****     hdma_i2c1_rx.Init.Priority = DMA_PRIORITY_LOW;
 127:./Core/Src/i2c.c ****     hdma_i2c1_rx.Init.FIFOMode = DMA_FIFOMODE_DISABLE;
 128:./Core/Src/i2c.c ****     if (HAL_DMA_Init(&hdma_i2c1_rx) != HAL_OK)
 129:./Core/Src/i2c.c ****     {
 130:./Core/Src/i2c.c ****       Error_Handler();
 131:./Core/Src/i2c.c ****     }
 132:./Core/Src/i2c.c **** 
 133:./Core/Src/i2c.c ****     __HAL_LINKDMA(i2cHandle,hdmarx,hdma_i2c1_rx);
 134:./Core/Src/i2c.c **** 
 135:./Core/Src/i2c.c ****     /* I2C1_TX Init */
 136:./Core/Src/i2c.c ****     hdma_i2c1_tx.Instance = DMA1_Stream7;
 137:./Core/Src/i2c.c ****     hdma_i2c1_tx.Init.Channel = DMA_CHANNEL_1;
 138:./Core/Src/i2c.c ****     hdma_i2c1_tx.Init.Direction = DMA_MEMORY_TO_PERIPH;
ARM GAS  C:\Users\Dennis\AppData\Local\Temp\ccxuXC2i.s 			page 7


 139:./Core/Src/i2c.c ****     hdma_i2c1_tx.Init.PeriphInc = DMA_PINC_DISABLE;
 140:./Core/Src/i2c.c ****     hdma_i2c1_tx.Init.MemInc = DMA_MINC_ENABLE;
 141:./Core/Src/i2c.c ****     hdma_i2c1_tx.Init.PeriphDataAlignment = DMA_PDATAALIGN_BYTE;
 142:./Core/Src/i2c.c ****     hdma_i2c1_tx.Init.MemDataAlignment = DMA_MDATAALIGN_BYTE;
 143:./Core/Src/i2c.c ****     hdma_i2c1_tx.Init.Mode = DMA_NORMAL;
 144:./Core/Src/i2c.c ****     hdma_i2c1_tx.Init.Priority = DMA_PRIORITY_LOW;
 145:./Core/Src/i2c.c ****     hdma_i2c1_tx.Init.FIFOMode = DMA_FIFOMODE_DISABLE;
 146:./Core/Src/i2c.c ****     if (HAL_DMA_Init(&hdma_i2c1_tx) != HAL_OK)
 147:./Core/Src/i2c.c ****     {
 148:./Core/Src/i2c.c ****       Error_Handler();
 149:./Core/Src/i2c.c ****     }
 150:./Core/Src/i2c.c **** 
 151:./Core/Src/i2c.c ****     __HAL_LINKDMA(i2cHandle,hdmatx,hdma_i2c1_tx);
 152:./Core/Src/i2c.c **** 
 153:./Core/Src/i2c.c ****     /* I2C1 interrupt Init */
 154:./Core/Src/i2c.c ****     HAL_NVIC_SetPriority(I2C1_EV_IRQn, 0, 0);
 155:./Core/Src/i2c.c ****     HAL_NVIC_EnableIRQ(I2C1_EV_IRQn);
 156:./Core/Src/i2c.c ****     HAL_NVIC_SetPriority(I2C1_ER_IRQn, 0, 0);
 157:./Core/Src/i2c.c ****     HAL_NVIC_EnableIRQ(I2C1_ER_IRQn);
 158:./Core/Src/i2c.c ****   /* USER CODE BEGIN I2C1_MspInit 1 */
 159:./Core/Src/i2c.c **** 
 160:./Core/Src/i2c.c ****   /* USER CODE END I2C1_MspInit 1 */
 161:./Core/Src/i2c.c ****   }
 162:./Core/Src/i2c.c ****   else if(i2cHandle->Instance==I2C2)
 208              		.loc 1 162 8 is_stmt 1 view .LVU57
 209              		.loc 1 162 10 is_stmt 0 view .LVU58
 210 0018 534A     		ldr	r2, .L23+4
 211 001a 9342     		cmp	r3, r2
 212 001c 6CD0     		beq	.L20
 213              	.LVL5:
 214              	.L13:
 163:./Core/Src/i2c.c ****   {
 164:./Core/Src/i2c.c ****   /* USER CODE BEGIN I2C2_MspInit 0 */
 165:./Core/Src/i2c.c **** 
 166:./Core/Src/i2c.c ****   /* USER CODE END I2C2_MspInit 0 */
 167:./Core/Src/i2c.c **** 
 168:./Core/Src/i2c.c ****     __HAL_RCC_GPIOB_CLK_ENABLE();
 169:./Core/Src/i2c.c ****     /**I2C2 GPIO Configuration
 170:./Core/Src/i2c.c ****     PB10     ------> I2C2_SCL
 171:./Core/Src/i2c.c ****     PB11     ------> I2C2_SDA
 172:./Core/Src/i2c.c ****     */
 173:./Core/Src/i2c.c ****     GPIO_InitStruct.Pin = GPIO_PIN_10|GPIO_PIN_11;
 174:./Core/Src/i2c.c ****     GPIO_InitStruct.Mode = GPIO_MODE_AF_OD;
 175:./Core/Src/i2c.c ****     GPIO_InitStruct.Pull = GPIO_PULLUP;
 176:./Core/Src/i2c.c ****     GPIO_InitStruct.Speed = GPIO_SPEED_FREQ_VERY_HIGH;
 177:./Core/Src/i2c.c ****     GPIO_InitStruct.Alternate = GPIO_AF4_I2C2;
 178:./Core/Src/i2c.c ****     HAL_GPIO_Init(GPIOB, &GPIO_InitStruct);
 179:./Core/Src/i2c.c **** 
 180:./Core/Src/i2c.c ****     /* I2C2 clock enable */
 181:./Core/Src/i2c.c ****     __HAL_RCC_I2C2_CLK_ENABLE();
 182:./Core/Src/i2c.c **** 
 183:./Core/Src/i2c.c ****     /* I2C2 interrupt Init */
 184:./Core/Src/i2c.c ****     HAL_NVIC_SetPriority(I2C2_EV_IRQn, 0, 0);
 185:./Core/Src/i2c.c ****     HAL_NVIC_EnableIRQ(I2C2_EV_IRQn);
 186:./Core/Src/i2c.c ****     HAL_NVIC_SetPriority(I2C2_ER_IRQn, 0, 0);
 187:./Core/Src/i2c.c ****     HAL_NVIC_EnableIRQ(I2C2_ER_IRQn);
 188:./Core/Src/i2c.c ****   /* USER CODE BEGIN I2C2_MspInit 1 */
ARM GAS  C:\Users\Dennis\AppData\Local\Temp\ccxuXC2i.s 			page 8


 189:./Core/Src/i2c.c **** 
 190:./Core/Src/i2c.c ****   /* USER CODE END I2C2_MspInit 1 */
 191:./Core/Src/i2c.c ****   }
 192:./Core/Src/i2c.c **** }
 215              		.loc 1 192 1 view .LVU59
 216 001e 0AB0     		add	sp, sp, #40
 217              	.LCFI4:
 218              		.cfi_remember_state
 219              		.cfi_def_cfa_offset 16
 220              		@ sp needed
 221 0020 70BD     		pop	{r4, r5, r6, pc}
 222              	.LVL6:
 223              	.L19:
 224              	.LCFI5:
 225              		.cfi_restore_state
 226              		.loc 1 192 1 view .LVU60
 227 0022 0446     		mov	r4, r0
 101:./Core/Src/i2c.c ****     /**I2C1 GPIO Configuration
 228              		.loc 1 101 5 is_stmt 1 view .LVU61
 229              	.LBB2:
 101:./Core/Src/i2c.c ****     /**I2C1 GPIO Configuration
 230              		.loc 1 101 5 view .LVU62
 231 0024 0025     		movs	r5, #0
 232 0026 0195     		str	r5, [sp, #4]
 101:./Core/Src/i2c.c ****     /**I2C1 GPIO Configuration
 233              		.loc 1 101 5 view .LVU63
 234 0028 504E     		ldr	r6, .L23+8
 235 002a 336B     		ldr	r3, [r6, #48]
 236 002c 43F00203 		orr	r3, r3, #2
 237 0030 3363     		str	r3, [r6, #48]
 101:./Core/Src/i2c.c ****     /**I2C1 GPIO Configuration
 238              		.loc 1 101 5 view .LVU64
 239 0032 336B     		ldr	r3, [r6, #48]
 240 0034 03F00203 		and	r3, r3, #2
 241 0038 0193     		str	r3, [sp, #4]
 101:./Core/Src/i2c.c ****     /**I2C1 GPIO Configuration
 242              		.loc 1 101 5 view .LVU65
 243 003a 019B     		ldr	r3, [sp, #4]
 244              	.LBE2:
 101:./Core/Src/i2c.c ****     /**I2C1 GPIO Configuration
 245              		.loc 1 101 5 view .LVU66
 106:./Core/Src/i2c.c ****     GPIO_InitStruct.Mode = GPIO_MODE_AF_OD;
 246              		.loc 1 106 5 view .LVU67
 106:./Core/Src/i2c.c ****     GPIO_InitStruct.Mode = GPIO_MODE_AF_OD;
 247              		.loc 1 106 25 is_stmt 0 view .LVU68
 248 003c 4FF44073 		mov	r3, #768
 249 0040 0593     		str	r3, [sp, #20]
 107:./Core/Src/i2c.c ****     GPIO_InitStruct.Pull = GPIO_PULLUP;
 250              		.loc 1 107 5 is_stmt 1 view .LVU69
 107:./Core/Src/i2c.c ****     GPIO_InitStruct.Pull = GPIO_PULLUP;
 251              		.loc 1 107 26 is_stmt 0 view .LVU70
 252 0042 1223     		movs	r3, #18
 253 0044 0693     		str	r3, [sp, #24]
 108:./Core/Src/i2c.c ****     GPIO_InitStruct.Speed = GPIO_SPEED_FREQ_VERY_HIGH;
 254              		.loc 1 108 5 is_stmt 1 view .LVU71
 108:./Core/Src/i2c.c ****     GPIO_InitStruct.Speed = GPIO_SPEED_FREQ_VERY_HIGH;
 255              		.loc 1 108 26 is_stmt 0 view .LVU72
ARM GAS  C:\Users\Dennis\AppData\Local\Temp\ccxuXC2i.s 			page 9


 256 0046 0123     		movs	r3, #1
 257 0048 0793     		str	r3, [sp, #28]
 109:./Core/Src/i2c.c ****     GPIO_InitStruct.Alternate = GPIO_AF4_I2C1;
 258              		.loc 1 109 5 is_stmt 1 view .LVU73
 109:./Core/Src/i2c.c ****     GPIO_InitStruct.Alternate = GPIO_AF4_I2C1;
 259              		.loc 1 109 27 is_stmt 0 view .LVU74
 260 004a 0323     		movs	r3, #3
 261 004c 0893     		str	r3, [sp, #32]
 110:./Core/Src/i2c.c ****     HAL_GPIO_Init(GPIOB, &GPIO_InitStruct);
 262              		.loc 1 110 5 is_stmt 1 view .LVU75
 110:./Core/Src/i2c.c ****     HAL_GPIO_Init(GPIOB, &GPIO_InitStruct);
 263              		.loc 1 110 31 is_stmt 0 view .LVU76
 264 004e 0423     		movs	r3, #4
 265 0050 0993     		str	r3, [sp, #36]
 111:./Core/Src/i2c.c **** 
 266              		.loc 1 111 5 is_stmt 1 view .LVU77
 267 0052 05A9     		add	r1, sp, #20
 268 0054 4648     		ldr	r0, .L23+12
 269              	.LVL7:
 111:./Core/Src/i2c.c **** 
 270              		.loc 1 111 5 is_stmt 0 view .LVU78
 271 0056 FFF7FEFF 		bl	HAL_GPIO_Init
 272              	.LVL8:
 114:./Core/Src/i2c.c **** 
 273              		.loc 1 114 5 is_stmt 1 view .LVU79
 274              	.LBB3:
 114:./Core/Src/i2c.c **** 
 275              		.loc 1 114 5 view .LVU80
 276 005a 0295     		str	r5, [sp, #8]
 114:./Core/Src/i2c.c **** 
 277              		.loc 1 114 5 view .LVU81
 278 005c 336C     		ldr	r3, [r6, #64]
 279 005e 43F40013 		orr	r3, r3, #2097152
 280 0062 3364     		str	r3, [r6, #64]
 114:./Core/Src/i2c.c **** 
 281              		.loc 1 114 5 view .LVU82
 282 0064 336C     		ldr	r3, [r6, #64]
 283 0066 03F40013 		and	r3, r3, #2097152
 284 006a 0293     		str	r3, [sp, #8]
 114:./Core/Src/i2c.c **** 
 285              		.loc 1 114 5 view .LVU83
 286 006c 029B     		ldr	r3, [sp, #8]
 287              	.LBE3:
 114:./Core/Src/i2c.c **** 
 288              		.loc 1 114 5 view .LVU84
 118:./Core/Src/i2c.c ****     hdma_i2c1_rx.Init.Channel = DMA_CHANNEL_1;
 289              		.loc 1 118 5 view .LVU85
 118:./Core/Src/i2c.c ****     hdma_i2c1_rx.Init.Channel = DMA_CHANNEL_1;
 290              		.loc 1 118 27 is_stmt 0 view .LVU86
 291 006e 4148     		ldr	r0, .L23+16
 292 0070 414B     		ldr	r3, .L23+20
 293 0072 0360     		str	r3, [r0]
 119:./Core/Src/i2c.c ****     hdma_i2c1_rx.Init.Direction = DMA_PERIPH_TO_MEMORY;
 294              		.loc 1 119 5 is_stmt 1 view .LVU87
 119:./Core/Src/i2c.c ****     hdma_i2c1_rx.Init.Direction = DMA_PERIPH_TO_MEMORY;
 295              		.loc 1 119 31 is_stmt 0 view .LVU88
 296 0074 4FF00073 		mov	r3, #33554432
ARM GAS  C:\Users\Dennis\AppData\Local\Temp\ccxuXC2i.s 			page 10


 297 0078 4360     		str	r3, [r0, #4]
 120:./Core/Src/i2c.c ****     hdma_i2c1_rx.Init.PeriphInc = DMA_PINC_DISABLE;
 298              		.loc 1 120 5 is_stmt 1 view .LVU89
 120:./Core/Src/i2c.c ****     hdma_i2c1_rx.Init.PeriphInc = DMA_PINC_DISABLE;
 299              		.loc 1 120 33 is_stmt 0 view .LVU90
 300 007a 8560     		str	r5, [r0, #8]
 121:./Core/Src/i2c.c ****     hdma_i2c1_rx.Init.MemInc = DMA_MINC_ENABLE;
 301              		.loc 1 121 5 is_stmt 1 view .LVU91
 121:./Core/Src/i2c.c ****     hdma_i2c1_rx.Init.MemInc = DMA_MINC_ENABLE;
 302              		.loc 1 121 33 is_stmt 0 view .LVU92
 303 007c C560     		str	r5, [r0, #12]
 122:./Core/Src/i2c.c ****     hdma_i2c1_rx.Init.PeriphDataAlignment = DMA_PDATAALIGN_BYTE;
 304              		.loc 1 122 5 is_stmt 1 view .LVU93
 122:./Core/Src/i2c.c ****     hdma_i2c1_rx.Init.PeriphDataAlignment = DMA_PDATAALIGN_BYTE;
 305              		.loc 1 122 30 is_stmt 0 view .LVU94
 306 007e 4FF48063 		mov	r3, #1024
 307 0082 0361     		str	r3, [r0, #16]
 123:./Core/Src/i2c.c ****     hdma_i2c1_rx.Init.MemDataAlignment = DMA_MDATAALIGN_BYTE;
 308              		.loc 1 123 5 is_stmt 1 view .LVU95
 123:./Core/Src/i2c.c ****     hdma_i2c1_rx.Init.MemDataAlignment = DMA_MDATAALIGN_BYTE;
 309              		.loc 1 123 43 is_stmt 0 view .LVU96
 310 0084 4561     		str	r5, [r0, #20]
 124:./Core/Src/i2c.c ****     hdma_i2c1_rx.Init.Mode = DMA_NORMAL;
 311              		.loc 1 124 5 is_stmt 1 view .LVU97
 124:./Core/Src/i2c.c ****     hdma_i2c1_rx.Init.Mode = DMA_NORMAL;
 312              		.loc 1 124 40 is_stmt 0 view .LVU98
 313 0086 8561     		str	r5, [r0, #24]
 125:./Core/Src/i2c.c ****     hdma_i2c1_rx.Init.Priority = DMA_PRIORITY_LOW;
 314              		.loc 1 125 5 is_stmt 1 view .LVU99
 125:./Core/Src/i2c.c ****     hdma_i2c1_rx.Init.Priority = DMA_PRIORITY_LOW;
 315              		.loc 1 125 28 is_stmt 0 view .LVU100
 316 0088 C561     		str	r5, [r0, #28]
 126:./Core/Src/i2c.c ****     hdma_i2c1_rx.Init.FIFOMode = DMA_FIFOMODE_DISABLE;
 317              		.loc 1 126 5 is_stmt 1 view .LVU101
 126:./Core/Src/i2c.c ****     hdma_i2c1_rx.Init.FIFOMode = DMA_FIFOMODE_DISABLE;
 318              		.loc 1 126 32 is_stmt 0 view .LVU102
 319 008a 0562     		str	r5, [r0, #32]
 127:./Core/Src/i2c.c ****     if (HAL_DMA_Init(&hdma_i2c1_rx) != HAL_OK)
 320              		.loc 1 127 5 is_stmt 1 view .LVU103
 127:./Core/Src/i2c.c ****     if (HAL_DMA_Init(&hdma_i2c1_rx) != HAL_OK)
 321              		.loc 1 127 32 is_stmt 0 view .LVU104
 322 008c 4562     		str	r5, [r0, #36]
 128:./Core/Src/i2c.c ****     {
 323              		.loc 1 128 5 is_stmt 1 view .LVU105
 128:./Core/Src/i2c.c ****     {
 324              		.loc 1 128 9 is_stmt 0 view .LVU106
 325 008e FFF7FEFF 		bl	HAL_DMA_Init
 326              	.LVL9:
 128:./Core/Src/i2c.c ****     {
 327              		.loc 1 128 8 view .LVU107
 328 0092 58BB     		cbnz	r0, .L21
 329              	.L15:
 133:./Core/Src/i2c.c **** 
 330              		.loc 1 133 5 is_stmt 1 view .LVU108
 133:./Core/Src/i2c.c **** 
 331              		.loc 1 133 5 view .LVU109
 332 0094 374B     		ldr	r3, .L23+16
ARM GAS  C:\Users\Dennis\AppData\Local\Temp\ccxuXC2i.s 			page 11


 333 0096 A363     		str	r3, [r4, #56]
 133:./Core/Src/i2c.c **** 
 334              		.loc 1 133 5 view .LVU110
 335 0098 9C63     		str	r4, [r3, #56]
 133:./Core/Src/i2c.c **** 
 336              		.loc 1 133 5 view .LVU111
 136:./Core/Src/i2c.c ****     hdma_i2c1_tx.Init.Channel = DMA_CHANNEL_1;
 337              		.loc 1 136 5 view .LVU112
 136:./Core/Src/i2c.c ****     hdma_i2c1_tx.Init.Channel = DMA_CHANNEL_1;
 338              		.loc 1 136 27 is_stmt 0 view .LVU113
 339 009a 3848     		ldr	r0, .L23+24
 340 009c 384B     		ldr	r3, .L23+28
 341 009e 0360     		str	r3, [r0]
 137:./Core/Src/i2c.c ****     hdma_i2c1_tx.Init.Direction = DMA_MEMORY_TO_PERIPH;
 342              		.loc 1 137 5 is_stmt 1 view .LVU114
 137:./Core/Src/i2c.c ****     hdma_i2c1_tx.Init.Direction = DMA_MEMORY_TO_PERIPH;
 343              		.loc 1 137 31 is_stmt 0 view .LVU115
 344 00a0 4FF00073 		mov	r3, #33554432
 345 00a4 4360     		str	r3, [r0, #4]
 138:./Core/Src/i2c.c ****     hdma_i2c1_tx.Init.PeriphInc = DMA_PINC_DISABLE;
 346              		.loc 1 138 5 is_stmt 1 view .LVU116
 138:./Core/Src/i2c.c ****     hdma_i2c1_tx.Init.PeriphInc = DMA_PINC_DISABLE;
 347              		.loc 1 138 33 is_stmt 0 view .LVU117
 348 00a6 4023     		movs	r3, #64
 349 00a8 8360     		str	r3, [r0, #8]
 139:./Core/Src/i2c.c ****     hdma_i2c1_tx.Init.MemInc = DMA_MINC_ENABLE;
 350              		.loc 1 139 5 is_stmt 1 view .LVU118
 139:./Core/Src/i2c.c ****     hdma_i2c1_tx.Init.MemInc = DMA_MINC_ENABLE;
 351              		.loc 1 139 33 is_stmt 0 view .LVU119
 352 00aa 0023     		movs	r3, #0
 353 00ac C360     		str	r3, [r0, #12]
 140:./Core/Src/i2c.c ****     hdma_i2c1_tx.Init.PeriphDataAlignment = DMA_PDATAALIGN_BYTE;
 354              		.loc 1 140 5 is_stmt 1 view .LVU120
 140:./Core/Src/i2c.c ****     hdma_i2c1_tx.Init.PeriphDataAlignment = DMA_PDATAALIGN_BYTE;
 355              		.loc 1 140 30 is_stmt 0 view .LVU121
 356 00ae 4FF48062 		mov	r2, #1024
 357 00b2 0261     		str	r2, [r0, #16]
 141:./Core/Src/i2c.c ****     hdma_i2c1_tx.Init.MemDataAlignment = DMA_MDATAALIGN_BYTE;
 358              		.loc 1 141 5 is_stmt 1 view .LVU122
 141:./Core/Src/i2c.c ****     hdma_i2c1_tx.Init.MemDataAlignment = DMA_MDATAALIGN_BYTE;
 359              		.loc 1 141 43 is_stmt 0 view .LVU123
 360 00b4 4361     		str	r3, [r0, #20]
 142:./Core/Src/i2c.c ****     hdma_i2c1_tx.Init.Mode = DMA_NORMAL;
 361              		.loc 1 142 5 is_stmt 1 view .LVU124
 142:./Core/Src/i2c.c ****     hdma_i2c1_tx.Init.Mode = DMA_NORMAL;
 362              		.loc 1 142 40 is_stmt 0 view .LVU125
 363 00b6 8361     		str	r3, [r0, #24]
 143:./Core/Src/i2c.c ****     hdma_i2c1_tx.Init.Priority = DMA_PRIORITY_LOW;
 364              		.loc 1 143 5 is_stmt 1 view .LVU126
 143:./Core/Src/i2c.c ****     hdma_i2c1_tx.Init.Priority = DMA_PRIORITY_LOW;
 365              		.loc 1 143 28 is_stmt 0 view .LVU127
 366 00b8 C361     		str	r3, [r0, #28]
 144:./Core/Src/i2c.c ****     hdma_i2c1_tx.Init.FIFOMode = DMA_FIFOMODE_DISABLE;
 367              		.loc 1 144 5 is_stmt 1 view .LVU128
 144:./Core/Src/i2c.c ****     hdma_i2c1_tx.Init.FIFOMode = DMA_FIFOMODE_DISABLE;
 368              		.loc 1 144 32 is_stmt 0 view .LVU129
 369 00ba 0362     		str	r3, [r0, #32]
ARM GAS  C:\Users\Dennis\AppData\Local\Temp\ccxuXC2i.s 			page 12


 145:./Core/Src/i2c.c ****     if (HAL_DMA_Init(&hdma_i2c1_tx) != HAL_OK)
 370              		.loc 1 145 5 is_stmt 1 view .LVU130
 145:./Core/Src/i2c.c ****     if (HAL_DMA_Init(&hdma_i2c1_tx) != HAL_OK)
 371              		.loc 1 145 32 is_stmt 0 view .LVU131
 372 00bc 4362     		str	r3, [r0, #36]
 146:./Core/Src/i2c.c ****     {
 373              		.loc 1 146 5 is_stmt 1 view .LVU132
 146:./Core/Src/i2c.c ****     {
 374              		.loc 1 146 9 is_stmt 0 view .LVU133
 375 00be FFF7FEFF 		bl	HAL_DMA_Init
 376              	.LVL10:
 146:./Core/Src/i2c.c ****     {
 377              		.loc 1 146 8 view .LVU134
 378 00c2 B0B9     		cbnz	r0, .L22
 379              	.L16:
 151:./Core/Src/i2c.c **** 
 380              		.loc 1 151 5 is_stmt 1 view .LVU135
 151:./Core/Src/i2c.c **** 
 381              		.loc 1 151 5 view .LVU136
 382 00c4 2D4B     		ldr	r3, .L23+24
 383 00c6 6363     		str	r3, [r4, #52]
 151:./Core/Src/i2c.c **** 
 384              		.loc 1 151 5 view .LVU137
 385 00c8 9C63     		str	r4, [r3, #56]
 151:./Core/Src/i2c.c **** 
 386              		.loc 1 151 5 view .LVU138
 154:./Core/Src/i2c.c ****     HAL_NVIC_EnableIRQ(I2C1_EV_IRQn);
 387              		.loc 1 154 5 view .LVU139
 388 00ca 0022     		movs	r2, #0
 389 00cc 1146     		mov	r1, r2
 390 00ce 1F20     		movs	r0, #31
 391 00d0 FFF7FEFF 		bl	HAL_NVIC_SetPriority
 392              	.LVL11:
 155:./Core/Src/i2c.c ****     HAL_NVIC_SetPriority(I2C1_ER_IRQn, 0, 0);
 393              		.loc 1 155 5 view .LVU140
 394 00d4 1F20     		movs	r0, #31
 395 00d6 FFF7FEFF 		bl	HAL_NVIC_EnableIRQ
 396              	.LVL12:
 156:./Core/Src/i2c.c ****     HAL_NVIC_EnableIRQ(I2C1_ER_IRQn);
 397              		.loc 1 156 5 view .LVU141
 398 00da 0022     		movs	r2, #0
 399 00dc 1146     		mov	r1, r2
 400 00de 2020     		movs	r0, #32
 401 00e0 FFF7FEFF 		bl	HAL_NVIC_SetPriority
 402              	.LVL13:
 157:./Core/Src/i2c.c ****   /* USER CODE BEGIN I2C1_MspInit 1 */
 403              		.loc 1 157 5 view .LVU142
 404 00e4 2020     		movs	r0, #32
 405 00e6 FFF7FEFF 		bl	HAL_NVIC_EnableIRQ
 406              	.LVL14:
 407 00ea 98E7     		b	.L13
 408              	.L21:
 130:./Core/Src/i2c.c ****     }
 409              		.loc 1 130 7 view .LVU143
 410 00ec FFF7FEFF 		bl	Error_Handler
 411              	.LVL15:
 412 00f0 D0E7     		b	.L15
ARM GAS  C:\Users\Dennis\AppData\Local\Temp\ccxuXC2i.s 			page 13


 413              	.L22:
 148:./Core/Src/i2c.c ****     }
 414              		.loc 1 148 7 view .LVU144
 415 00f2 FFF7FEFF 		bl	Error_Handler
 416              	.LVL16:
 417 00f6 E5E7     		b	.L16
 418              	.LVL17:
 419              	.L20:
 168:./Core/Src/i2c.c ****     /**I2C2 GPIO Configuration
 420              		.loc 1 168 5 view .LVU145
 421              	.LBB4:
 168:./Core/Src/i2c.c ****     /**I2C2 GPIO Configuration
 422              		.loc 1 168 5 view .LVU146
 423 00f8 0024     		movs	r4, #0
 424 00fa 0394     		str	r4, [sp, #12]
 168:./Core/Src/i2c.c ****     /**I2C2 GPIO Configuration
 425              		.loc 1 168 5 view .LVU147
 426 00fc 1B4D     		ldr	r5, .L23+8
 427 00fe 2B6B     		ldr	r3, [r5, #48]
 428 0100 43F00203 		orr	r3, r3, #2
 429 0104 2B63     		str	r3, [r5, #48]
 168:./Core/Src/i2c.c ****     /**I2C2 GPIO Configuration
 430              		.loc 1 168 5 view .LVU148
 431 0106 2B6B     		ldr	r3, [r5, #48]
 432 0108 03F00203 		and	r3, r3, #2
 433 010c 0393     		str	r3, [sp, #12]
 168:./Core/Src/i2c.c ****     /**I2C2 GPIO Configuration
 434              		.loc 1 168 5 view .LVU149
 435 010e 039B     		ldr	r3, [sp, #12]
 436              	.LBE4:
 168:./Core/Src/i2c.c ****     /**I2C2 GPIO Configuration
 437              		.loc 1 168 5 view .LVU150
 173:./Core/Src/i2c.c ****     GPIO_InitStruct.Mode = GPIO_MODE_AF_OD;
 438              		.loc 1 173 5 view .LVU151
 173:./Core/Src/i2c.c ****     GPIO_InitStruct.Mode = GPIO_MODE_AF_OD;
 439              		.loc 1 173 25 is_stmt 0 view .LVU152
 440 0110 4FF44063 		mov	r3, #3072
 441 0114 0593     		str	r3, [sp, #20]
 174:./Core/Src/i2c.c ****     GPIO_InitStruct.Pull = GPIO_PULLUP;
 442              		.loc 1 174 5 is_stmt 1 view .LVU153
 174:./Core/Src/i2c.c ****     GPIO_InitStruct.Pull = GPIO_PULLUP;
 443              		.loc 1 174 26 is_stmt 0 view .LVU154
 444 0116 1223     		movs	r3, #18
 445 0118 0693     		str	r3, [sp, #24]
 175:./Core/Src/i2c.c ****     GPIO_InitStruct.Speed = GPIO_SPEED_FREQ_VERY_HIGH;
 446              		.loc 1 175 5 is_stmt 1 view .LVU155
 175:./Core/Src/i2c.c ****     GPIO_InitStruct.Speed = GPIO_SPEED_FREQ_VERY_HIGH;
 447              		.loc 1 175 26 is_stmt 0 view .LVU156
 448 011a 0123     		movs	r3, #1
 449 011c 0793     		str	r3, [sp, #28]
 176:./Core/Src/i2c.c ****     GPIO_InitStruct.Alternate = GPIO_AF4_I2C2;
 450              		.loc 1 176 5 is_stmt 1 view .LVU157
 176:./Core/Src/i2c.c ****     GPIO_InitStruct.Alternate = GPIO_AF4_I2C2;
 451              		.loc 1 176 27 is_stmt 0 view .LVU158
 452 011e 0323     		movs	r3, #3
 453 0120 0893     		str	r3, [sp, #32]
 177:./Core/Src/i2c.c ****     HAL_GPIO_Init(GPIOB, &GPIO_InitStruct);
ARM GAS  C:\Users\Dennis\AppData\Local\Temp\ccxuXC2i.s 			page 14


 454              		.loc 1 177 5 is_stmt 1 view .LVU159
 177:./Core/Src/i2c.c ****     HAL_GPIO_Init(GPIOB, &GPIO_InitStruct);
 455              		.loc 1 177 31 is_stmt 0 view .LVU160
 456 0122 0423     		movs	r3, #4
 457 0124 0993     		str	r3, [sp, #36]
 178:./Core/Src/i2c.c **** 
 458              		.loc 1 178 5 is_stmt 1 view .LVU161
 459 0126 05A9     		add	r1, sp, #20
 460 0128 1148     		ldr	r0, .L23+12
 461              	.LVL18:
 178:./Core/Src/i2c.c **** 
 462              		.loc 1 178 5 is_stmt 0 view .LVU162
 463 012a FFF7FEFF 		bl	HAL_GPIO_Init
 464              	.LVL19:
 181:./Core/Src/i2c.c **** 
 465              		.loc 1 181 5 is_stmt 1 view .LVU163
 466              	.LBB5:
 181:./Core/Src/i2c.c **** 
 467              		.loc 1 181 5 view .LVU164
 468 012e 0494     		str	r4, [sp, #16]
 181:./Core/Src/i2c.c **** 
 469              		.loc 1 181 5 view .LVU165
 470 0130 2B6C     		ldr	r3, [r5, #64]
 471 0132 43F48003 		orr	r3, r3, #4194304
 472 0136 2B64     		str	r3, [r5, #64]
 181:./Core/Src/i2c.c **** 
 473              		.loc 1 181 5 view .LVU166
 474 0138 2B6C     		ldr	r3, [r5, #64]
 475 013a 03F48003 		and	r3, r3, #4194304
 476 013e 0493     		str	r3, [sp, #16]
 181:./Core/Src/i2c.c **** 
 477              		.loc 1 181 5 view .LVU167
 478 0140 049B     		ldr	r3, [sp, #16]
 479              	.LBE5:
 181:./Core/Src/i2c.c **** 
 480              		.loc 1 181 5 view .LVU168
 184:./Core/Src/i2c.c ****     HAL_NVIC_EnableIRQ(I2C2_EV_IRQn);
 481              		.loc 1 184 5 view .LVU169
 482 0142 2246     		mov	r2, r4
 483 0144 2146     		mov	r1, r4
 484 0146 2120     		movs	r0, #33
 485 0148 FFF7FEFF 		bl	HAL_NVIC_SetPriority
 486              	.LVL20:
 185:./Core/Src/i2c.c ****     HAL_NVIC_SetPriority(I2C2_ER_IRQn, 0, 0);
 487              		.loc 1 185 5 view .LVU170
 488 014c 2120     		movs	r0, #33
 489 014e FFF7FEFF 		bl	HAL_NVIC_EnableIRQ
 490              	.LVL21:
 186:./Core/Src/i2c.c ****     HAL_NVIC_EnableIRQ(I2C2_ER_IRQn);
 491              		.loc 1 186 5 view .LVU171
 492 0152 2246     		mov	r2, r4
 493 0154 2146     		mov	r1, r4
 494 0156 2220     		movs	r0, #34
 495 0158 FFF7FEFF 		bl	HAL_NVIC_SetPriority
 496              	.LVL22:
 187:./Core/Src/i2c.c ****   /* USER CODE BEGIN I2C2_MspInit 1 */
 497              		.loc 1 187 5 view .LVU172
ARM GAS  C:\Users\Dennis\AppData\Local\Temp\ccxuXC2i.s 			page 15


 498 015c 2220     		movs	r0, #34
 499 015e FFF7FEFF 		bl	HAL_NVIC_EnableIRQ
 500              	.LVL23:
 501              		.loc 1 192 1 is_stmt 0 view .LVU173
 502 0162 5CE7     		b	.L13
 503              	.L24:
 504              		.align	2
 505              	.L23:
 506 0164 00540040 		.word	1073763328
 507 0168 00580040 		.word	1073764352
 508 016c 00380240 		.word	1073887232
 509 0170 00040240 		.word	1073873920
 510 0174 00000000 		.word	.LANCHOR2
 511 0178 10600240 		.word	1073897488
 512 017c 00000000 		.word	.LANCHOR3
 513 0180 B8600240 		.word	1073897656
 514              		.cfi_endproc
 515              	.LFE241:
 517              		.section	.text.HAL_I2C_MspDeInit,"ax",%progbits
 518              		.align	1
 519              		.global	HAL_I2C_MspDeInit
 520              		.syntax unified
 521              		.thumb
 522              		.thumb_func
 524              	HAL_I2C_MspDeInit:
 525              	.LVL24:
 526              	.LFB242:
 193:./Core/Src/i2c.c **** 
 194:./Core/Src/i2c.c **** void HAL_I2C_MspDeInit(I2C_HandleTypeDef* i2cHandle)
 195:./Core/Src/i2c.c **** {
 527              		.loc 1 195 1 is_stmt 1 view -0
 528              		.cfi_startproc
 529              		@ args = 0, pretend = 0, frame = 0
 530              		@ frame_needed = 0, uses_anonymous_args = 0
 531              		.loc 1 195 1 is_stmt 0 view .LVU175
 532 0000 38B5     		push	{r3, r4, r5, lr}
 533              	.LCFI6:
 534              		.cfi_def_cfa_offset 16
 535              		.cfi_offset 3, -16
 536              		.cfi_offset 4, -12
 537              		.cfi_offset 5, -8
 538              		.cfi_offset 14, -4
 196:./Core/Src/i2c.c **** 
 197:./Core/Src/i2c.c ****   if(i2cHandle->Instance==I2C1)
 539              		.loc 1 197 3 is_stmt 1 view .LVU176
 540              		.loc 1 197 15 is_stmt 0 view .LVU177
 541 0002 0368     		ldr	r3, [r0]
 542              		.loc 1 197 5 view .LVU178
 543 0004 1E4A     		ldr	r2, .L31
 544 0006 9342     		cmp	r3, r2
 545 0008 03D0     		beq	.L29
 198:./Core/Src/i2c.c ****   {
 199:./Core/Src/i2c.c ****   /* USER CODE BEGIN I2C1_MspDeInit 0 */
 200:./Core/Src/i2c.c **** 
 201:./Core/Src/i2c.c ****   /* USER CODE END I2C1_MspDeInit 0 */
 202:./Core/Src/i2c.c ****     /* Peripheral clock disable */
 203:./Core/Src/i2c.c ****     __HAL_RCC_I2C1_CLK_DISABLE();
ARM GAS  C:\Users\Dennis\AppData\Local\Temp\ccxuXC2i.s 			page 16


 204:./Core/Src/i2c.c **** 
 205:./Core/Src/i2c.c ****     /**I2C1 GPIO Configuration
 206:./Core/Src/i2c.c ****     PB8     ------> I2C1_SCL
 207:./Core/Src/i2c.c ****     PB9     ------> I2C1_SDA
 208:./Core/Src/i2c.c ****     */
 209:./Core/Src/i2c.c ****     HAL_GPIO_DeInit(GPIOB, GPIO_PIN_8);
 210:./Core/Src/i2c.c **** 
 211:./Core/Src/i2c.c ****     HAL_GPIO_DeInit(GPIOB, GPIO_PIN_9);
 212:./Core/Src/i2c.c **** 
 213:./Core/Src/i2c.c ****     /* I2C1 DMA DeInit */
 214:./Core/Src/i2c.c ****     HAL_DMA_DeInit(i2cHandle->hdmarx);
 215:./Core/Src/i2c.c ****     HAL_DMA_DeInit(i2cHandle->hdmatx);
 216:./Core/Src/i2c.c **** 
 217:./Core/Src/i2c.c ****     /* I2C1 interrupt Deinit */
 218:./Core/Src/i2c.c ****     HAL_NVIC_DisableIRQ(I2C1_EV_IRQn);
 219:./Core/Src/i2c.c ****     HAL_NVIC_DisableIRQ(I2C1_ER_IRQn);
 220:./Core/Src/i2c.c ****   /* USER CODE BEGIN I2C1_MspDeInit 1 */
 221:./Core/Src/i2c.c **** 
 222:./Core/Src/i2c.c ****   /* USER CODE END I2C1_MspDeInit 1 */
 223:./Core/Src/i2c.c ****   }
 224:./Core/Src/i2c.c ****   else if(i2cHandle->Instance==I2C2)
 546              		.loc 1 224 8 is_stmt 1 view .LVU179
 547              		.loc 1 224 10 is_stmt 0 view .LVU180
 548 000a 1E4A     		ldr	r2, .L31+4
 549 000c 9342     		cmp	r3, r2
 550 000e 1FD0     		beq	.L30
 551              	.LVL25:
 552              	.L25:
 225:./Core/Src/i2c.c ****   {
 226:./Core/Src/i2c.c ****   /* USER CODE BEGIN I2C2_MspDeInit 0 */
 227:./Core/Src/i2c.c **** 
 228:./Core/Src/i2c.c ****   /* USER CODE END I2C2_MspDeInit 0 */
 229:./Core/Src/i2c.c ****     /* Peripheral clock disable */
 230:./Core/Src/i2c.c ****     __HAL_RCC_I2C2_CLK_DISABLE();
 231:./Core/Src/i2c.c **** 
 232:./Core/Src/i2c.c ****     /**I2C2 GPIO Configuration
 233:./Core/Src/i2c.c ****     PB10     ------> I2C2_SCL
 234:./Core/Src/i2c.c ****     PB11     ------> I2C2_SDA
 235:./Core/Src/i2c.c ****     */
 236:./Core/Src/i2c.c ****     HAL_GPIO_DeInit(GPIOB, GPIO_PIN_10);
 237:./Core/Src/i2c.c **** 
 238:./Core/Src/i2c.c ****     HAL_GPIO_DeInit(GPIOB, GPIO_PIN_11);
 239:./Core/Src/i2c.c **** 
 240:./Core/Src/i2c.c ****     /* I2C2 interrupt Deinit */
 241:./Core/Src/i2c.c ****     HAL_NVIC_DisableIRQ(I2C2_EV_IRQn);
 242:./Core/Src/i2c.c ****     HAL_NVIC_DisableIRQ(I2C2_ER_IRQn);
 243:./Core/Src/i2c.c ****   /* USER CODE BEGIN I2C2_MspDeInit 1 */
 244:./Core/Src/i2c.c **** 
 245:./Core/Src/i2c.c ****   /* USER CODE END I2C2_MspDeInit 1 */
 246:./Core/Src/i2c.c ****   }
 247:./Core/Src/i2c.c **** }
 553              		.loc 1 247 1 view .LVU181
 554 0010 38BD     		pop	{r3, r4, r5, pc}
 555              	.LVL26:
 556              	.L29:
 557              		.loc 1 247 1 view .LVU182
 558 0012 0446     		mov	r4, r0
ARM GAS  C:\Users\Dennis\AppData\Local\Temp\ccxuXC2i.s 			page 17


 203:./Core/Src/i2c.c **** 
 559              		.loc 1 203 5 is_stmt 1 view .LVU183
 560 0014 02F5F232 		add	r2, r2, #123904
 561 0018 136C     		ldr	r3, [r2, #64]
 562 001a 23F40013 		bic	r3, r3, #2097152
 563 001e 1364     		str	r3, [r2, #64]
 209:./Core/Src/i2c.c **** 
 564              		.loc 1 209 5 view .LVU184
 565 0020 194D     		ldr	r5, .L31+8
 566 0022 4FF48071 		mov	r1, #256
 567 0026 2846     		mov	r0, r5
 568              	.LVL27:
 209:./Core/Src/i2c.c **** 
 569              		.loc 1 209 5 is_stmt 0 view .LVU185
 570 0028 FFF7FEFF 		bl	HAL_GPIO_DeInit
 571              	.LVL28:
 211:./Core/Src/i2c.c **** 
 572              		.loc 1 211 5 is_stmt 1 view .LVU186
 573 002c 4FF40071 		mov	r1, #512
 574 0030 2846     		mov	r0, r5
 575 0032 FFF7FEFF 		bl	HAL_GPIO_DeInit
 576              	.LVL29:
 214:./Core/Src/i2c.c ****     HAL_DMA_DeInit(i2cHandle->hdmatx);
 577              		.loc 1 214 5 view .LVU187
 578 0036 A06B     		ldr	r0, [r4, #56]
 579 0038 FFF7FEFF 		bl	HAL_DMA_DeInit
 580              	.LVL30:
 215:./Core/Src/i2c.c **** 
 581              		.loc 1 215 5 view .LVU188
 582 003c 606B     		ldr	r0, [r4, #52]
 583 003e FFF7FEFF 		bl	HAL_DMA_DeInit
 584              	.LVL31:
 218:./Core/Src/i2c.c ****     HAL_NVIC_DisableIRQ(I2C1_ER_IRQn);
 585              		.loc 1 218 5 view .LVU189
 586 0042 1F20     		movs	r0, #31
 587 0044 FFF7FEFF 		bl	HAL_NVIC_DisableIRQ
 588              	.LVL32:
 219:./Core/Src/i2c.c ****   /* USER CODE BEGIN I2C1_MspDeInit 1 */
 589              		.loc 1 219 5 view .LVU190
 590 0048 2020     		movs	r0, #32
 591 004a FFF7FEFF 		bl	HAL_NVIC_DisableIRQ
 592              	.LVL33:
 593 004e DFE7     		b	.L25
 594              	.LVL34:
 595              	.L30:
 230:./Core/Src/i2c.c **** 
 596              		.loc 1 230 5 view .LVU191
 597 0050 02F5F032 		add	r2, r2, #122880
 598 0054 136C     		ldr	r3, [r2, #64]
 599 0056 23F48003 		bic	r3, r3, #4194304
 600 005a 1364     		str	r3, [r2, #64]
 236:./Core/Src/i2c.c **** 
 601              		.loc 1 236 5 view .LVU192
 602 005c 0A4C     		ldr	r4, .L31+8
 603 005e 4FF48061 		mov	r1, #1024
 604 0062 2046     		mov	r0, r4
 605              	.LVL35:
ARM GAS  C:\Users\Dennis\AppData\Local\Temp\ccxuXC2i.s 			page 18


 236:./Core/Src/i2c.c **** 
 606              		.loc 1 236 5 is_stmt 0 view .LVU193
 607 0064 FFF7FEFF 		bl	HAL_GPIO_DeInit
 608              	.LVL36:
 238:./Core/Src/i2c.c **** 
 609              		.loc 1 238 5 is_stmt 1 view .LVU194
 610 0068 4FF40061 		mov	r1, #2048
 611 006c 2046     		mov	r0, r4
 612 006e FFF7FEFF 		bl	HAL_GPIO_DeInit
 613              	.LVL37:
 241:./Core/Src/i2c.c ****     HAL_NVIC_DisableIRQ(I2C2_ER_IRQn);
 614              		.loc 1 241 5 view .LVU195
 615 0072 2120     		movs	r0, #33
 616 0074 FFF7FEFF 		bl	HAL_NVIC_DisableIRQ
 617              	.LVL38:
 242:./Core/Src/i2c.c ****   /* USER CODE BEGIN I2C2_MspDeInit 1 */
 618              		.loc 1 242 5 view .LVU196
 619 0078 2220     		movs	r0, #34
 620 007a FFF7FEFF 		bl	HAL_NVIC_DisableIRQ
 621              	.LVL39:
 622              		.loc 1 247 1 is_stmt 0 view .LVU197
 623 007e C7E7     		b	.L25
 624              	.L32:
 625              		.align	2
 626              	.L31:
 627 0080 00540040 		.word	1073763328
 628 0084 00580040 		.word	1073764352
 629 0088 00040240 		.word	1073873920
 630              		.cfi_endproc
 631              	.LFE242:
 633              		.global	hdma_i2c1_tx
 634              		.global	hdma_i2c1_rx
 635              		.global	hi2c2
 636              		.global	hi2c1
 637              		.section	.bss.hdma_i2c1_rx,"aw",%nobits
 638              		.align	2
 639              		.set	.LANCHOR2,. + 0
 642              	hdma_i2c1_rx:
 643 0000 00000000 		.space	96
 643      00000000 
 643      00000000 
 643      00000000 
 643      00000000 
 644              		.section	.bss.hdma_i2c1_tx,"aw",%nobits
 645              		.align	2
 646              		.set	.LANCHOR3,. + 0
 649              	hdma_i2c1_tx:
 650 0000 00000000 		.space	96
 650      00000000 
 650      00000000 
 650      00000000 
 650      00000000 
 651              		.section	.bss.hi2c1,"aw",%nobits
 652              		.align	2
 653              		.set	.LANCHOR0,. + 0
 656              	hi2c1:
 657 0000 00000000 		.space	84
ARM GAS  C:\Users\Dennis\AppData\Local\Temp\ccxuXC2i.s 			page 19


 657      00000000 
 657      00000000 
 657      00000000 
 657      00000000 
 658              		.section	.bss.hi2c2,"aw",%nobits
 659              		.align	2
 660              		.set	.LANCHOR1,. + 0
 663              	hi2c2:
 664 0000 00000000 		.space	84
 664      00000000 
 664      00000000 
 664      00000000 
 664      00000000 
 665              		.text
 666              	.Letext0:
 667              		.file 2 "c:\\software_user\\armgcc\\arm-none-eabi\\include\\machine\\_default_types.h"
 668              		.file 3 "c:\\software_user\\armgcc\\arm-none-eabi\\include\\sys\\_stdint.h"
 669              		.file 4 "./Drivers/CMSIS/Device/ST/STM32F4xx/Include/stm32f407xx.h"
 670              		.file 5 "./Drivers/STM32F4xx_HAL_Driver/Inc/stm32f4xx_hal_def.h"
 671              		.file 6 "./Drivers/STM32F4xx_HAL_Driver/Inc/stm32f4xx_hal_gpio.h"
 672              		.file 7 "./Drivers/STM32F4xx_HAL_Driver/Inc/stm32f4xx_hal_dma.h"
 673              		.file 8 "./Drivers/STM32F4xx_HAL_Driver/Inc/stm32f4xx_hal_i2c.h"
 674              		.file 9 "./Core/Inc/i2c.h"
 675              		.file 10 "./Drivers/STM32F4xx_HAL_Driver/Inc/stm32f4xx_hal_cortex.h"
 676              		.file 11 "./Core/Inc/main.h"
ARM GAS  C:\Users\Dennis\AppData\Local\Temp\ccxuXC2i.s 			page 20

