ARM GAS  C:\Users\Dennis\AppData\Local\Temp\ccNAa9zb.s 			page 1


   1              		.cpu cortex-m4
   2              		.arch armv7e-m
   3              		.fpu fpv4-sp-d16
   4              		.eabi_attribute 27, 1
   5              		.eabi_attribute 28, 1
   6              		.eabi_attribute 20, 1
   7              		.eabi_attribute 21, 1
   8              		.eabi_attribute 23, 3
   9              		.eabi_attribute 24, 1
  10              		.eabi_attribute 25, 1
  11              		.eabi_attribute 26, 1
  12              		.eabi_attribute 30, 1
  13              		.eabi_attribute 34, 1
  14              		.eabi_attribute 18, 4
  15              		.file	"inlinecurrent.c"
  16              		.text
  17              	.Ltext0:
  18              		.cfi_sections	.debug_frame
  19              		.section	.text.DriftOffsets,"ax",%progbits
  20              		.align	1
  21              		.global	DriftOffsets
  22              		.syntax unified
  23              		.thumb
  24              		.thumb_func
  26              	DriftOffsets:
  27              	.LVL0:
  28              	.LFB3:
  29              		.file 1 "./app/peripheral/src/inlinecurrent.c"
   1:./app/peripheral/src/inlinecurrent.c **** #include "inlinecurrent.h"
   2:./app/peripheral/src/inlinecurrent.c **** 
   3:./app/peripheral/src/inlinecurrent.c **** 
   4:./app/peripheral/src/inlinecurrent.c **** 
   5:./app/peripheral/src/inlinecurrent.c **** uint16_t adc_buffer[6]; // 定义数组存储 DMA 传输后的 ADC 数据
   6:./app/peripheral/src/inlinecurrent.c **** 
   7:./app/peripheral/src/inlinecurrent.c **** 
   8:./app/peripheral/src/inlinecurrent.c **** 
   9:./app/peripheral/src/inlinecurrent.c **** 
  10:./app/peripheral/src/inlinecurrent.c **** float _shunt_resistor = 0.01;
  11:./app/peripheral/src/inlinecurrent.c **** float amp_gain = 50;
  12:./app/peripheral/src/inlinecurrent.c **** float vlots_to_amps=0;
  13:./app/peripheral/src/inlinecurrent.c **** 
  14:./app/peripheral/src/inlinecurrent.c **** /// @brief 零飘检测
  15:./app/peripheral/src/inlinecurrent.c **** /// @param Sensor 
  16:./app/peripheral/src/inlinecurrent.c **** void DriftOffsets(Inlinecurrent_Typedef *Sensor)
  17:./app/peripheral/src/inlinecurrent.c **** {
  30              		.loc 1 17 1 view -0
  31              		.cfi_startproc
  32              		@ args = 0, pretend = 0, frame = 0
  33              		@ frame_needed = 0, uses_anonymous_args = 0
  34              		@ link register save eliminated.
  18:./app/peripheral/src/inlinecurrent.c **** 	uint16_t detect_rounds = 1000;
  35              		.loc 1 18 2 view .LVU1
  19:./app/peripheral/src/inlinecurrent.c **** 	for(int i = 0; i < detect_rounds; i++)
  36              		.loc 1 19 2 view .LVU2
  37              	.LBB2:
  38              		.loc 1 19 6 view .LVU3
  39              		.loc 1 19 10 is_stmt 0 view .LVU4
ARM GAS  C:\Users\Dennis\AppData\Local\Temp\ccNAa9zb.s 			page 2


  40 0000 0023     		movs	r3, #0
  41              		.loc 1 19 2 view .LVU5
  42 0002 21E0     		b	.L2
  43              	.LVL1:
  44              	.L3:
  20:./app/peripheral/src/inlinecurrent.c **** 	{
  21:./app/peripheral/src/inlinecurrent.c **** 		Sensor->offset_ia += adc_buffer[Sensor->A]*_ADC_CONV;
  45              		.loc 1 21 3 is_stmt 1 discriminator 3 view .LVU6
  46              		.loc 1 21 41 is_stmt 0 discriminator 3 view .LVU7
  47 0004 0168     		ldr	r1, [r0]
  48              		.loc 1 21 34 discriminator 3 view .LVU8
  49 0006 194A     		ldr	r2, .L4
  50 0008 32F81110 		ldrh	r1, [r2, r1, lsl #1]
  51 000c 07EE101A 		vmov	s14, r1	@ int
  52              		.loc 1 21 45 discriminator 3 view .LVU9
  53 0010 B8EEC77A 		vcvt.f32.s32	s14, s14
  54 0014 9FED166A 		vldr.32	s12, .L4+4
  55 0018 27EE067A 		vmul.f32	s14, s14, s12
  56              		.loc 1 21 21 discriminator 3 view .LVU10
  57 001c D0ED046A 		vldr.32	s13, [r0, #16]
  58 0020 36EE877A 		vadd.f32	s14, s13, s14
  59 0024 80ED047A 		vstr.32	s14, [r0, #16]
  22:./app/peripheral/src/inlinecurrent.c **** 		Sensor->offset_ib += adc_buffer[Sensor->B]*_ADC_CONV;
  60              		.loc 1 22 3 is_stmt 1 discriminator 3 view .LVU11
  61              		.loc 1 22 41 is_stmt 0 discriminator 3 view .LVU12
  62 0028 4168     		ldr	r1, [r0, #4]
  63              		.loc 1 22 34 discriminator 3 view .LVU13
  64 002a 32F81120 		ldrh	r2, [r2, r1, lsl #1]
  65 002e 07EE902A 		vmov	s15, r2	@ int
  66              		.loc 1 22 45 discriminator 3 view .LVU14
  67 0032 F8EEE77A 		vcvt.f32.s32	s15, s15
  68 0036 67EE867A 		vmul.f32	s15, s15, s12
  69              		.loc 1 22 21 discriminator 3 view .LVU15
  70 003a 90ED057A 		vldr.32	s14, [r0, #20]
  71 003e 77EE277A 		vadd.f32	s15, s14, s15
  72 0042 C0ED057A 		vstr.32	s15, [r0, #20]
  19:./app/peripheral/src/inlinecurrent.c **** 	for(int i = 0; i < detect_rounds; i++)
  73              		.loc 1 19 36 is_stmt 1 discriminator 3 view .LVU16
  19:./app/peripheral/src/inlinecurrent.c **** 	for(int i = 0; i < detect_rounds; i++)
  74              		.loc 1 19 37 is_stmt 0 discriminator 3 view .LVU17
  75 0046 0133     		adds	r3, r3, #1
  76              	.LVL2:
  77              	.L2:
  19:./app/peripheral/src/inlinecurrent.c **** 	for(int i = 0; i < detect_rounds; i++)
  78              		.loc 1 19 17 is_stmt 1 discriminator 1 view .LVU18
  19:./app/peripheral/src/inlinecurrent.c **** 	for(int i = 0; i < detect_rounds; i++)
  79              		.loc 1 19 2 is_stmt 0 discriminator 1 view .LVU19
  80 0048 B3F57A7F 		cmp	r3, #1000
  81 004c DADB     		blt	.L3
  82              	.LBE2:
  23:./app/peripheral/src/inlinecurrent.c **** 	}
  24:./app/peripheral/src/inlinecurrent.c **** 	
  25:./app/peripheral/src/inlinecurrent.c **** 	Sensor->offset_ia = Sensor->offset_ia / detect_rounds;
  83              		.loc 1 25 2 is_stmt 1 view .LVU20
  84              		.loc 1 25 28 is_stmt 0 view .LVU21
  85 004e D0ED046A 		vldr.32	s13, [r0, #16]
  86              		.loc 1 25 40 view .LVU22
ARM GAS  C:\Users\Dennis\AppData\Local\Temp\ccNAa9zb.s 			page 3


  87 0052 DFED087A 		vldr.32	s15, .L4+8
  88 0056 86EEA77A 		vdiv.f32	s14, s13, s15
  89              		.loc 1 25 20 view .LVU23
  90 005a 80ED047A 		vstr.32	s14, [r0, #16]
  26:./app/peripheral/src/inlinecurrent.c **** 	Sensor->offset_ib = Sensor->offset_ib / detect_rounds;
  91              		.loc 1 26 2 is_stmt 1 view .LVU24
  92              		.loc 1 26 28 is_stmt 0 view .LVU25
  93 005e D0ED056A 		vldr.32	s13, [r0, #20]
  94              		.loc 1 26 40 view .LVU26
  95 0062 86EEA77A 		vdiv.f32	s14, s13, s15
  96              		.loc 1 26 20 view .LVU27
  97 0066 80ED057A 		vstr.32	s14, [r0, #20]
  27:./app/peripheral/src/inlinecurrent.c **** 
  28:./app/peripheral/src/inlinecurrent.c **** }
  98              		.loc 1 28 1 view .LVU28
  99 006a 7047     		bx	lr
 100              	.L5:
 101              		.align	2
 102              	.L4:
 103 006c 00000000 		.word	.LANCHOR0
 104 0070 5940533A 		.word	978534489
 105 0074 00007A44 		.word	1148846080
 106              		.cfi_endproc
 107              	.LFE3:
 109              		.section	.text.CurrSense_Init,"ax",%progbits
 110              		.align	1
 111              		.global	CurrSense_Init
 112              		.syntax unified
 113              		.thumb
 114              		.thumb_func
 116              	CurrSense_Init:
 117              	.LVL3:
 118              	.LFB4:
  29:./app/peripheral/src/inlinecurrent.c **** 
  30:./app/peripheral/src/inlinecurrent.c **** /// @brief 初始化电流传感器
  31:./app/peripheral/src/inlinecurrent.c **** /// @param Sensor 
  32:./app/peripheral/src/inlinecurrent.c **** void CurrSense_Init(Inlinecurrent_Typedef *Sensor)
  33:./app/peripheral/src/inlinecurrent.c **** {
 119              		.loc 1 33 1 is_stmt 1 view -0
 120              		.cfi_startproc
 121              		@ args = 0, pretend = 0, frame = 0
 122              		@ frame_needed = 0, uses_anonymous_args = 0
 123              		.loc 1 33 1 is_stmt 0 view .LVU30
 124 0000 10B5     		push	{r4, lr}
 125              	.LCFI0:
 126              		.cfi_def_cfa_offset 8
 127              		.cfi_offset 4, -8
 128              		.cfi_offset 14, -4
 129 0002 0446     		mov	r4, r0
  34:./app/peripheral/src/inlinecurrent.c **** 	DriftOffsets(Sensor);
 130              		.loc 1 34 2 is_stmt 1 view .LVU31
 131 0004 FFF7FEFF 		bl	DriftOffsets
 132              	.LVL4:
  35:./app/peripheral/src/inlinecurrent.c **** 	
  36:./app/peripheral/src/inlinecurrent.c **** 	_shunt_resistor = 0.01; 
 133              		.loc 1 36 2 view .LVU32
 134              		.loc 1 36 18 is_stmt 0 view .LVU33
ARM GAS  C:\Users\Dennis\AppData\Local\Temp\ccNAa9zb.s 			page 4


 135 0008 074B     		ldr	r3, .L8
 136 000a 084A     		ldr	r2, .L8+4
 137 000c 1A60     		str	r2, [r3]	@ float
  37:./app/peripheral/src/inlinecurrent.c **** 	amp_gain = 50; 
 138              		.loc 1 37 2 is_stmt 1 view .LVU34
 139              		.loc 1 37 11 is_stmt 0 view .LVU35
 140 000e 084B     		ldr	r3, .L8+8
 141 0010 084A     		ldr	r2, .L8+12
 142 0012 1A60     		str	r2, [r3]	@ float
  38:./app/peripheral/src/inlinecurrent.c **** 	
  39:./app/peripheral/src/inlinecurrent.c **** 	vlots_to_amps = 1.0f / _shunt_resistor / amp_gain;
 143              		.loc 1 39 2 is_stmt 1 view .LVU36
 144              		.loc 1 39 16 is_stmt 0 view .LVU37
 145 0014 4FF08043 		mov	r3, #1073741824
 146 0018 074A     		ldr	r2, .L8+16
 147 001a 1360     		str	r3, [r2]	@ float
  40:./app/peripheral/src/inlinecurrent.c **** 	
  41:./app/peripheral/src/inlinecurrent.c **** 	Sensor->gain_a = vlots_to_amps * -1;
 148              		.loc 1 41 2 is_stmt 1 view .LVU38
 149              		.loc 1 41 17 is_stmt 0 view .LVU39
 150 001c 4FF04042 		mov	r2, #-1073741824
 151 0020 A261     		str	r2, [r4, #24]	@ float
  42:./app/peripheral/src/inlinecurrent.c **** 	Sensor->gain_b = vlots_to_amps * -1;
 152              		.loc 1 42 2 is_stmt 1 view .LVU40
 153              		.loc 1 42 17 is_stmt 0 view .LVU41
 154 0022 E261     		str	r2, [r4, #28]	@ float
  43:./app/peripheral/src/inlinecurrent.c **** 	Sensor->gain_c = vlots_to_amps;
 155              		.loc 1 43 2 is_stmt 1 view .LVU42
 156              		.loc 1 43 17 is_stmt 0 view .LVU43
 157 0024 2362     		str	r3, [r4, #32]	@ float
  44:./app/peripheral/src/inlinecurrent.c **** }
 158              		.loc 1 44 1 view .LVU44
 159 0026 10BD     		pop	{r4, pc}
 160              	.LVL5:
 161              	.L9:
 162              		.loc 1 44 1 view .LVU45
 163              		.align	2
 164              	.L8:
 165 0028 00000000 		.word	.LANCHOR1
 166 002c 0AD7233C 		.word	1008981770
 167 0030 00000000 		.word	.LANCHOR2
 168 0034 00004842 		.word	1112014848
 169 0038 00000000 		.word	.LANCHOR3
 170              		.cfi_endproc
 171              	.LFE4:
 173              		.section	.text.Current_Update,"ax",%progbits
 174              		.align	1
 175              		.global	Current_Update
 176              		.syntax unified
 177              		.thumb
 178              		.thumb_func
 180              	Current_Update:
 181              	.LVL6:
 182              	.LFB5:
  45:./app/peripheral/src/inlinecurrent.c **** 
  46:./app/peripheral/src/inlinecurrent.c **** /// @brief 更新电流数值
  47:./app/peripheral/src/inlinecurrent.c **** /// @param Sensor 
ARM GAS  C:\Users\Dennis\AppData\Local\Temp\ccNAa9zb.s 			page 5


  48:./app/peripheral/src/inlinecurrent.c **** void Current_Update(Inlinecurrent_Typedef *Sensor)
  49:./app/peripheral/src/inlinecurrent.c **** {
 183              		.loc 1 49 1 is_stmt 1 view -0
 184              		.cfi_startproc
 185              		@ args = 0, pretend = 0, frame = 0
 186              		@ frame_needed = 0, uses_anonymous_args = 0
 187              		@ link register save eliminated.
  50:./app/peripheral/src/inlinecurrent.c **** 	float tran_vol_a = (float)adc_buffer[Sensor->A]*_ADC_CONV;
 188              		.loc 1 50 2 view .LVU47
 189              		.loc 1 50 45 is_stmt 0 view .LVU48
 190 0000 0268     		ldr	r2, [r0]
 191              		.loc 1 50 38 view .LVU49
 192 0002 144B     		ldr	r3, .L11
 193 0004 33F81220 		ldrh	r2, [r3, r2, lsl #1]
 194 0008 07EE102A 		vmov	s14, r2	@ int
 195              		.loc 1 50 21 view .LVU50
 196 000c B8EE477A 		vcvt.f32.u32	s14, s14
 197              		.loc 1 50 8 view .LVU51
 198 0010 DFED116A 		vldr.32	s13, .L11+4
 199 0014 27EE267A 		vmul.f32	s14, s14, s13
 200              	.LVL7:
  51:./app/peripheral/src/inlinecurrent.c **** 	float tran_vol_b = (float)adc_buffer[Sensor->B]*_ADC_CONV;
 201              		.loc 1 51 2 is_stmt 1 view .LVU52
 202              		.loc 1 51 45 is_stmt 0 view .LVU53
 203 0018 4268     		ldr	r2, [r0, #4]
 204              		.loc 1 51 38 view .LVU54
 205 001a 33F81230 		ldrh	r3, [r3, r2, lsl #1]
 206 001e 07EE903A 		vmov	s15, r3	@ int
 207              		.loc 1 51 21 view .LVU55
 208 0022 F8EE677A 		vcvt.f32.u32	s15, s15
 209              		.loc 1 51 8 view .LVU56
 210 0026 67EEA67A 		vmul.f32	s15, s15, s13
 211              	.LVL8:
  52:./app/peripheral/src/inlinecurrent.c **** 	
  53:./app/peripheral/src/inlinecurrent.c **** 	Sensor->I_a = (tran_vol_a - Sensor->offset_ia)*Sensor->gain_a;
 212              		.loc 1 53 2 is_stmt 1 view .LVU57
 213              		.loc 1 53 36 is_stmt 0 view .LVU58
 214 002a D0ED046A 		vldr.32	s13, [r0, #16]
 215              		.loc 1 53 28 view .LVU59
 216 002e 37EE667A 		vsub.f32	s14, s14, s13
 217              	.LVL9:
 218              		.loc 1 53 55 view .LVU60
 219 0032 D0ED066A 		vldr.32	s13, [r0, #24]
 220              		.loc 1 53 48 view .LVU61
 221 0036 27EE267A 		vmul.f32	s14, s14, s13
 222              		.loc 1 53 14 view .LVU62
 223 003a 80ED027A 		vstr.32	s14, [r0, #8]
  54:./app/peripheral/src/inlinecurrent.c **** 	Sensor->I_b = (tran_vol_b - Sensor->offset_ib)*Sensor->gain_b;
 224              		.loc 1 54 2 is_stmt 1 view .LVU63
 225              		.loc 1 54 36 is_stmt 0 view .LVU64
 226 003e 90ED057A 		vldr.32	s14, [r0, #20]
 227              		.loc 1 54 28 view .LVU65
 228 0042 77EEC77A 		vsub.f32	s15, s15, s14
 229              	.LVL10:
 230              		.loc 1 54 55 view .LVU66
 231 0046 90ED077A 		vldr.32	s14, [r0, #28]
 232              		.loc 1 54 48 view .LVU67
ARM GAS  C:\Users\Dennis\AppData\Local\Temp\ccNAa9zb.s 			page 6


 233 004a 67EE877A 		vmul.f32	s15, s15, s14
 234              		.loc 1 54 14 view .LVU68
 235 004e C0ED037A 		vstr.32	s15, [r0, #12]
  55:./app/peripheral/src/inlinecurrent.c **** }
 236              		.loc 1 55 1 view .LVU69
 237 0052 7047     		bx	lr
 238              	.L12:
 239              		.align	2
 240              	.L11:
 241 0054 00000000 		.word	.LANCHOR0
 242 0058 5940533A 		.word	978534489
 243              		.cfi_endproc
 244              	.LFE5:
 246              		.global	vlots_to_amps
 247              		.global	amp_gain
 248              		.global	_shunt_resistor
 249              		.global	adc_buffer
 250              		.section	.bss.adc_buffer,"aw",%nobits
 251              		.align	2
 252              		.set	.LANCHOR0,. + 0
 255              	adc_buffer:
 256 0000 00000000 		.space	12
 256      00000000 
 256      00000000 
 257              		.section	.bss.vlots_to_amps,"aw",%nobits
 258              		.align	2
 259              		.set	.LANCHOR3,. + 0
 262              	vlots_to_amps:
 263 0000 00000000 		.space	4
 264              		.section	.data._shunt_resistor,"aw"
 265              		.align	2
 266              		.set	.LANCHOR1,. + 0
 269              	_shunt_resistor:
 270 0000 0AD7233C 		.word	1008981770
 271              		.section	.data.amp_gain,"aw"
 272              		.align	2
 273              		.set	.LANCHOR2,. + 0
 276              	amp_gain:
 277 0000 00004842 		.word	1112014848
 278              		.text
 279              	.Letext0:
 280              		.file 2 "c:\\software_user\\armgcc\\arm-none-eabi\\include\\machine\\_default_types.h"
 281              		.file 3 "c:\\software_user\\armgcc\\arm-none-eabi\\include\\sys\\_stdint.h"
 282              		.file 4 "./app/peripheral/inc/inlinecurrent.h"
ARM GAS  C:\Users\Dennis\AppData\Local\Temp\ccNAa9zb.s 			page 7

