ARM GAS  C:\Users\Dennis\AppData\Local\Temp\ccqRRmza.s 			page 1


   1              		.cpu cortex-m4
   2              		.arch armv7e-m
   3              		.fpu fpv4-sp-d16
   4              		.eabi_attribute 27, 1
   5              		.eabi_attribute 28, 1
   6              		.eabi_attribute 20, 1
   7              		.eabi_attribute 21, 1
   8              		.eabi_attribute 23, 3
   9              		.eabi_attribute 24, 1
  10              		.eabi_attribute 25, 1
  11              		.eabi_attribute 26, 1
  12              		.eabi_attribute 30, 1
  13              		.eabi_attribute 34, 1
  14              		.eabi_attribute 18, 4
  15              		.file	"lowpass_filter.c"
  16              		.text
  17              	.Ltext0:
  18              		.cfi_sections	.debug_frame
  19              		.section	.text.Lowpass_Filter_Init,"ax",%progbits
  20              		.align	1
  21              		.global	Lowpass_Filter_Init
  22              		.syntax unified
  23              		.thumb
  24              		.thumb_func
  26              	Lowpass_Filter_Init:
  27              	.LVL0:
  28              	.LFB242:
  29              		.file 1 "./app/algorithm/src/lowpass_filter.c"
   1:./app/algorithm/src/lowpass_filter.c **** #include "lowpass_filter.h"
   2:./app/algorithm/src/lowpass_filter.c **** 
   3:./app/algorithm/src/lowpass_filter.c **** 
   4:./app/algorithm/src/lowpass_filter.c **** /// @brief 初始化低通滤波器
   5:./app/algorithm/src/lowpass_filter.c **** /// @param flt 
   6:./app/algorithm/src/lowpass_filter.c **** /// @param Tf 
   7:./app/algorithm/src/lowpass_filter.c **** void Lowpass_Filter_Init(Lowpass_Filter_Typedef* flt, float Tf)
   8:./app/algorithm/src/lowpass_filter.c **** {
  30              		.loc 1 8 1 view -0
  31              		.cfi_startproc
  32              		@ args = 0, pretend = 0, frame = 0
  33              		@ frame_needed = 0, uses_anonymous_args = 0
  34              		@ link register save eliminated.
   9:./app/algorithm/src/lowpass_filter.c ****     flt->Tf = Tf;
  35              		.loc 1 9 5 view .LVU1
  36              		.loc 1 9 13 is_stmt 0 view .LVU2
  37 0000 80ED000A 		vstr.32	s0, [r0]
  10:./app/algorithm/src/lowpass_filter.c **** }
  38              		.loc 1 10 1 view .LVU3
  39 0004 7047     		bx	lr
  40              		.cfi_endproc
  41              	.LFE242:
  43              		.section	.text.Lowpass_Filter_calc,"ax",%progbits
  44              		.align	1
  45              		.global	Lowpass_Filter_calc
  46              		.syntax unified
  47              		.thumb
  48              		.thumb_func
  50              	Lowpass_Filter_calc:
ARM GAS  C:\Users\Dennis\AppData\Local\Temp\ccqRRmza.s 			page 2


  51              	.LVL1:
  52              	.LFB243:
  11:./app/algorithm/src/lowpass_filter.c **** 
  12:./app/algorithm/src/lowpass_filter.c **** 
  13:./app/algorithm/src/lowpass_filter.c **** 
  14:./app/algorithm/src/lowpass_filter.c **** 
  15:./app/algorithm/src/lowpass_filter.c **** 
  16:./app/algorithm/src/lowpass_filter.c **** /// @brief 低通滤波器
  17:./app/algorithm/src/lowpass_filter.c **** /// @param flt 
  18:./app/algorithm/src/lowpass_filter.c **** /// @param x 
  19:./app/algorithm/src/lowpass_filter.c **** /// @return 
  20:./app/algorithm/src/lowpass_filter.c **** float Lowpass_Filter_calc(Lowpass_Filter_Typedef* flt, float x)
  21:./app/algorithm/src/lowpass_filter.c **** {
  53              		.loc 1 21 1 is_stmt 1 view -0
  54              		.cfi_startproc
  55              		@ args = 0, pretend = 0, frame = 0
  56              		@ frame_needed = 0, uses_anonymous_args = 0
  57              		.loc 1 21 1 is_stmt 0 view .LVU5
  58 0000 10B5     		push	{r4, lr}
  59              	.LCFI0:
  60              		.cfi_def_cfa_offset 8
  61              		.cfi_offset 4, -8
  62              		.cfi_offset 14, -4
  63 0002 2DED028B 		vpush.64	{d8}
  64              	.LCFI1:
  65              		.cfi_def_cfa_offset 16
  66              		.cfi_offset 80, -16
  67              		.cfi_offset 81, -12
  68 0006 0446     		mov	r4, r0
  69 0008 B0EE408A 		vmov.f32	s16, s0
  22:./app/algorithm/src/lowpass_filter.c ****     unsigned long timestamp = HAL_GetTick();
  70              		.loc 1 22 5 is_stmt 1 view .LVU6
  71              		.loc 1 22 31 is_stmt 0 view .LVU7
  72 000c FFF7FEFF 		bl	HAL_GetTick
  73              	.LVL2:
  23:./app/algorithm/src/lowpass_filter.c ****     float dt = (timestamp - flt->timestamp_prev)*1e-3f;
  74              		.loc 1 23 5 is_stmt 1 view .LVU8
  75              		.loc 1 23 32 is_stmt 0 view .LVU9
  76 0010 6368     		ldr	r3, [r4, #4]
  77              		.loc 1 23 27 view .LVU10
  78 0012 C31A     		subs	r3, r0, r3
  79 0014 07EE903A 		vmov	s15, r3	@ int
  80              		.loc 1 23 49 view .LVU11
  81 0018 F8EE677A 		vcvt.f32.u32	s15, s15
  82              		.loc 1 23 11 view .LVU12
  83 001c 9FED147A 		vldr.32	s14, .L10
  84 0020 67EE877A 		vmul.f32	s15, s15, s14
  85              	.LVL3:
  24:./app/algorithm/src/lowpass_filter.c **** 
  25:./app/algorithm/src/lowpass_filter.c ****     if (dt < 0.0f ) dt = 1e-3f;
  86              		.loc 1 25 5 is_stmt 1 view .LVU13
  26:./app/algorithm/src/lowpass_filter.c ****     else if(dt > 0.3f) {
  87              		.loc 1 26 10 view .LVU14
  88              		.loc 1 26 12 is_stmt 0 view .LVU15
  89 0024 9FED137A 		vldr.32	s14, .L10+4
  90 0028 F4EEC77A 		vcmpe.f32	s15, s14
  91 002c F1EE10FA 		vmrs	APSR_nzcv, FPSCR
ARM GAS  C:\Users\Dennis\AppData\Local\Temp\ccqRRmza.s 			page 3


  92 0030 17DC     		bgt	.L9
  27:./app/algorithm/src/lowpass_filter.c ****         flt->y_prev = x;
  28:./app/algorithm/src/lowpass_filter.c ****         flt->timestamp_prev = timestamp;
  29:./app/algorithm/src/lowpass_filter.c ****         return x;
  30:./app/algorithm/src/lowpass_filter.c ****     }
  31:./app/algorithm/src/lowpass_filter.c **** 
  32:./app/algorithm/src/lowpass_filter.c ****     float alpha = flt->Tf/(flt->Tf + dt);
  93              		.loc 1 32 5 is_stmt 1 view .LVU16
  94              		.loc 1 32 22 is_stmt 0 view .LVU17
  95 0032 D4ED006A 		vldr.32	s13, [r4]
  96              		.loc 1 32 36 view .LVU18
  97 0036 76EEA77A 		vadd.f32	s15, s13, s15
  98              	.LVL4:
  99              		.loc 1 32 11 view .LVU19
 100 003a 86EEA77A 		vdiv.f32	s14, s13, s15
 101              	.LVL5:
  33:./app/algorithm/src/lowpass_filter.c ****     float y = alpha*flt->y_prev + (1.0f - alpha)*x;
 102              		.loc 1 33 5 is_stmt 1 view .LVU20
 103              		.loc 1 33 24 is_stmt 0 view .LVU21
 104 003e D4ED027A 		vldr.32	s15, [r4, #8]
 105              		.loc 1 33 20 view .LVU22
 106 0042 67EE877A 		vmul.f32	s15, s15, s14
 107              		.loc 1 33 41 view .LVU23
 108 0046 B7EE000A 		vmov.f32	s0, #1.0e+0
 109 004a 30EE470A 		vsub.f32	s0, s0, s14
 110              		.loc 1 33 49 view .LVU24
 111 004e 20EE080A 		vmul.f32	s0, s0, s16
 112              		.loc 1 33 11 view .LVU25
 113 0052 37EE800A 		vadd.f32	s0, s15, s0
 114              	.LVL6:
  34:./app/algorithm/src/lowpass_filter.c ****     flt->y_prev = y;
 115              		.loc 1 34 5 is_stmt 1 view .LVU26
 116              		.loc 1 34 17 is_stmt 0 view .LVU27
 117 0056 84ED020A 		vstr.32	s0, [r4, #8]
  35:./app/algorithm/src/lowpass_filter.c ****     flt->timestamp_prev = timestamp;
 118              		.loc 1 35 5 is_stmt 1 view .LVU28
 119              		.loc 1 35 25 is_stmt 0 view .LVU29
 120 005a 6060     		str	r0, [r4, #4]
  36:./app/algorithm/src/lowpass_filter.c ****     return y;
 121              		.loc 1 36 5 is_stmt 1 view .LVU30
 122              	.LVL7:
 123              	.L2:
  37:./app/algorithm/src/lowpass_filter.c **** }
 124              		.loc 1 37 1 is_stmt 0 view .LVU31
 125 005c BDEC028B 		vldm	sp!, {d8}
 126              	.LCFI2:
 127              		.cfi_remember_state
 128              		.cfi_restore 80
 129              		.cfi_restore 81
 130              		.cfi_def_cfa_offset 8
 131              	.LVL8:
 132              		.loc 1 37 1 view .LVU32
 133 0060 10BD     		pop	{r4, pc}
 134              	.LVL9:
 135              	.L9:
 136              	.LCFI3:
 137              		.cfi_restore_state
ARM GAS  C:\Users\Dennis\AppData\Local\Temp\ccqRRmza.s 			page 4


  27:./app/algorithm/src/lowpass_filter.c ****         flt->timestamp_prev = timestamp;
 138              		.loc 1 27 9 is_stmt 1 view .LVU33
  27:./app/algorithm/src/lowpass_filter.c ****         flt->timestamp_prev = timestamp;
 139              		.loc 1 27 21 is_stmt 0 view .LVU34
 140 0062 84ED028A 		vstr.32	s16, [r4, #8]
  28:./app/algorithm/src/lowpass_filter.c ****         return x;
 141              		.loc 1 28 9 is_stmt 1 view .LVU35
  28:./app/algorithm/src/lowpass_filter.c ****         return x;
 142              		.loc 1 28 29 is_stmt 0 view .LVU36
 143 0066 6060     		str	r0, [r4, #4]
  29:./app/algorithm/src/lowpass_filter.c ****     }
 144              		.loc 1 29 9 is_stmt 1 view .LVU37
  29:./app/algorithm/src/lowpass_filter.c ****     }
 145              		.loc 1 29 16 is_stmt 0 view .LVU38
 146 0068 B0EE480A 		vmov.f32	s0, s16
 147 006c F6E7     		b	.L2
 148              	.L11:
 149 006e 00BF     		.align	2
 150              	.L10:
 151 0070 6F12833A 		.word	981668463
 152 0074 9A99993E 		.word	1050253722
 153              		.cfi_endproc
 154              	.LFE243:
 156              		.text
 157              	.Letext0:
 158              		.file 2 "./app/algorithm/inc/lowpass_filter.h"
 159              		.file 3 "./Drivers/STM32F4xx_HAL_Driver/Inc/stm32f4xx_hal.h"
ARM GAS  C:\Users\Dennis\AppData\Local\Temp\ccqRRmza.s 			page 5

