ARM GAS  /tmp/ccNZpAjE.s 			page 1


   1              		.cpu cortex-m4
   2              		.arch armv7e-m
   3              		.fpu fpv4-sp-d16
   4              		.eabi_attribute 27, 1
   5              		.eabi_attribute 28, 1
   6              		.eabi_attribute 20, 1
   7              		.eabi_attribute 21, 1
   8              		.eabi_attribute 23, 3
   9              		.eabi_attribute 24, 1
  10              		.eabi_attribute 25, 1
  11              		.eabi_attribute 26, 1
  12              		.eabi_attribute 30, 1
  13              		.eabi_attribute 34, 1
  14              		.eabi_attribute 18, 4
  15              		.file	"OLED_Function.c"
  16              		.text
  17              	.Ltext0:
  18              		.cfi_sections	.debug_frame
  19              		.file 1 "./app/peripheral/src/OLED_Function.c"
  20              		.section	.text.OLED_ShowStr,"ax",%progbits
  21              		.align	1
  22              		.global	OLED_ShowStr
  23              		.syntax unified
  24              		.thumb
  25              		.thumb_func
  27              	OLED_ShowStr:
  28              	.LVL0:
  29              	.LFB239:
   1:./app/peripheral/src/OLED_Function.c **** #include "OLED_Function.h"
   2:./app/peripheral/src/OLED_Function.c **** #include "OLED_Front.h"
   3:./app/peripheral/src/OLED_Function.c **** 
   4:./app/peripheral/src/OLED_Function.c **** /**
   5:./app/peripheral/src/OLED_Function.c ****  * ************************************************************************
   6:./app/peripheral/src/OLED_Function.c ****  * @brief å­—ç¬¦ä¸²æ˜¾ç¤ºå‡½æ•°
   7:./app/peripheral/src/OLED_Function.c ****  * 
   8:./app/peripheral/src/OLED_Function.c ****  * @param[in] x  	èµ·å§‹ç‚¹æ¨ªåæ ‡ï¼ˆ0~127ï¼‰
   9:./app/peripheral/src/OLED_Function.c ****  * @param[in] y  	èµ·å§‹ç‚¹çºµåæ ‡ï¼ˆ0~63ï¼‰
  10:./app/peripheral/src/OLED_Function.c ****  * @param[in] ch  	å­—ç¬¦ä¸²ï¼ˆé€šè¿‡åŒå¼•å·å¼•å…¥ï¼‰
  11:./app/peripheral/src/OLED_Function.c ****  * @param[in] TextSize  å­—ç¬¦å¤§å°ï¼ˆ1:6*8 ï¼›2:8*16ï¼‰
  12:./app/peripheral/src/OLED_Function.c ****  * 
  13:./app/peripheral/src/OLED_Function.c ****  * ************************************************************************
  14:./app/peripheral/src/OLED_Function.c ****  */
  15:./app/peripheral/src/OLED_Function.c **** void OLED_ShowStr(signed short int x, signed short int y, unsigned char ch[], unsigned char TextSiz
  16:./app/peripheral/src/OLED_Function.c **** { 
  30              		.loc 1 16 1 view -0
  31              		.cfi_startproc
  32              		@ args = 0, pretend = 0, frame = 0
  33              		@ frame_needed = 0, uses_anonymous_args = 0
  34              		.loc 1 16 1 is_stmt 0 view .LVU1
  35 0000 2DE9F84F 		push	{r3, r4, r5, r6, r7, r8, r9, r10, fp, lr}
  36              	.LCFI0:
  37              		.cfi_def_cfa_offset 40
  38              		.cfi_offset 3, -40
  39              		.cfi_offset 4, -36
  40              		.cfi_offset 5, -32
  41              		.cfi_offset 6, -28
  42              		.cfi_offset 7, -24
ARM GAS  /tmp/ccNZpAjE.s 			page 2


  43              		.cfi_offset 8, -20
  44              		.cfi_offset 9, -16
  45              		.cfi_offset 10, -12
  46              		.cfi_offset 11, -8
  47              		.cfi_offset 14, -4
  48 0004 9246     		mov	r10, r2
  17:./app/peripheral/src/OLED_Function.c **** 	if (x >= 0 && x < SCREEN_COLUMN && y >= 0 && y < SCREEN_ROW) 
  49              		.loc 1 17 2 is_stmt 1 view .LVU2
  50              		.loc 1 17 13 is_stmt 0 view .LVU3
  51 0006 82B2     		uxth	r2, r0
  52              	.LVL1:
  53              		.loc 1 17 5 view .LVU4
  54 0008 7F2A     		cmp	r2, #127
  55 000a 09D8     		bhi	.L2
  56 000c 0646     		mov	r6, r0
  57 000e 0F46     		mov	r7, r1
  58              		.loc 1 17 34 discriminator 1 view .LVU5
  59 0010 0029     		cmp	r1, #0
  60 0012 05DB     		blt	.L2
  61              		.loc 1 17 44 discriminator 2 view .LVU6
  62 0014 3F29     		cmp	r1, #63
  63 0016 03DC     		bgt	.L2
  64              	.LBB2:
  18:./app/peripheral/src/OLED_Function.c **** 	{
  19:./app/peripheral/src/OLED_Function.c **** 		int32_t c = 0;
  65              		.loc 1 19 3 is_stmt 1 view .LVU7
  66              	.LVL2:
  20:./app/peripheral/src/OLED_Function.c **** 		unsigned char j = 0;
  67              		.loc 1 20 3 view .LVU8
  21:./app/peripheral/src/OLED_Function.c **** 	
  22:./app/peripheral/src/OLED_Function.c **** 		switch(TextSize)
  68              		.loc 1 22 3 view .LVU9
  69 0018 012B     		cmp	r3, #1
  70 001a 3AD0     		beq	.L18
  71 001c 022B     		cmp	r3, #2
  72 001e 7DD0     		beq	.L19
  73              	.LVL3:
  74              	.L2:
  75              		.loc 1 22 3 is_stmt 0 view .LVU10
  76              	.LBE2:
  23:./app/peripheral/src/OLED_Function.c **** 		{
  24:./app/peripheral/src/OLED_Function.c **** 			case 1:
  25:./app/peripheral/src/OLED_Function.c **** 			{
  26:./app/peripheral/src/OLED_Function.c **** 				while(ch[j] != '\0')
  27:./app/peripheral/src/OLED_Function.c **** 				{
  28:./app/peripheral/src/OLED_Function.c **** 					c = ch[j] - 32;
  29:./app/peripheral/src/OLED_Function.c **** 					if(c < 0)	//æ— æ•ˆå­—ç¬¦
  30:./app/peripheral/src/OLED_Function.c **** 						break;
  31:./app/peripheral/src/OLED_Function.c **** 					
  32:./app/peripheral/src/OLED_Function.c **** 					if(x >= 125 || (127-x < 6))//ä¸€è¡Œæœ€å¤§æ˜¾ç¤ºå­—ç¬¦æ•°ï¼š21å­—èŠ‚æ˜¾ç¤º,å¤šå‡ºä¸¤åˆ—ï¼Œä¸æ˜
  33:./app/peripheral/src/OLED_Function.c **** 					{
  34:./app/peripheral/src/OLED_Function.c **** 						x = 0;
  35:./app/peripheral/src/OLED_Function.c **** 						y += 8;//æ¢è¡Œæ˜¾ç¤º
  36:./app/peripheral/src/OLED_Function.c **** 						if(63 - y < 8)	// ä¸è¶³ä»¥æ˜¾ç¤ºä¸€è¡Œæ—¶ä¸æ˜¾ç¤º
  37:./app/peripheral/src/OLED_Function.c **** 							break;
  38:./app/peripheral/src/OLED_Function.c **** 					}
  39:./app/peripheral/src/OLED_Function.c **** 					for(unsigned char m = 0; m < 6; m++)
ARM GAS  /tmp/ccNZpAjE.s 			page 3


  40:./app/peripheral/src/OLED_Function.c **** 					{
  41:./app/peripheral/src/OLED_Function.c **** 						for(unsigned char n = 0; n < 8; n++)
  42:./app/peripheral/src/OLED_Function.c **** 						{
  43:./app/peripheral/src/OLED_Function.c **** 							OLED_SetPixel(x+m, y+n, (F6x8[c][m] >> n) & 0x01);
  44:./app/peripheral/src/OLED_Function.c **** 						}
  45:./app/peripheral/src/OLED_Function.c **** 					}
  46:./app/peripheral/src/OLED_Function.c **** 					x += 6;
  47:./app/peripheral/src/OLED_Function.c **** 					j++;
  48:./app/peripheral/src/OLED_Function.c **** 				}
  49:./app/peripheral/src/OLED_Function.c **** 			}break;
  50:./app/peripheral/src/OLED_Function.c **** 			case 2:
  51:./app/peripheral/src/OLED_Function.c **** 			{
  52:./app/peripheral/src/OLED_Function.c **** 				while(ch[j] != '\0')
  53:./app/peripheral/src/OLED_Function.c **** 				{
  54:./app/peripheral/src/OLED_Function.c **** 					c = ch[j] - 32;
  55:./app/peripheral/src/OLED_Function.c **** 					if(c < 0)	//æ— æ•ˆå­—ç¬¦
  56:./app/peripheral/src/OLED_Function.c **** 						break;
  57:./app/peripheral/src/OLED_Function.c **** 					
  58:./app/peripheral/src/OLED_Function.c **** 					if(x >= 127 || (127-x < 8))//16å­—èŠ‚æ˜¾ç¤º || å‰©ä½™åˆ—å°äºŽ8ä¸èƒ½æ˜¾ç¤ºå®Œæ•´å­—ç¬¦ï¼Œæ¢è
  59:./app/peripheral/src/OLED_Function.c **** 					{
  60:./app/peripheral/src/OLED_Function.c **** 						x = 0;
  61:./app/peripheral/src/OLED_Function.c **** 						y += 16;//æ¢è¡Œæ˜¾ç¤º
  62:./app/peripheral/src/OLED_Function.c **** 						if(63 - y < 16)	// ä¸è¶³ä»¥æ˜¾ç¤ºä¸€è¡Œæ—¶ä¸æ˜¾ç¤º
  63:./app/peripheral/src/OLED_Function.c **** 							break;
  64:./app/peripheral/src/OLED_Function.c **** 					}
  65:./app/peripheral/src/OLED_Function.c **** 					for(unsigned char m = 0; m < 2; m++)
  66:./app/peripheral/src/OLED_Function.c **** 					{
  67:./app/peripheral/src/OLED_Function.c **** 						for(unsigned char n = 0; n < 8; n++)
  68:./app/peripheral/src/OLED_Function.c **** 						{
  69:./app/peripheral/src/OLED_Function.c **** 							for(unsigned char i = 0; i < 8; i++)
  70:./app/peripheral/src/OLED_Function.c **** 							{
  71:./app/peripheral/src/OLED_Function.c **** 								OLED_SetPixel(x+n, y+i+m*8, (F8X16[c][n+m*8] >> i) & 0x01);
  72:./app/peripheral/src/OLED_Function.c **** 							}
  73:./app/peripheral/src/OLED_Function.c **** 						}	
  74:./app/peripheral/src/OLED_Function.c **** 					}
  75:./app/peripheral/src/OLED_Function.c **** 					x += 8;
  76:./app/peripheral/src/OLED_Function.c **** 					j++;
  77:./app/peripheral/src/OLED_Function.c **** 				}
  78:./app/peripheral/src/OLED_Function.c **** 			}break;
  79:./app/peripheral/src/OLED_Function.c **** 		}
  80:./app/peripheral/src/OLED_Function.c **** 	}
  81:./app/peripheral/src/OLED_Function.c **** 	OLED_RefreshRAM();
  77              		.loc 1 81 2 is_stmt 1 view .LVU11
  78 0020 FFF7FEFF 		bl	OLED_RefreshRAM
  79              	.LVL4:
  82:./app/peripheral/src/OLED_Function.c **** }
  80              		.loc 1 82 1 is_stmt 0 view .LVU12
  81 0024 BDE8F88F 		pop	{r3, r4, r5, r6, r7, r8, r9, r10, fp, pc}
  82              	.LVL5:
  83              	.L8:
  84              	.LBB13:
  85              	.LBB3:
  86              	.LBB4:
  43:./app/peripheral/src/OLED_Function.c **** 						}
  87              		.loc 1 43 8 is_stmt 1 view .LVU13
  43:./app/peripheral/src/OLED_Function.c **** 						}
  88              		.loc 1 43 23 is_stmt 0 view .LVU14
ARM GAS  /tmp/ccNZpAjE.s 			page 4


  89 0028 A819     		adds	r0, r5, r6
  43:./app/peripheral/src/OLED_Function.c **** 						}
  90              		.loc 1 43 28 view .LVU15
  91 002a E119     		adds	r1, r4, r7
  43:./app/peripheral/src/OLED_Function.c **** 						}
  92              		.loc 1 43 40 view .LVU16
  93 002c 08EB4802 		add	r2, r8, r8, lsl #1
  94 0030 3C4B     		ldr	r3, .L27
  95 0032 03EB4203 		add	r3, r3, r2, lsl #1
  96 0036 5A5D     		ldrb	r2, [r3, r5]	@ zero_extendqisi2
  43:./app/peripheral/src/OLED_Function.c **** 						}
  97              		.loc 1 43 44 view .LVU17
  98 0038 2241     		asrs	r2, r2, r4
  43:./app/peripheral/src/OLED_Function.c **** 						}
  99              		.loc 1 43 8 view .LVU18
 100 003a 02F00102 		and	r2, r2, #1
 101 003e 09B2     		sxth	r1, r1
 102 0040 00B2     		sxth	r0, r0
 103 0042 FFF7FEFF 		bl	OLED_SetPixel
 104              	.LVL6:
  41:./app/peripheral/src/OLED_Function.c **** 						{
 105              		.loc 1 41 40 is_stmt 1 discriminator 3 view .LVU19
 106 0046 0134     		adds	r4, r4, #1
 107              	.LVL7:
  41:./app/peripheral/src/OLED_Function.c **** 						{
 108              		.loc 1 41 40 is_stmt 0 discriminator 3 view .LVU20
 109 0048 E4B2     		uxtb	r4, r4
 110              	.LVL8:
 111              	.L9:
  41:./app/peripheral/src/OLED_Function.c **** 						{
 112              		.loc 1 41 34 is_stmt 1 discriminator 1 view .LVU21
 113 004a 072C     		cmp	r4, #7
 114 004c ECD9     		bls	.L8
 115              	.LBE4:
  39:./app/peripheral/src/OLED_Function.c **** 					{
 116              		.loc 1 39 39 discriminator 2 view .LVU22
 117 004e 0135     		adds	r5, r5, #1
 118              	.LVL9:
  39:./app/peripheral/src/OLED_Function.c **** 					{
 119              		.loc 1 39 39 is_stmt 0 discriminator 2 view .LVU23
 120 0050 EDB2     		uxtb	r5, r5
 121              	.LVL10:
 122              	.L7:
  39:./app/peripheral/src/OLED_Function.c **** 					{
 123              		.loc 1 39 33 is_stmt 1 discriminator 1 view .LVU24
 124 0052 052D     		cmp	r5, #5
 125 0054 01D8     		bhi	.L24
 126              	.LBB5:
  41:./app/peripheral/src/OLED_Function.c **** 						{
 127              		.loc 1 41 25 is_stmt 0 view .LVU25
 128 0056 0024     		movs	r4, #0
 129 0058 F7E7     		b	.L9
 130              	.L24:
 131              	.LBE5:
 132              	.LBE3:
  46:./app/peripheral/src/OLED_Function.c **** 					j++;
 133              		.loc 1 46 6 is_stmt 1 view .LVU26
ARM GAS  /tmp/ccNZpAjE.s 			page 5


  46:./app/peripheral/src/OLED_Function.c **** 					j++;
 134              		.loc 1 46 8 is_stmt 0 view .LVU27
 135 005a 0636     		adds	r6, r6, #6
 136              	.LVL11:
  46:./app/peripheral/src/OLED_Function.c **** 					j++;
 137              		.loc 1 46 8 view .LVU28
 138 005c 36B2     		sxth	r6, r6
 139              	.LVL12:
  47:./app/peripheral/src/OLED_Function.c **** 				}
 140              		.loc 1 47 6 is_stmt 1 view .LVU29
  47:./app/peripheral/src/OLED_Function.c **** 				}
 141              		.loc 1 47 7 is_stmt 0 view .LVU30
 142 005e 09F10109 		add	r9, r9, #1
 143              	.LVL13:
  47:./app/peripheral/src/OLED_Function.c **** 				}
 144              		.loc 1 47 7 view .LVU31
 145 0062 5FFA89F9 		uxtb	r9, r9
 146              	.LVL14:
 147              	.L3:
  26:./app/peripheral/src/OLED_Function.c **** 				{
 148              		.loc 1 26 17 is_stmt 1 view .LVU32
  26:./app/peripheral/src/OLED_Function.c **** 				{
 149              		.loc 1 26 13 is_stmt 0 view .LVU33
 150 0066 1AF80930 		ldrb	r3, [r10, r9]	@ zero_extendqisi2
  26:./app/peripheral/src/OLED_Function.c **** 				{
 151              		.loc 1 26 17 view .LVU34
 152 006a 002B     		cmp	r3, #0
 153 006c D8D0     		beq	.L2
  28:./app/peripheral/src/OLED_Function.c **** 					if(c < 0)	//æ— æ•ˆå­—ç¬¦
 154              		.loc 1 28 6 is_stmt 1 view .LVU35
 155              	.LVL15:
  29:./app/peripheral/src/OLED_Function.c **** 						break;
 156              		.loc 1 29 6 view .LVU36
  29:./app/peripheral/src/OLED_Function.c **** 						break;
 157              		.loc 1 29 8 is_stmt 0 view .LVU37
 158 006e B3F12008 		subs	r8, r3, #32
 159              	.LVL16:
  29:./app/peripheral/src/OLED_Function.c **** 						break;
 160              		.loc 1 29 8 view .LVU38
 161 0072 D5D4     		bmi	.L2
  32:./app/peripheral/src/OLED_Function.c **** 					{
 162              		.loc 1 32 6 is_stmt 1 view .LVU39
  32:./app/peripheral/src/OLED_Function.c **** 					{
 163              		.loc 1 32 8 is_stmt 0 view .LVU40
 164 0074 7C2E     		cmp	r6, #124
 165 0076 03DC     		bgt	.L5
  32:./app/peripheral/src/OLED_Function.c **** 					{
 166              		.loc 1 32 25 discriminator 1 view .LVU41
 167 0078 C6F17F03 		rsb	r3, r6, #127
  32:./app/peripheral/src/OLED_Function.c **** 					{
 168              		.loc 1 32 18 discriminator 1 view .LVU42
 169 007c 052B     		cmp	r3, #5
 170 007e 06DC     		bgt	.L6
 171              	.L5:
  34:./app/peripheral/src/OLED_Function.c **** 						y += 8;//æ¢è¡Œæ˜¾ç¤º
 172              		.loc 1 34 7 is_stmt 1 view .LVU43
 173              	.LVL17:
ARM GAS  /tmp/ccNZpAjE.s 			page 6


  35:./app/peripheral/src/OLED_Function.c **** 						if(63 - y < 8)	// ä¸è¶³ä»¥æ˜¾ç¤ºä¸€è¡Œæ—¶ä¸æ˜¾ç¤º
 174              		.loc 1 35 7 view .LVU44
  35:./app/peripheral/src/OLED_Function.c **** 						if(63 - y < 8)	// ä¸è¶³ä»¥æ˜¾ç¤ºä¸€è¡Œæ—¶ä¸æ˜¾ç¤º
 175              		.loc 1 35 9 is_stmt 0 view .LVU45
 176 0080 0837     		adds	r7, r7, #8
 177              	.LVL18:
  35:./app/peripheral/src/OLED_Function.c **** 						if(63 - y < 8)	// ä¸è¶³ä»¥æ˜¾ç¤ºä¸€è¡Œæ—¶ä¸æ˜¾ç¤º
 178              		.loc 1 35 9 view .LVU46
 179 0082 3FB2     		sxth	r7, r7
 180              	.LVL19:
  36:./app/peripheral/src/OLED_Function.c **** 							break;
 181              		.loc 1 36 7 is_stmt 1 view .LVU47
  36:./app/peripheral/src/OLED_Function.c **** 							break;
 182              		.loc 1 36 13 is_stmt 0 view .LVU48
 183 0084 C7F13F03 		rsb	r3, r7, #63
  36:./app/peripheral/src/OLED_Function.c **** 							break;
 184              		.loc 1 36 9 view .LVU49
 185 0088 072B     		cmp	r3, #7
 186 008a C9DD     		ble	.L2
  34:./app/peripheral/src/OLED_Function.c **** 						y += 8;//æ¢è¡Œæ˜¾ç¤º
 187              		.loc 1 34 9 view .LVU50
 188 008c 0026     		movs	r6, #0
 189              	.LVL20:
 190              	.L6:
  39:./app/peripheral/src/OLED_Function.c **** 					{
 191              		.loc 1 39 6 is_stmt 1 view .LVU51
 192              	.LBB6:
  39:./app/peripheral/src/OLED_Function.c **** 					{
 193              		.loc 1 39 10 view .LVU52
  39:./app/peripheral/src/OLED_Function.c **** 					{
 194              		.loc 1 39 24 is_stmt 0 view .LVU53
 195 008e 0025     		movs	r5, #0
  39:./app/peripheral/src/OLED_Function.c **** 					{
 196              		.loc 1 39 6 view .LVU54
 197 0090 DFE7     		b	.L7
 198              	.LVL21:
 199              	.L18:
  39:./app/peripheral/src/OLED_Function.c **** 					{
 200              		.loc 1 39 6 view .LVU55
 201              	.LBE6:
  22:./app/peripheral/src/OLED_Function.c **** 		{
 202              		.loc 1 22 3 view .LVU56
 203 0092 4FF00009 		mov	r9, #0
 204 0096 E6E7     		b	.L3
 205              	.LVL22:
 206              	.L14:
 207              	.LBB7:
 208              	.LBB8:
 209              	.LBB9:
  71:./app/peripheral/src/OLED_Function.c **** 							}
 210              		.loc 1 71 9 is_stmt 1 view .LVU57
  71:./app/peripheral/src/OLED_Function.c **** 							}
 211              		.loc 1 71 24 is_stmt 0 view .LVU58
 212 0098 A819     		adds	r0, r5, r6
  71:./app/peripheral/src/OLED_Function.c **** 							}
 213              		.loc 1 71 29 view .LVU59
 214 009a E119     		adds	r1, r4, r7
ARM GAS  /tmp/ccNZpAjE.s 			page 7


  71:./app/peripheral/src/OLED_Function.c **** 							}
 215              		.loc 1 71 31 view .LVU60
 216 009c 4FEAC803 		lsl	r3, r8, #3
 217 00a0 13FA81F1 		uxtah	r1, r3, r1
  71:./app/peripheral/src/OLED_Function.c **** 							}
 218              		.loc 1 71 48 view .LVU61
 219 00a4 2B44     		add	r3, r3, r5
  71:./app/peripheral/src/OLED_Function.c **** 							}
 220              		.loc 1 71 46 view .LVU62
 221 00a6 204A     		ldr	r2, .L27+4
 222 00a8 02EB0912 		add	r2, r2, r9, lsl #4
 223 00ac D25C     		ldrb	r2, [r2, r3]	@ zero_extendqisi2
  71:./app/peripheral/src/OLED_Function.c **** 							}
 224              		.loc 1 71 54 view .LVU63
 225 00ae 2241     		asrs	r2, r2, r4
  71:./app/peripheral/src/OLED_Function.c **** 							}
 226              		.loc 1 71 9 view .LVU64
 227 00b0 02F00102 		and	r2, r2, #1
 228 00b4 09B2     		sxth	r1, r1
 229 00b6 00B2     		sxth	r0, r0
 230 00b8 FFF7FEFF 		bl	OLED_SetPixel
 231              	.LVL23:
  69:./app/peripheral/src/OLED_Function.c **** 							{
 232              		.loc 1 69 41 is_stmt 1 discriminator 3 view .LVU65
 233 00bc 0134     		adds	r4, r4, #1
 234              	.LVL24:
  69:./app/peripheral/src/OLED_Function.c **** 							{
 235              		.loc 1 69 41 is_stmt 0 discriminator 3 view .LVU66
 236 00be E4B2     		uxtb	r4, r4
 237              	.LVL25:
 238              	.L15:
  69:./app/peripheral/src/OLED_Function.c **** 							{
 239              		.loc 1 69 35 is_stmt 1 discriminator 1 view .LVU67
 240 00c0 072C     		cmp	r4, #7
 241 00c2 E9D9     		bls	.L14
 242              	.LBE9:
  67:./app/peripheral/src/OLED_Function.c **** 						{
 243              		.loc 1 67 40 discriminator 2 view .LVU68
 244 00c4 0135     		adds	r5, r5, #1
 245              	.LVL26:
  67:./app/peripheral/src/OLED_Function.c **** 						{
 246              		.loc 1 67 40 is_stmt 0 discriminator 2 view .LVU69
 247 00c6 EDB2     		uxtb	r5, r5
 248              	.LVL27:
 249              	.L16:
  67:./app/peripheral/src/OLED_Function.c **** 						{
 250              		.loc 1 67 34 is_stmt 1 discriminator 1 view .LVU70
 251 00c8 072D     		cmp	r5, #7
 252 00ca 01D8     		bhi	.L25
 253              	.LBB10:
  69:./app/peripheral/src/OLED_Function.c **** 							{
 254              		.loc 1 69 26 is_stmt 0 view .LVU71
 255 00cc 0024     		movs	r4, #0
 256 00ce F7E7     		b	.L15
 257              	.L25:
 258              	.LBE10:
 259              	.LBE8:
ARM GAS  /tmp/ccNZpAjE.s 			page 8


  65:./app/peripheral/src/OLED_Function.c **** 					{
 260              		.loc 1 65 39 is_stmt 1 discriminator 2 view .LVU72
 261 00d0 08F10108 		add	r8, r8, #1
 262              	.LVL28:
  65:./app/peripheral/src/OLED_Function.c **** 					{
 263              		.loc 1 65 39 is_stmt 0 discriminator 2 view .LVU73
 264 00d4 5FFA88F8 		uxtb	r8, r8
 265              	.LVL29:
 266              	.L13:
  65:./app/peripheral/src/OLED_Function.c **** 					{
 267              		.loc 1 65 33 is_stmt 1 discriminator 1 view .LVU74
 268 00d8 B8F1010F 		cmp	r8, #1
 269 00dc 01D8     		bhi	.L26
 270              	.LBB11:
  67:./app/peripheral/src/OLED_Function.c **** 						{
 271              		.loc 1 67 25 is_stmt 0 view .LVU75
 272 00de 0025     		movs	r5, #0
 273 00e0 F2E7     		b	.L16
 274              	.L26:
 275              	.LBE11:
 276              	.LBE7:
  75:./app/peripheral/src/OLED_Function.c **** 					j++;
 277              		.loc 1 75 6 is_stmt 1 view .LVU76
  75:./app/peripheral/src/OLED_Function.c **** 					j++;
 278              		.loc 1 75 8 is_stmt 0 view .LVU77
 279 00e2 0836     		adds	r6, r6, #8
 280              	.LVL30:
  75:./app/peripheral/src/OLED_Function.c **** 					j++;
 281              		.loc 1 75 8 view .LVU78
 282 00e4 36B2     		sxth	r6, r6
 283              	.LVL31:
  76:./app/peripheral/src/OLED_Function.c **** 				}
 284              		.loc 1 76 6 is_stmt 1 view .LVU79
  76:./app/peripheral/src/OLED_Function.c **** 				}
 285              		.loc 1 76 7 is_stmt 0 view .LVU80
 286 00e6 0BF1010B 		add	fp, fp, #1
 287              	.LVL32:
  76:./app/peripheral/src/OLED_Function.c **** 				}
 288              		.loc 1 76 7 view .LVU81
 289 00ea 5FFA8BFB 		uxtb	fp, fp
 290              	.LVL33:
 291              	.L4:
  52:./app/peripheral/src/OLED_Function.c **** 				{
 292              		.loc 1 52 17 is_stmt 1 view .LVU82
  52:./app/peripheral/src/OLED_Function.c **** 				{
 293              		.loc 1 52 13 is_stmt 0 view .LVU83
 294 00ee 1AF80B30 		ldrb	r3, [r10, fp]	@ zero_extendqisi2
  52:./app/peripheral/src/OLED_Function.c **** 				{
 295              		.loc 1 52 17 view .LVU84
 296 00f2 002B     		cmp	r3, #0
 297 00f4 94D0     		beq	.L2
  54:./app/peripheral/src/OLED_Function.c **** 					if(c < 0)	//æ— æ•ˆå­—ç¬¦
 298              		.loc 1 54 6 is_stmt 1 view .LVU85
 299              	.LVL34:
  55:./app/peripheral/src/OLED_Function.c **** 						break;
 300              		.loc 1 55 6 view .LVU86
  55:./app/peripheral/src/OLED_Function.c **** 						break;
ARM GAS  /tmp/ccNZpAjE.s 			page 9


 301              		.loc 1 55 8 is_stmt 0 view .LVU87
 302 00f6 B3F12009 		subs	r9, r3, #32
 303              	.LVL35:
  55:./app/peripheral/src/OLED_Function.c **** 						break;
 304              		.loc 1 55 8 view .LVU88
 305 00fa 91D4     		bmi	.L2
  58:./app/peripheral/src/OLED_Function.c **** 					{
 306              		.loc 1 58 6 is_stmt 1 view .LVU89
  58:./app/peripheral/src/OLED_Function.c **** 					{
 307              		.loc 1 58 8 is_stmt 0 view .LVU90
 308 00fc 7E2E     		cmp	r6, #126
 309 00fe 03DC     		bgt	.L11
  58:./app/peripheral/src/OLED_Function.c **** 					{
 310              		.loc 1 58 25 discriminator 1 view .LVU91
 311 0100 C6F17F03 		rsb	r3, r6, #127
  58:./app/peripheral/src/OLED_Function.c **** 					{
 312              		.loc 1 58 18 discriminator 1 view .LVU92
 313 0104 072B     		cmp	r3, #7
 314 0106 06DC     		bgt	.L12
 315              	.L11:
  60:./app/peripheral/src/OLED_Function.c **** 						y += 16;//æ¢è¡Œæ˜¾ç¤º
 316              		.loc 1 60 7 is_stmt 1 view .LVU93
 317              	.LVL36:
  61:./app/peripheral/src/OLED_Function.c **** 						if(63 - y < 16)	// ä¸è¶³ä»¥æ˜¾ç¤ºä¸€è¡Œæ—¶ä¸æ˜¾ç¤º
 318              		.loc 1 61 7 view .LVU94
  61:./app/peripheral/src/OLED_Function.c **** 						if(63 - y < 16)	// ä¸è¶³ä»¥æ˜¾ç¤ºä¸€è¡Œæ—¶ä¸æ˜¾ç¤º
 319              		.loc 1 61 9 is_stmt 0 view .LVU95
 320 0108 1037     		adds	r7, r7, #16
 321              	.LVL37:
  61:./app/peripheral/src/OLED_Function.c **** 						if(63 - y < 16)	// ä¸è¶³ä»¥æ˜¾ç¤ºä¸€è¡Œæ—¶ä¸æ˜¾ç¤º
 322              		.loc 1 61 9 view .LVU96
 323 010a 3FB2     		sxth	r7, r7
 324              	.LVL38:
  62:./app/peripheral/src/OLED_Function.c **** 							break;
 325              		.loc 1 62 7 is_stmt 1 view .LVU97
  62:./app/peripheral/src/OLED_Function.c **** 							break;
 326              		.loc 1 62 13 is_stmt 0 view .LVU98
 327 010c C7F13F03 		rsb	r3, r7, #63
  62:./app/peripheral/src/OLED_Function.c **** 							break;
 328              		.loc 1 62 9 view .LVU99
 329 0110 0F2B     		cmp	r3, #15
 330 0112 85DD     		ble	.L2
  60:./app/peripheral/src/OLED_Function.c **** 						y += 16;//æ¢è¡Œæ˜¾ç¤º
 331              		.loc 1 60 9 view .LVU100
 332 0114 0026     		movs	r6, #0
 333              	.LVL39:
 334              	.L12:
  65:./app/peripheral/src/OLED_Function.c **** 					{
 335              		.loc 1 65 6 is_stmt 1 view .LVU101
 336              	.LBB12:
  65:./app/peripheral/src/OLED_Function.c **** 					{
 337              		.loc 1 65 10 view .LVU102
  65:./app/peripheral/src/OLED_Function.c **** 					{
 338              		.loc 1 65 24 is_stmt 0 view .LVU103
 339 0116 4FF00008 		mov	r8, #0
  65:./app/peripheral/src/OLED_Function.c **** 					{
 340              		.loc 1 65 6 view .LVU104
ARM GAS  /tmp/ccNZpAjE.s 			page 10


 341 011a DDE7     		b	.L13
 342              	.LVL40:
 343              	.L19:
  65:./app/peripheral/src/OLED_Function.c **** 					{
 344              		.loc 1 65 6 view .LVU105
 345              	.LBE12:
  22:./app/peripheral/src/OLED_Function.c **** 		{
 346              		.loc 1 22 3 view .LVU106
 347 011c 4FF0000B 		mov	fp, #0
 348 0120 E5E7     		b	.L4
 349              	.L28:
 350 0122 00BF     		.align	2
 351              	.L27:
 352 0124 00000000 		.word	F6x8
 353 0128 00000000 		.word	F8X16
 354              	.LBE13:
 355              		.cfi_endproc
 356              	.LFE239:
 358              		.section	.text.OLED_ShowChinese,"ax",%progbits
 359              		.align	1
 360              		.global	OLED_ShowChinese
 361              		.syntax unified
 362              		.thumb
 363              		.thumb_func
 365              	OLED_ShowChinese:
 366              	.LVL41:
 367              	.LFB240:
  83:./app/peripheral/src/OLED_Function.c **** 
  84:./app/peripheral/src/OLED_Function.c **** 
  85:./app/peripheral/src/OLED_Function.c **** /**
  86:./app/peripheral/src/OLED_Function.c ****  * ************************************************************************
  87:./app/peripheral/src/OLED_Function.c ****  * @brief ä¸­æ–‡æ±‰å­—æ˜¾ç¤ºå‡½æ•°
  88:./app/peripheral/src/OLED_Function.c ****  * 
  89:./app/peripheral/src/OLED_Function.c ****  * @param[in] x  	èµ·å§‹ç‚¹æ¨ªåæ ‡ï¼ˆ0~127ï¼‰
  90:./app/peripheral/src/OLED_Function.c ****  * @param[in] y  	èµ·å§‹ç‚¹çºµåæ ‡ï¼ˆ0~63ï¼‰
  91:./app/peripheral/src/OLED_Function.c ****  * @param[in] ch  	æ±‰å­—å­—æ¨¡åº“ç´¢å¼•
  92:./app/peripheral/src/OLED_Function.c ****  * 
  93:./app/peripheral/src/OLED_Function.c ****  * @example OLED_ShowCN(0,0,"å­—");
  94:./app/peripheral/src/OLED_Function.c ****  * ************************************************************************
  95:./app/peripheral/src/OLED_Function.c ****  */
  96:./app/peripheral/src/OLED_Function.c **** void OLED_ShowChinese(signed short int x, signed short int y, unsigned char* ch)
  97:./app/peripheral/src/OLED_Function.c **** {
 368              		.loc 1 97 1 is_stmt 1 view -0
 369              		.cfi_startproc
 370              		@ args = 0, pretend = 0, frame = 0
 371              		@ frame_needed = 0, uses_anonymous_args = 0
 372              		.loc 1 97 1 is_stmt 0 view .LVU108
 373 0000 2DE9F84F 		push	{r3, r4, r5, r6, r7, r8, r9, r10, fp, lr}
 374              	.LCFI1:
 375              		.cfi_def_cfa_offset 40
 376              		.cfi_offset 3, -40
 377              		.cfi_offset 4, -36
 378              		.cfi_offset 5, -32
 379              		.cfi_offset 6, -28
 380              		.cfi_offset 7, -24
 381              		.cfi_offset 8, -20
 382              		.cfi_offset 9, -16
ARM GAS  /tmp/ccNZpAjE.s 			page 11


 383              		.cfi_offset 10, -12
 384              		.cfi_offset 11, -8
 385              		.cfi_offset 14, -4
  98:./app/peripheral/src/OLED_Function.c **** 	if (x >= 0 && x < SCREEN_COLUMN && y >= 0 && y < SCREEN_ROW) {
 386              		.loc 1 98 2 is_stmt 1 view .LVU109
 387              		.loc 1 98 13 is_stmt 0 view .LVU110
 388 0004 83B2     		uxth	r3, r0
 389              		.loc 1 98 5 view .LVU111
 390 0006 7F2B     		cmp	r3, #127
 391 0008 07D8     		bhi	.L30
 392 000a 8046     		mov	r8, r0
 393 000c 0F46     		mov	r7, r1
 394 000e 9146     		mov	r9, r2
 395              		.loc 1 98 34 discriminator 1 view .LVU112
 396 0010 0029     		cmp	r1, #0
 397 0012 02DB     		blt	.L30
 398              		.loc 1 98 44 discriminator 2 view .LVU113
 399 0014 3F29     		cmp	r1, #63
 400 0016 40F38680 		ble	.L48
 401              	.LVL42:
 402              	.L30:
  99:./app/peripheral/src/OLED_Function.c **** 		int32_t  len = 0,offset = sizeof(F16x16_CN[0].index);
 100:./app/peripheral/src/OLED_Function.c **** 		
 101:./app/peripheral/src/OLED_Function.c **** 		while(ch[len] != '\0')
 102:./app/peripheral/src/OLED_Function.c **** 		{
 103:./app/peripheral/src/OLED_Function.c **** 			if(x >= 127 || (127-x < 16))//8ä¸ªæ±‰å­—æ˜¾ç¤º||å‰©ä½™åˆ—å°äºŽ16ä¸èƒ½æ˜¾ç¤ºå®Œæ•´å­—ç¬¦ï¼Œæ¢è
 104:./app/peripheral/src/OLED_Function.c **** 			{
 105:./app/peripheral/src/OLED_Function.c **** 				x = 0;
 106:./app/peripheral/src/OLED_Function.c **** 				y += 16;
 107:./app/peripheral/src/OLED_Function.c **** 				if(63 - y < 16)	// ä¸è¶³ä»¥æ˜¾ç¤ºä¸€è¡Œæ—¶ä¸æ˜¾ç¤º
 108:./app/peripheral/src/OLED_Function.c **** 					break;
 109:./app/peripheral/src/OLED_Function.c **** 			}
 110:./app/peripheral/src/OLED_Function.c **** 					
 111:./app/peripheral/src/OLED_Function.c **** 			//éœ€è¦å¤„ç†è¾“å…¥æ•°æ®å¤§äºŽæ˜¾ç¤ºæ•°æ®çš„é—®é¢˜
 112:./app/peripheral/src/OLED_Function.c **** 			for(unsigned char i = 0; i < sizeof(F16x16_CN)/sizeof(GB2312_CN); i++)
 113:./app/peripheral/src/OLED_Function.c **** 			{
 114:./app/peripheral/src/OLED_Function.c **** 				if(((F16x16_CN[i].index[0] == ch[len]) && (F16x16_CN[i].index[1] == ch[len+1]))){
 115:./app/peripheral/src/OLED_Function.c **** 						for(unsigned char m = 0; m < 2; m++)	//é¡µ
 116:./app/peripheral/src/OLED_Function.c **** 						{
 117:./app/peripheral/src/OLED_Function.c **** 							for(unsigned char n = 0; n < 16; n++) // åˆ—
 118:./app/peripheral/src/OLED_Function.c **** 							{
 119:./app/peripheral/src/OLED_Function.c **** 								for(unsigned char j = 0; j < 8; j++)	// è¡Œ
 120:./app/peripheral/src/OLED_Function.c **** 								{
 121:./app/peripheral/src/OLED_Function.c **** 									OLED_SetPixel(x+n, y+j+m*8, (F16x16_CN[i].encoder[n+m*16] >> j) & 0x01);
 122:./app/peripheral/src/OLED_Function.c **** 								}
 123:./app/peripheral/src/OLED_Function.c **** 							}
 124:./app/peripheral/src/OLED_Function.c **** 						}			
 125:./app/peripheral/src/OLED_Function.c **** 						x += 16;
 126:./app/peripheral/src/OLED_Function.c **** 						len += offset;
 127:./app/peripheral/src/OLED_Function.c **** 						break;
 128:./app/peripheral/src/OLED_Function.c **** 				}
 129:./app/peripheral/src/OLED_Function.c **** 				else if(F16x16_CN[i].index[0] == ch[len] && ch[len] == 0x20){
 130:./app/peripheral/src/OLED_Function.c **** 					for(unsigned char m = 0; m < 2; m++)
 131:./app/peripheral/src/OLED_Function.c **** 					{
 132:./app/peripheral/src/OLED_Function.c **** 						for(unsigned char n = 0; n < 16; n++)
 133:./app/peripheral/src/OLED_Function.c **** 						{
 134:./app/peripheral/src/OLED_Function.c **** 							for(unsigned char j = 0; j < 8; j++)
ARM GAS  /tmp/ccNZpAjE.s 			page 12


 135:./app/peripheral/src/OLED_Function.c **** 							{
 136:./app/peripheral/src/OLED_Function.c **** 								OLED_SetPixel(x+n, y+j+m*8, (F16x16_CN[i].encoder[n+m*16] >> j) & 0x01);
 137:./app/peripheral/src/OLED_Function.c **** 							}								
 138:./app/peripheral/src/OLED_Function.c **** 						}	
 139:./app/peripheral/src/OLED_Function.c **** 					}			
 140:./app/peripheral/src/OLED_Function.c **** 					x += 16; 
 141:./app/peripheral/src/OLED_Function.c **** 					len++;
 142:./app/peripheral/src/OLED_Function.c **** 					break;
 143:./app/peripheral/src/OLED_Function.c **** 				}
 144:./app/peripheral/src/OLED_Function.c **** 			}
 145:./app/peripheral/src/OLED_Function.c **** 		}
 146:./app/peripheral/src/OLED_Function.c **** 	}
 147:./app/peripheral/src/OLED_Function.c **** 	OLED_RefreshRAM();
 403              		.loc 1 147 2 is_stmt 1 view .LVU114
 404 001a FFF7FEFF 		bl	OLED_RefreshRAM
 405              	.LVL43:
 148:./app/peripheral/src/OLED_Function.c **** }
 406              		.loc 1 148 1 is_stmt 0 view .LVU115
 407 001e BDE8F88F 		pop	{r3, r4, r5, r6, r7, r8, r9, r10, fp, pc}
 408              	.LVL44:
 409              	.L60:
 410              	.LBB14:
 411              	.LBB15:
 114:./app/peripheral/src/OLED_Function.c **** 						for(unsigned char m = 0; m < 2; m++)	//é¡µ
 412              		.loc 1 114 66 discriminator 1 view .LVU116
 413 0022 03EB0316 		add	r6, r3, r3, lsl #4
 414 0026 01EB4601 		add	r1, r1, r6, lsl #1
 415 002a 4E78     		ldrb	r6, [r1, #1]	@ zero_extendqisi2
 114:./app/peripheral/src/OLED_Function.c **** 						for(unsigned char m = 0; m < 2; m++)	//é¡µ
 416              		.loc 1 114 75 discriminator 1 view .LVU117
 417 002c 09EB0401 		add	r1, r9, r4
 418 0030 4978     		ldrb	r1, [r1, #1]	@ zero_extendqisi2
 114:./app/peripheral/src/OLED_Function.c **** 						for(unsigned char m = 0; m < 2; m++)	//é¡µ
 419              		.loc 1 114 44 discriminator 1 view .LVU118
 420 0032 8E42     		cmp	r6, r1
 421 0034 70D1     		bne	.L35
 422              	.LBB16:
 115:./app/peripheral/src/OLED_Function.c **** 						{
 423              		.loc 1 115 25 view .LVU119
 424 0036 4FF0000B 		mov	fp, #0
 425 003a 24E0     		b	.L36
 426              	.LVL45:
 427              	.L37:
 428              	.LBB17:
 429              	.LBB18:
 121:./app/peripheral/src/OLED_Function.c **** 								}
 430              		.loc 1 121 10 is_stmt 1 view .LVU120
 121:./app/peripheral/src/OLED_Function.c **** 								}
 431              		.loc 1 121 25 is_stmt 0 view .LVU121
 432 003c 06EB0800 		add	r0, r6, r8
 121:./app/peripheral/src/OLED_Function.c **** 								}
 433              		.loc 1 121 30 view .LVU122
 434 0040 E119     		adds	r1, r4, r7
 121:./app/peripheral/src/OLED_Function.c **** 								}
 435              		.loc 1 121 32 view .LVU123
 436 0042 4FEACB03 		lsl	r3, fp, #3
 437 0046 13FA81F1 		uxtah	r1, r3, r1
ARM GAS  /tmp/ccNZpAjE.s 			page 13


 121:./app/peripheral/src/OLED_Function.c **** 								}
 438              		.loc 1 121 61 view .LVU124
 439 004a 06EB0B12 		add	r2, r6, fp, lsl #4
 121:./app/peripheral/src/OLED_Function.c **** 								}
 440              		.loc 1 121 59 view .LVU125
 441 004e 05EB051C 		add	ip, r5, r5, lsl #4
 442 0052 424B     		ldr	r3, .L61
 443 0054 03EB4C03 		add	r3, r3, ip, lsl #1
 444 0058 1344     		add	r3, r3, r2
 445 005a 9A78     		ldrb	r2, [r3, #2]	@ zero_extendqisi2
 121:./app/peripheral/src/OLED_Function.c **** 								}
 446              		.loc 1 121 68 view .LVU126
 447 005c 2241     		asrs	r2, r2, r4
 121:./app/peripheral/src/OLED_Function.c **** 								}
 448              		.loc 1 121 10 view .LVU127
 449 005e 02F00102 		and	r2, r2, #1
 450 0062 09B2     		sxth	r1, r1
 451 0064 00B2     		sxth	r0, r0
 452 0066 FFF7FEFF 		bl	OLED_SetPixel
 453              	.LVL46:
 119:./app/peripheral/src/OLED_Function.c **** 								{
 454              		.loc 1 119 42 is_stmt 1 discriminator 3 view .LVU128
 455 006a 0134     		adds	r4, r4, #1
 456              	.LVL47:
 119:./app/peripheral/src/OLED_Function.c **** 								{
 457              		.loc 1 119 42 is_stmt 0 discriminator 3 view .LVU129
 458 006c E4B2     		uxtb	r4, r4
 459              	.LVL48:
 460              	.L38:
 119:./app/peripheral/src/OLED_Function.c **** 								{
 461              		.loc 1 119 36 is_stmt 1 discriminator 1 view .LVU130
 462 006e 072C     		cmp	r4, #7
 463 0070 E4D9     		bls	.L37
 464              	.LBE18:
 117:./app/peripheral/src/OLED_Function.c **** 							{
 465              		.loc 1 117 42 discriminator 2 view .LVU131
 466 0072 0136     		adds	r6, r6, #1
 467              	.LVL49:
 117:./app/peripheral/src/OLED_Function.c **** 							{
 468              		.loc 1 117 42 is_stmt 0 discriminator 2 view .LVU132
 469 0074 F6B2     		uxtb	r6, r6
 470              	.LVL50:
 471              	.L39:
 117:./app/peripheral/src/OLED_Function.c **** 							{
 472              		.loc 1 117 35 is_stmt 1 discriminator 1 view .LVU133
 473 0076 0F2E     		cmp	r6, #15
 474 0078 01D8     		bhi	.L56
 475              	.LBB19:
 119:./app/peripheral/src/OLED_Function.c **** 								{
 476              		.loc 1 119 27 is_stmt 0 view .LVU134
 477 007a 0024     		movs	r4, #0
 478 007c F7E7     		b	.L38
 479              	.L56:
 480              	.LBE19:
 481              	.LBE17:
 115:./app/peripheral/src/OLED_Function.c **** 						{
 482              		.loc 1 115 40 is_stmt 1 discriminator 2 view .LVU135
ARM GAS  /tmp/ccNZpAjE.s 			page 14


 483 007e 0BF1010B 		add	fp, fp, #1
 484              	.LVL51:
 115:./app/peripheral/src/OLED_Function.c **** 						{
 485              		.loc 1 115 40 is_stmt 0 discriminator 2 view .LVU136
 486 0082 5FFA8BFB 		uxtb	fp, fp
 487              	.LVL52:
 488              	.L36:
 115:./app/peripheral/src/OLED_Function.c **** 						{
 489              		.loc 1 115 34 is_stmt 1 discriminator 1 view .LVU137
 490 0086 BBF1010F 		cmp	fp, #1
 491 008a 01D8     		bhi	.L57
 492              	.LBB20:
 117:./app/peripheral/src/OLED_Function.c **** 							{
 493              		.loc 1 117 26 is_stmt 0 view .LVU138
 494 008c 0026     		movs	r6, #0
 495 008e F2E7     		b	.L39
 496              	.L57:
 497              	.LBE20:
 498              	.LBE16:
 125:./app/peripheral/src/OLED_Function.c **** 						len += offset;
 499              		.loc 1 125 7 is_stmt 1 view .LVU139
 125:./app/peripheral/src/OLED_Function.c **** 						len += offset;
 500              		.loc 1 125 9 is_stmt 0 view .LVU140
 501 0090 08F11008 		add	r8, r8, #16
 502              	.LVL53:
 125:./app/peripheral/src/OLED_Function.c **** 						len += offset;
 503              		.loc 1 125 9 view .LVU141
 504 0094 0FFA88F8 		sxth	r8, r8
 505              	.LVL54:
 126:./app/peripheral/src/OLED_Function.c **** 						break;
 506              		.loc 1 126 7 is_stmt 1 view .LVU142
 126:./app/peripheral/src/OLED_Function.c **** 						break;
 507              		.loc 1 126 11 is_stmt 0 view .LVU143
 508 0098 0AF1020A 		add	r10, r10, #2
 509              	.LVL55:
 127:./app/peripheral/src/OLED_Function.c **** 				}
 510              		.loc 1 127 7 is_stmt 1 view .LVU144
 511 009c 45E0     		b	.L31
 512              	.LVL56:
 513              	.L43:
 514              	.LBB21:
 515              	.LBB22:
 516              	.LBB23:
 136:./app/peripheral/src/OLED_Function.c **** 							}								
 517              		.loc 1 136 9 view .LVU145
 136:./app/peripheral/src/OLED_Function.c **** 							}								
 518              		.loc 1 136 24 is_stmt 0 view .LVU146
 519 009e 06EB0800 		add	r0, r6, r8
 136:./app/peripheral/src/OLED_Function.c **** 							}								
 520              		.loc 1 136 29 view .LVU147
 521 00a2 E119     		adds	r1, r4, r7
 136:./app/peripheral/src/OLED_Function.c **** 							}								
 522              		.loc 1 136 31 view .LVU148
 523 00a4 4FEACB03 		lsl	r3, fp, #3
 524 00a8 13FA81F1 		uxtah	r1, r3, r1
 136:./app/peripheral/src/OLED_Function.c **** 							}								
 525              		.loc 1 136 60 view .LVU149
ARM GAS  /tmp/ccNZpAjE.s 			page 15


 526 00ac 06EB0B12 		add	r2, r6, fp, lsl #4
 136:./app/peripheral/src/OLED_Function.c **** 							}								
 527              		.loc 1 136 58 view .LVU150
 528 00b0 05EB051C 		add	ip, r5, r5, lsl #4
 529 00b4 294B     		ldr	r3, .L61
 530 00b6 03EB4C03 		add	r3, r3, ip, lsl #1
 531 00ba 1344     		add	r3, r3, r2
 532 00bc 9A78     		ldrb	r2, [r3, #2]	@ zero_extendqisi2
 136:./app/peripheral/src/OLED_Function.c **** 							}								
 533              		.loc 1 136 67 view .LVU151
 534 00be 2241     		asrs	r2, r2, r4
 136:./app/peripheral/src/OLED_Function.c **** 							}								
 535              		.loc 1 136 9 view .LVU152
 536 00c0 02F00102 		and	r2, r2, #1
 537 00c4 09B2     		sxth	r1, r1
 538 00c6 00B2     		sxth	r0, r0
 539 00c8 FFF7FEFF 		bl	OLED_SetPixel
 540              	.LVL57:
 134:./app/peripheral/src/OLED_Function.c **** 							{
 541              		.loc 1 134 41 is_stmt 1 discriminator 3 view .LVU153
 542 00cc 0134     		adds	r4, r4, #1
 543              	.LVL58:
 134:./app/peripheral/src/OLED_Function.c **** 							{
 544              		.loc 1 134 41 is_stmt 0 discriminator 3 view .LVU154
 545 00ce E4B2     		uxtb	r4, r4
 546              	.LVL59:
 547              	.L44:
 134:./app/peripheral/src/OLED_Function.c **** 							{
 548              		.loc 1 134 35 is_stmt 1 discriminator 1 view .LVU155
 549 00d0 072C     		cmp	r4, #7
 550 00d2 E4D9     		bls	.L43
 551              	.LBE23:
 132:./app/peripheral/src/OLED_Function.c **** 						{
 552              		.loc 1 132 41 discriminator 2 view .LVU156
 553 00d4 0136     		adds	r6, r6, #1
 554              	.LVL60:
 132:./app/peripheral/src/OLED_Function.c **** 						{
 555              		.loc 1 132 41 is_stmt 0 discriminator 2 view .LVU157
 556 00d6 F6B2     		uxtb	r6, r6
 557              	.LVL61:
 558              	.L45:
 132:./app/peripheral/src/OLED_Function.c **** 						{
 559              		.loc 1 132 34 is_stmt 1 discriminator 1 view .LVU158
 560 00d8 0F2E     		cmp	r6, #15
 561 00da 01D8     		bhi	.L58
 562              	.LBB24:
 134:./app/peripheral/src/OLED_Function.c **** 							{
 563              		.loc 1 134 26 is_stmt 0 view .LVU159
 564 00dc 0024     		movs	r4, #0
 565 00de F7E7     		b	.L44
 566              	.L58:
 567              	.LBE24:
 568              	.LBE22:
 130:./app/peripheral/src/OLED_Function.c **** 					{
 569              		.loc 1 130 39 is_stmt 1 discriminator 2 view .LVU160
 570 00e0 0BF1010B 		add	fp, fp, #1
 571              	.LVL62:
ARM GAS  /tmp/ccNZpAjE.s 			page 16


 130:./app/peripheral/src/OLED_Function.c **** 					{
 572              		.loc 1 130 39 is_stmt 0 discriminator 2 view .LVU161
 573 00e4 5FFA8BFB 		uxtb	fp, fp
 574              	.LVL63:
 575              	.L42:
 130:./app/peripheral/src/OLED_Function.c **** 					{
 576              		.loc 1 130 33 is_stmt 1 discriminator 1 view .LVU162
 577 00e8 BBF1010F 		cmp	fp, #1
 578 00ec 01D8     		bhi	.L59
 579              	.LBB25:
 132:./app/peripheral/src/OLED_Function.c **** 						{
 580              		.loc 1 132 25 is_stmt 0 view .LVU163
 581 00ee 0026     		movs	r6, #0
 582 00f0 F2E7     		b	.L45
 583              	.L59:
 584              	.LBE25:
 585              	.LBE21:
 140:./app/peripheral/src/OLED_Function.c **** 					len++;
 586              		.loc 1 140 6 is_stmt 1 view .LVU164
 140:./app/peripheral/src/OLED_Function.c **** 					len++;
 587              		.loc 1 140 8 is_stmt 0 view .LVU165
 588 00f2 08F11008 		add	r8, r8, #16
 589              	.LVL64:
 140:./app/peripheral/src/OLED_Function.c **** 					len++;
 590              		.loc 1 140 8 view .LVU166
 591 00f6 0FFA88F8 		sxth	r8, r8
 592              	.LVL65:
 141:./app/peripheral/src/OLED_Function.c **** 					break;
 593              		.loc 1 141 6 is_stmt 1 view .LVU167
 141:./app/peripheral/src/OLED_Function.c **** 					break;
 594              		.loc 1 141 9 is_stmt 0 view .LVU168
 595 00fa 0AF1010A 		add	r10, r10, #1
 596              	.LVL66:
 142:./app/peripheral/src/OLED_Function.c **** 				}
 597              		.loc 1 142 6 is_stmt 1 view .LVU169
 598 00fe 14E0     		b	.L31
 599              	.LVL67:
 600              	.L41:
 112:./app/peripheral/src/OLED_Function.c **** 			{
 601              		.loc 1 112 71 discriminator 2 view .LVU170
 602 0100 0133     		adds	r3, r3, #1
 603              	.LVL68:
 112:./app/peripheral/src/OLED_Function.c **** 			{
 604              		.loc 1 112 71 is_stmt 0 discriminator 2 view .LVU171
 605 0102 DBB2     		uxtb	r3, r3
 606              	.LVL69:
 607              	.L34:
 112:./app/peripheral/src/OLED_Function.c **** 			{
 608              		.loc 1 112 31 is_stmt 1 discriminator 1 view .LVU172
 609 0104 042B     		cmp	r3, #4
 610 0106 10D8     		bhi	.L31
 114:./app/peripheral/src/OLED_Function.c **** 						for(unsigned char m = 0; m < 2; m++)	//é¡µ
 611              		.loc 1 114 5 view .LVU173
 114:./app/peripheral/src/OLED_Function.c **** 						for(unsigned char m = 0; m < 2; m++)	//é¡µ
 612              		.loc 1 114 28 is_stmt 0 view .LVU174
 613 0108 1D46     		mov	r5, r3
 614 010a 03EB0312 		add	r2, r3, r3, lsl #4
ARM GAS  /tmp/ccNZpAjE.s 			page 17


 615 010e 1349     		ldr	r1, .L61
 616 0110 11F81220 		ldrb	r2, [r1, r2, lsl #1]	@ zero_extendqisi2
 114:./app/peripheral/src/OLED_Function.c **** 						for(unsigned char m = 0; m < 2; m++)	//é¡µ
 617              		.loc 1 114 7 view .LVU175
 618 0114 8242     		cmp	r2, r0
 619 0116 84D0     		beq	.L60
 620              	.L35:
 129:./app/peripheral/src/OLED_Function.c **** 					for(unsigned char m = 0; m < 2; m++)
 621              		.loc 1 129 10 is_stmt 1 view .LVU176
 129:./app/peripheral/src/OLED_Function.c **** 					for(unsigned char m = 0; m < 2; m++)
 622              		.loc 1 129 12 is_stmt 0 view .LVU177
 623 0118 8242     		cmp	r2, r0
 624 011a F1D1     		bne	.L41
 129:./app/peripheral/src/OLED_Function.c **** 					for(unsigned char m = 0; m < 2; m++)
 625              		.loc 1 129 46 discriminator 1 view .LVU178
 626 011c 2028     		cmp	r0, #32
 627 011e EFD1     		bne	.L41
 628              	.LBB26:
 130:./app/peripheral/src/OLED_Function.c **** 					{
 629              		.loc 1 130 24 view .LVU179
 630 0120 4FF0000B 		mov	fp, #0
 631 0124 E0E7     		b	.L42
 632              	.LVL70:
 633              	.L48:
 130:./app/peripheral/src/OLED_Function.c **** 					{
 634              		.loc 1 130 24 view .LVU180
 635              	.LBE26:
 636              	.LBE15:
  99:./app/peripheral/src/OLED_Function.c **** 		
 637              		.loc 1 99 12 view .LVU181
 638 0126 4FF0000A 		mov	r10, #0
 639              	.LVL71:
 640              	.L31:
 101:./app/peripheral/src/OLED_Function.c **** 		{
 641              		.loc 1 101 17 is_stmt 1 view .LVU182
 101:./app/peripheral/src/OLED_Function.c **** 		{
 642              		.loc 1 101 11 is_stmt 0 view .LVU183
 643 012a 5446     		mov	r4, r10
 644 012c 19F80A00 		ldrb	r0, [r9, r10]	@ zero_extendqisi2
 101:./app/peripheral/src/OLED_Function.c **** 		{
 645              		.loc 1 101 17 view .LVU184
 646 0130 0028     		cmp	r0, #0
 647 0132 3FF472AF 		beq	.L30
 103:./app/peripheral/src/OLED_Function.c **** 			{
 648              		.loc 1 103 4 is_stmt 1 view .LVU185
 103:./app/peripheral/src/OLED_Function.c **** 			{
 649              		.loc 1 103 6 is_stmt 0 view .LVU186
 650 0136 B8F17E0F 		cmp	r8, #126
 651 013a 03DC     		bgt	.L32
 103:./app/peripheral/src/OLED_Function.c **** 			{
 652              		.loc 1 103 23 discriminator 1 view .LVU187
 653 013c C8F17F03 		rsb	r3, r8, #127
 103:./app/peripheral/src/OLED_Function.c **** 			{
 654              		.loc 1 103 16 discriminator 1 view .LVU188
 655 0140 0F2B     		cmp	r3, #15
 656 0142 08DC     		bgt	.L33
 657              	.L32:
ARM GAS  /tmp/ccNZpAjE.s 			page 18


 105:./app/peripheral/src/OLED_Function.c **** 				y += 16;
 658              		.loc 1 105 5 is_stmt 1 view .LVU189
 659              	.LVL72:
 106:./app/peripheral/src/OLED_Function.c **** 				if(63 - y < 16)	// ä¸è¶³ä»¥æ˜¾ç¤ºä¸€è¡Œæ—¶ä¸æ˜¾ç¤º
 660              		.loc 1 106 5 view .LVU190
 106:./app/peripheral/src/OLED_Function.c **** 				if(63 - y < 16)	// ä¸è¶³ä»¥æ˜¾ç¤ºä¸€è¡Œæ—¶ä¸æ˜¾ç¤º
 661              		.loc 1 106 7 is_stmt 0 view .LVU191
 662 0144 1037     		adds	r7, r7, #16
 663              	.LVL73:
 106:./app/peripheral/src/OLED_Function.c **** 				if(63 - y < 16)	// ä¸è¶³ä»¥æ˜¾ç¤ºä¸€è¡Œæ—¶ä¸æ˜¾ç¤º
 664              		.loc 1 106 7 view .LVU192
 665 0146 3FB2     		sxth	r7, r7
 666              	.LVL74:
 107:./app/peripheral/src/OLED_Function.c **** 					break;
 667              		.loc 1 107 5 is_stmt 1 view .LVU193
 107:./app/peripheral/src/OLED_Function.c **** 					break;
 668              		.loc 1 107 11 is_stmt 0 view .LVU194
 669 0148 C7F13F03 		rsb	r3, r7, #63
 107:./app/peripheral/src/OLED_Function.c **** 					break;
 670              		.loc 1 107 7 view .LVU195
 671 014c 0F2B     		cmp	r3, #15
 672 014e 7FF764AF 		ble	.L30
 105:./app/peripheral/src/OLED_Function.c **** 				y += 16;
 673              		.loc 1 105 7 view .LVU196
 674 0152 4FF00008 		mov	r8, #0
 675              	.LVL75:
 676              	.L33:
 112:./app/peripheral/src/OLED_Function.c **** 			{
 677              		.loc 1 112 4 is_stmt 1 view .LVU197
 678              	.LBB27:
 112:./app/peripheral/src/OLED_Function.c **** 			{
 679              		.loc 1 112 8 view .LVU198
 112:./app/peripheral/src/OLED_Function.c **** 			{
 680              		.loc 1 112 22 is_stmt 0 view .LVU199
 681 0156 0023     		movs	r3, #0
 112:./app/peripheral/src/OLED_Function.c **** 			{
 682              		.loc 1 112 4 view .LVU200
 683 0158 D4E7     		b	.L34
 684              	.L62:
 685 015a 00BF     		.align	2
 686              	.L61:
 687 015c 00000000 		.word	F16x16_CN
 688              	.LBE27:
 689              	.LBE14:
 690              		.cfi_endproc
 691              	.LFE240:
 693              		.section	.text.OLED_ShowBMP,"ax",%progbits
 694              		.align	1
 695              		.global	OLED_ShowBMP
 696              		.syntax unified
 697              		.thumb
 698              		.thumb_func
 700              	OLED_ShowBMP:
 701              	.LVL76:
 702              	.LFB241:
 149:./app/peripheral/src/OLED_Function.c **** 
 150:./app/peripheral/src/OLED_Function.c **** 
ARM GAS  /tmp/ccNZpAjE.s 			page 19


 151:./app/peripheral/src/OLED_Function.c **** /**
 152:./app/peripheral/src/OLED_Function.c ****  * ************************************************************************
 153:./app/peripheral/src/OLED_Function.c ****  * @brief BMPå›¾ç‰‡æ˜¾ç¤ºå‡½æ•°
 154:./app/peripheral/src/OLED_Function.c ****  * 
 155:./app/peripheral/src/OLED_Function.c ****  * @param[in] x0  	èµ·å§‹ç‚¹æ¨ªåæ ‡ï¼ˆ0~127ï¼‰
 156:./app/peripheral/src/OLED_Function.c ****  * @param[in] y0  	èµ·å§‹ç‚¹çºµåæ ‡ï¼ˆ0~63ï¼‰
 157:./app/peripheral/src/OLED_Function.c ****  * @param[in] L  	BMPå›¾ç‰‡å®½åº¦
 158:./app/peripheral/src/OLED_Function.c ****  * @param[in] H  	BMPå›¾ç‰‡é«˜åº¦
 159:./app/peripheral/src/OLED_Function.c ****  * @param[in] BMP  	å›¾ç‰‡å–æ¨¡åœ°å€
 160:./app/peripheral/src/OLED_Function.c ****  * 
 161:./app/peripheral/src/OLED_Function.c ****  * @example OLED_ShowBMP(0,0,52,48,(unsigned char *)astronaut_0);
 162:./app/peripheral/src/OLED_Function.c ****  * ************************************************************************
 163:./app/peripheral/src/OLED_Function.c ****  */
 164:./app/peripheral/src/OLED_Function.c **** void OLED_ShowBMP(signed short int x0,signed short int y0,signed short int L,signed short int H,con
 165:./app/peripheral/src/OLED_Function.c **** {
 703              		.loc 1 165 1 is_stmt 1 view -0
 704              		.cfi_startproc
 705              		@ args = 4, pretend = 0, frame = 0
 706              		@ frame_needed = 0, uses_anonymous_args = 0
 707              		.loc 1 165 1 is_stmt 0 view .LVU202
 708 0000 2DE9F047 		push	{r4, r5, r6, r7, r8, r9, r10, lr}
 709              	.LCFI2:
 710              		.cfi_def_cfa_offset 32
 711              		.cfi_offset 4, -32
 712              		.cfi_offset 5, -28
 713              		.cfi_offset 6, -24
 714              		.cfi_offset 7, -20
 715              		.cfi_offset 8, -16
 716              		.cfi_offset 9, -12
 717              		.cfi_offset 10, -8
 718              		.cfi_offset 14, -4
 719 0004 0F46     		mov	r7, r1
 720 0006 089E     		ldr	r6, [sp, #32]
 166:./app/peripheral/src/OLED_Function.c **** 	if (x0 >= 0 && x0 < SCREEN_COLUMN && x0+L <= SCREEN_ROW &&\
 721              		.loc 1 166 2 is_stmt 1 view .LVU203
 722              		.loc 1 166 14 is_stmt 0 view .LVU204
 723 0008 81B2     		uxth	r1, r0
 724              	.LVL77:
 725              		.loc 1 166 5 view .LVU205
 726 000a 7F29     		cmp	r1, #127
 727 000c 0ED8     		bhi	.L64
 728 000e 8146     		mov	r9, r0
 729              		.loc 1 166 41 discriminator 1 view .LVU206
 730 0010 00EB0208 		add	r8, r0, r2
 731              		.loc 1 166 36 discriminator 1 view .LVU207
 732 0014 B8F1400F 		cmp	r8, #64
 733 0018 08DC     		bgt	.L64
 734              		.loc 1 166 58 discriminator 2 view .LVU208
 735 001a 002F     		cmp	r7, #0
 736 001c 06DB     		blt	.L64
 167:./app/peripheral/src/OLED_Function.c **** 		y0 >= 0 && y0 < SCREEN_COLUMN && y0+H <= SCREEN_ROW) {
 737              		.loc 1 167 11 view .LVU209
 738 001e 7F2F     		cmp	r7, #127
 739 0020 04DC     		bgt	.L64
 740              		.loc 1 167 38 discriminator 1 view .LVU210
 741 0022 07EB030A 		add	r10, r7, r3
 742              		.loc 1 167 33 discriminator 1 view .LVU211
ARM GAS  /tmp/ccNZpAjE.s 			page 20


 743 0026 BAF1400F 		cmp	r10, #64
 744 002a 1ADD     		ble	.L65
 745              	.LVL78:
 746              	.L64:
 168:./app/peripheral/src/OLED_Function.c **** 		
 169:./app/peripheral/src/OLED_Function.c **** 		unsigned char *p = (unsigned char *)BMP;
 170:./app/peripheral/src/OLED_Function.c **** 		for(signed short int y = y0; y < y0+H; y+=8)
 171:./app/peripheral/src/OLED_Function.c **** 		{
 172:./app/peripheral/src/OLED_Function.c **** 			for(signed short int x = x0; x < x0+L; x++)
 173:./app/peripheral/src/OLED_Function.c **** 			{
 174:./app/peripheral/src/OLED_Function.c **** 				for(signed short int i = 0; i < 8; i++)
 175:./app/peripheral/src/OLED_Function.c **** 				{
 176:./app/peripheral/src/OLED_Function.c **** 					OLED_SetPixel(x, y+i, ((*p) >> i) & 0x01);
 177:./app/peripheral/src/OLED_Function.c **** 				}
 178:./app/peripheral/src/OLED_Function.c **** 				p++;
 179:./app/peripheral/src/OLED_Function.c **** 			}
 180:./app/peripheral/src/OLED_Function.c **** 		}
 181:./app/peripheral/src/OLED_Function.c **** 	}
 182:./app/peripheral/src/OLED_Function.c **** 
 183:./app/peripheral/src/OLED_Function.c **** 	OLED_RefreshRAM();
 747              		.loc 1 183 2 is_stmt 1 view .LVU212
 748 002c FFF7FEFF 		bl	OLED_RefreshRAM
 749              	.LVL79:
 184:./app/peripheral/src/OLED_Function.c **** }
 750              		.loc 1 184 1 is_stmt 0 view .LVU213
 751 0030 BDE8F087 		pop	{r4, r5, r6, r7, r8, r9, r10, pc}
 752              	.LVL80:
 753              	.L66:
 754              	.LBB28:
 755              	.LBB29:
 756              	.LBB30:
 757              	.LBB31:
 176:./app/peripheral/src/OLED_Function.c **** 				}
 758              		.loc 1 176 6 is_stmt 1 view .LVU214
 176:./app/peripheral/src/OLED_Function.c **** 				}
 759              		.loc 1 176 24 is_stmt 0 view .LVU215
 760 0034 9CB2     		uxth	r4, r3
 761 0036 E119     		adds	r1, r4, r7
 176:./app/peripheral/src/OLED_Function.c **** 				}
 762              		.loc 1 176 30 view .LVU216
 763 0038 3278     		ldrb	r2, [r6]	@ zero_extendqisi2
 176:./app/peripheral/src/OLED_Function.c **** 				}
 764              		.loc 1 176 34 view .LVU217
 765 003a 1A41     		asrs	r2, r2, r3
 176:./app/peripheral/src/OLED_Function.c **** 				}
 766              		.loc 1 176 6 view .LVU218
 767 003c 02F00102 		and	r2, r2, #1
 768 0040 09B2     		sxth	r1, r1
 769 0042 2846     		mov	r0, r5
 770 0044 FFF7FEFF 		bl	OLED_SetPixel
 771              	.LVL81:
 174:./app/peripheral/src/OLED_Function.c **** 				{
 772              		.loc 1 174 41 is_stmt 1 discriminator 3 view .LVU219
 773 0048 0134     		adds	r4, r4, #1
 774              	.LVL82:
 174:./app/peripheral/src/OLED_Function.c **** 				{
 775              		.loc 1 174 41 is_stmt 0 discriminator 3 view .LVU220
ARM GAS  /tmp/ccNZpAjE.s 			page 21


 776 004a 23B2     		sxth	r3, r4
 777              	.LVL83:
 778              	.L67:
 174:./app/peripheral/src/OLED_Function.c **** 				{
 779              		.loc 1 174 35 is_stmt 1 discriminator 1 view .LVU221
 780 004c 072B     		cmp	r3, #7
 781 004e F1DD     		ble	.L66
 782              	.LBE31:
 178:./app/peripheral/src/OLED_Function.c **** 			}
 783              		.loc 1 178 5 view .LVU222
 178:./app/peripheral/src/OLED_Function.c **** 			}
 784              		.loc 1 178 6 is_stmt 0 view .LVU223
 785 0050 0136     		adds	r6, r6, #1
 786              	.LVL84:
 172:./app/peripheral/src/OLED_Function.c **** 			{
 787              		.loc 1 172 44 is_stmt 1 discriminator 2 view .LVU224
 788 0052 0135     		adds	r5, r5, #1
 789              	.LVL85:
 172:./app/peripheral/src/OLED_Function.c **** 			{
 790              		.loc 1 172 44 is_stmt 0 discriminator 2 view .LVU225
 791 0054 2DB2     		sxth	r5, r5
 792              	.LVL86:
 793              	.L68:
 172:./app/peripheral/src/OLED_Function.c **** 			{
 794              		.loc 1 172 35 is_stmt 1 discriminator 1 view .LVU226
 795 0056 A845     		cmp	r8, r5
 796 0058 01DD     		ble	.L72
 797              	.LBB32:
 174:./app/peripheral/src/OLED_Function.c **** 				{
 798              		.loc 1 174 26 is_stmt 0 view .LVU227
 799 005a 0023     		movs	r3, #0
 800 005c F6E7     		b	.L67
 801              	.L72:
 802              	.LBE32:
 803              	.LBE30:
 170:./app/peripheral/src/OLED_Function.c **** 		{
 804              		.loc 1 170 43 is_stmt 1 discriminator 2 view .LVU228
 805 005e 0837     		adds	r7, r7, #8
 806              	.LVL87:
 170:./app/peripheral/src/OLED_Function.c **** 		{
 807              		.loc 1 170 43 is_stmt 0 discriminator 2 view .LVU229
 808 0060 3FB2     		sxth	r7, r7
 809              	.LVL88:
 810              	.L65:
 170:./app/peripheral/src/OLED_Function.c **** 		{
 811              		.loc 1 170 34 is_stmt 1 discriminator 1 view .LVU230
 812 0062 BA45     		cmp	r10, r7
 813 0064 E2DD     		ble	.L64
 814              	.LBB33:
 172:./app/peripheral/src/OLED_Function.c **** 			{
 815              		.loc 1 172 25 is_stmt 0 view .LVU231
 816 0066 4D46     		mov	r5, r9
 817 0068 F5E7     		b	.L68
 818              	.LBE33:
 819              	.LBE29:
 820              	.LBE28:
 821              		.cfi_endproc
ARM GAS  /tmp/ccNZpAjE.s 			page 22


 822              	.LFE241:
 824              		.section	.rodata.F16x16_CN,"a"
 825              		.align	2
 828              	F16x16_CN:
 829 0000 E5B5     		.ascii	"\345\265"
 830 0002 8080EE88 		.ascii	"\200\200\356\210\210\210\350\217\010\210xHN@\300\000"
 830      8888E88F 
 830      08887848 
 830      4E40C000 
 831 0012 00007F24 		.ascii	"\000\000\177$$$\177\000\201@0\0170A\200\000"
 831      24247F00 
 831      8140300F 
 831      30418000 
 832 0022 E585     		.ascii	"\345\205"
 833 0024 00000000 		.ascii	"\000\000\000\000\000\001\342\034\340\000\000\000\000"
 833      0001E21C 
 833      E0000000 
 833      00
 834 0031 00000080 		.ascii	"\000\000\000\200@ \020\014\003\000\000\000\003\0140"
 834      4020100C 
 834      03000000 
 834      030C30
 835 0040 40808000 		.ascii	"@\200\200\000"
 836 0044 E5BC     		.ascii	"\345\274"
 837 0046 10109090 		.ascii	"\020\020\220\220\220\220\220\020\020\377\020\020\021"
 837      90909010 
 837      10FF1010 
 837      11
 838 0053 16100000 		.ascii	"\026\020\000\000 ` ?\020\020\020\000\003\014\020 @\370"
 838      2060203F 
 838      10101000 
 838      030C1020 
 838      40F8
 839 0065 00       		.ascii	"\000"
 840 0066 E5AD     		.ascii	"\345\255"
 841 0068 40301196 		.ascii	"@0\021\226\220\220\221\226\220\220\230\024\023P0\000"
 841      90909196 
 841      90909814 
 841      13503000 
 842 0078 04040404 		.ascii	"\004\004\004\004\004D\204~\006\005\004\004\004\004\004"
 842      0444847E 
 842      06050404 
 842      040404
 843 0087 00       		.ascii	"\000"
 844 0088 E4B9     		.ascii	"\344\271"
 845 008a 00020202 		.ascii	"\000\002\002\002\022\"\302\002\002\002\002\002\376\000"
 845      1222C202 
 845      02020202 
 845      FE00
 846 0098 00000008 		.ascii	"\000\000\000\010\030\010\004\004\004\002\002A\201@?"
 846      18080404 
 846      04020241 
 846      81403F
 847 00a7 000000   		.ascii	"\000\000\000"
 848              		.section	.rodata.F8X16,"a"
 849              		.align	2
 852              	F8X16:
ARM GAS  /tmp/ccNZpAjE.s 			page 23


 853 0000 00000000 		.ascii	"\000\000\000\000\000\000\000\000\000\000\000\000\000"
 853      00000000 
 853      00000000 
 853      00
 854 000d 000000   		.ascii	"\000\000\000"
 855 0010 000000F8 		.ascii	"\000\000\000\370\000\000\000\000\000\000\00030\000\000"
 855      00000000 
 855      00000033 
 855      300000
 856 001f 00       		.ascii	"\000"
 857 0020 00100C06 		.ascii	"\000\020\014\006\020\014\006\000\000\000\000\000\000"
 857      100C0600 
 857      00000000 
 857      00
 858 002d 000000   		.ascii	"\000\000\000"
 859 0030 40C07840 		.ascii	"@\300x@\300x@\000\004?\004\004?\004\004\000"
 859      C0784000 
 859      043F0404 
 859      3F040400 
 860 0040 007088FC 		.ascii	"\000p\210\374\0100\000\000\000\030 \377!\036\000\000"
 860      08300000 
 860      001820FF 
 860      211E0000 
 861 0050 F008F000 		.ascii	"\360\010\360\000\340\030\000\000\000!\034\003\036!\036"
 861      E0180000 
 861      00211C03 
 861      1E211E
 862 005f 00       		.ascii	"\000"
 863 0060 00F00888 		.ascii	"\000\360\010\210p\000\000\000\036!#$\031'!\020"
 863      70000000 
 863      1E212324 
 863      19272110 
 864 0070 10160E00 		.ascii	"\020\026\016\000\000\000\000\000\000\000\000\000\000"
 864      00000000 
 864      00000000 
 864      00
 865 007d 000000   		.ascii	"\000\000\000"
 866 0080 000000E0 		.ascii	"\000\000\000\340\030\004\002\000\000\000\000\007\030"
 866      18040200 
 866      00000007 
 866      18
 867 008d 204000   		.ascii	" @\000"
 868 0090 00020418 		.ascii	"\000\002\004\030\340\000\000\000\000@ \030\007\000\000"
 868      E0000000 
 868      00402018 
 868      070000
 869 009f 00       		.ascii	"\000"
 870 00a0 404080F0 		.ascii	"@@\200\360\200@@\000\002\002\001\017\001\002\002\000"
 870      80404000 
 870      0202010F 
 870      01020200 
 871 00b0 000000F0 		.ascii	"\000\000\000\360\000\000\000\000\001\001\001\037\001"
 871      00000000 
 871      0101011F 
 871      01
 872 00bd 010100   		.ascii	"\001\001\000"
 873 00c0 00000000 		.ascii	"\000\000\000\000\000\000\000\000\200\260p\000\000\000"
ARM GAS  /tmp/ccNZpAjE.s 			page 24


 873      00000000 
 873      80B07000 
 873      0000
 874 00ce 0000     		.ascii	"\000\000"
 875 00d0 00000000 		.ascii	"\000\000\000\000\000\000\000\000\000\001\001\001\001"
 875      00000000 
 875      00010101 
 875      01
 876 00dd 010101   		.ascii	"\001\001\001"
 877 00e0 00000000 		.ascii	"\000\000\000\000\000\000\000\000\00000\000\000\000\000"
 877      00000000 
 877      00303000 
 877      000000
 878 00ef 00       		.ascii	"\000"
 879 00f0 00000000 		.ascii	"\000\000\000\000\200`\030\004\000`\030\006\001\000\000"
 879      80601804 
 879      00601806 
 879      010000
 880 00ff 00       		.ascii	"\000"
 881 0100 00E01008 		.ascii	"\000\340\020\010\010\020\340\000\000\017\020  \020\017"
 881      0810E000 
 881      000F1020 
 881      20100F
 882 010f 00       		.ascii	"\000"
 883 0110 001010F8 		.ascii	"\000\020\020\370\000\000\000\000\000  ?  \000\000"
 883      00000000 
 883      0020203F 
 883      20200000 
 884 0120 00700808 		.ascii	"\000p\010\010\010\210p\000\0000($\"!0\000"
 884      08887000 
 884      00302824 
 884      22213000 
 885 0130 00300888 		.ascii	"\0000\010\210\210H0\000\000\030   \021\016\000"
 885      88483000 
 885      00182020 
 885      20110E00 
 886 0140 0000C020 		.ascii	"\000\000\300 \020\370\000\000\000\007\004$$?$\000"
 886      10F80000 
 886      00070424 
 886      243F2400 
 887 0150 00F80888 		.ascii	"\000\370\010\210\210\010\010\000\000\031!  \021\016"
 887      88080800 
 887      00192120 
 887      20110E
 888 015f 00       		.ascii	"\000"
 889 0160 00E01088 		.ascii	"\000\340\020\210\210\030\000\000\000\017\021  \021\016"
 889      88180000 
 889      000F1120 
 889      20110E
 890 016f 00       		.ascii	"\000"
 891 0170 00380808 		.ascii	"\0008\010\010\3108\010\000\000\000\000?\000\000\000"
 891      C8380800 
 891      0000003F 
 891      000000
 892 017f 00       		.ascii	"\000"
 893 0180 00708808 		.ascii	"\000p\210\010\010\210p\000\000\034\"!!\"\034\000"
 893      08887000 
ARM GAS  /tmp/ccNZpAjE.s 			page 25


 893      001C2221 
 893      21221C00 
 894 0190 00E01008 		.ascii	"\000\340\020\010\010\020\340\000\000\0001\"\"\021\017"
 894      0810E000 
 894      00003122 
 894      22110F
 895 019f 00       		.ascii	"\000"
 896 01a0 000000C0 		.ascii	"\000\000\000\300\300\000\000\000\000\000\00000\000\000"
 896      C0000000 
 896      00000030 
 896      300000
 897 01af 00       		.ascii	"\000"
 898 01b0 00000080 		.ascii	"\000\000\000\200\000\000\000\000\000\000\200`\000\000"
 898      00000000 
 898      00008060 
 898      0000
 899 01be 0000     		.ascii	"\000\000"
 900 01c0 00008040 		.ascii	"\000\000\200@ \020\010\000\000\001\002\004\010\020 "
 900      20100800 
 900      00010204 
 900      081020
 901 01cf 00       		.ascii	"\000"
 902 01d0 40404040 		.ascii	"@@@@@@@\000\004\004\004\004\004\004\004\000"
 902      40404000 
 902      04040404 
 902      04040400 
 903 01e0 00081020 		.ascii	"\000\010\020 @\200\000\000\000 \020\010\004\002\001"
 903      40800000 
 903      00201008 
 903      040201
 904 01ef 00       		.ascii	"\000"
 905 01f0 00704808 		.ascii	"\000pH\010\010\010\360\000\000\000\00006\001\000\000"
 905      0808F000 
 905      00000030 
 905      36010000 
 906 0200 C030C828 		.ascii	"\3000\310(\350\020\340\000\007\030'$#\024\013\000"
 906      E810E000 
 906      07182724 
 906      23140B00 
 907 0210 0000C038 		.ascii	"\000\000\3008\340\000\000\000 <#\002\002'8 "
 907      E0000000 
 907      203C2302 
 907      02273820 
 908 0220 08F88888 		.ascii	"\010\370\210\210\210p\000\000 ?   \021\016\000"
 908      88700000 
 908      203F2020 
 908      20110E00 
 909 0230 C0300808 		.ascii	"\3000\010\010\010\0108\000\007\030   \020\010\000"
 909      08083800 
 909      07182020 
 909      20100800 
 910 0240 08F80808 		.ascii	"\010\370\010\010\010\020\340\000 ?   \020\017\000"
 910      0810E000 
 910      203F2020 
 910      20100F00 
 911 0250 08F88888 		.ascii	"\010\370\210\210\350\010\020\000 ?  # \030\000"
 911      E8081000 
ARM GAS  /tmp/ccNZpAjE.s 			page 26


 911      203F2020 
 911      23201800 
 912 0260 08F88888 		.ascii	"\010\370\210\210\350\010\020\000 ? \000\003\000\000"
 912      E8081000 
 912      203F2000 
 912      030000
 913 026f 00       		.ascii	"\000"
 914 0270 C0300808 		.ascii	"\3000\010\010\0108\000\000\007\030  \"\036\002\000"
 914      08380000 
 914      07182020 
 914      221E0200 
 915 0280 08F80800 		.ascii	"\010\370\010\000\000\010\370\010 ?!\001\001!? "
 915      0008F808 
 915      203F2101 
 915      01213F20 
 916 0290 000808F8 		.ascii	"\000\010\010\370\010\010\000\000\000  ?  \000\000"
 916      08080000 
 916      0020203F 
 916      20200000 
 917 02a0 00000808 		.ascii	"\000\000\010\010\370\010\010\000\300\200\200\200\177"
 917      F8080800 
 917      C0808080 
 917      7F
 918 02ad 000000   		.ascii	"\000\000\000"
 919 02b0 08F888C0 		.ascii	"\010\370\210\300(\030\010\000 ? \001&8 \000"
 919      28180800 
 919      203F2001 
 919      26382000 
 920 02c0 08F80800 		.ascii	"\010\370\010\000\000\000\000\000 ?    0\000"
 920      00000000 
 920      203F2020 
 920      20203000 
 921 02d0 08F8F800 		.ascii	"\010\370\370\000\370\370\010\000 ?\000?\000? \000"
 921      F8F80800 
 921      203F003F 
 921      003F2000 
 922 02e0 08F830C0 		.ascii	"\010\3700\300\000\010\370\010 ? \000\007\030?\000"
 922      0008F808 
 922      203F2000 
 922      07183F00 
 923 02f0 E0100808 		.ascii	"\340\020\010\010\010\020\340\000\017\020   \020\017"
 923      0810E000 
 923      0F102020 
 923      20100F
 924 02ff 00       		.ascii	"\000"
 925 0300 08F80808 		.ascii	"\010\370\010\010\010\010\360\000 ?!\001\001\001\000"
 925      0808F000 
 925      203F2101 
 925      010100
 926 030f 00       		.ascii	"\000"
 927 0310 E0100808 		.ascii	"\340\020\010\010\010\020\340\000\017\030$$8PO\000"
 927      0810E000 
 927      0F182424 
 927      38504F00 
 928 0320 08F88888 		.ascii	"\010\370\210\210\210\210p\000 ? \000\003\0140 "
 928      88887000 
 928      203F2000 
ARM GAS  /tmp/ccNZpAjE.s 			page 27


 928      030C3020 
 929 0330 00708808 		.ascii	"\000p\210\010\010\0108\000\0008 !!\"\034\000"
 929      08083800 
 929      00382021 
 929      21221C00 
 930 0340 180808F8 		.ascii	"\030\010\010\370\010\010\030\000\000\000 ? \000\000"
 930      08081800 
 930      0000203F 
 930      200000
 931 034f 00       		.ascii	"\000"
 932 0350 08F80800 		.ascii	"\010\370\010\000\000\010\370\010\000\037    \037\000"
 932      0008F808 
 932      001F2020 
 932      20201F00 
 933 0360 08788800 		.ascii	"\010x\210\000\000\3108\010\000\000\0078\016\001\000"
 933      00C83808 
 933      00000738 
 933      0E0100
 934 036f 00       		.ascii	"\000"
 935 0370 F80800F8 		.ascii	"\370\010\000\370\000\010\370\000\003<\007\000\007<\003"
 935      0008F800 
 935      033C0700 
 935      073C03
 936 037f 00       		.ascii	"\000"
 937 0380 08186880 		.ascii	"\010\030h\200\200h\030\010 0,\003\003,0 "
 937      80681808 
 937      20302C03 
 937      032C3020 
 938 0390 0838C800 		.ascii	"\0108\310\000\3108\010\000\000\000 ? \000\000\000"
 938      C8380800 
 938      0000203F 
 938      20000000 
 939 03a0 10080808 		.ascii	"\020\010\010\010\3108\010\000 8&!  \030\000"
 939      C8380800 
 939      20382621 
 939      20201800 
 940 03b0 000000FE 		.ascii	"\000\000\000\376\002\002\002\000\000\000\000\177@@@"
 940      02020200 
 940      0000007F 
 940      404040
 941 03bf 00       		.ascii	"\000"
 942 03c0 000C30C0 		.ascii	"\000\0140\300\000\000\000\000\000\000\000\001\0068\300"
 942      00000000 
 942      00000001 
 942      0638C0
 943 03cf 00       		.ascii	"\000"
 944 03d0 00020202 		.ascii	"\000\002\002\002\376\000\000\000\000@@@\177\000\000"
 944      FE000000 
 944      00404040 
 944      7F0000
 945 03df 00       		.ascii	"\000"
 946 03e0 00000402 		.ascii	"\000\000\004\002\002\002\004\000\000\000\000\000\000"
 946      02020400 
 946      00000000 
 946      00
 947 03ed 000000   		.ascii	"\000\000\000"
 948 03f0 00000000 		.ascii	"\000\000\000\000\000\000\000\000\200\200\200\200\200"
ARM GAS  /tmp/ccNZpAjE.s 			page 28


 948      00000000 
 948      80808080 
 948      80
 949 03fd 808080   		.ascii	"\200\200\200"
 950 0400 00020204 		.ascii	"\000\002\002\004\000\000\000\000\000\000\000\000\000"
 950      00000000 
 950      00000000 
 950      00
 951 040d 000000   		.ascii	"\000\000\000"
 952 0410 00008080 		.ascii	"\000\000\200\200\200\200\000\000\000\031$\"\"\"? "
 952      80800000 
 952      00192422 
 952      22223F20 
 953 0420 08F80080 		.ascii	"\010\370\000\200\200\000\000\000\000?\021  \021\016"
 953      80000000 
 953      003F1120 
 953      20110E
 954 042f 00       		.ascii	"\000"
 955 0430 00000080 		.ascii	"\000\000\000\200\200\200\000\000\000\016\021   \021"
 955      80800000 
 955      000E1120 
 955      202011
 956 043f 00       		.ascii	"\000"
 957 0440 00000080 		.ascii	"\000\000\000\200\200\210\370\000\000\016\021  \020?"
 957      8088F800 
 957      000E1120 
 957      20103F
 958 044f 20       		.ascii	" "
 959 0450 00008080 		.ascii	"\000\000\200\200\200\200\000\000\000\037\"\"\"\"\023"
 959      80800000 
 959      001F2222 
 959      222213
 960 045f 00       		.ascii	"\000"
 961 0460 008080F0 		.ascii	"\000\200\200\360\210\210\210\030\000  ?  \000\000"
 961      88888818 
 961      0020203F 
 961      20200000 
 962 0470 00008080 		.ascii	"\000\000\200\200\200\200\200\000\000k\224\224\224\223"
 962      80808000 
 962      006B9494 
 962      9493
 963 047e 6000     		.ascii	"`\000"
 964 0480 08F80080 		.ascii	"\010\370\000\200\200\200\000\000 ?!\000\000 ? "
 964      80800000 
 964      203F2100 
 964      00203F20 
 965 0490 00809898 		.ascii	"\000\200\230\230\000\000\000\000\000  ?  \000\000"
 965      00000000 
 965      0020203F 
 965      20200000 
 966 04a0 00000080 		.ascii	"\000\000\000\200\230\230\000\000\000\300\200\200\200"
 966      98980000 
 966      00C08080 
 966      80
 967 04ad 7F0000   		.ascii	"\177\000\000"
 968 04b0 08F80000 		.ascii	"\010\370\000\000\200\200\200\000 ?$\002-0 \000"
 968      80808000 
ARM GAS  /tmp/ccNZpAjE.s 			page 29


 968      203F2402 
 968      2D302000 
 969 04c0 000808F8 		.ascii	"\000\010\010\370\000\000\000\000\000  ?  \000\000"
 969      00000000 
 969      0020203F 
 969      20200000 
 970 04d0 80808080 		.ascii	"\200\200\200\200\200\200\200\000 ? \000? \000?"
 970      80808000 
 970      203F2000 
 970      3F20003F 
 971 04e0 80800080 		.ascii	"\200\200\000\200\200\200\000\000 ?!\000\000 ? "
 971      80800000 
 971      203F2100 
 971      00203F20 
 972 04f0 00008080 		.ascii	"\000\000\200\200\200\200\000\000\000\037    \037\000"
 972      80800000 
 972      001F2020 
 972      20201F00 
 973 0500 80800080 		.ascii	"\200\200\000\200\200\000\000\000\200\377\241  \021\016"
 973      80000000 
 973      80FFA120 
 973      20110E
 974 050f 00       		.ascii	"\000"
 975 0510 00000080 		.ascii	"\000\000\000\200\200\200\200\000\000\016\021  \240\377"
 975      80808000 
 975      000E1120 
 975      20A0FF
 976 051f 80       		.ascii	"\200"
 977 0520 80808000 		.ascii	"\200\200\200\000\200\200\200\000  ?! \000\001\000"
 977      80808000 
 977      20203F21 
 977      20000100 
 978 0530 00008080 		.ascii	"\000\000\200\200\200\200\200\000\0003$$$$\031\000"
 978      80808000 
 978      00332424 
 978      24241900 
 979 0540 008080E0 		.ascii	"\000\200\200\340\200\200\000\000\000\000\000\037  \000"
 979      80800000 
 979      0000001F 
 979      202000
 980 054f 00       		.ascii	"\000"
 981 0550 80800000 		.ascii	"\200\200\000\000\000\200\200\000\000\037   \020? "
 981      00808000 
 981      001F2020 
 981      20103F20 
 982 0560 80808000 		.ascii	"\200\200\200\000\000\200\200\200\000\001\0160\010\006"
 982      00808080 
 982      00010E30 
 982      0806
 983 056e 0100     		.ascii	"\001\000"
 984 0570 80800080 		.ascii	"\200\200\000\200\000\200\200\200\0170\014\003\0140\017"
 984      00808080 
 984      0F300C03 
 984      0C300F
 985 057f 00       		.ascii	"\000"
 986 0580 00808000 		.ascii	"\000\200\200\000\200\200\200\000\000 1.\0161 \000"
 986      80808000 
ARM GAS  /tmp/ccNZpAjE.s 			page 30


 986      0020312E 
 986      0E312000 
 987 0590 80808000 		.ascii	"\200\200\200\000\000\200\200\200\200\201\216p\030\006"
 987      00808080 
 987      80818E70 
 987      1806
 988 059e 0100     		.ascii	"\001\000"
 989 05a0 00808080 		.ascii	"\000\200\200\200\200\200\200\000\000!0,\"!0\000"
 989      80808000 
 989      0021302C 
 989      22213000 
 990 05b0 00000000 		.ascii	"\000\000\000\000\200|\002\002\000\000\000\000\000?@"
 990      807C0202 
 990      00000000 
 990      003F40
 991 05bf 40       		.ascii	"@"
 992 05c0 00000000 		.ascii	"\000\000\000\000\377\000\000\000\000\000\000\000\377"
 992      FF000000 
 992      00000000 
 992      FF
 993 05cd 000000   		.ascii	"\000\000\000"
 994 05d0 0002027C 		.ascii	"\000\002\002|\200\000\000\000\000@@?\000\000\000\000"
 994      80000000 
 994      0040403F 
 994      00000000 
 995 05e0 00060101 		.ascii	"\000\006\001\001\002\002\004\004\000\000\000\000\000"
 995      02020404 
 995      00000000 
 995      00
 996 05ed 000000   		.ascii	"\000\000\000"
 997              		.section	.rodata.F6x8,"a"
 998              		.align	2
 1001              	F6x8:
 1002 0000 00000000 		.ascii	"\000\000\000\000\000\000"
 1002      0000
 1003 0006 0000002F 		.ascii	"\000\000\000/\000\000"
 1003      0000
 1004 000c 00000700 		.ascii	"\000\000\007\000\007\000"
 1004      0700
 1005 0012 00147F14 		.ascii	"\000\024\177\024\177\024"
 1005      7F14
 1006 0018 00242A7F 		.ascii	"\000$*\177*\022"
 1006      2A12
 1007 001e 00626408 		.ascii	"\000bd\010\023#"
 1007      1323
 1008 0024 00364955 		.ascii	"\0006IU\"P"
 1008      2250
 1009 002a 00000503 		.ascii	"\000\000\005\003\000\000"
 1009      0000
 1010 0030 00001C22 		.ascii	"\000\000\034\"A\000"
 1010      4100
 1011 0036 00004122 		.ascii	"\000\000A\"\034\000"
 1011      1C00
 1012 003c 0014083E 		.ascii	"\000\024\010>\010\024"
 1012      0814
 1013 0042 0008083E 		.ascii	"\000\010\010>\010\010"
 1013      0808
ARM GAS  /tmp/ccNZpAjE.s 			page 31


 1014 0048 000000A0 		.ascii	"\000\000\000\240`\000"
 1014      6000
 1015 004e 00080808 		.ascii	"\000\010\010\010\010\010"
 1015      0808
 1016 0054 00006060 		.ascii	"\000\000``\000\000"
 1016      0000
 1017 005a 00201008 		.ascii	"\000 \020\010\004\002"
 1017      0402
 1018 0060 003E5149 		.ascii	"\000>QIE>"
 1018      453E
 1019 0066 0000427F 		.ascii	"\000\000B\177@\000"
 1019      4000
 1020 006c 00426151 		.ascii	"\000BaQIF"
 1020      4946
 1021 0072 00214145 		.ascii	"\000!AEK1"
 1021      4B31
 1022 0078 00181412 		.ascii	"\000\030\024\022\177\020"
 1022      7F10
 1023 007e 00274545 		.ascii	"\000'EEE9"
 1023      4539
 1024 0084 003C4A49 		.ascii	"\000<JII0"
 1024      4930
 1025 008a 00017109 		.ascii	"\000\001q\011\005\003"
 1025      0503
 1026 0090 00364949 		.ascii	"\0006III6"
 1026      4936
 1027 0096 00064949 		.ascii	"\000\006II)\036"
 1027      291E
 1028 009c 00003636 		.ascii	"\000\00066\000\000"
 1028      0000
 1029 00a2 00005636 		.ascii	"\000\000V6\000\000"
 1029      0000
 1030 00a8 00081422 		.ascii	"\000\010\024\"A\000"
 1030      4100
 1031 00ae 00141414 		.ascii	"\000\024\024\024\024\024"
 1031      1414
 1032 00b4 00004122 		.ascii	"\000\000A\"\024\010"
 1032      1408
 1033 00ba 00020151 		.ascii	"\000\002\001Q\011\006"
 1033      0906
 1034 00c0 00324959 		.ascii	"\0002IYQ>"
 1034      513E
 1035 00c6 007C1211 		.ascii	"\000|\022\021\022|"
 1035      127C
 1036 00cc 007F4949 		.ascii	"\000\177III6"
 1036      4936
 1037 00d2 003E4141 		.ascii	"\000>AAA\""
 1037      4122
 1038 00d8 007F4141 		.ascii	"\000\177AA\"\034"
 1038      221C
 1039 00de 007F4949 		.ascii	"\000\177IIIA"
 1039      4941
 1040 00e4 007F0909 		.ascii	"\000\177\011\011\011\001"
 1040      0901
 1041 00ea 003E4149 		.ascii	"\000>AIIz"
 1041      497A
 1042 00f0 007F0808 		.ascii	"\000\177\010\010\010\177"
ARM GAS  /tmp/ccNZpAjE.s 			page 32


 1042      087F
 1043 00f6 0000417F 		.ascii	"\000\000A\177A\000"
 1043      4100
 1044 00fc 00204041 		.ascii	"\000 @A?\001"
 1044      3F01
 1045 0102 007F0814 		.ascii	"\000\177\010\024\"A"
 1045      2241
 1046 0108 007F4040 		.ascii	"\000\177@@@@"
 1046      4040
 1047 010e 007F020C 		.ascii	"\000\177\002\014\002\177"
 1047      027F
 1048 0114 007F0408 		.ascii	"\000\177\004\010\020\177"
 1048      107F
 1049 011a 003E4141 		.ascii	"\000>AAA>"
 1049      413E
 1050 0120 007F0909 		.ascii	"\000\177\011\011\011\006"
 1050      0906
 1051 0126 003E4151 		.ascii	"\000>AQ!^"
 1051      215E
 1052 012c 007F0919 		.ascii	"\000\177\011\031)F"
 1052      2946
 1053 0132 00464949 		.ascii	"\000FIII1"
 1053      4931
 1054 0138 0001017F 		.ascii	"\000\001\001\177\001\001"
 1054      0101
 1055 013e 003F4040 		.ascii	"\000?@@@?"
 1055      403F
 1056 0144 001F2040 		.ascii	"\000\037 @ \037"
 1056      201F
 1057 014a 003F4038 		.ascii	"\000?@8@?"
 1057      403F
 1058 0150 00631408 		.ascii	"\000c\024\010\024c"
 1058      1463
 1059 0156 00070870 		.ascii	"\000\007\010p\010\007"
 1059      0807
 1060 015c 00615149 		.ascii	"\000aQIEC"
 1060      4543
 1061 0162 00007F41 		.ascii	"\000\000\177AA\000"
 1061      4100
 1062 0168 00552A55 		.ascii	"\000U*U*U"
 1062      2A55
 1063 016e 00004141 		.ascii	"\000\000AA\177\000"
 1063      7F00
 1064 0174 00040201 		.ascii	"\000\004\002\001\002\004"
 1064      0204
 1065 017a 00404040 		.ascii	"\000@@@@@"
 1065      4040
 1066 0180 00000102 		.ascii	"\000\000\001\002\004\000"
 1066      0400
 1067 0186 00205454 		.ascii	"\000 TTTx"
 1067      5478
 1068 018c 007F4844 		.ascii	"\000\177HDD8"
 1068      4438
 1069 0192 00384444 		.ascii	"\0008DDD "
 1069      4420
 1070 0198 00384444 		.ascii	"\0008DDH\177"
 1070      487F
ARM GAS  /tmp/ccNZpAjE.s 			page 33


 1071 019e 00385454 		.ascii	"\0008TTT\030"
 1071      5418
 1072 01a4 00087E09 		.ascii	"\000\010~\011\001\002"
 1072      0102
 1073 01aa 0018A4A4 		.ascii	"\000\030\244\244\244|"
 1073      A47C
 1074 01b0 007F0804 		.ascii	"\000\177\010\004\004x"
 1074      0478
 1075 01b6 0000447D 		.ascii	"\000\000D}@\000"
 1075      4000
 1076 01bc 00408084 		.ascii	"\000@\200\204}\000"
 1076      7D00
 1077 01c2 007F1028 		.ascii	"\000\177\020(D\000"
 1077      4400
 1078 01c8 0000417F 		.ascii	"\000\000A\177@\000"
 1078      4000
 1079 01ce 007C0418 		.ascii	"\000|\004\030\004x"
 1079      0478
 1080 01d4 007C0804 		.ascii	"\000|\010\004\004x"
 1080      0478
 1081 01da 00384444 		.ascii	"\0008DDD8"
 1081      4438
 1082 01e0 00FC2424 		.ascii	"\000\374$$$\030"
 1082      2418
 1083 01e6 00182424 		.ascii	"\000\030$$\030\374"
 1083      18FC
 1084 01ec 007C0804 		.ascii	"\000|\010\004\004\010"
 1084      0408
 1085 01f2 00485454 		.ascii	"\000HTTT "
 1085      5420
 1086 01f8 00043F44 		.ascii	"\000\004?D@ "
 1086      4020
 1087 01fe 003C4040 		.ascii	"\000<@@ |"
 1087      207C
 1088 0204 001C2040 		.ascii	"\000\034 @ \034"
 1088      201C
 1089 020a 003C4030 		.ascii	"\000<@0@<"
 1089      403C
 1090 0210 00442810 		.ascii	"\000D(\020(D"
 1090      2844
 1091 0216 001CA0A0 		.ascii	"\000\034\240\240\240|"
 1091      A07C
 1092 021c 00446454 		.ascii	"\000DdTLD"
 1092      4C44
 1093 0222 14141414 		.ascii	"\024\024\024\024\024\024"
 1093      1414
 1094              		.text
 1095              	.Letext0:
 1096              		.file 2 "./app/peripheral/inc/OLED_Front.h"
 1097              		.file 3 "/usr/lib/gcc/arm-none-eabi/13.2.1/include/stdint.h"
 1098              		.file 4 "./app/peripheral/inc/OLED_IIC_Config.h"
ARM GAS  /tmp/ccNZpAjE.s 			page 34

