ARM GAS  /tmp/cc2Ggas6.s 			page 1


   1              		.cpu cortex-m4
   2              		.arch armv7e-m
   3              		.fpu fpv4-sp-d16
   4              		.eabi_attribute 27, 1
   5              		.eabi_attribute 28, 1
   6              		.eabi_attribute 20, 1
   7              		.eabi_attribute 21, 1
   8              		.eabi_attribute 23, 3
   9              		.eabi_attribute 24, 1
  10              		.eabi_attribute 25, 1
  11              		.eabi_attribute 26, 1
  12              		.eabi_attribute 30, 1
  13              		.eabi_attribute 34, 1
  14              		.eabi_attribute 18, 4
  15              		.file	"OLED_IIC_Config.c"
  16              		.text
  17              	.Ltext0:
  18              		.cfi_sections	.debug_frame
  19              		.file 1 "./app/peripheral/src/OLED_IIC_Config.c"
  20              		.section	.text.I2C_WriteByte,"ax",%progbits
  21              		.align	1
  22              		.global	I2C_WriteByte
  23              		.syntax unified
  24              		.thumb
  25              		.thumb_func
  27              	I2C_WriteByte:
  28              	.LVL0:
  29              	.LFB239:
   1:./app/peripheral/src/OLED_IIC_Config.c **** /**
   2:./app/peripheral/src/OLED_IIC_Config.c ****  * ************************************************************************
   3:./app/peripheral/src/OLED_IIC_Config.c ****  * 
   4:./app/peripheral/src/OLED_IIC_Config.c ****  * @file OLED_IIC_Config.c
   5:./app/peripheral/src/OLED_IIC_Config.c ****  * @author zxr
   6:./app/peripheral/src/OLED_IIC_Config.c ****  * @brief IIC初始化配置和OLED屏幕的底层驱动
   7:./app/peripheral/src/OLED_IIC_Config.c ****  * 
   8:./app/peripheral/src/OLED_IIC_Config.c ****  * ************************************************************************
   9:./app/peripheral/src/OLED_IIC_Config.c ****  * @copyright Copyright (c) 2024 zxr 
  10:./app/peripheral/src/OLED_IIC_Config.c ****  * ************************************************************************
  11:./app/peripheral/src/OLED_IIC_Config.c ****  */
  12:./app/peripheral/src/OLED_IIC_Config.c **** #include "OLED_IIC_Config.h"
  13:./app/peripheral/src/OLED_IIC_Config.c **** #include "i2c.h"
  14:./app/peripheral/src/OLED_IIC_Config.c **** 
  15:./app/peripheral/src/OLED_IIC_Config.c **** unsigned char  ScreenBuffer[SCREEN_PAGE_NUM][SCREEN_COLUMN];//定义屏幕的存储空间
  16:./app/peripheral/src/OLED_IIC_Config.c **** 
  17:./app/peripheral/src/OLED_IIC_Config.c **** 
  18:./app/peripheral/src/OLED_IIC_Config.c **** 
  19:./app/peripheral/src/OLED_IIC_Config.c **** /**
  20:./app/peripheral/src/OLED_IIC_Config.c **** * @brief  向OLED寄存器地址写一个byte的数据
  21:./app/peripheral/src/OLED_IIC_Config.c **** * @param  addr：寄存器地址
  22:./app/peripheral/src/OLED_IIC_Config.c **** * @param  data：要写入的数据
  23:./app/peripheral/src/OLED_IIC_Config.c **** * @retval 无
  24:./app/peripheral/src/OLED_IIC_Config.c **** */
  25:./app/peripheral/src/OLED_IIC_Config.c **** void I2C_WriteByte(uint8_t addr, uint8_t data)
  26:./app/peripheral/src/OLED_IIC_Config.c **** {
  30              		.loc 1 26 1 view -0
  31              		.cfi_startproc
  32              		@ args = 0, pretend = 0, frame = 8
ARM GAS  /tmp/cc2Ggas6.s 			page 2


  33              		@ frame_needed = 0, uses_anonymous_args = 0
  34              		.loc 1 26 1 is_stmt 0 view .LVU1
  35 0000 00B5     		push	{lr}
  36              	.LCFI0:
  37              		.cfi_def_cfa_offset 4
  38              		.cfi_offset 14, -4
  39 0002 87B0     		sub	sp, sp, #28
  40              	.LCFI1:
  41              		.cfi_def_cfa_offset 32
  42 0004 0246     		mov	r2, r0
  43 0006 8DF81710 		strb	r1, [sp, #23]
  27:./app/peripheral/src/OLED_IIC_Config.c **** 	extern I2C_HandleTypeDef OLED_IIC_Handler;
  44              		.loc 1 27 2 is_stmt 1 view .LVU2
  28:./app/peripheral/src/OLED_IIC_Config.c **** 	HAL_I2C_Mem_Write(&OLED_IIC_Handler, OLED_ADDRESS, addr, I2C_MEMADD_SIZE_8BIT, &data, 1, 10);
  45              		.loc 1 28 2 view .LVU3
  46 000a 0A23     		movs	r3, #10
  47 000c 0293     		str	r3, [sp, #8]
  48 000e 0123     		movs	r3, #1
  49 0010 0193     		str	r3, [sp, #4]
  50 0012 0DF11701 		add	r1, sp, #23
  51              	.LVL1:
  52              		.loc 1 28 2 is_stmt 0 view .LVU4
  53 0016 0091     		str	r1, [sp]
  54 0018 7821     		movs	r1, #120
  55              	.LVL2:
  56              		.loc 1 28 2 view .LVU5
  57 001a 0348     		ldr	r0, .L3
  58              	.LVL3:
  59              		.loc 1 28 2 view .LVU6
  60 001c FFF7FEFF 		bl	HAL_I2C_Mem_Write
  61              	.LVL4:
  29:./app/peripheral/src/OLED_IIC_Config.c **** }
  62              		.loc 1 29 1 view .LVU7
  63 0020 07B0     		add	sp, sp, #28
  64              	.LCFI2:
  65              		.cfi_def_cfa_offset 4
  66              		@ sp needed
  67 0022 5DF804FB 		ldr	pc, [sp], #4
  68              	.L4:
  69 0026 00BF     		.align	2
  70              	.L3:
  71 0028 00000000 		.word	hi2c2
  72              		.cfi_endproc
  73              	.LFE239:
  75              		.section	.text.WriteCmd,"ax",%progbits
  76              		.align	1
  77              		.global	WriteCmd
  78              		.syntax unified
  79              		.thumb
  80              		.thumb_func
  82              	WriteCmd:
  83              	.LVL5:
  84              	.LFB240:
  30:./app/peripheral/src/OLED_IIC_Config.c **** 
  31:./app/peripheral/src/OLED_IIC_Config.c **** /**
  32:./app/peripheral/src/OLED_IIC_Config.c ****  * ************************************************************************
  33:./app/peripheral/src/OLED_IIC_Config.c ****  * @brief 写命令函数
ARM GAS  /tmp/cc2Ggas6.s 			page 3


  34:./app/peripheral/src/OLED_IIC_Config.c ****  * @param[in] cmd  写入的命令
  35:./app/peripheral/src/OLED_IIC_Config.c ****  * ************************************************************************
  36:./app/peripheral/src/OLED_IIC_Config.c ****  */
  37:./app/peripheral/src/OLED_IIC_Config.c **** void WriteCmd(unsigned char cmd)
  38:./app/peripheral/src/OLED_IIC_Config.c **** {
  85              		.loc 1 38 1 is_stmt 1 view -0
  86              		.cfi_startproc
  87              		@ args = 0, pretend = 0, frame = 0
  88              		@ frame_needed = 0, uses_anonymous_args = 0
  89              		.loc 1 38 1 is_stmt 0 view .LVU9
  90 0000 08B5     		push	{r3, lr}
  91              	.LCFI3:
  92              		.cfi_def_cfa_offset 8
  93              		.cfi_offset 3, -8
  94              		.cfi_offset 14, -4
  95 0002 0146     		mov	r1, r0
  39:./app/peripheral/src/OLED_IIC_Config.c **** 	I2C_WriteByte(0x00, cmd);
  96              		.loc 1 39 2 is_stmt 1 view .LVU10
  97 0004 0020     		movs	r0, #0
  98              	.LVL6:
  99              		.loc 1 39 2 is_stmt 0 view .LVU11
 100 0006 FFF7FEFF 		bl	I2C_WriteByte
 101              	.LVL7:
  40:./app/peripheral/src/OLED_IIC_Config.c **** }
 102              		.loc 1 40 1 view .LVU12
 103 000a 08BD     		pop	{r3, pc}
 104              		.cfi_endproc
 105              	.LFE240:
 107              		.section	.text.WriteDat,"ax",%progbits
 108              		.align	1
 109              		.global	WriteDat
 110              		.syntax unified
 111              		.thumb
 112              		.thumb_func
 114              	WriteDat:
 115              	.LVL8:
 116              	.LFB241:
  41:./app/peripheral/src/OLED_IIC_Config.c **** 
  42:./app/peripheral/src/OLED_IIC_Config.c **** /**
  43:./app/peripheral/src/OLED_IIC_Config.c ****  * ************************************************************************
  44:./app/peripheral/src/OLED_IIC_Config.c ****  * @brief 写数据函数
  45:./app/peripheral/src/OLED_IIC_Config.c ****  * @param[in] dat  写入的数据
  46:./app/peripheral/src/OLED_IIC_Config.c ****  * ************************************************************************
  47:./app/peripheral/src/OLED_IIC_Config.c ****  */
  48:./app/peripheral/src/OLED_IIC_Config.c **** void WriteDat(unsigned char dat)
  49:./app/peripheral/src/OLED_IIC_Config.c **** {
 117              		.loc 1 49 1 is_stmt 1 view -0
 118              		.cfi_startproc
 119              		@ args = 0, pretend = 0, frame = 0
 120              		@ frame_needed = 0, uses_anonymous_args = 0
 121              		.loc 1 49 1 is_stmt 0 view .LVU14
 122 0000 08B5     		push	{r3, lr}
 123              	.LCFI4:
 124              		.cfi_def_cfa_offset 8
 125              		.cfi_offset 3, -8
 126              		.cfi_offset 14, -4
 127 0002 0146     		mov	r1, r0
ARM GAS  /tmp/cc2Ggas6.s 			page 4


  50:./app/peripheral/src/OLED_IIC_Config.c **** 	I2C_WriteByte(0x40, dat);
 128              		.loc 1 50 2 is_stmt 1 view .LVU15
 129 0004 4020     		movs	r0, #64
 130              	.LVL9:
 131              		.loc 1 50 2 is_stmt 0 view .LVU16
 132 0006 FFF7FEFF 		bl	I2C_WriteByte
 133              	.LVL10:
  51:./app/peripheral/src/OLED_IIC_Config.c **** }
 134              		.loc 1 51 1 view .LVU17
 135 000a 08BD     		pop	{r3, pc}
 136              		.cfi_endproc
 137              	.LFE241:
 139              		.section	.text.OLED_ON,"ax",%progbits
 140              		.align	1
 141              		.global	OLED_ON
 142              		.syntax unified
 143              		.thumb
 144              		.thumb_func
 146              	OLED_ON:
 147              	.LFB242:
  52:./app/peripheral/src/OLED_IIC_Config.c **** 
  53:./app/peripheral/src/OLED_IIC_Config.c **** /**
  54:./app/peripheral/src/OLED_IIC_Config.c ****  * ************************************************************************
  55:./app/peripheral/src/OLED_IIC_Config.c ****  * @brief 开启OLED
  56:./app/peripheral/src/OLED_IIC_Config.c ****  * ************************************************************************
  57:./app/peripheral/src/OLED_IIC_Config.c ****  */
  58:./app/peripheral/src/OLED_IIC_Config.c **** void OLED_ON(void)
  59:./app/peripheral/src/OLED_IIC_Config.c **** {
 148              		.loc 1 59 1 is_stmt 1 view -0
 149              		.cfi_startproc
 150              		@ args = 0, pretend = 0, frame = 0
 151              		@ frame_needed = 0, uses_anonymous_args = 0
 152 0000 08B5     		push	{r3, lr}
 153              	.LCFI5:
 154              		.cfi_def_cfa_offset 8
 155              		.cfi_offset 3, -8
 156              		.cfi_offset 14, -4
  60:./app/peripheral/src/OLED_IIC_Config.c **** 	WriteCmd(0X8D);  //设置电荷泵
 157              		.loc 1 60 2 view .LVU19
 158 0002 8D20     		movs	r0, #141
 159 0004 FFF7FEFF 		bl	WriteCmd
 160              	.LVL11:
  61:./app/peripheral/src/OLED_IIC_Config.c **** 	WriteCmd(0X14);  //开启电荷泵
 161              		.loc 1 61 2 view .LVU20
 162 0008 1420     		movs	r0, #20
 163 000a FFF7FEFF 		bl	WriteCmd
 164              	.LVL12:
  62:./app/peripheral/src/OLED_IIC_Config.c **** 	WriteCmd(0XAF);  //OLED唤醒
 165              		.loc 1 62 2 view .LVU21
 166 000e AF20     		movs	r0, #175
 167 0010 FFF7FEFF 		bl	WriteCmd
 168              	.LVL13:
  63:./app/peripheral/src/OLED_IIC_Config.c **** }
 169              		.loc 1 63 1 is_stmt 0 view .LVU22
 170 0014 08BD     		pop	{r3, pc}
 171              		.cfi_endproc
 172              	.LFE242:
ARM GAS  /tmp/cc2Ggas6.s 			page 5


 174              		.section	.text.OLED_OFF,"ax",%progbits
 175              		.align	1
 176              		.global	OLED_OFF
 177              		.syntax unified
 178              		.thumb
 179              		.thumb_func
 181              	OLED_OFF:
 182              	.LFB243:
  64:./app/peripheral/src/OLED_IIC_Config.c **** 
  65:./app/peripheral/src/OLED_IIC_Config.c **** /**
  66:./app/peripheral/src/OLED_IIC_Config.c ****  * ************************************************************************
  67:./app/peripheral/src/OLED_IIC_Config.c ****  * @brief 休眠OLED
  68:./app/peripheral/src/OLED_IIC_Config.c ****  * ************************************************************************
  69:./app/peripheral/src/OLED_IIC_Config.c ****  */
  70:./app/peripheral/src/OLED_IIC_Config.c **** void OLED_OFF(void)
  71:./app/peripheral/src/OLED_IIC_Config.c **** {
 183              		.loc 1 71 1 is_stmt 1 view -0
 184              		.cfi_startproc
 185              		@ args = 0, pretend = 0, frame = 0
 186              		@ frame_needed = 0, uses_anonymous_args = 0
 187 0000 08B5     		push	{r3, lr}
 188              	.LCFI6:
 189              		.cfi_def_cfa_offset 8
 190              		.cfi_offset 3, -8
 191              		.cfi_offset 14, -4
  72:./app/peripheral/src/OLED_IIC_Config.c **** 	WriteCmd(0X8D);  //设置电荷泵
 192              		.loc 1 72 2 view .LVU24
 193 0002 8D20     		movs	r0, #141
 194 0004 FFF7FEFF 		bl	WriteCmd
 195              	.LVL14:
  73:./app/peripheral/src/OLED_IIC_Config.c **** 	WriteCmd(0X10);  //关闭电荷泵
 196              		.loc 1 73 2 view .LVU25
 197 0008 1020     		movs	r0, #16
 198 000a FFF7FEFF 		bl	WriteCmd
 199              	.LVL15:
  74:./app/peripheral/src/OLED_IIC_Config.c **** 	WriteCmd(0XAE);  //OLED休眠
 200              		.loc 1 74 2 view .LVU26
 201 000e AE20     		movs	r0, #174
 202 0010 FFF7FEFF 		bl	WriteCmd
 203              	.LVL16:
  75:./app/peripheral/src/OLED_IIC_Config.c **** }
 204              		.loc 1 75 1 is_stmt 0 view .LVU27
 205 0014 08BD     		pop	{r3, pc}
 206              		.cfi_endproc
 207              	.LFE243:
 209              		.section	.text.OLED_CLS,"ax",%progbits
 210              		.align	1
 211              		.global	OLED_CLS
 212              		.syntax unified
 213              		.thumb
 214              		.thumb_func
 216              	OLED_CLS:
 217              	.LFB244:
  76:./app/peripheral/src/OLED_IIC_Config.c **** 
  77:./app/peripheral/src/OLED_IIC_Config.c **** /**
  78:./app/peripheral/src/OLED_IIC_Config.c ****  * ************************************************************************
  79:./app/peripheral/src/OLED_IIC_Config.c ****  * @brief OLED清屏函数
ARM GAS  /tmp/cc2Ggas6.s 			page 6


  80:./app/peripheral/src/OLED_IIC_Config.c ****  * ************************************************************************
  81:./app/peripheral/src/OLED_IIC_Config.c ****  */
  82:./app/peripheral/src/OLED_IIC_Config.c **** void OLED_CLS(void)//清屏
  83:./app/peripheral/src/OLED_IIC_Config.c **** {
 218              		.loc 1 83 1 is_stmt 1 view -0
 219              		.cfi_startproc
 220              		@ args = 0, pretend = 0, frame = 0
 221              		@ frame_needed = 0, uses_anonymous_args = 0
 222 0000 38B5     		push	{r3, r4, r5, lr}
 223              	.LCFI7:
 224              		.cfi_def_cfa_offset 16
 225              		.cfi_offset 3, -16
 226              		.cfi_offset 4, -12
 227              		.cfi_offset 5, -8
 228              		.cfi_offset 14, -4
  84:./app/peripheral/src/OLED_IIC_Config.c **** 	unsigned char m,n;
 229              		.loc 1 84 2 view .LVU29
  85:./app/peripheral/src/OLED_IIC_Config.c **** 	for(m=0;m<8;m++)
 230              		.loc 1 85 2 view .LVU30
 231              	.LVL17:
 232              		.loc 1 85 7 is_stmt 0 view .LVU31
 233 0002 0025     		movs	r5, #0
 234              		.loc 1 85 2 view .LVU32
 235 0004 09E0     		b	.L14
 236              	.LVL18:
 237              	.L16:
  86:./app/peripheral/src/OLED_IIC_Config.c **** 	{
  87:./app/peripheral/src/OLED_IIC_Config.c **** 		WriteCmd(0xb0+m);	//page0-page1
  88:./app/peripheral/src/OLED_IIC_Config.c **** 		WriteCmd(0x00);		//low column start address
  89:./app/peripheral/src/OLED_IIC_Config.c **** 		WriteCmd(0x10);		//high column start address
  90:./app/peripheral/src/OLED_IIC_Config.c **** 		for(n=0;n<128;n++)
  91:./app/peripheral/src/OLED_IIC_Config.c **** 		{
  92:./app/peripheral/src/OLED_IIC_Config.c **** 			WriteDat(0x00);
 238              		.loc 1 92 4 is_stmt 1 view .LVU33
 239 0006 0020     		movs	r0, #0
 240 0008 FFF7FEFF 		bl	WriteDat
 241              	.LVL19:
  90:./app/peripheral/src/OLED_IIC_Config.c **** 		{
 242              		.loc 1 90 18 discriminator 3 view .LVU34
 243 000c 0134     		adds	r4, r4, #1
 244              	.LVL20:
  90:./app/peripheral/src/OLED_IIC_Config.c **** 		{
 245              		.loc 1 90 18 is_stmt 0 discriminator 3 view .LVU35
 246 000e E4B2     		uxtb	r4, r4
 247              	.LVL21:
 248              	.L15:
  90:./app/peripheral/src/OLED_IIC_Config.c **** 		{
 249              		.loc 1 90 12 is_stmt 1 discriminator 1 view .LVU36
 250 0010 14F0800F 		tst	r4, #128
 251 0014 F7D0     		beq	.L16
  85:./app/peripheral/src/OLED_IIC_Config.c **** 	for(m=0;m<8;m++)
 252              		.loc 1 85 15 discriminator 2 view .LVU37
 253 0016 0135     		adds	r5, r5, #1
 254              	.LVL22:
  85:./app/peripheral/src/OLED_IIC_Config.c **** 	for(m=0;m<8;m++)
 255              		.loc 1 85 15 is_stmt 0 discriminator 2 view .LVU38
 256 0018 EDB2     		uxtb	r5, r5
ARM GAS  /tmp/cc2Ggas6.s 			page 7


 257              	.LVL23:
 258              	.L14:
  85:./app/peripheral/src/OLED_IIC_Config.c **** 	for(m=0;m<8;m++)
 259              		.loc 1 85 11 is_stmt 1 discriminator 1 view .LVU39
 260 001a 072D     		cmp	r5, #7
 261 001c 0CD8     		bhi	.L19
  87:./app/peripheral/src/OLED_IIC_Config.c **** 		WriteCmd(0x00);		//low column start address
 262              		.loc 1 87 3 view .LVU40
 263 001e A5F15000 		sub	r0, r5, #80
 264 0022 C0B2     		uxtb	r0, r0
 265 0024 FFF7FEFF 		bl	WriteCmd
 266              	.LVL24:
  88:./app/peripheral/src/OLED_IIC_Config.c **** 		WriteCmd(0x10);		//high column start address
 267              		.loc 1 88 3 view .LVU41
 268 0028 0020     		movs	r0, #0
 269 002a FFF7FEFF 		bl	WriteCmd
 270              	.LVL25:
  89:./app/peripheral/src/OLED_IIC_Config.c **** 		for(n=0;n<128;n++)
 271              		.loc 1 89 3 view .LVU42
 272 002e 1020     		movs	r0, #16
 273 0030 FFF7FEFF 		bl	WriteCmd
 274              	.LVL26:
  90:./app/peripheral/src/OLED_IIC_Config.c **** 		{
 275              		.loc 1 90 3 view .LVU43
  90:./app/peripheral/src/OLED_IIC_Config.c **** 		{
 276              		.loc 1 90 8 is_stmt 0 view .LVU44
 277 0034 0024     		movs	r4, #0
  90:./app/peripheral/src/OLED_IIC_Config.c **** 		{
 278              		.loc 1 90 3 view .LVU45
 279 0036 EBE7     		b	.L15
 280              	.LVL27:
 281              	.L19:
  93:./app/peripheral/src/OLED_IIC_Config.c **** 		}
  94:./app/peripheral/src/OLED_IIC_Config.c **** 	}
  95:./app/peripheral/src/OLED_IIC_Config.c **** }
 282              		.loc 1 95 1 view .LVU46
 283 0038 38BD     		pop	{r3, r4, r5, pc}
 284              		.loc 1 95 1 view .LVU47
 285              		.cfi_endproc
 286              	.LFE244:
 288              		.section	.text.OLED_Init,"ax",%progbits
 289              		.align	1
 290              		.global	OLED_Init
 291              		.syntax unified
 292              		.thumb
 293              		.thumb_func
 295              	OLED_Init:
 296              	.LFB245:
  96:./app/peripheral/src/OLED_IIC_Config.c **** 
  97:./app/peripheral/src/OLED_IIC_Config.c **** /**
  98:./app/peripheral/src/OLED_IIC_Config.c ****  * ************************************************************************
  99:./app/peripheral/src/OLED_IIC_Config.c ****  * @brief OLED初始化函数
 100:./app/peripheral/src/OLED_IIC_Config.c ****  * ************************************************************************
 101:./app/peripheral/src/OLED_IIC_Config.c ****  */
 102:./app/peripheral/src/OLED_IIC_Config.c **** void OLED_Init(void)
 103:./app/peripheral/src/OLED_IIC_Config.c **** {
 297              		.loc 1 103 1 is_stmt 1 view -0
ARM GAS  /tmp/cc2Ggas6.s 			page 8


 298              		.cfi_startproc
 299              		@ args = 0, pretend = 0, frame = 0
 300              		@ frame_needed = 0, uses_anonymous_args = 0
 301 0000 08B5     		push	{r3, lr}
 302              	.LCFI8:
 303              		.cfi_def_cfa_offset 8
 304              		.cfi_offset 3, -8
 305              		.cfi_offset 14, -4
 104:./app/peripheral/src/OLED_IIC_Config.c **** 	WriteCmd(0xAE); //显示关闭
 306              		.loc 1 104 2 view .LVU49
 307 0002 AE20     		movs	r0, #174
 308 0004 FFF7FEFF 		bl	WriteCmd
 309              	.LVL28:
 105:./app/peripheral/src/OLED_IIC_Config.c **** 	WriteCmd(0x20);	//设置内存寻址模式
 310              		.loc 1 105 2 view .LVU50
 311 0008 2020     		movs	r0, #32
 312 000a FFF7FEFF 		bl	WriteCmd
 313              	.LVL29:
 106:./app/peripheral/src/OLED_IIC_Config.c **** 	WriteCmd(0x10);	//00,水平寻址模式;01,垂直寻址模式;10,页寻址模式(复位);11,无效
 314              		.loc 1 106 2 view .LVU51
 315 000e 1020     		movs	r0, #16
 316 0010 FFF7FEFF 		bl	WriteCmd
 317              	.LVL30:
 107:./app/peripheral/src/OLED_IIC_Config.c **** 	WriteCmd(0xb0);	//设置页寻址模式的页起始地址,0-7
 318              		.loc 1 107 2 view .LVU52
 319 0014 B020     		movs	r0, #176
 320 0016 FFF7FEFF 		bl	WriteCmd
 321              	.LVL31:
 108:./app/peripheral/src/OLED_IIC_Config.c **** 	WriteCmd(0xc8);	//设置COM输出扫描方向
 322              		.loc 1 108 2 view .LVU53
 323 001a C820     		movs	r0, #200
 324 001c FFF7FEFF 		bl	WriteCmd
 325              	.LVL32:
 109:./app/peripheral/src/OLED_IIC_Config.c **** 	WriteCmd(0x00); //-设置低列地址
 326              		.loc 1 109 2 view .LVU54
 327 0020 0020     		movs	r0, #0
 328 0022 FFF7FEFF 		bl	WriteCmd
 329              	.LVL33:
 110:./app/peripheral/src/OLED_IIC_Config.c **** 	WriteCmd(0x10); //-设置高列地址
 330              		.loc 1 110 2 view .LVU55
 331 0026 1020     		movs	r0, #16
 332 0028 FFF7FEFF 		bl	WriteCmd
 333              	.LVL34:
 111:./app/peripheral/src/OLED_IIC_Config.c **** 	WriteCmd(0x40); //-设置起始行地址
 334              		.loc 1 111 2 view .LVU56
 335 002c 4020     		movs	r0, #64
 336 002e FFF7FEFF 		bl	WriteCmd
 337              	.LVL35:
 112:./app/peripheral/src/OLED_IIC_Config.c **** 	WriteCmd(0x81); //设置对比度控制寄存器
 338              		.loc 1 112 2 view .LVU57
 339 0032 8120     		movs	r0, #129
 340 0034 FFF7FEFF 		bl	WriteCmd
 341              	.LVL36:
 113:./app/peripheral/src/OLED_IIC_Config.c **** 	WriteCmd(0xff); //亮度调节 0x00~0xff
 342              		.loc 1 113 2 view .LVU58
 343 0038 FF20     		movs	r0, #255
 344 003a FFF7FEFF 		bl	WriteCmd
ARM GAS  /tmp/cc2Ggas6.s 			page 9


 345              	.LVL37:
 114:./app/peripheral/src/OLED_IIC_Config.c **** 	WriteCmd(0xa1); //设置段重新映射0到127
 346              		.loc 1 114 2 view .LVU59
 347 003e A120     		movs	r0, #161
 348 0040 FFF7FEFF 		bl	WriteCmd
 349              	.LVL38:
 115:./app/peripheral/src/OLED_IIC_Config.c **** 	WriteCmd(0xa6); //设置正常显示
 350              		.loc 1 115 2 view .LVU60
 351 0044 A620     		movs	r0, #166
 352 0046 FFF7FEFF 		bl	WriteCmd
 353              	.LVL39:
 116:./app/peripheral/src/OLED_IIC_Config.c **** 	WriteCmd(0xa8); //设置复用比例(1到64)
 354              		.loc 1 116 2 view .LVU61
 355 004a A820     		movs	r0, #168
 356 004c FFF7FEFF 		bl	WriteCmd
 357              	.LVL40:
 117:./app/peripheral/src/OLED_IIC_Config.c **** 	WriteCmd(0x3F); //
 358              		.loc 1 117 2 view .LVU62
 359 0050 3F20     		movs	r0, #63
 360 0052 FFF7FEFF 		bl	WriteCmd
 361              	.LVL41:
 118:./app/peripheral/src/OLED_IIC_Config.c **** 	WriteCmd(0xa4); //0xa4,输出遵循RAM内容;0xa5,输出忽略RAM内容
 362              		.loc 1 118 2 view .LVU63
 363 0056 A420     		movs	r0, #164
 364 0058 FFF7FEFF 		bl	WriteCmd
 365              	.LVL42:
 119:./app/peripheral/src/OLED_IIC_Config.c **** 	WriteCmd(0xd3); //设置显示偏移
 366              		.loc 1 119 2 view .LVU64
 367 005c D320     		movs	r0, #211
 368 005e FFF7FEFF 		bl	WriteCmd
 369              	.LVL43:
 120:./app/peripheral/src/OLED_IIC_Config.c **** 	WriteCmd(0x00); //不偏移
 370              		.loc 1 120 2 view .LVU65
 371 0062 0020     		movs	r0, #0
 372 0064 FFF7FEFF 		bl	WriteCmd
 373              	.LVL44:
 121:./app/peripheral/src/OLED_IIC_Config.c **** 	WriteCmd(0xd5); //--set display clock divide ratio/oscillator frequency
 374              		.loc 1 121 2 view .LVU66
 375 0068 D520     		movs	r0, #213
 376 006a FFF7FEFF 		bl	WriteCmd
 377              	.LVL45:
 122:./app/peripheral/src/OLED_IIC_Config.c **** 	WriteCmd(0xf0); //--set divide ratio
 378              		.loc 1 122 2 view .LVU67
 379 006e F020     		movs	r0, #240
 380 0070 FFF7FEFF 		bl	WriteCmd
 381              	.LVL46:
 123:./app/peripheral/src/OLED_IIC_Config.c **** 	WriteCmd(0xd9); //--set pre-charge period
 382              		.loc 1 123 2 view .LVU68
 383 0074 D920     		movs	r0, #217
 384 0076 FFF7FEFF 		bl	WriteCmd
 385              	.LVL47:
 124:./app/peripheral/src/OLED_IIC_Config.c **** 	WriteCmd(0x22); //
 386              		.loc 1 124 2 view .LVU69
 387 007a 2220     		movs	r0, #34
 388 007c FFF7FEFF 		bl	WriteCmd
 389              	.LVL48:
 125:./app/peripheral/src/OLED_IIC_Config.c **** 	WriteCmd(0xda); //--set com pins hardware configuration
ARM GAS  /tmp/cc2Ggas6.s 			page 10


 390              		.loc 1 125 2 view .LVU70
 391 0080 DA20     		movs	r0, #218
 392 0082 FFF7FEFF 		bl	WriteCmd
 393              	.LVL49:
 126:./app/peripheral/src/OLED_IIC_Config.c **** 	WriteCmd(0x12);
 394              		.loc 1 126 2 view .LVU71
 395 0086 1220     		movs	r0, #18
 396 0088 FFF7FEFF 		bl	WriteCmd
 397              	.LVL50:
 127:./app/peripheral/src/OLED_IIC_Config.c **** 	WriteCmd(0xdb); //--set vcomh
 398              		.loc 1 127 2 view .LVU72
 399 008c DB20     		movs	r0, #219
 400 008e FFF7FEFF 		bl	WriteCmd
 401              	.LVL51:
 128:./app/peripheral/src/OLED_IIC_Config.c **** 	WriteCmd(0x20); //0x20,0.77xVcc
 402              		.loc 1 128 2 view .LVU73
 403 0092 2020     		movs	r0, #32
 404 0094 FFF7FEFF 		bl	WriteCmd
 405              	.LVL52:
 129:./app/peripheral/src/OLED_IIC_Config.c **** 	WriteCmd(0x8d); //设置DC-DC使能
 406              		.loc 1 129 2 view .LVU74
 407 0098 8D20     		movs	r0, #141
 408 009a FFF7FEFF 		bl	WriteCmd
 409              	.LVL53:
 130:./app/peripheral/src/OLED_IIC_Config.c **** 	WriteCmd(0x14); //
 410              		.loc 1 130 2 view .LVU75
 411 009e 1420     		movs	r0, #20
 412 00a0 FFF7FEFF 		bl	WriteCmd
 413              	.LVL54:
 131:./app/peripheral/src/OLED_IIC_Config.c **** 	WriteCmd(0xaf); //--turn on oled panel
 414              		.loc 1 131 2 view .LVU76
 415 00a4 AF20     		movs	r0, #175
 416 00a6 FFF7FEFF 		bl	WriteCmd
 417              	.LVL55:
 132:./app/peripheral/src/OLED_IIC_Config.c **** 	OLED_CLS();
 418              		.loc 1 132 2 view .LVU77
 419 00aa FFF7FEFF 		bl	OLED_CLS
 420              	.LVL56:
 133:./app/peripheral/src/OLED_IIC_Config.c **** }
 421              		.loc 1 133 1 is_stmt 0 view .LVU78
 422 00ae 08BD     		pop	{r3, pc}
 423              		.cfi_endproc
 424              	.LFE245:
 426              		.section	.text.OLED_RefreshRAM,"ax",%progbits
 427              		.align	1
 428              		.global	OLED_RefreshRAM
 429              		.syntax unified
 430              		.thumb
 431              		.thumb_func
 433              	OLED_RefreshRAM:
 434              	.LFB246:
 134:./app/peripheral/src/OLED_IIC_Config.c **** 
 135:./app/peripheral/src/OLED_IIC_Config.c **** /**
 136:./app/peripheral/src/OLED_IIC_Config.c ****  * ************************************************************************
 137:./app/peripheral/src/OLED_IIC_Config.c ****  * @brief 更新数据缓冲区
 138:./app/peripheral/src/OLED_IIC_Config.c ****  * ************************************************************************
 139:./app/peripheral/src/OLED_IIC_Config.c ****  */
ARM GAS  /tmp/cc2Ggas6.s 			page 11


 140:./app/peripheral/src/OLED_IIC_Config.c **** void OLED_RefreshRAM(void)
 141:./app/peripheral/src/OLED_IIC_Config.c **** {
 435              		.loc 1 141 1 is_stmt 1 view -0
 436              		.cfi_startproc
 437              		@ args = 0, pretend = 0, frame = 0
 438              		@ frame_needed = 0, uses_anonymous_args = 0
 439 0000 38B5     		push	{r3, r4, r5, lr}
 440              	.LCFI9:
 441              		.cfi_def_cfa_offset 16
 442              		.cfi_offset 3, -16
 443              		.cfi_offset 4, -12
 444              		.cfi_offset 5, -8
 445              		.cfi_offset 14, -4
 142:./app/peripheral/src/OLED_IIC_Config.c **** 	// 页寻址模式填充
 143:./app/peripheral/src/OLED_IIC_Config.c **** 	for(unsigned short int m = 0; m < SCREEN_ROW/8; m++)
 446              		.loc 1 143 2 view .LVU80
 447              	.LBB2:
 448              		.loc 1 143 6 view .LVU81
 449              	.LVL57:
 450              		.loc 1 143 25 is_stmt 0 view .LVU82
 451 0002 0025     		movs	r5, #0
 452              		.loc 1 143 2 view .LVU83
 453 0004 0BE0     		b	.L23
 454              	.LVL58:
 455              	.L25:
 456              	.LBB3:
 144:./app/peripheral/src/OLED_IIC_Config.c **** 	{
 145:./app/peripheral/src/OLED_IIC_Config.c **** 		WriteCmd(0xb0+m);		//设置页地址b0~b7
 146:./app/peripheral/src/OLED_IIC_Config.c **** 		WriteCmd(0x00);			//设置显示位置—列低地址00-0f
 147:./app/peripheral/src/OLED_IIC_Config.c **** 		WriteCmd(0x10);			//设置显示位置—列高地址10-1f
 148:./app/peripheral/src/OLED_IIC_Config.c **** 		for(unsigned short int n = 0; n < SCREEN_COLUMN; n++)
 149:./app/peripheral/src/OLED_IIC_Config.c **** 		{
 150:./app/peripheral/src/OLED_IIC_Config.c **** 			WriteDat(ScreenBuffer[m][n]);
 457              		.loc 1 150 4 is_stmt 1 view .LVU84
 458 0006 0E4B     		ldr	r3, .L29
 459 0008 03EBC513 		add	r3, r3, r5, lsl #7
 460 000c 185D     		ldrb	r0, [r3, r4]	@ zero_extendqisi2
 461 000e FFF7FEFF 		bl	WriteDat
 462              	.LVL59:
 148:./app/peripheral/src/OLED_IIC_Config.c **** 		{
 463              		.loc 1 148 53 discriminator 3 view .LVU85
 464 0012 0134     		adds	r4, r4, #1
 465              	.LVL60:
 148:./app/peripheral/src/OLED_IIC_Config.c **** 		{
 466              		.loc 1 148 53 is_stmt 0 discriminator 3 view .LVU86
 467 0014 A4B2     		uxth	r4, r4
 468              	.LVL61:
 469              	.L24:
 148:./app/peripheral/src/OLED_IIC_Config.c **** 		{
 470              		.loc 1 148 35 is_stmt 1 discriminator 1 view .LVU87
 471 0016 7F2C     		cmp	r4, #127
 472 0018 F5D9     		bls	.L25
 473              	.LBE3:
 143:./app/peripheral/src/OLED_IIC_Config.c **** 	{
 474              		.loc 1 143 51 discriminator 2 view .LVU88
 475 001a 0135     		adds	r5, r5, #1
 476              	.LVL62:
ARM GAS  /tmp/cc2Ggas6.s 			page 12


 143:./app/peripheral/src/OLED_IIC_Config.c **** 	{
 477              		.loc 1 143 51 is_stmt 0 discriminator 2 view .LVU89
 478 001c ADB2     		uxth	r5, r5
 479              	.LVL63:
 480              	.L23:
 143:./app/peripheral/src/OLED_IIC_Config.c **** 	{
 481              		.loc 1 143 34 is_stmt 1 discriminator 1 view .LVU90
 482 001e 072D     		cmp	r5, #7
 483 0020 0CD8     		bhi	.L28
 145:./app/peripheral/src/OLED_IIC_Config.c **** 		WriteCmd(0x00);			//设置显示位置—列低地址00-0f
 484              		.loc 1 145 3 view .LVU91
 485 0022 A5F15000 		sub	r0, r5, #80
 486 0026 C0B2     		uxtb	r0, r0
 487 0028 FFF7FEFF 		bl	WriteCmd
 488              	.LVL64:
 146:./app/peripheral/src/OLED_IIC_Config.c **** 		WriteCmd(0x10);			//设置显示位置—列高地址10-1f
 489              		.loc 1 146 3 view .LVU92
 490 002c 0020     		movs	r0, #0
 491 002e FFF7FEFF 		bl	WriteCmd
 492              	.LVL65:
 147:./app/peripheral/src/OLED_IIC_Config.c **** 		for(unsigned short int n = 0; n < SCREEN_COLUMN; n++)
 493              		.loc 1 147 3 view .LVU93
 494 0032 1020     		movs	r0, #16
 495 0034 FFF7FEFF 		bl	WriteCmd
 496              	.LVL66:
 148:./app/peripheral/src/OLED_IIC_Config.c **** 		{
 497              		.loc 1 148 3 view .LVU94
 498              	.LBB4:
 148:./app/peripheral/src/OLED_IIC_Config.c **** 		{
 499              		.loc 1 148 7 view .LVU95
 148:./app/peripheral/src/OLED_IIC_Config.c **** 		{
 500              		.loc 1 148 26 is_stmt 0 view .LVU96
 501 0038 0024     		movs	r4, #0
 148:./app/peripheral/src/OLED_IIC_Config.c **** 		{
 502              		.loc 1 148 3 view .LVU97
 503 003a ECE7     		b	.L24
 504              	.LVL67:
 505              	.L28:
 148:./app/peripheral/src/OLED_IIC_Config.c **** 		{
 506              		.loc 1 148 3 view .LVU98
 507              	.LBE4:
 508              	.LBE2:
 151:./app/peripheral/src/OLED_IIC_Config.c **** 		}
 152:./app/peripheral/src/OLED_IIC_Config.c **** 	} 
 153:./app/peripheral/src/OLED_IIC_Config.c **** }
 509              		.loc 1 153 1 view .LVU99
 510 003c 38BD     		pop	{r3, r4, r5, pc}
 511              	.LVL68:
 512              	.L30:
 513              		.loc 1 153 1 view .LVU100
 514 003e 00BF     		.align	2
 515              	.L29:
 516 0040 00000000 		.word	ScreenBuffer
 517              		.cfi_endproc
 518              	.LFE246:
 520              		.section	.text.OLED_ClearRAM,"ax",%progbits
 521              		.align	1
ARM GAS  /tmp/cc2Ggas6.s 			page 13


 522              		.global	OLED_ClearRAM
 523              		.syntax unified
 524              		.thumb
 525              		.thumb_func
 527              	OLED_ClearRAM:
 528              	.LFB247:
 154:./app/peripheral/src/OLED_IIC_Config.c **** 
 155:./app/peripheral/src/OLED_IIC_Config.c **** /**
 156:./app/peripheral/src/OLED_IIC_Config.c ****  * ************************************************************************
 157:./app/peripheral/src/OLED_IIC_Config.c ****  * @brief 清除数据缓冲区
 158:./app/peripheral/src/OLED_IIC_Config.c ****  * ************************************************************************
 159:./app/peripheral/src/OLED_IIC_Config.c ****  */
 160:./app/peripheral/src/OLED_IIC_Config.c **** void OLED_ClearRAM(void)
 161:./app/peripheral/src/OLED_IIC_Config.c **** {
 529              		.loc 1 161 1 is_stmt 1 view -0
 530              		.cfi_startproc
 531              		@ args = 0, pretend = 0, frame = 0
 532              		@ frame_needed = 0, uses_anonymous_args = 0
 533              		@ link register save eliminated.
 162:./app/peripheral/src/OLED_IIC_Config.c **** 	for(unsigned short int m = 0; m < SCREEN_ROW/8; m++)
 534              		.loc 1 162 2 view .LVU102
 535              	.LBB5:
 536              		.loc 1 162 6 view .LVU103
 537              	.LVL69:
 538              		.loc 1 162 25 is_stmt 0 view .LVU104
 539 0000 0020     		movs	r0, #0
 540              		.loc 1 162 2 view .LVU105
 541 0002 0AE0     		b	.L32
 542              	.LVL70:
 543              	.L33:
 544              	.LBB6:
 163:./app/peripheral/src/OLED_IIC_Config.c **** 	{
 164:./app/peripheral/src/OLED_IIC_Config.c **** 		for(unsigned short int n = 0; n < SCREEN_COLUMN; n++)
 165:./app/peripheral/src/OLED_IIC_Config.c **** 		{
 166:./app/peripheral/src/OLED_IIC_Config.c **** 			ScreenBuffer[m][n] = 0x00;
 545              		.loc 1 166 4 is_stmt 1 view .LVU106
 546              		.loc 1 166 23 is_stmt 0 view .LVU107
 547 0004 074A     		ldr	r2, .L37
 548 0006 02EBC012 		add	r2, r2, r0, lsl #7
 549 000a 0021     		movs	r1, #0
 550 000c D154     		strb	r1, [r2, r3]
 164:./app/peripheral/src/OLED_IIC_Config.c **** 		{
 551              		.loc 1 164 53 is_stmt 1 discriminator 3 view .LVU108
 552 000e 0133     		adds	r3, r3, #1
 553              	.LVL71:
 164:./app/peripheral/src/OLED_IIC_Config.c **** 		{
 554              		.loc 1 164 53 is_stmt 0 discriminator 3 view .LVU109
 555 0010 9BB2     		uxth	r3, r3
 556              	.LVL72:
 557              	.L34:
 164:./app/peripheral/src/OLED_IIC_Config.c **** 		{
 558              		.loc 1 164 35 is_stmt 1 discriminator 1 view .LVU110
 559 0012 7F2B     		cmp	r3, #127
 560 0014 F6D9     		bls	.L33
 561              	.LBE6:
 162:./app/peripheral/src/OLED_IIC_Config.c **** 	for(unsigned short int m = 0; m < SCREEN_ROW/8; m++)
 562              		.loc 1 162 51 discriminator 2 view .LVU111
ARM GAS  /tmp/cc2Ggas6.s 			page 14


 563 0016 0130     		adds	r0, r0, #1
 564              	.LVL73:
 162:./app/peripheral/src/OLED_IIC_Config.c **** 	for(unsigned short int m = 0; m < SCREEN_ROW/8; m++)
 565              		.loc 1 162 51 is_stmt 0 discriminator 2 view .LVU112
 566 0018 80B2     		uxth	r0, r0
 567              	.LVL74:
 568              	.L32:
 162:./app/peripheral/src/OLED_IIC_Config.c **** 	for(unsigned short int m = 0; m < SCREEN_ROW/8; m++)
 569              		.loc 1 162 34 is_stmt 1 discriminator 1 view .LVU113
 570 001a 0728     		cmp	r0, #7
 571 001c 01D8     		bhi	.L36
 572              	.LBB7:
 164:./app/peripheral/src/OLED_IIC_Config.c **** 		{
 573              		.loc 1 164 26 is_stmt 0 view .LVU114
 574 001e 0023     		movs	r3, #0
 575 0020 F7E7     		b	.L34
 576              	.L36:
 577              	.LBE7:
 578              	.LBE5:
 167:./app/peripheral/src/OLED_IIC_Config.c **** 		}
 168:./app/peripheral/src/OLED_IIC_Config.c **** 	}
 169:./app/peripheral/src/OLED_IIC_Config.c **** }
 579              		.loc 1 169 1 view .LVU115
 580 0022 7047     		bx	lr
 581              	.L38:
 582              		.align	2
 583              	.L37:
 584 0024 00000000 		.word	ScreenBuffer
 585              		.cfi_endproc
 586              	.LFE247:
 588              		.section	.text.OLED_SetPixel,"ax",%progbits
 589              		.align	1
 590              		.global	OLED_SetPixel
 591              		.syntax unified
 592              		.thumb
 593              		.thumb_func
 595              	OLED_SetPixel:
 596              	.LVL75:
 597              	.LFB248:
 170:./app/peripheral/src/OLED_IIC_Config.c **** 
 171:./app/peripheral/src/OLED_IIC_Config.c **** /**
 172:./app/peripheral/src/OLED_IIC_Config.c ****  * ************************************************************************
 173:./app/peripheral/src/OLED_IIC_Config.c ****  * @brief 设置坐标像素点数据
 174:./app/peripheral/src/OLED_IIC_Config.c ****  * 
 175:./app/peripheral/src/OLED_IIC_Config.c ****  * @param[in] x  			起始点横坐标(x:0~127）
 176:./app/peripheral/src/OLED_IIC_Config.c ****  * @param[in] y  			起始点纵坐标(y:0~63）
 177:./app/peripheral/src/OLED_IIC_Config.c ****  * @param[in] set_pixel  	该点的数据  SET_PIXEL = 1, RESET_PIXEL = 0
 178:./app/peripheral/src/OLED_IIC_Config.c ****  * 
 179:./app/peripheral/src/OLED_IIC_Config.c ****  * ************************************************************************
 180:./app/peripheral/src/OLED_IIC_Config.c ****  */
 181:./app/peripheral/src/OLED_IIC_Config.c **** void OLED_SetPixel(signed short int x, signed short int y, unsigned char set_pixel)
 182:./app/peripheral/src/OLED_IIC_Config.c **** { 
 598              		.loc 1 182 1 is_stmt 1 view -0
 599              		.cfi_startproc
 600              		@ args = 0, pretend = 0, frame = 0
 601              		@ frame_needed = 0, uses_anonymous_args = 0
 602              		@ link register save eliminated.
ARM GAS  /tmp/cc2Ggas6.s 			page 15


 183:./app/peripheral/src/OLED_IIC_Config.c **** 	if (x >= 0 && x < SCREEN_COLUMN && y >= 0 && y < SCREEN_ROW) {
 603              		.loc 1 183 2 view .LVU117
 604              		.loc 1 183 13 is_stmt 0 view .LVU118
 605 0000 83B2     		uxth	r3, r0
 606              		.loc 1 183 5 view .LVU119
 607 0002 7F2B     		cmp	r3, #127
 608 0004 35D8     		bhi	.L39
 609              		.loc 1 183 34 discriminator 1 view .LVU120
 610 0006 0029     		cmp	r1, #0
 611 0008 33DB     		blt	.L39
 612              		.loc 1 183 44 discriminator 2 view .LVU121
 613 000a 3F29     		cmp	r1, #63
 614 000c 31DC     		bgt	.L39
 184:./app/peripheral/src/OLED_IIC_Config.c **** 		if(set_pixel){
 615              		.loc 1 184 3 is_stmt 1 view .LVU122
 616              		.loc 1 184 5 is_stmt 0 view .LVU123
 617 000e CAB1     		cbz	r2, .L41
 185:./app/peripheral/src/OLED_IIC_Config.c **** 				ScreenBuffer[y/8][x] |= (0x01 << (y%8));
 618              		.loc 1 185 5 is_stmt 1 view .LVU124
 619              		.loc 1 185 22 is_stmt 0 view .LVU125
 620 0010 0B46     		mov	r3, r1
 621 0012 0029     		cmp	r1, #0
 622 0014 14DB     		blt	.L44
 623              	.L42:
 624 0016 DA10     		asrs	r2, r3, #3
 625              	.LVL76:
 626              		.loc 1 185 22 view .LVU126
 627 0018 174B     		ldr	r3, .L46
 628 001a 03EBC213 		add	r3, r3, r2, lsl #7
 629 001e 1A5C     		ldrb	r2, [r3, r0]	@ zero_extendqisi2
 630              		.loc 1 185 40 view .LVU127
 631 0020 D1F1000C 		rsbs	ip, r1, #0
 632 0024 01F00701 		and	r1, r1, #7
 633              	.LVL77:
 634              		.loc 1 185 40 view .LVU128
 635 0028 0CF0070C 		and	ip, ip, #7
 636 002c 58BF     		it	pl
 637 002e CCF10001 		rsbpl	r1, ip, #0
 638              		.loc 1 185 35 view .LVU129
 639 0032 4FF0010C 		mov	ip, #1
 640 0036 0CFA01F1 		lsl	r1, ip, r1
 641              		.loc 1 185 26 view .LVU130
 642 003a 0A43     		orrs	r2, r2, r1
 643 003c 1A54     		strb	r2, [r3, r0]
 644 003e 7047     		bx	lr
 645              	.LVL78:
 646              	.L44:
 647              		.loc 1 185 22 view .LVU131
 648 0040 CB1D     		adds	r3, r1, #7
 649 0042 E8E7     		b	.L42
 650              	.L41:
 186:./app/peripheral/src/OLED_IIC_Config.c **** 		}  
 187:./app/peripheral/src/OLED_IIC_Config.c **** 		else{
 188:./app/peripheral/src/OLED_IIC_Config.c **** 				ScreenBuffer[y/8][x] &= ~(0x01 << (y%8));
 651              		.loc 1 188 5 is_stmt 1 view .LVU132
 652              		.loc 1 188 22 is_stmt 0 view .LVU133
 653 0044 0B46     		mov	r3, r1
ARM GAS  /tmp/cc2Ggas6.s 			page 16


 654 0046 0029     		cmp	r1, #0
 655 0048 14DB     		blt	.L45
 656              	.L43:
 657 004a DB10     		asrs	r3, r3, #3
 658 004c 0A4A     		ldr	r2, .L46
 659              	.LVL79:
 660              		.loc 1 188 22 view .LVU134
 661 004e 02EBC312 		add	r2, r2, r3, lsl #7
 662 0052 12F800C0 		ldrb	ip, [r2, r0]	@ zero_extendqisi2
 663              		.loc 1 188 41 view .LVU135
 664 0056 4B42     		rsbs	r3, r1, #0
 665 0058 01F00701 		and	r1, r1, #7
 666              	.LVL80:
 667              		.loc 1 188 41 view .LVU136
 668 005c 03F00703 		and	r3, r3, #7
 669 0060 58BF     		it	pl
 670 0062 5942     		rsbpl	r1, r3, #0
 671              		.loc 1 188 36 view .LVU137
 672 0064 0123     		movs	r3, #1
 673 0066 8B40     		lsls	r3, r3, r1
 674              		.loc 1 188 26 view .LVU138
 675 0068 DB43     		mvns	r3, r3
 676 006a 5BB2     		sxtb	r3, r3
 677 006c 0CEA0303 		and	r3, ip, r3
 678 0070 1354     		strb	r3, [r2, r0]
 679              	.L39:
 189:./app/peripheral/src/OLED_IIC_Config.c **** 		}
 190:./app/peripheral/src/OLED_IIC_Config.c **** 	}
 191:./app/peripheral/src/OLED_IIC_Config.c **** }
 680              		.loc 1 191 1 view .LVU139
 681 0072 7047     		bx	lr
 682              	.LVL81:
 683              	.L45:
 188:./app/peripheral/src/OLED_IIC_Config.c **** 		}
 684              		.loc 1 188 22 view .LVU140
 685 0074 CB1D     		adds	r3, r1, #7
 686 0076 E8E7     		b	.L43
 687              	.L47:
 688              		.align	2
 689              	.L46:
 690 0078 00000000 		.word	ScreenBuffer
 691              		.cfi_endproc
 692              	.LFE248:
 694              		.section	.text.OLED_DisplayMode,"ax",%progbits
 695              		.align	1
 696              		.global	OLED_DisplayMode
 697              		.syntax unified
 698              		.thumb
 699              		.thumb_func
 701              	OLED_DisplayMode:
 702              	.LVL82:
 703              	.LFB249:
 192:./app/peripheral/src/OLED_IIC_Config.c **** 
 193:./app/peripheral/src/OLED_IIC_Config.c **** /**
 194:./app/peripheral/src/OLED_IIC_Config.c ****  * ************************************************************************
 195:./app/peripheral/src/OLED_IIC_Config.c ****  * @brief 屏幕内容取反显示
 196:./app/peripheral/src/OLED_IIC_Config.c ****  * 
ARM GAS  /tmp/cc2Ggas6.s 			page 17


 197:./app/peripheral/src/OLED_IIC_Config.c ****  * @param[in] mode  开关
 198:./app/peripheral/src/OLED_IIC_Config.c ****  * 					开	ON	0xA7	点亮全屏
 199:./app/peripheral/src/OLED_IIC_Config.c ****  *  				关	OFF	0xA6	默认此模式，设置像素点亮
 200:./app/peripheral/src/OLED_IIC_Config.c ****  * 
 201:./app/peripheral/src/OLED_IIC_Config.c ****  * ************************************************************************
 202:./app/peripheral/src/OLED_IIC_Config.c ****  */
 203:./app/peripheral/src/OLED_IIC_Config.c **** void OLED_DisplayMode(unsigned char mode)
 204:./app/peripheral/src/OLED_IIC_Config.c **** {
 704              		.loc 1 204 1 is_stmt 1 view -0
 705              		.cfi_startproc
 706              		@ args = 0, pretend = 0, frame = 0
 707              		@ frame_needed = 0, uses_anonymous_args = 0
 708              		.loc 1 204 1 is_stmt 0 view .LVU142
 709 0000 08B5     		push	{r3, lr}
 710              	.LCFI10:
 711              		.cfi_def_cfa_offset 8
 712              		.cfi_offset 3, -8
 713              		.cfi_offset 14, -4
 205:./app/peripheral/src/OLED_IIC_Config.c **** 	WriteCmd(mode);
 714              		.loc 1 205 2 is_stmt 1 view .LVU143
 715 0002 FFF7FEFF 		bl	WriteCmd
 716              	.LVL83:
 206:./app/peripheral/src/OLED_IIC_Config.c **** }
 717              		.loc 1 206 1 is_stmt 0 view .LVU144
 718 0006 08BD     		pop	{r3, pc}
 719              		.cfi_endproc
 720              	.LFE249:
 722              		.section	.text.OLED_IntensityControl,"ax",%progbits
 723              		.align	1
 724              		.global	OLED_IntensityControl
 725              		.syntax unified
 726              		.thumb
 727              		.thumb_func
 729              	OLED_IntensityControl:
 730              	.LVL84:
 731              	.LFB250:
 207:./app/peripheral/src/OLED_IIC_Config.c **** 
 208:./app/peripheral/src/OLED_IIC_Config.c **** /**
 209:./app/peripheral/src/OLED_IIC_Config.c ****  * ************************************************************************
 210:./app/peripheral/src/OLED_IIC_Config.c ****  * @brief 屏幕亮度调节
 211:./app/peripheral/src/OLED_IIC_Config.c ****  * 
 212:./app/peripheral/src/OLED_IIC_Config.c ****  * @param[in] intensity  亮度大小（0~255），默认为0x7f
 213:./app/peripheral/src/OLED_IIC_Config.c ****  * 
 214:./app/peripheral/src/OLED_IIC_Config.c ****  * ************************************************************************
 215:./app/peripheral/src/OLED_IIC_Config.c ****  */
 216:./app/peripheral/src/OLED_IIC_Config.c **** void OLED_IntensityControl(unsigned char intensity)
 217:./app/peripheral/src/OLED_IIC_Config.c **** {
 732              		.loc 1 217 1 is_stmt 1 view -0
 733              		.cfi_startproc
 734              		@ args = 0, pretend = 0, frame = 0
 735              		@ frame_needed = 0, uses_anonymous_args = 0
 736              		.loc 1 217 1 is_stmt 0 view .LVU146
 737 0000 10B5     		push	{r4, lr}
 738              	.LCFI11:
 739              		.cfi_def_cfa_offset 8
 740              		.cfi_offset 4, -8
 741              		.cfi_offset 14, -4
ARM GAS  /tmp/cc2Ggas6.s 			page 18


 742 0002 0446     		mov	r4, r0
 218:./app/peripheral/src/OLED_IIC_Config.c **** 	WriteCmd(0x81);
 743              		.loc 1 218 2 is_stmt 1 view .LVU147
 744 0004 8120     		movs	r0, #129
 745              	.LVL85:
 746              		.loc 1 218 2 is_stmt 0 view .LVU148
 747 0006 FFF7FEFF 		bl	WriteCmd
 748              	.LVL86:
 219:./app/peripheral/src/OLED_IIC_Config.c **** 	WriteCmd(intensity);
 749              		.loc 1 219 2 is_stmt 1 view .LVU149
 750 000a 2046     		mov	r0, r4
 751 000c FFF7FEFF 		bl	WriteCmd
 752              	.LVL87:
 220:./app/peripheral/src/OLED_IIC_Config.c **** }
 753              		.loc 1 220 1 is_stmt 0 view .LVU150
 754 0010 10BD     		pop	{r4, pc}
 755              		.loc 1 220 1 view .LVU151
 756              		.cfi_endproc
 757              	.LFE250:
 759              		.section	.text.OLED_Shift,"ax",%progbits
 760              		.align	1
 761              		.global	OLED_Shift
 762              		.syntax unified
 763              		.thumb
 764              		.thumb_func
 766              	OLED_Shift:
 767              	.LVL88:
 768              	.LFB251:
 221:./app/peripheral/src/OLED_IIC_Config.c **** 
 222:./app/peripheral/src/OLED_IIC_Config.c **** /**
 223:./app/peripheral/src/OLED_IIC_Config.c ****  * ************************************************************************
 224:./app/peripheral/src/OLED_IIC_Config.c ****  * @brief 全屏内容偏移指定距离
 225:./app/peripheral/src/OLED_IIC_Config.c ****  * 
 226:./app/peripheral/src/OLED_IIC_Config.c ****  * @param[in] shift_num  偏移距离（0~63）
 227:./app/peripheral/src/OLED_IIC_Config.c ****  * 
 228:./app/peripheral/src/OLED_IIC_Config.c ****  * ************************************************************************
 229:./app/peripheral/src/OLED_IIC_Config.c ****  */
 230:./app/peripheral/src/OLED_IIC_Config.c **** void OLED_Shift(unsigned char shift_num)
 231:./app/peripheral/src/OLED_IIC_Config.c **** {
 769              		.loc 1 231 1 is_stmt 1 view -0
 770              		.cfi_startproc
 771              		@ args = 0, pretend = 0, frame = 0
 772              		@ frame_needed = 0, uses_anonymous_args = 0
 773              		.loc 1 231 1 is_stmt 0 view .LVU153
 774 0000 38B5     		push	{r3, r4, r5, lr}
 775              	.LCFI12:
 776              		.cfi_def_cfa_offset 16
 777              		.cfi_offset 3, -16
 778              		.cfi_offset 4, -12
 779              		.cfi_offset 5, -8
 780              		.cfi_offset 14, -4
 781 0002 0546     		mov	r5, r0
 232:./app/peripheral/src/OLED_IIC_Config.c **** 	for(unsigned char i = 0; i < shift_num; i++)
 782              		.loc 1 232 2 is_stmt 1 view .LVU154
 783              	.LBB8:
 784              		.loc 1 232 6 view .LVU155
 785              	.LVL89:
ARM GAS  /tmp/cc2Ggas6.s 			page 19


 786              		.loc 1 232 20 is_stmt 0 view .LVU156
 787 0004 0024     		movs	r4, #0
 788              		.loc 1 232 2 view .LVU157
 789 0006 0AE0     		b	.L53
 790              	.LVL90:
 791              	.L54:
 233:./app/peripheral/src/OLED_IIC_Config.c **** 		{
 234:./app/peripheral/src/OLED_IIC_Config.c **** 			WriteCmd(0xd3);//设置显示偏移，垂直向上偏移
 792              		.loc 1 234 4 is_stmt 1 view .LVU158
 793 0008 D320     		movs	r0, #211
 794 000a FFF7FEFF 		bl	WriteCmd
 795              	.LVL91:
 235:./app/peripheral/src/OLED_IIC_Config.c **** 			WriteCmd(i);//偏移量
 796              		.loc 1 235 4 view .LVU159
 797 000e 2046     		mov	r0, r4
 798 0010 FFF7FEFF 		bl	WriteCmd
 799              	.LVL92:
 236:./app/peripheral/src/OLED_IIC_Config.c **** 			HAL_Delay(10);//延时时间
 800              		.loc 1 236 4 view .LVU160
 801 0014 0A20     		movs	r0, #10
 802 0016 FFF7FEFF 		bl	HAL_Delay
 803              	.LVL93:
 232:./app/peripheral/src/OLED_IIC_Config.c **** 		{
 804              		.loc 1 232 43 discriminator 3 view .LVU161
 805 001a 0134     		adds	r4, r4, #1
 806              	.LVL94:
 232:./app/peripheral/src/OLED_IIC_Config.c **** 		{
 807              		.loc 1 232 43 is_stmt 0 discriminator 3 view .LVU162
 808 001c E4B2     		uxtb	r4, r4
 809              	.LVL95:
 810              	.L53:
 232:./app/peripheral/src/OLED_IIC_Config.c **** 		{
 811              		.loc 1 232 29 is_stmt 1 discriminator 1 view .LVU163
 812 001e AC42     		cmp	r4, r5
 813 0020 F2D3     		bcc	.L54
 814              	.LBE8:
 237:./app/peripheral/src/OLED_IIC_Config.c **** 		}
 238:./app/peripheral/src/OLED_IIC_Config.c **** }
 815              		.loc 1 238 1 is_stmt 0 view .LVU164
 816 0022 38BD     		pop	{r3, r4, r5, pc}
 817              		.loc 1 238 1 view .LVU165
 818              		.cfi_endproc
 819              	.LFE251:
 821              		.section	.text.OLED_HorizontalShift,"ax",%progbits
 822              		.align	1
 823              		.global	OLED_HorizontalShift
 824              		.syntax unified
 825              		.thumb
 826              		.thumb_func
 828              	OLED_HorizontalShift:
 829              	.LVL96:
 830              	.LFB252:
 239:./app/peripheral/src/OLED_IIC_Config.c **** 
 240:./app/peripheral/src/OLED_IIC_Config.c **** 
 241:./app/peripheral/src/OLED_IIC_Config.c **** /**
 242:./app/peripheral/src/OLED_IIC_Config.c ****  * ************************************************************************
 243:./app/peripheral/src/OLED_IIC_Config.c ****  * @brief 屏幕内容水平方向滚动播放
ARM GAS  /tmp/cc2Ggas6.s 			page 20


 244:./app/peripheral/src/OLED_IIC_Config.c ****  * 
 245:./app/peripheral/src/OLED_IIC_Config.c ****  * @param[in] start_page  	开始页数	(0~7)
 246:./app/peripheral/src/OLED_IIC_Config.c ****  * @param[in] end_page  	结束页数	(0~7)
 247:./app/peripheral/src/OLED_IIC_Config.c ****  * @param[in] direction  	滚动方向
 248:./app/peripheral/src/OLED_IIC_Config.c ****  * 								左		LEFT	0x27
 249:./app/peripheral/src/OLED_IIC_Config.c ****  * 								右		RIGHT	0x26
 250:./app/peripheral/src/OLED_IIC_Config.c ****  * @note 在开始页数和结束页数之间的内容才会滚动播放，且写命令顺序不得
 251:./app/peripheral/src/OLED_IIC_Config.c ****  * ************************************************************************
 252:./app/peripheral/src/OLED_IIC_Config.c ****  */
 253:./app/peripheral/src/OLED_IIC_Config.c **** void OLED_HorizontalShift(unsigned char start_page,unsigned char end_page,unsigned char direction)
 254:./app/peripheral/src/OLED_IIC_Config.c **** {
 831              		.loc 1 254 1 is_stmt 1 view -0
 832              		.cfi_startproc
 833              		@ args = 0, pretend = 0, frame = 0
 834              		@ frame_needed = 0, uses_anonymous_args = 0
 835              		.loc 1 254 1 is_stmt 0 view .LVU167
 836 0000 70B5     		push	{r4, r5, r6, lr}
 837              	.LCFI13:
 838              		.cfi_def_cfa_offset 16
 839              		.cfi_offset 4, -16
 840              		.cfi_offset 5, -12
 841              		.cfi_offset 6, -8
 842              		.cfi_offset 14, -4
 843 0002 0546     		mov	r5, r0
 844 0004 0C46     		mov	r4, r1
 845 0006 1646     		mov	r6, r2
 255:./app/peripheral/src/OLED_IIC_Config.c **** 	WriteCmd(0x2e);  //关闭滚动
 846              		.loc 1 255 2 is_stmt 1 view .LVU168
 847 0008 2E20     		movs	r0, #46
 848              	.LVL97:
 849              		.loc 1 255 2 is_stmt 0 view .LVU169
 850 000a FFF7FEFF 		bl	WriteCmd
 851              	.LVL98:
 256:./app/peripheral/src/OLED_IIC_Config.c **** 
 257:./app/peripheral/src/OLED_IIC_Config.c **** 	WriteCmd(direction);//设置滚动方向
 852              		.loc 1 257 2 is_stmt 1 view .LVU170
 853 000e 3046     		mov	r0, r6
 854 0010 FFF7FEFF 		bl	WriteCmd
 855              	.LVL99:
 258:./app/peripheral/src/OLED_IIC_Config.c **** 	WriteCmd(0x00);//虚拟字节设置，默认为0x00
 856              		.loc 1 258 2 view .LVU171
 857 0014 0020     		movs	r0, #0
 858 0016 FFF7FEFF 		bl	WriteCmd
 859              	.LVL100:
 259:./app/peripheral/src/OLED_IIC_Config.c **** 	WriteCmd(start_page);//设置开始页地址
 860              		.loc 1 259 2 view .LVU172
 861 001a 2846     		mov	r0, r5
 862 001c FFF7FEFF 		bl	WriteCmd
 863              	.LVL101:
 260:./app/peripheral/src/OLED_IIC_Config.c **** 	WriteCmd(0x05);//设置每个滚动步骤之间的时间间隔的帧频
 864              		.loc 1 260 2 view .LVU173
 865 0020 0520     		movs	r0, #5
 866 0022 FFF7FEFF 		bl	WriteCmd
 867              	.LVL102:
 261:./app/peripheral/src/OLED_IIC_Config.c **** 	WriteCmd(end_page);//设置结束页地址
 868              		.loc 1 261 2 view .LVU174
 869 0026 2046     		mov	r0, r4
ARM GAS  /tmp/cc2Ggas6.s 			page 21


 870 0028 FFF7FEFF 		bl	WriteCmd
 871              	.LVL103:
 262:./app/peripheral/src/OLED_IIC_Config.c **** 	WriteCmd(0x00);//虚拟字节设置，默认为0x00
 872              		.loc 1 262 2 view .LVU175
 873 002c 0020     		movs	r0, #0
 874 002e FFF7FEFF 		bl	WriteCmd
 875              	.LVL104:
 263:./app/peripheral/src/OLED_IIC_Config.c **** 	WriteCmd(0xff);//虚拟字节设置，默认为0xff
 876              		.loc 1 263 2 view .LVU176
 877 0032 FF20     		movs	r0, #255
 878 0034 FFF7FEFF 		bl	WriteCmd
 879              	.LVL105:
 264:./app/peripheral/src/OLED_IIC_Config.c **** 
 265:./app/peripheral/src/OLED_IIC_Config.c **** 	WriteCmd(0x2f);//开启滚动-0x2f，禁用滚动-0x2e，禁用需要重写数据
 880              		.loc 1 265 2 view .LVU177
 881 0038 2F20     		movs	r0, #47
 882 003a FFF7FEFF 		bl	WriteCmd
 883              	.LVL106:
 266:./app/peripheral/src/OLED_IIC_Config.c **** }
 884              		.loc 1 266 1 is_stmt 0 view .LVU178
 885 003e 70BD     		pop	{r4, r5, r6, pc}
 886              		.loc 1 266 1 view .LVU179
 887              		.cfi_endproc
 888              	.LFE252:
 890              		.global	ScreenBuffer
 891              		.section	.bss.ScreenBuffer,"aw",%nobits
 892              		.align	2
 895              	ScreenBuffer:
 896 0000 00000000 		.space	1024
 896      00000000 
 896      00000000 
 896      00000000 
 896      00000000 
 897              		.text
 898              	.Letext0:
 899              		.file 2 "/usr/lib/gcc/arm-none-eabi/13.2.1/include/stdint.h"
 900              		.file 3 "./Drivers/CMSIS/Device/ST/STM32F4xx/Include/stm32f407xx.h"
 901              		.file 4 "./Drivers/STM32F4xx_HAL_Driver/Inc/stm32f4xx_hal_def.h"
 902              		.file 5 "./Drivers/STM32F4xx_HAL_Driver/Inc/stm32f4xx_hal_dma.h"
 903              		.file 6 "./Drivers/STM32F4xx_HAL_Driver/Inc/stm32f4xx_hal_i2c.h"
 904              		.file 7 "./Core/Inc/i2c.h"
 905              		.file 8 "./Drivers/STM32F4xx_HAL_Driver/Inc/stm32f4xx_hal.h"
ARM GAS  /tmp/cc2Ggas6.s 			page 22

