ARM GAS  C:\Users\Dennis\AppData\Local\Temp\ccFAPFWp.s 			page 1


   1              		.cpu cortex-m4
   2              		.arch armv7e-m
   3              		.fpu fpv4-sp-d16
   4              		.eabi_attribute 27, 1
   5              		.eabi_attribute 28, 1
   6              		.eabi_attribute 20, 1
   7              		.eabi_attribute 21, 1
   8              		.eabi_attribute 23, 3
   9              		.eabi_attribute 24, 1
  10              		.eabi_attribute 25, 1
  11              		.eabi_attribute 26, 1
  12              		.eabi_attribute 30, 1
  13              		.eabi_attribute 34, 1
  14              		.eabi_attribute 18, 4
  15              		.file	"spi.c"
  16              		.text
  17              	.Ltext0:
  18              		.cfi_sections	.debug_frame
  19              		.section	.text.MX_SPI1_Init,"ax",%progbits
  20              		.align	1
  21              		.global	MX_SPI1_Init
  22              		.syntax unified
  23              		.thumb
  24              		.thumb_func
  26              	MX_SPI1_Init:
  27              	.LFB239:
  28              		.file 1 "./Core/Src/spi.c"
   1:./Core/Src/spi.c **** /* USER CODE BEGIN Header */
   2:./Core/Src/spi.c **** /**
   3:./Core/Src/spi.c ****   ******************************************************************************
   4:./Core/Src/spi.c ****   * @file    spi.c
   5:./Core/Src/spi.c ****   * @brief   This file provides code for the configuration
   6:./Core/Src/spi.c ****   *          of the SPI instances.
   7:./Core/Src/spi.c ****   ******************************************************************************
   8:./Core/Src/spi.c ****   * @attention
   9:./Core/Src/spi.c ****   *
  10:./Core/Src/spi.c ****   * Copyright (c) 2025 STMicroelectronics.
  11:./Core/Src/spi.c ****   * All rights reserved.
  12:./Core/Src/spi.c ****   *
  13:./Core/Src/spi.c ****   * This software is licensed under terms that can be found in the LICENSE file
  14:./Core/Src/spi.c ****   * in the root directory of this software component.
  15:./Core/Src/spi.c ****   * If no LICENSE file comes with this software, it is provided AS-IS.
  16:./Core/Src/spi.c ****   *
  17:./Core/Src/spi.c ****   ******************************************************************************
  18:./Core/Src/spi.c ****   */
  19:./Core/Src/spi.c **** /* USER CODE END Header */
  20:./Core/Src/spi.c **** /* Includes ------------------------------------------------------------------*/
  21:./Core/Src/spi.c **** #include "spi.h"
  22:./Core/Src/spi.c **** 
  23:./Core/Src/spi.c **** /* USER CODE BEGIN 0 */
  24:./Core/Src/spi.c **** 
  25:./Core/Src/spi.c **** /* USER CODE END 0 */
  26:./Core/Src/spi.c **** 
  27:./Core/Src/spi.c **** SPI_HandleTypeDef hspi1;
  28:./Core/Src/spi.c **** SPI_HandleTypeDef hspi2;
  29:./Core/Src/spi.c **** DMA_HandleTypeDef hdma_spi1_tx;
  30:./Core/Src/spi.c **** DMA_HandleTypeDef hdma_spi1_rx;
ARM GAS  C:\Users\Dennis\AppData\Local\Temp\ccFAPFWp.s 			page 2


  31:./Core/Src/spi.c **** 
  32:./Core/Src/spi.c **** /* SPI1 init function */
  33:./Core/Src/spi.c **** void MX_SPI1_Init(void)
  34:./Core/Src/spi.c **** {
  29              		.loc 1 34 1 view -0
  30              		.cfi_startproc
  31              		@ args = 0, pretend = 0, frame = 0
  32              		@ frame_needed = 0, uses_anonymous_args = 0
  33 0000 08B5     		push	{r3, lr}
  34              	.LCFI0:
  35              		.cfi_def_cfa_offset 8
  36              		.cfi_offset 3, -8
  37              		.cfi_offset 14, -4
  35:./Core/Src/spi.c **** 
  36:./Core/Src/spi.c ****   /* USER CODE BEGIN SPI1_Init 0 */
  37:./Core/Src/spi.c **** 
  38:./Core/Src/spi.c ****   /* USER CODE END SPI1_Init 0 */
  39:./Core/Src/spi.c **** 
  40:./Core/Src/spi.c ****   /* USER CODE BEGIN SPI1_Init 1 */
  41:./Core/Src/spi.c **** 
  42:./Core/Src/spi.c ****   /* USER CODE END SPI1_Init 1 */
  43:./Core/Src/spi.c ****   hspi1.Instance = SPI1;
  38              		.loc 1 43 3 view .LVU1
  39              		.loc 1 43 18 is_stmt 0 view .LVU2
  40 0002 0D48     		ldr	r0, .L5
  41 0004 0D4B     		ldr	r3, .L5+4
  42 0006 0360     		str	r3, [r0]
  44:./Core/Src/spi.c ****   hspi1.Init.Mode = SPI_MODE_MASTER;
  43              		.loc 1 44 3 is_stmt 1 view .LVU3
  44              		.loc 1 44 19 is_stmt 0 view .LVU4
  45 0008 4FF48273 		mov	r3, #260
  46 000c 4360     		str	r3, [r0, #4]
  45:./Core/Src/spi.c ****   hspi1.Init.Direction = SPI_DIRECTION_2LINES;
  47              		.loc 1 45 3 is_stmt 1 view .LVU5
  48              		.loc 1 45 24 is_stmt 0 view .LVU6
  49 000e 0023     		movs	r3, #0
  50 0010 8360     		str	r3, [r0, #8]
  46:./Core/Src/spi.c ****   hspi1.Init.DataSize = SPI_DATASIZE_8BIT;
  51              		.loc 1 46 3 is_stmt 1 view .LVU7
  52              		.loc 1 46 23 is_stmt 0 view .LVU8
  53 0012 C360     		str	r3, [r0, #12]
  47:./Core/Src/spi.c ****   hspi1.Init.CLKPolarity = SPI_POLARITY_LOW;
  54              		.loc 1 47 3 is_stmt 1 view .LVU9
  55              		.loc 1 47 26 is_stmt 0 view .LVU10
  56 0014 0361     		str	r3, [r0, #16]
  48:./Core/Src/spi.c ****   hspi1.Init.CLKPhase = SPI_PHASE_1EDGE;
  57              		.loc 1 48 3 is_stmt 1 view .LVU11
  58              		.loc 1 48 23 is_stmt 0 view .LVU12
  59 0016 4361     		str	r3, [r0, #20]
  49:./Core/Src/spi.c ****   hspi1.Init.NSS = SPI_NSS_SOFT;
  60              		.loc 1 49 3 is_stmt 1 view .LVU13
  61              		.loc 1 49 18 is_stmt 0 view .LVU14
  62 0018 4FF40072 		mov	r2, #512
  63 001c 8261     		str	r2, [r0, #24]
  50:./Core/Src/spi.c ****   hspi1.Init.BaudRatePrescaler = SPI_BAUDRATEPRESCALER_2;
  64              		.loc 1 50 3 is_stmt 1 view .LVU15
  65              		.loc 1 50 32 is_stmt 0 view .LVU16
ARM GAS  C:\Users\Dennis\AppData\Local\Temp\ccFAPFWp.s 			page 3


  66 001e C361     		str	r3, [r0, #28]
  51:./Core/Src/spi.c ****   hspi1.Init.FirstBit = SPI_FIRSTBIT_MSB;
  67              		.loc 1 51 3 is_stmt 1 view .LVU17
  68              		.loc 1 51 23 is_stmt 0 view .LVU18
  69 0020 0362     		str	r3, [r0, #32]
  52:./Core/Src/spi.c ****   hspi1.Init.TIMode = SPI_TIMODE_DISABLE;
  70              		.loc 1 52 3 is_stmt 1 view .LVU19
  71              		.loc 1 52 21 is_stmt 0 view .LVU20
  72 0022 4362     		str	r3, [r0, #36]
  53:./Core/Src/spi.c ****   hspi1.Init.CRCCalculation = SPI_CRCCALCULATION_DISABLE;
  73              		.loc 1 53 3 is_stmt 1 view .LVU21
  74              		.loc 1 53 29 is_stmt 0 view .LVU22
  75 0024 8362     		str	r3, [r0, #40]
  54:./Core/Src/spi.c ****   hspi1.Init.CRCPolynomial = 10;
  76              		.loc 1 54 3 is_stmt 1 view .LVU23
  77              		.loc 1 54 28 is_stmt 0 view .LVU24
  78 0026 0A23     		movs	r3, #10
  79 0028 C362     		str	r3, [r0, #44]
  55:./Core/Src/spi.c ****   if (HAL_SPI_Init(&hspi1) != HAL_OK)
  80              		.loc 1 55 3 is_stmt 1 view .LVU25
  81              		.loc 1 55 7 is_stmt 0 view .LVU26
  82 002a FFF7FEFF 		bl	HAL_SPI_Init
  83              	.LVL0:
  84              		.loc 1 55 6 view .LVU27
  85 002e 00B9     		cbnz	r0, .L4
  86              	.L1:
  56:./Core/Src/spi.c ****   {
  57:./Core/Src/spi.c ****     Error_Handler();
  58:./Core/Src/spi.c ****   }
  59:./Core/Src/spi.c ****   /* USER CODE BEGIN SPI1_Init 2 */
  60:./Core/Src/spi.c **** 
  61:./Core/Src/spi.c ****   /* USER CODE END SPI1_Init 2 */
  62:./Core/Src/spi.c **** 
  63:./Core/Src/spi.c **** }
  87              		.loc 1 63 1 view .LVU28
  88 0030 08BD     		pop	{r3, pc}
  89              	.L4:
  57:./Core/Src/spi.c ****   }
  90              		.loc 1 57 5 is_stmt 1 view .LVU29
  91 0032 FFF7FEFF 		bl	Error_Handler
  92              	.LVL1:
  93              		.loc 1 63 1 is_stmt 0 view .LVU30
  94 0036 FBE7     		b	.L1
  95              	.L6:
  96              		.align	2
  97              	.L5:
  98 0038 00000000 		.word	.LANCHOR0
  99 003c 00300140 		.word	1073819648
 100              		.cfi_endproc
 101              	.LFE239:
 103              		.section	.text.MX_SPI2_Init,"ax",%progbits
 104              		.align	1
 105              		.global	MX_SPI2_Init
 106              		.syntax unified
 107              		.thumb
 108              		.thumb_func
 110              	MX_SPI2_Init:
ARM GAS  C:\Users\Dennis\AppData\Local\Temp\ccFAPFWp.s 			page 4


 111              	.LFB240:
  64:./Core/Src/spi.c **** /* SPI2 init function */
  65:./Core/Src/spi.c **** void MX_SPI2_Init(void)
  66:./Core/Src/spi.c **** {
 112              		.loc 1 66 1 is_stmt 1 view -0
 113              		.cfi_startproc
 114              		@ args = 0, pretend = 0, frame = 0
 115              		@ frame_needed = 0, uses_anonymous_args = 0
 116 0000 08B5     		push	{r3, lr}
 117              	.LCFI1:
 118              		.cfi_def_cfa_offset 8
 119              		.cfi_offset 3, -8
 120              		.cfi_offset 14, -4
  67:./Core/Src/spi.c **** 
  68:./Core/Src/spi.c ****   /* USER CODE BEGIN SPI2_Init 0 */
  69:./Core/Src/spi.c **** 
  70:./Core/Src/spi.c ****   /* USER CODE END SPI2_Init 0 */
  71:./Core/Src/spi.c **** 
  72:./Core/Src/spi.c ****   /* USER CODE BEGIN SPI2_Init 1 */
  73:./Core/Src/spi.c **** 
  74:./Core/Src/spi.c ****   /* USER CODE END SPI2_Init 1 */
  75:./Core/Src/spi.c ****   hspi2.Instance = SPI2;
 121              		.loc 1 75 3 view .LVU32
 122              		.loc 1 75 18 is_stmt 0 view .LVU33
 123 0002 0D48     		ldr	r0, .L11
 124 0004 0D4B     		ldr	r3, .L11+4
 125 0006 0360     		str	r3, [r0]
  76:./Core/Src/spi.c ****   hspi2.Init.Mode = SPI_MODE_MASTER;
 126              		.loc 1 76 3 is_stmt 1 view .LVU34
 127              		.loc 1 76 19 is_stmt 0 view .LVU35
 128 0008 4FF48273 		mov	r3, #260
 129 000c 4360     		str	r3, [r0, #4]
  77:./Core/Src/spi.c ****   hspi2.Init.Direction = SPI_DIRECTION_2LINES;
 130              		.loc 1 77 3 is_stmt 1 view .LVU36
 131              		.loc 1 77 24 is_stmt 0 view .LVU37
 132 000e 0023     		movs	r3, #0
 133 0010 8360     		str	r3, [r0, #8]
  78:./Core/Src/spi.c ****   hspi2.Init.DataSize = SPI_DATASIZE_8BIT;
 134              		.loc 1 78 3 is_stmt 1 view .LVU38
 135              		.loc 1 78 23 is_stmt 0 view .LVU39
 136 0012 C360     		str	r3, [r0, #12]
  79:./Core/Src/spi.c ****   hspi2.Init.CLKPolarity = SPI_POLARITY_LOW;
 137              		.loc 1 79 3 is_stmt 1 view .LVU40
 138              		.loc 1 79 26 is_stmt 0 view .LVU41
 139 0014 0361     		str	r3, [r0, #16]
  80:./Core/Src/spi.c ****   hspi2.Init.CLKPhase = SPI_PHASE_1EDGE;
 140              		.loc 1 80 3 is_stmt 1 view .LVU42
 141              		.loc 1 80 23 is_stmt 0 view .LVU43
 142 0016 4361     		str	r3, [r0, #20]
  81:./Core/Src/spi.c ****   hspi2.Init.NSS = SPI_NSS_SOFT;
 143              		.loc 1 81 3 is_stmt 1 view .LVU44
 144              		.loc 1 81 18 is_stmt 0 view .LVU45
 145 0018 4FF40072 		mov	r2, #512
 146 001c 8261     		str	r2, [r0, #24]
  82:./Core/Src/spi.c ****   hspi2.Init.BaudRatePrescaler = SPI_BAUDRATEPRESCALER_2;
 147              		.loc 1 82 3 is_stmt 1 view .LVU46
 148              		.loc 1 82 32 is_stmt 0 view .LVU47
ARM GAS  C:\Users\Dennis\AppData\Local\Temp\ccFAPFWp.s 			page 5


 149 001e C361     		str	r3, [r0, #28]
  83:./Core/Src/spi.c ****   hspi2.Init.FirstBit = SPI_FIRSTBIT_MSB;
 150              		.loc 1 83 3 is_stmt 1 view .LVU48
 151              		.loc 1 83 23 is_stmt 0 view .LVU49
 152 0020 0362     		str	r3, [r0, #32]
  84:./Core/Src/spi.c ****   hspi2.Init.TIMode = SPI_TIMODE_DISABLE;
 153              		.loc 1 84 3 is_stmt 1 view .LVU50
 154              		.loc 1 84 21 is_stmt 0 view .LVU51
 155 0022 4362     		str	r3, [r0, #36]
  85:./Core/Src/spi.c ****   hspi2.Init.CRCCalculation = SPI_CRCCALCULATION_DISABLE;
 156              		.loc 1 85 3 is_stmt 1 view .LVU52
 157              		.loc 1 85 29 is_stmt 0 view .LVU53
 158 0024 8362     		str	r3, [r0, #40]
  86:./Core/Src/spi.c ****   hspi2.Init.CRCPolynomial = 10;
 159              		.loc 1 86 3 is_stmt 1 view .LVU54
 160              		.loc 1 86 28 is_stmt 0 view .LVU55
 161 0026 0A23     		movs	r3, #10
 162 0028 C362     		str	r3, [r0, #44]
  87:./Core/Src/spi.c ****   if (HAL_SPI_Init(&hspi2) != HAL_OK)
 163              		.loc 1 87 3 is_stmt 1 view .LVU56
 164              		.loc 1 87 7 is_stmt 0 view .LVU57
 165 002a FFF7FEFF 		bl	HAL_SPI_Init
 166              	.LVL2:
 167              		.loc 1 87 6 view .LVU58
 168 002e 00B9     		cbnz	r0, .L10
 169              	.L7:
  88:./Core/Src/spi.c ****   {
  89:./Core/Src/spi.c ****     Error_Handler();
  90:./Core/Src/spi.c ****   }
  91:./Core/Src/spi.c ****   /* USER CODE BEGIN SPI2_Init 2 */
  92:./Core/Src/spi.c **** 
  93:./Core/Src/spi.c ****   /* USER CODE END SPI2_Init 2 */
  94:./Core/Src/spi.c **** 
  95:./Core/Src/spi.c **** }
 170              		.loc 1 95 1 view .LVU59
 171 0030 08BD     		pop	{r3, pc}
 172              	.L10:
  89:./Core/Src/spi.c ****   }
 173              		.loc 1 89 5 is_stmt 1 view .LVU60
 174 0032 FFF7FEFF 		bl	Error_Handler
 175              	.LVL3:
 176              		.loc 1 95 1 is_stmt 0 view .LVU61
 177 0036 FBE7     		b	.L7
 178              	.L12:
 179              		.align	2
 180              	.L11:
 181 0038 00000000 		.word	.LANCHOR1
 182 003c 00380040 		.word	1073756160
 183              		.cfi_endproc
 184              	.LFE240:
 186              		.section	.text.HAL_SPI_MspInit,"ax",%progbits
 187              		.align	1
 188              		.global	HAL_SPI_MspInit
 189              		.syntax unified
 190              		.thumb
 191              		.thumb_func
 193              	HAL_SPI_MspInit:
ARM GAS  C:\Users\Dennis\AppData\Local\Temp\ccFAPFWp.s 			page 6


 194              	.LVL4:
 195              	.LFB241:
  96:./Core/Src/spi.c **** 
  97:./Core/Src/spi.c **** void HAL_SPI_MspInit(SPI_HandleTypeDef* spiHandle)
  98:./Core/Src/spi.c **** {
 196              		.loc 1 98 1 is_stmt 1 view -0
 197              		.cfi_startproc
 198              		@ args = 0, pretend = 0, frame = 40
 199              		@ frame_needed = 0, uses_anonymous_args = 0
 200              		.loc 1 98 1 is_stmt 0 view .LVU63
 201 0000 30B5     		push	{r4, r5, lr}
 202              	.LCFI2:
 203              		.cfi_def_cfa_offset 12
 204              		.cfi_offset 4, -12
 205              		.cfi_offset 5, -8
 206              		.cfi_offset 14, -4
 207 0002 8BB0     		sub	sp, sp, #44
 208              	.LCFI3:
 209              		.cfi_def_cfa_offset 56
  99:./Core/Src/spi.c **** 
 100:./Core/Src/spi.c ****   GPIO_InitTypeDef GPIO_InitStruct = {0};
 210              		.loc 1 100 3 is_stmt 1 view .LVU64
 211              		.loc 1 100 20 is_stmt 0 view .LVU65
 212 0004 0023     		movs	r3, #0
 213 0006 0593     		str	r3, [sp, #20]
 214 0008 0693     		str	r3, [sp, #24]
 215 000a 0793     		str	r3, [sp, #28]
 216 000c 0893     		str	r3, [sp, #32]
 217 000e 0993     		str	r3, [sp, #36]
 101:./Core/Src/spi.c ****   if(spiHandle->Instance==SPI1)
 218              		.loc 1 101 3 is_stmt 1 view .LVU66
 219              		.loc 1 101 15 is_stmt 0 view .LVU67
 220 0010 0368     		ldr	r3, [r0]
 221              		.loc 1 101 5 view .LVU68
 222 0012 4A4A     		ldr	r2, .L23
 223 0014 9342     		cmp	r3, r2
 224 0016 04D0     		beq	.L19
 102:./Core/Src/spi.c ****   {
 103:./Core/Src/spi.c ****   /* USER CODE BEGIN SPI1_MspInit 0 */
 104:./Core/Src/spi.c **** 
 105:./Core/Src/spi.c ****   /* USER CODE END SPI1_MspInit 0 */
 106:./Core/Src/spi.c ****     /* SPI1 clock enable */
 107:./Core/Src/spi.c ****     __HAL_RCC_SPI1_CLK_ENABLE();
 108:./Core/Src/spi.c **** 
 109:./Core/Src/spi.c ****     __HAL_RCC_GPIOA_CLK_ENABLE();
 110:./Core/Src/spi.c ****     /**SPI1 GPIO Configuration
 111:./Core/Src/spi.c ****     PA5     ------> SPI1_SCK
 112:./Core/Src/spi.c ****     PA6     ------> SPI1_MISO
 113:./Core/Src/spi.c ****     PA7     ------> SPI1_MOSI
 114:./Core/Src/spi.c ****     */
 115:./Core/Src/spi.c ****     GPIO_InitStruct.Pin = GPIO_PIN_5|GPIO_PIN_6|GPIO_PIN_7;
 116:./Core/Src/spi.c ****     GPIO_InitStruct.Mode = GPIO_MODE_AF_PP;
 117:./Core/Src/spi.c ****     GPIO_InitStruct.Pull = GPIO_NOPULL;
 118:./Core/Src/spi.c ****     GPIO_InitStruct.Speed = GPIO_SPEED_FREQ_VERY_HIGH;
 119:./Core/Src/spi.c ****     GPIO_InitStruct.Alternate = GPIO_AF5_SPI1;
 120:./Core/Src/spi.c ****     HAL_GPIO_Init(GPIOA, &GPIO_InitStruct);
 121:./Core/Src/spi.c **** 
ARM GAS  C:\Users\Dennis\AppData\Local\Temp\ccFAPFWp.s 			page 7


 122:./Core/Src/spi.c ****     /* SPI1 DMA Init */
 123:./Core/Src/spi.c ****     /* SPI1_TX Init */
 124:./Core/Src/spi.c ****     hdma_spi1_tx.Instance = DMA2_Stream3;
 125:./Core/Src/spi.c ****     hdma_spi1_tx.Init.Channel = DMA_CHANNEL_3;
 126:./Core/Src/spi.c ****     hdma_spi1_tx.Init.Direction = DMA_MEMORY_TO_PERIPH;
 127:./Core/Src/spi.c ****     hdma_spi1_tx.Init.PeriphInc = DMA_PINC_DISABLE;
 128:./Core/Src/spi.c ****     hdma_spi1_tx.Init.MemInc = DMA_MINC_ENABLE;
 129:./Core/Src/spi.c ****     hdma_spi1_tx.Init.PeriphDataAlignment = DMA_PDATAALIGN_BYTE;
 130:./Core/Src/spi.c ****     hdma_spi1_tx.Init.MemDataAlignment = DMA_MDATAALIGN_BYTE;
 131:./Core/Src/spi.c ****     hdma_spi1_tx.Init.Mode = DMA_NORMAL;
 132:./Core/Src/spi.c ****     hdma_spi1_tx.Init.Priority = DMA_PRIORITY_LOW;
 133:./Core/Src/spi.c ****     hdma_spi1_tx.Init.FIFOMode = DMA_FIFOMODE_DISABLE;
 134:./Core/Src/spi.c ****     if (HAL_DMA_Init(&hdma_spi1_tx) != HAL_OK)
 135:./Core/Src/spi.c ****     {
 136:./Core/Src/spi.c ****       Error_Handler();
 137:./Core/Src/spi.c ****     }
 138:./Core/Src/spi.c **** 
 139:./Core/Src/spi.c ****     __HAL_LINKDMA(spiHandle,hdmatx,hdma_spi1_tx);
 140:./Core/Src/spi.c **** 
 141:./Core/Src/spi.c ****     /* SPI1_RX Init */
 142:./Core/Src/spi.c ****     hdma_spi1_rx.Instance = DMA2_Stream0;
 143:./Core/Src/spi.c ****     hdma_spi1_rx.Init.Channel = DMA_CHANNEL_3;
 144:./Core/Src/spi.c ****     hdma_spi1_rx.Init.Direction = DMA_PERIPH_TO_MEMORY;
 145:./Core/Src/spi.c ****     hdma_spi1_rx.Init.PeriphInc = DMA_PINC_DISABLE;
 146:./Core/Src/spi.c ****     hdma_spi1_rx.Init.MemInc = DMA_MINC_ENABLE;
 147:./Core/Src/spi.c ****     hdma_spi1_rx.Init.PeriphDataAlignment = DMA_PDATAALIGN_BYTE;
 148:./Core/Src/spi.c ****     hdma_spi1_rx.Init.MemDataAlignment = DMA_MDATAALIGN_BYTE;
 149:./Core/Src/spi.c ****     hdma_spi1_rx.Init.Mode = DMA_NORMAL;
 150:./Core/Src/spi.c ****     hdma_spi1_rx.Init.Priority = DMA_PRIORITY_LOW;
 151:./Core/Src/spi.c ****     hdma_spi1_rx.Init.FIFOMode = DMA_FIFOMODE_DISABLE;
 152:./Core/Src/spi.c ****     if (HAL_DMA_Init(&hdma_spi1_rx) != HAL_OK)
 153:./Core/Src/spi.c ****     {
 154:./Core/Src/spi.c ****       Error_Handler();
 155:./Core/Src/spi.c ****     }
 156:./Core/Src/spi.c **** 
 157:./Core/Src/spi.c ****     __HAL_LINKDMA(spiHandle,hdmarx,hdma_spi1_rx);
 158:./Core/Src/spi.c **** 
 159:./Core/Src/spi.c ****     /* SPI1 interrupt Init */
 160:./Core/Src/spi.c ****     HAL_NVIC_SetPriority(SPI1_IRQn, 0, 0);
 161:./Core/Src/spi.c ****     HAL_NVIC_EnableIRQ(SPI1_IRQn);
 162:./Core/Src/spi.c ****   /* USER CODE BEGIN SPI1_MspInit 1 */
 163:./Core/Src/spi.c **** 
 164:./Core/Src/spi.c ****   /* USER CODE END SPI1_MspInit 1 */
 165:./Core/Src/spi.c ****   }
 166:./Core/Src/spi.c ****   else if(spiHandle->Instance==SPI2)
 225              		.loc 1 166 8 is_stmt 1 view .LVU69
 226              		.loc 1 166 10 is_stmt 0 view .LVU70
 227 0018 494A     		ldr	r2, .L23+4
 228 001a 9342     		cmp	r3, r2
 229 001c 61D0     		beq	.L20
 230              	.LVL5:
 231              	.L13:
 167:./Core/Src/spi.c ****   {
 168:./Core/Src/spi.c ****   /* USER CODE BEGIN SPI2_MspInit 0 */
 169:./Core/Src/spi.c **** 
 170:./Core/Src/spi.c ****   /* USER CODE END SPI2_MspInit 0 */
 171:./Core/Src/spi.c ****     /* SPI2 clock enable */
ARM GAS  C:\Users\Dennis\AppData\Local\Temp\ccFAPFWp.s 			page 8


 172:./Core/Src/spi.c ****     __HAL_RCC_SPI2_CLK_ENABLE();
 173:./Core/Src/spi.c **** 
 174:./Core/Src/spi.c ****     __HAL_RCC_GPIOB_CLK_ENABLE();
 175:./Core/Src/spi.c ****     /**SPI2 GPIO Configuration
 176:./Core/Src/spi.c ****     PB13     ------> SPI2_SCK
 177:./Core/Src/spi.c ****     PB14     ------> SPI2_MISO
 178:./Core/Src/spi.c ****     PB15     ------> SPI2_MOSI
 179:./Core/Src/spi.c ****     */
 180:./Core/Src/spi.c ****     GPIO_InitStruct.Pin = GPIO_PIN_13|GPIO_PIN_14|GPIO_PIN_15;
 181:./Core/Src/spi.c ****     GPIO_InitStruct.Mode = GPIO_MODE_AF_PP;
 182:./Core/Src/spi.c ****     GPIO_InitStruct.Pull = GPIO_NOPULL;
 183:./Core/Src/spi.c ****     GPIO_InitStruct.Speed = GPIO_SPEED_FREQ_VERY_HIGH;
 184:./Core/Src/spi.c ****     GPIO_InitStruct.Alternate = GPIO_AF5_SPI2;
 185:./Core/Src/spi.c ****     HAL_GPIO_Init(GPIOB, &GPIO_InitStruct);
 186:./Core/Src/spi.c **** 
 187:./Core/Src/spi.c ****     /* SPI2 interrupt Init */
 188:./Core/Src/spi.c ****     HAL_NVIC_SetPriority(SPI2_IRQn, 0, 0);
 189:./Core/Src/spi.c ****     HAL_NVIC_EnableIRQ(SPI2_IRQn);
 190:./Core/Src/spi.c ****   /* USER CODE BEGIN SPI2_MspInit 1 */
 191:./Core/Src/spi.c **** 
 192:./Core/Src/spi.c ****   /* USER CODE END SPI2_MspInit 1 */
 193:./Core/Src/spi.c ****   }
 194:./Core/Src/spi.c **** }
 232              		.loc 1 194 1 view .LVU71
 233 001e 0BB0     		add	sp, sp, #44
 234              	.LCFI4:
 235              		.cfi_remember_state
 236              		.cfi_def_cfa_offset 12
 237              		@ sp needed
 238 0020 30BD     		pop	{r4, r5, pc}
 239              	.LVL6:
 240              	.L19:
 241              	.LCFI5:
 242              		.cfi_restore_state
 243              		.loc 1 194 1 view .LVU72
 244 0022 0446     		mov	r4, r0
 107:./Core/Src/spi.c **** 
 245              		.loc 1 107 5 is_stmt 1 view .LVU73
 246              	.LBB2:
 107:./Core/Src/spi.c **** 
 247              		.loc 1 107 5 view .LVU74
 248 0024 0025     		movs	r5, #0
 249 0026 0195     		str	r5, [sp, #4]
 107:./Core/Src/spi.c **** 
 250              		.loc 1 107 5 view .LVU75
 251 0028 464B     		ldr	r3, .L23+8
 252 002a 5A6C     		ldr	r2, [r3, #68]
 253 002c 42F48052 		orr	r2, r2, #4096
 254 0030 5A64     		str	r2, [r3, #68]
 107:./Core/Src/spi.c **** 
 255              		.loc 1 107 5 view .LVU76
 256 0032 5A6C     		ldr	r2, [r3, #68]
 257 0034 02F48052 		and	r2, r2, #4096
 258 0038 0192     		str	r2, [sp, #4]
 107:./Core/Src/spi.c **** 
 259              		.loc 1 107 5 view .LVU77
 260 003a 019A     		ldr	r2, [sp, #4]
ARM GAS  C:\Users\Dennis\AppData\Local\Temp\ccFAPFWp.s 			page 9


 261              	.LBE2:
 107:./Core/Src/spi.c **** 
 262              		.loc 1 107 5 view .LVU78
 109:./Core/Src/spi.c ****     /**SPI1 GPIO Configuration
 263              		.loc 1 109 5 view .LVU79
 264              	.LBB3:
 109:./Core/Src/spi.c ****     /**SPI1 GPIO Configuration
 265              		.loc 1 109 5 view .LVU80
 266 003c 0295     		str	r5, [sp, #8]
 109:./Core/Src/spi.c ****     /**SPI1 GPIO Configuration
 267              		.loc 1 109 5 view .LVU81
 268 003e 1A6B     		ldr	r2, [r3, #48]
 269 0040 42F00102 		orr	r2, r2, #1
 270 0044 1A63     		str	r2, [r3, #48]
 109:./Core/Src/spi.c ****     /**SPI1 GPIO Configuration
 271              		.loc 1 109 5 view .LVU82
 272 0046 1B6B     		ldr	r3, [r3, #48]
 273 0048 03F00103 		and	r3, r3, #1
 274 004c 0293     		str	r3, [sp, #8]
 109:./Core/Src/spi.c ****     /**SPI1 GPIO Configuration
 275              		.loc 1 109 5 view .LVU83
 276 004e 029B     		ldr	r3, [sp, #8]
 277              	.LBE3:
 109:./Core/Src/spi.c ****     /**SPI1 GPIO Configuration
 278              		.loc 1 109 5 view .LVU84
 115:./Core/Src/spi.c ****     GPIO_InitStruct.Mode = GPIO_MODE_AF_PP;
 279              		.loc 1 115 5 view .LVU85
 115:./Core/Src/spi.c ****     GPIO_InitStruct.Mode = GPIO_MODE_AF_PP;
 280              		.loc 1 115 25 is_stmt 0 view .LVU86
 281 0050 E023     		movs	r3, #224
 282 0052 0593     		str	r3, [sp, #20]
 116:./Core/Src/spi.c ****     GPIO_InitStruct.Pull = GPIO_NOPULL;
 283              		.loc 1 116 5 is_stmt 1 view .LVU87
 116:./Core/Src/spi.c ****     GPIO_InitStruct.Pull = GPIO_NOPULL;
 284              		.loc 1 116 26 is_stmt 0 view .LVU88
 285 0054 0223     		movs	r3, #2
 286 0056 0693     		str	r3, [sp, #24]
 117:./Core/Src/spi.c ****     GPIO_InitStruct.Speed = GPIO_SPEED_FREQ_VERY_HIGH;
 287              		.loc 1 117 5 is_stmt 1 view .LVU89
 118:./Core/Src/spi.c ****     GPIO_InitStruct.Alternate = GPIO_AF5_SPI1;
 288              		.loc 1 118 5 view .LVU90
 118:./Core/Src/spi.c ****     GPIO_InitStruct.Alternate = GPIO_AF5_SPI1;
 289              		.loc 1 118 27 is_stmt 0 view .LVU91
 290 0058 0323     		movs	r3, #3
 291 005a 0893     		str	r3, [sp, #32]
 119:./Core/Src/spi.c ****     HAL_GPIO_Init(GPIOA, &GPIO_InitStruct);
 292              		.loc 1 119 5 is_stmt 1 view .LVU92
 119:./Core/Src/spi.c ****     HAL_GPIO_Init(GPIOA, &GPIO_InitStruct);
 293              		.loc 1 119 31 is_stmt 0 view .LVU93
 294 005c 0523     		movs	r3, #5
 295 005e 0993     		str	r3, [sp, #36]
 120:./Core/Src/spi.c **** 
 296              		.loc 1 120 5 is_stmt 1 view .LVU94
 297 0060 05A9     		add	r1, sp, #20
 298 0062 3948     		ldr	r0, .L23+12
 299              	.LVL7:
 120:./Core/Src/spi.c **** 
ARM GAS  C:\Users\Dennis\AppData\Local\Temp\ccFAPFWp.s 			page 10


 300              		.loc 1 120 5 is_stmt 0 view .LVU95
 301 0064 FFF7FEFF 		bl	HAL_GPIO_Init
 302              	.LVL8:
 124:./Core/Src/spi.c ****     hdma_spi1_tx.Init.Channel = DMA_CHANNEL_3;
 303              		.loc 1 124 5 is_stmt 1 view .LVU96
 124:./Core/Src/spi.c ****     hdma_spi1_tx.Init.Channel = DMA_CHANNEL_3;
 304              		.loc 1 124 27 is_stmt 0 view .LVU97
 305 0068 3848     		ldr	r0, .L23+16
 306 006a 394B     		ldr	r3, .L23+20
 307 006c 0360     		str	r3, [r0]
 125:./Core/Src/spi.c ****     hdma_spi1_tx.Init.Direction = DMA_MEMORY_TO_PERIPH;
 308              		.loc 1 125 5 is_stmt 1 view .LVU98
 125:./Core/Src/spi.c ****     hdma_spi1_tx.Init.Direction = DMA_MEMORY_TO_PERIPH;
 309              		.loc 1 125 31 is_stmt 0 view .LVU99
 310 006e 4FF0C063 		mov	r3, #100663296
 311 0072 4360     		str	r3, [r0, #4]
 126:./Core/Src/spi.c ****     hdma_spi1_tx.Init.PeriphInc = DMA_PINC_DISABLE;
 312              		.loc 1 126 5 is_stmt 1 view .LVU100
 126:./Core/Src/spi.c ****     hdma_spi1_tx.Init.PeriphInc = DMA_PINC_DISABLE;
 313              		.loc 1 126 33 is_stmt 0 view .LVU101
 314 0074 4023     		movs	r3, #64
 315 0076 8360     		str	r3, [r0, #8]
 127:./Core/Src/spi.c ****     hdma_spi1_tx.Init.MemInc = DMA_MINC_ENABLE;
 316              		.loc 1 127 5 is_stmt 1 view .LVU102
 127:./Core/Src/spi.c ****     hdma_spi1_tx.Init.MemInc = DMA_MINC_ENABLE;
 317              		.loc 1 127 33 is_stmt 0 view .LVU103
 318 0078 C560     		str	r5, [r0, #12]
 128:./Core/Src/spi.c ****     hdma_spi1_tx.Init.PeriphDataAlignment = DMA_PDATAALIGN_BYTE;
 319              		.loc 1 128 5 is_stmt 1 view .LVU104
 128:./Core/Src/spi.c ****     hdma_spi1_tx.Init.PeriphDataAlignment = DMA_PDATAALIGN_BYTE;
 320              		.loc 1 128 30 is_stmt 0 view .LVU105
 321 007a 4FF48063 		mov	r3, #1024
 322 007e 0361     		str	r3, [r0, #16]
 129:./Core/Src/spi.c ****     hdma_spi1_tx.Init.MemDataAlignment = DMA_MDATAALIGN_BYTE;
 323              		.loc 1 129 5 is_stmt 1 view .LVU106
 129:./Core/Src/spi.c ****     hdma_spi1_tx.Init.MemDataAlignment = DMA_MDATAALIGN_BYTE;
 324              		.loc 1 129 43 is_stmt 0 view .LVU107
 325 0080 4561     		str	r5, [r0, #20]
 130:./Core/Src/spi.c ****     hdma_spi1_tx.Init.Mode = DMA_NORMAL;
 326              		.loc 1 130 5 is_stmt 1 view .LVU108
 130:./Core/Src/spi.c ****     hdma_spi1_tx.Init.Mode = DMA_NORMAL;
 327              		.loc 1 130 40 is_stmt 0 view .LVU109
 328 0082 8561     		str	r5, [r0, #24]
 131:./Core/Src/spi.c ****     hdma_spi1_tx.Init.Priority = DMA_PRIORITY_LOW;
 329              		.loc 1 131 5 is_stmt 1 view .LVU110
 131:./Core/Src/spi.c ****     hdma_spi1_tx.Init.Priority = DMA_PRIORITY_LOW;
 330              		.loc 1 131 28 is_stmt 0 view .LVU111
 331 0084 C561     		str	r5, [r0, #28]
 132:./Core/Src/spi.c ****     hdma_spi1_tx.Init.FIFOMode = DMA_FIFOMODE_DISABLE;
 332              		.loc 1 132 5 is_stmt 1 view .LVU112
 132:./Core/Src/spi.c ****     hdma_spi1_tx.Init.FIFOMode = DMA_FIFOMODE_DISABLE;
 333              		.loc 1 132 32 is_stmt 0 view .LVU113
 334 0086 0562     		str	r5, [r0, #32]
 133:./Core/Src/spi.c ****     if (HAL_DMA_Init(&hdma_spi1_tx) != HAL_OK)
 335              		.loc 1 133 5 is_stmt 1 view .LVU114
 133:./Core/Src/spi.c ****     if (HAL_DMA_Init(&hdma_spi1_tx) != HAL_OK)
 336              		.loc 1 133 32 is_stmt 0 view .LVU115
ARM GAS  C:\Users\Dennis\AppData\Local\Temp\ccFAPFWp.s 			page 11


 337 0088 4562     		str	r5, [r0, #36]
 134:./Core/Src/spi.c ****     {
 338              		.loc 1 134 5 is_stmt 1 view .LVU116
 134:./Core/Src/spi.c ****     {
 339              		.loc 1 134 9 is_stmt 0 view .LVU117
 340 008a FFF7FEFF 		bl	HAL_DMA_Init
 341              	.LVL9:
 134:./Core/Src/spi.c ****     {
 342              		.loc 1 134 8 view .LVU118
 343 008e 10BB     		cbnz	r0, .L21
 344              	.L15:
 139:./Core/Src/spi.c **** 
 345              		.loc 1 139 5 is_stmt 1 view .LVU119
 139:./Core/Src/spi.c **** 
 346              		.loc 1 139 5 view .LVU120
 347 0090 2E4B     		ldr	r3, .L23+16
 348 0092 A364     		str	r3, [r4, #72]
 139:./Core/Src/spi.c **** 
 349              		.loc 1 139 5 view .LVU121
 350 0094 9C63     		str	r4, [r3, #56]
 139:./Core/Src/spi.c **** 
 351              		.loc 1 139 5 view .LVU122
 142:./Core/Src/spi.c ****     hdma_spi1_rx.Init.Channel = DMA_CHANNEL_3;
 352              		.loc 1 142 5 view .LVU123
 142:./Core/Src/spi.c ****     hdma_spi1_rx.Init.Channel = DMA_CHANNEL_3;
 353              		.loc 1 142 27 is_stmt 0 view .LVU124
 354 0096 2F48     		ldr	r0, .L23+24
 355 0098 2F4B     		ldr	r3, .L23+28
 356 009a 0360     		str	r3, [r0]
 143:./Core/Src/spi.c ****     hdma_spi1_rx.Init.Direction = DMA_PERIPH_TO_MEMORY;
 357              		.loc 1 143 5 is_stmt 1 view .LVU125
 143:./Core/Src/spi.c ****     hdma_spi1_rx.Init.Direction = DMA_PERIPH_TO_MEMORY;
 358              		.loc 1 143 31 is_stmt 0 view .LVU126
 359 009c 4FF0C063 		mov	r3, #100663296
 360 00a0 4360     		str	r3, [r0, #4]
 144:./Core/Src/spi.c ****     hdma_spi1_rx.Init.PeriphInc = DMA_PINC_DISABLE;
 361              		.loc 1 144 5 is_stmt 1 view .LVU127
 144:./Core/Src/spi.c ****     hdma_spi1_rx.Init.PeriphInc = DMA_PINC_DISABLE;
 362              		.loc 1 144 33 is_stmt 0 view .LVU128
 363 00a2 0023     		movs	r3, #0
 364 00a4 8360     		str	r3, [r0, #8]
 145:./Core/Src/spi.c ****     hdma_spi1_rx.Init.MemInc = DMA_MINC_ENABLE;
 365              		.loc 1 145 5 is_stmt 1 view .LVU129
 145:./Core/Src/spi.c ****     hdma_spi1_rx.Init.MemInc = DMA_MINC_ENABLE;
 366              		.loc 1 145 33 is_stmt 0 view .LVU130
 367 00a6 C360     		str	r3, [r0, #12]
 146:./Core/Src/spi.c ****     hdma_spi1_rx.Init.PeriphDataAlignment = DMA_PDATAALIGN_BYTE;
 368              		.loc 1 146 5 is_stmt 1 view .LVU131
 146:./Core/Src/spi.c ****     hdma_spi1_rx.Init.PeriphDataAlignment = DMA_PDATAALIGN_BYTE;
 369              		.loc 1 146 30 is_stmt 0 view .LVU132
 370 00a8 4FF48062 		mov	r2, #1024
 371 00ac 0261     		str	r2, [r0, #16]
 147:./Core/Src/spi.c ****     hdma_spi1_rx.Init.MemDataAlignment = DMA_MDATAALIGN_BYTE;
 372              		.loc 1 147 5 is_stmt 1 view .LVU133
 147:./Core/Src/spi.c ****     hdma_spi1_rx.Init.MemDataAlignment = DMA_MDATAALIGN_BYTE;
 373              		.loc 1 147 43 is_stmt 0 view .LVU134
 374 00ae 4361     		str	r3, [r0, #20]
ARM GAS  C:\Users\Dennis\AppData\Local\Temp\ccFAPFWp.s 			page 12


 148:./Core/Src/spi.c ****     hdma_spi1_rx.Init.Mode = DMA_NORMAL;
 375              		.loc 1 148 5 is_stmt 1 view .LVU135
 148:./Core/Src/spi.c ****     hdma_spi1_rx.Init.Mode = DMA_NORMAL;
 376              		.loc 1 148 40 is_stmt 0 view .LVU136
 377 00b0 8361     		str	r3, [r0, #24]
 149:./Core/Src/spi.c ****     hdma_spi1_rx.Init.Priority = DMA_PRIORITY_LOW;
 378              		.loc 1 149 5 is_stmt 1 view .LVU137
 149:./Core/Src/spi.c ****     hdma_spi1_rx.Init.Priority = DMA_PRIORITY_LOW;
 379              		.loc 1 149 28 is_stmt 0 view .LVU138
 380 00b2 C361     		str	r3, [r0, #28]
 150:./Core/Src/spi.c ****     hdma_spi1_rx.Init.FIFOMode = DMA_FIFOMODE_DISABLE;
 381              		.loc 1 150 5 is_stmt 1 view .LVU139
 150:./Core/Src/spi.c ****     hdma_spi1_rx.Init.FIFOMode = DMA_FIFOMODE_DISABLE;
 382              		.loc 1 150 32 is_stmt 0 view .LVU140
 383 00b4 0362     		str	r3, [r0, #32]
 151:./Core/Src/spi.c ****     if (HAL_DMA_Init(&hdma_spi1_rx) != HAL_OK)
 384              		.loc 1 151 5 is_stmt 1 view .LVU141
 151:./Core/Src/spi.c ****     if (HAL_DMA_Init(&hdma_spi1_rx) != HAL_OK)
 385              		.loc 1 151 32 is_stmt 0 view .LVU142
 386 00b6 4362     		str	r3, [r0, #36]
 152:./Core/Src/spi.c ****     {
 387              		.loc 1 152 5 is_stmt 1 view .LVU143
 152:./Core/Src/spi.c ****     {
 388              		.loc 1 152 9 is_stmt 0 view .LVU144
 389 00b8 FFF7FEFF 		bl	HAL_DMA_Init
 390              	.LVL10:
 152:./Core/Src/spi.c ****     {
 391              		.loc 1 152 8 view .LVU145
 392 00bc 70B9     		cbnz	r0, .L22
 393              	.L16:
 157:./Core/Src/spi.c **** 
 394              		.loc 1 157 5 is_stmt 1 view .LVU146
 157:./Core/Src/spi.c **** 
 395              		.loc 1 157 5 view .LVU147
 396 00be 254B     		ldr	r3, .L23+24
 397 00c0 E364     		str	r3, [r4, #76]
 157:./Core/Src/spi.c **** 
 398              		.loc 1 157 5 view .LVU148
 399 00c2 9C63     		str	r4, [r3, #56]
 157:./Core/Src/spi.c **** 
 400              		.loc 1 157 5 view .LVU149
 160:./Core/Src/spi.c ****     HAL_NVIC_EnableIRQ(SPI1_IRQn);
 401              		.loc 1 160 5 view .LVU150
 402 00c4 0022     		movs	r2, #0
 403 00c6 1146     		mov	r1, r2
 404 00c8 2320     		movs	r0, #35
 405 00ca FFF7FEFF 		bl	HAL_NVIC_SetPriority
 406              	.LVL11:
 161:./Core/Src/spi.c ****   /* USER CODE BEGIN SPI1_MspInit 1 */
 407              		.loc 1 161 5 view .LVU151
 408 00ce 2320     		movs	r0, #35
 409 00d0 FFF7FEFF 		bl	HAL_NVIC_EnableIRQ
 410              	.LVL12:
 411 00d4 A3E7     		b	.L13
 412              	.L21:
 136:./Core/Src/spi.c ****     }
 413              		.loc 1 136 7 view .LVU152
ARM GAS  C:\Users\Dennis\AppData\Local\Temp\ccFAPFWp.s 			page 13


 414 00d6 FFF7FEFF 		bl	Error_Handler
 415              	.LVL13:
 416 00da D9E7     		b	.L15
 417              	.L22:
 154:./Core/Src/spi.c ****     }
 418              		.loc 1 154 7 view .LVU153
 419 00dc FFF7FEFF 		bl	Error_Handler
 420              	.LVL14:
 421 00e0 EDE7     		b	.L16
 422              	.LVL15:
 423              	.L20:
 172:./Core/Src/spi.c **** 
 424              		.loc 1 172 5 view .LVU154
 425              	.LBB4:
 172:./Core/Src/spi.c **** 
 426              		.loc 1 172 5 view .LVU155
 427 00e2 0024     		movs	r4, #0
 428 00e4 0394     		str	r4, [sp, #12]
 172:./Core/Src/spi.c **** 
 429              		.loc 1 172 5 view .LVU156
 430 00e6 174B     		ldr	r3, .L23+8
 431 00e8 1A6C     		ldr	r2, [r3, #64]
 432 00ea 42F48042 		orr	r2, r2, #16384
 433 00ee 1A64     		str	r2, [r3, #64]
 172:./Core/Src/spi.c **** 
 434              		.loc 1 172 5 view .LVU157
 435 00f0 1A6C     		ldr	r2, [r3, #64]
 436 00f2 02F48042 		and	r2, r2, #16384
 437 00f6 0392     		str	r2, [sp, #12]
 172:./Core/Src/spi.c **** 
 438              		.loc 1 172 5 view .LVU158
 439 00f8 039A     		ldr	r2, [sp, #12]
 440              	.LBE4:
 172:./Core/Src/spi.c **** 
 441              		.loc 1 172 5 view .LVU159
 174:./Core/Src/spi.c ****     /**SPI2 GPIO Configuration
 442              		.loc 1 174 5 view .LVU160
 443              	.LBB5:
 174:./Core/Src/spi.c ****     /**SPI2 GPIO Configuration
 444              		.loc 1 174 5 view .LVU161
 445 00fa 0494     		str	r4, [sp, #16]
 174:./Core/Src/spi.c ****     /**SPI2 GPIO Configuration
 446              		.loc 1 174 5 view .LVU162
 447 00fc 1A6B     		ldr	r2, [r3, #48]
 448 00fe 42F00202 		orr	r2, r2, #2
 449 0102 1A63     		str	r2, [r3, #48]
 174:./Core/Src/spi.c ****     /**SPI2 GPIO Configuration
 450              		.loc 1 174 5 view .LVU163
 451 0104 1B6B     		ldr	r3, [r3, #48]
 452 0106 03F00203 		and	r3, r3, #2
 453 010a 0493     		str	r3, [sp, #16]
 174:./Core/Src/spi.c ****     /**SPI2 GPIO Configuration
 454              		.loc 1 174 5 view .LVU164
 455 010c 049B     		ldr	r3, [sp, #16]
 456              	.LBE5:
 174:./Core/Src/spi.c ****     /**SPI2 GPIO Configuration
 457              		.loc 1 174 5 view .LVU165
ARM GAS  C:\Users\Dennis\AppData\Local\Temp\ccFAPFWp.s 			page 14


 180:./Core/Src/spi.c ****     GPIO_InitStruct.Mode = GPIO_MODE_AF_PP;
 458              		.loc 1 180 5 view .LVU166
 180:./Core/Src/spi.c ****     GPIO_InitStruct.Mode = GPIO_MODE_AF_PP;
 459              		.loc 1 180 25 is_stmt 0 view .LVU167
 460 010e 4FF46043 		mov	r3, #57344
 461 0112 0593     		str	r3, [sp, #20]
 181:./Core/Src/spi.c ****     GPIO_InitStruct.Pull = GPIO_NOPULL;
 462              		.loc 1 181 5 is_stmt 1 view .LVU168
 181:./Core/Src/spi.c ****     GPIO_InitStruct.Pull = GPIO_NOPULL;
 463              		.loc 1 181 26 is_stmt 0 view .LVU169
 464 0114 0223     		movs	r3, #2
 465 0116 0693     		str	r3, [sp, #24]
 182:./Core/Src/spi.c ****     GPIO_InitStruct.Speed = GPIO_SPEED_FREQ_VERY_HIGH;
 466              		.loc 1 182 5 is_stmt 1 view .LVU170
 183:./Core/Src/spi.c ****     GPIO_InitStruct.Alternate = GPIO_AF5_SPI2;
 467              		.loc 1 183 5 view .LVU171
 183:./Core/Src/spi.c ****     GPIO_InitStruct.Alternate = GPIO_AF5_SPI2;
 468              		.loc 1 183 27 is_stmt 0 view .LVU172
 469 0118 0323     		movs	r3, #3
 470 011a 0893     		str	r3, [sp, #32]
 184:./Core/Src/spi.c ****     HAL_GPIO_Init(GPIOB, &GPIO_InitStruct);
 471              		.loc 1 184 5 is_stmt 1 view .LVU173
 184:./Core/Src/spi.c ****     HAL_GPIO_Init(GPIOB, &GPIO_InitStruct);
 472              		.loc 1 184 31 is_stmt 0 view .LVU174
 473 011c 0523     		movs	r3, #5
 474 011e 0993     		str	r3, [sp, #36]
 185:./Core/Src/spi.c **** 
 475              		.loc 1 185 5 is_stmt 1 view .LVU175
 476 0120 05A9     		add	r1, sp, #20
 477 0122 0E48     		ldr	r0, .L23+32
 478              	.LVL16:
 185:./Core/Src/spi.c **** 
 479              		.loc 1 185 5 is_stmt 0 view .LVU176
 480 0124 FFF7FEFF 		bl	HAL_GPIO_Init
 481              	.LVL17:
 188:./Core/Src/spi.c ****     HAL_NVIC_EnableIRQ(SPI2_IRQn);
 482              		.loc 1 188 5 is_stmt 1 view .LVU177
 483 0128 2246     		mov	r2, r4
 484 012a 2146     		mov	r1, r4
 485 012c 2420     		movs	r0, #36
 486 012e FFF7FEFF 		bl	HAL_NVIC_SetPriority
 487              	.LVL18:
 189:./Core/Src/spi.c ****   /* USER CODE BEGIN SPI2_MspInit 1 */
 488              		.loc 1 189 5 view .LVU178
 489 0132 2420     		movs	r0, #36
 490 0134 FFF7FEFF 		bl	HAL_NVIC_EnableIRQ
 491              	.LVL19:
 492              		.loc 1 194 1 is_stmt 0 view .LVU179
 493 0138 71E7     		b	.L13
 494              	.L24:
 495 013a 00BF     		.align	2
 496              	.L23:
 497 013c 00300140 		.word	1073819648
 498 0140 00380040 		.word	1073756160
 499 0144 00380240 		.word	1073887232
 500 0148 00000240 		.word	1073872896
 501 014c 00000000 		.word	.LANCHOR2
ARM GAS  C:\Users\Dennis\AppData\Local\Temp\ccFAPFWp.s 			page 15


 502 0150 58640240 		.word	1073898584
 503 0154 00000000 		.word	.LANCHOR3
 504 0158 10640240 		.word	1073898512
 505 015c 00040240 		.word	1073873920
 506              		.cfi_endproc
 507              	.LFE241:
 509              		.section	.text.HAL_SPI_MspDeInit,"ax",%progbits
 510              		.align	1
 511              		.global	HAL_SPI_MspDeInit
 512              		.syntax unified
 513              		.thumb
 514              		.thumb_func
 516              	HAL_SPI_MspDeInit:
 517              	.LVL20:
 518              	.LFB242:
 195:./Core/Src/spi.c **** 
 196:./Core/Src/spi.c **** void HAL_SPI_MspDeInit(SPI_HandleTypeDef* spiHandle)
 197:./Core/Src/spi.c **** {
 519              		.loc 1 197 1 is_stmt 1 view -0
 520              		.cfi_startproc
 521              		@ args = 0, pretend = 0, frame = 0
 522              		@ frame_needed = 0, uses_anonymous_args = 0
 523              		.loc 1 197 1 is_stmt 0 view .LVU181
 524 0000 10B5     		push	{r4, lr}
 525              	.LCFI6:
 526              		.cfi_def_cfa_offset 8
 527              		.cfi_offset 4, -8
 528              		.cfi_offset 14, -4
 198:./Core/Src/spi.c **** 
 199:./Core/Src/spi.c ****   if(spiHandle->Instance==SPI1)
 529              		.loc 1 199 3 is_stmt 1 view .LVU182
 530              		.loc 1 199 15 is_stmt 0 view .LVU183
 531 0002 0368     		ldr	r3, [r0]
 532              		.loc 1 199 5 view .LVU184
 533 0004 154A     		ldr	r2, .L31
 534 0006 9342     		cmp	r3, r2
 535 0008 03D0     		beq	.L29
 200:./Core/Src/spi.c ****   {
 201:./Core/Src/spi.c ****   /* USER CODE BEGIN SPI1_MspDeInit 0 */
 202:./Core/Src/spi.c **** 
 203:./Core/Src/spi.c ****   /* USER CODE END SPI1_MspDeInit 0 */
 204:./Core/Src/spi.c ****     /* Peripheral clock disable */
 205:./Core/Src/spi.c ****     __HAL_RCC_SPI1_CLK_DISABLE();
 206:./Core/Src/spi.c **** 
 207:./Core/Src/spi.c ****     /**SPI1 GPIO Configuration
 208:./Core/Src/spi.c ****     PA5     ------> SPI1_SCK
 209:./Core/Src/spi.c ****     PA6     ------> SPI1_MISO
 210:./Core/Src/spi.c ****     PA7     ------> SPI1_MOSI
 211:./Core/Src/spi.c ****     */
 212:./Core/Src/spi.c ****     HAL_GPIO_DeInit(GPIOA, GPIO_PIN_5|GPIO_PIN_6|GPIO_PIN_7);
 213:./Core/Src/spi.c **** 
 214:./Core/Src/spi.c ****     /* SPI1 DMA DeInit */
 215:./Core/Src/spi.c ****     HAL_DMA_DeInit(spiHandle->hdmatx);
 216:./Core/Src/spi.c ****     HAL_DMA_DeInit(spiHandle->hdmarx);
 217:./Core/Src/spi.c **** 
 218:./Core/Src/spi.c ****     /* SPI1 interrupt Deinit */
 219:./Core/Src/spi.c ****     HAL_NVIC_DisableIRQ(SPI1_IRQn);
ARM GAS  C:\Users\Dennis\AppData\Local\Temp\ccFAPFWp.s 			page 16


 220:./Core/Src/spi.c ****   /* USER CODE BEGIN SPI1_MspDeInit 1 */
 221:./Core/Src/spi.c **** 
 222:./Core/Src/spi.c ****   /* USER CODE END SPI1_MspDeInit 1 */
 223:./Core/Src/spi.c ****   }
 224:./Core/Src/spi.c ****   else if(spiHandle->Instance==SPI2)
 536              		.loc 1 224 8 is_stmt 1 view .LVU185
 537              		.loc 1 224 10 is_stmt 0 view .LVU186
 538 000a 154A     		ldr	r2, .L31+4
 539 000c 9342     		cmp	r3, r2
 540 000e 15D0     		beq	.L30
 541              	.LVL21:
 542              	.L25:
 225:./Core/Src/spi.c ****   {
 226:./Core/Src/spi.c ****   /* USER CODE BEGIN SPI2_MspDeInit 0 */
 227:./Core/Src/spi.c **** 
 228:./Core/Src/spi.c ****   /* USER CODE END SPI2_MspDeInit 0 */
 229:./Core/Src/spi.c ****     /* Peripheral clock disable */
 230:./Core/Src/spi.c ****     __HAL_RCC_SPI2_CLK_DISABLE();
 231:./Core/Src/spi.c **** 
 232:./Core/Src/spi.c ****     /**SPI2 GPIO Configuration
 233:./Core/Src/spi.c ****     PB13     ------> SPI2_SCK
 234:./Core/Src/spi.c ****     PB14     ------> SPI2_MISO
 235:./Core/Src/spi.c ****     PB15     ------> SPI2_MOSI
 236:./Core/Src/spi.c ****     */
 237:./Core/Src/spi.c ****     HAL_GPIO_DeInit(GPIOB, GPIO_PIN_13|GPIO_PIN_14|GPIO_PIN_15);
 238:./Core/Src/spi.c **** 
 239:./Core/Src/spi.c ****     /* SPI2 interrupt Deinit */
 240:./Core/Src/spi.c ****     HAL_NVIC_DisableIRQ(SPI2_IRQn);
 241:./Core/Src/spi.c ****   /* USER CODE BEGIN SPI2_MspDeInit 1 */
 242:./Core/Src/spi.c **** 
 243:./Core/Src/spi.c ****   /* USER CODE END SPI2_MspDeInit 1 */
 244:./Core/Src/spi.c ****   }
 245:./Core/Src/spi.c **** }
 543              		.loc 1 245 1 view .LVU187
 544 0010 10BD     		pop	{r4, pc}
 545              	.LVL22:
 546              	.L29:
 547              		.loc 1 245 1 view .LVU188
 548 0012 0446     		mov	r4, r0
 205:./Core/Src/spi.c **** 
 549              		.loc 1 205 5 is_stmt 1 view .LVU189
 550 0014 02F58432 		add	r2, r2, #67584
 551 0018 536C     		ldr	r3, [r2, #68]
 552 001a 23F48053 		bic	r3, r3, #4096
 553 001e 5364     		str	r3, [r2, #68]
 212:./Core/Src/spi.c **** 
 554              		.loc 1 212 5 view .LVU190
 555 0020 E021     		movs	r1, #224
 556 0022 1048     		ldr	r0, .L31+8
 557              	.LVL23:
 212:./Core/Src/spi.c **** 
 558              		.loc 1 212 5 is_stmt 0 view .LVU191
 559 0024 FFF7FEFF 		bl	HAL_GPIO_DeInit
 560              	.LVL24:
 215:./Core/Src/spi.c ****     HAL_DMA_DeInit(spiHandle->hdmarx);
 561              		.loc 1 215 5 is_stmt 1 view .LVU192
 562 0028 A06C     		ldr	r0, [r4, #72]
ARM GAS  C:\Users\Dennis\AppData\Local\Temp\ccFAPFWp.s 			page 17


 563 002a FFF7FEFF 		bl	HAL_DMA_DeInit
 564              	.LVL25:
 216:./Core/Src/spi.c **** 
 565              		.loc 1 216 5 view .LVU193
 566 002e E06C     		ldr	r0, [r4, #76]
 567 0030 FFF7FEFF 		bl	HAL_DMA_DeInit
 568              	.LVL26:
 219:./Core/Src/spi.c ****   /* USER CODE BEGIN SPI1_MspDeInit 1 */
 569              		.loc 1 219 5 view .LVU194
 570 0034 2320     		movs	r0, #35
 571 0036 FFF7FEFF 		bl	HAL_NVIC_DisableIRQ
 572              	.LVL27:
 573 003a E9E7     		b	.L25
 574              	.LVL28:
 575              	.L30:
 230:./Core/Src/spi.c **** 
 576              		.loc 1 230 5 view .LVU195
 577 003c 02F50032 		add	r2, r2, #131072
 578 0040 136C     		ldr	r3, [r2, #64]
 579 0042 23F48043 		bic	r3, r3, #16384
 580 0046 1364     		str	r3, [r2, #64]
 237:./Core/Src/spi.c **** 
 581              		.loc 1 237 5 view .LVU196
 582 0048 4FF46041 		mov	r1, #57344
 583 004c 0648     		ldr	r0, .L31+12
 584              	.LVL29:
 237:./Core/Src/spi.c **** 
 585              		.loc 1 237 5 is_stmt 0 view .LVU197
 586 004e FFF7FEFF 		bl	HAL_GPIO_DeInit
 587              	.LVL30:
 240:./Core/Src/spi.c ****   /* USER CODE BEGIN SPI2_MspDeInit 1 */
 588              		.loc 1 240 5 is_stmt 1 view .LVU198
 589 0052 2420     		movs	r0, #36
 590 0054 FFF7FEFF 		bl	HAL_NVIC_DisableIRQ
 591              	.LVL31:
 592              		.loc 1 245 1 is_stmt 0 view .LVU199
 593 0058 DAE7     		b	.L25
 594              	.L32:
 595 005a 00BF     		.align	2
 596              	.L31:
 597 005c 00300140 		.word	1073819648
 598 0060 00380040 		.word	1073756160
 599 0064 00000240 		.word	1073872896
 600 0068 00040240 		.word	1073873920
 601              		.cfi_endproc
 602              	.LFE242:
 604              		.global	hdma_spi1_rx
 605              		.global	hdma_spi1_tx
 606              		.global	hspi2
 607              		.global	hspi1
 608              		.section	.bss.hdma_spi1_rx,"aw",%nobits
 609              		.align	2
 610              		.set	.LANCHOR3,. + 0
 613              	hdma_spi1_rx:
 614 0000 00000000 		.space	96
 614      00000000 
 614      00000000 
ARM GAS  C:\Users\Dennis\AppData\Local\Temp\ccFAPFWp.s 			page 18


 614      00000000 
 614      00000000 
 615              		.section	.bss.hdma_spi1_tx,"aw",%nobits
 616              		.align	2
 617              		.set	.LANCHOR2,. + 0
 620              	hdma_spi1_tx:
 621 0000 00000000 		.space	96
 621      00000000 
 621      00000000 
 621      00000000 
 621      00000000 
 622              		.section	.bss.hspi1,"aw",%nobits
 623              		.align	2
 624              		.set	.LANCHOR0,. + 0
 627              	hspi1:
 628 0000 00000000 		.space	88
 628      00000000 
 628      00000000 
 628      00000000 
 628      00000000 
 629              		.section	.bss.hspi2,"aw",%nobits
 630              		.align	2
 631              		.set	.LANCHOR1,. + 0
 634              	hspi2:
 635 0000 00000000 		.space	88
 635      00000000 
 635      00000000 
 635      00000000 
 635      00000000 
 636              		.text
 637              	.Letext0:
 638              		.file 2 "c:\\software_user\\armgcc\\arm-none-eabi\\include\\machine\\_default_types.h"
 639              		.file 3 "c:\\software_user\\armgcc\\arm-none-eabi\\include\\sys\\_stdint.h"
 640              		.file 4 "./Drivers/CMSIS/Device/ST/STM32F4xx/Include/stm32f407xx.h"
 641              		.file 5 "./Drivers/STM32F4xx_HAL_Driver/Inc/stm32f4xx_hal_def.h"
 642              		.file 6 "./Drivers/STM32F4xx_HAL_Driver/Inc/stm32f4xx_hal_gpio.h"
 643              		.file 7 "./Drivers/STM32F4xx_HAL_Driver/Inc/stm32f4xx_hal_dma.h"
 644              		.file 8 "./Drivers/STM32F4xx_HAL_Driver/Inc/stm32f4xx_hal_spi.h"
 645              		.file 9 "./Core/Inc/spi.h"
 646              		.file 10 "./Drivers/STM32F4xx_HAL_Driver/Inc/stm32f4xx_hal_cortex.h"
 647              		.file 11 "./Core/Inc/main.h"
ARM GAS  C:\Users\Dennis\AppData\Local\Temp\ccFAPFWp.s 			page 19


DEFINED SYMBOLS
                            *ABS*:00000000 spi.c
C:\Users\Dennis\AppData\Local\Temp\ccFAPFWp.s:20     .text.MX_SPI1_Init:00000000 $t
C:\Users\Dennis\AppData\Local\Temp\ccFAPFWp.s:26     .text.MX_SPI1_Init:00000000 MX_SPI1_Init
C:\Users\Dennis\AppData\Local\Temp\ccFAPFWp.s:98     .text.MX_SPI1_Init:00000038 $d
C:\Users\Dennis\AppData\Local\Temp\ccFAPFWp.s:104    .text.MX_SPI2_Init:00000000 $t
C:\Users\Dennis\AppData\Local\Temp\ccFAPFWp.s:110    .text.MX_SPI2_Init:00000000 MX_SPI2_Init
C:\Users\Dennis\AppData\Local\Temp\ccFAPFWp.s:181    .text.MX_SPI2_Init:00000038 $d
C:\Users\Dennis\AppData\Local\Temp\ccFAPFWp.s:187    .text.HAL_SPI_MspInit:00000000 $t
C:\Users\Dennis\AppData\Local\Temp\ccFAPFWp.s:193    .text.HAL_SPI_MspInit:00000000 HAL_SPI_MspInit
C:\Users\Dennis\AppData\Local\Temp\ccFAPFWp.s:497    .text.HAL_SPI_MspInit:0000013c $d
C:\Users\Dennis\AppData\Local\Temp\ccFAPFWp.s:510    .text.HAL_SPI_MspDeInit:00000000 $t
C:\Users\Dennis\AppData\Local\Temp\ccFAPFWp.s:516    .text.HAL_SPI_MspDeInit:00000000 HAL_SPI_MspDeInit
C:\Users\Dennis\AppData\Local\Temp\ccFAPFWp.s:597    .text.HAL_SPI_MspDeInit:0000005c $d
C:\Users\Dennis\AppData\Local\Temp\ccFAPFWp.s:613    .bss.hdma_spi1_rx:00000000 hdma_spi1_rx
C:\Users\Dennis\AppData\Local\Temp\ccFAPFWp.s:620    .bss.hdma_spi1_tx:00000000 hdma_spi1_tx
C:\Users\Dennis\AppData\Local\Temp\ccFAPFWp.s:634    .bss.hspi2:00000000 hspi2
C:\Users\Dennis\AppData\Local\Temp\ccFAPFWp.s:627    .bss.hspi1:00000000 hspi1
C:\Users\Dennis\AppData\Local\Temp\ccFAPFWp.s:609    .bss.hdma_spi1_rx:00000000 $d
C:\Users\Dennis\AppData\Local\Temp\ccFAPFWp.s:616    .bss.hdma_spi1_tx:00000000 $d
C:\Users\Dennis\AppData\Local\Temp\ccFAPFWp.s:623    .bss.hspi1:00000000 $d
C:\Users\Dennis\AppData\Local\Temp\ccFAPFWp.s:630    .bss.hspi2:00000000 $d

UNDEFINED SYMBOLS
HAL_SPI_Init
Error_Handler
HAL_GPIO_Init
HAL_DMA_Init
HAL_NVIC_SetPriority
HAL_NVIC_EnableIRQ
HAL_GPIO_DeInit
HAL_DMA_DeInit
HAL_NVIC_DisableIRQ
