ARM GAS  C:\Users\Dennis\AppData\Local\Temp\ccTFm9hA.s 			page 1


   1              		.cpu cortex-m4
   2              		.arch armv7e-m
   3              		.fpu fpv4-sp-d16
   4              		.eabi_attribute 27, 1
   5              		.eabi_attribute 28, 1
   6              		.eabi_attribute 20, 1
   7              		.eabi_attribute 21, 1
   8              		.eabi_attribute 23, 3
   9              		.eabi_attribute 24, 1
  10              		.eabi_attribute 25, 1
  11              		.eabi_attribute 26, 1
  12              		.eabi_attribute 30, 1
  13              		.eabi_attribute 34, 1
  14              		.eabi_attribute 18, 4
  15              		.file	"stm32f4xx_it.c"
  16              		.text
  17              	.Ltext0:
  18              		.cfi_sections	.debug_frame
  19              		.section	.text.NMI_Handler,"ax",%progbits
  20              		.align	1
  21              		.global	NMI_Handler
  22              		.syntax unified
  23              		.thumb
  24              		.thumb_func
  26              	NMI_Handler:
  27              	.LFB250:
  28              		.file 1 "./Core/Src/stm32f4xx_it.c"
   1:./Core/Src/stm32f4xx_it.c **** /* USER CODE BEGIN Header */
   2:./Core/Src/stm32f4xx_it.c **** /**
   3:./Core/Src/stm32f4xx_it.c ****   ******************************************************************************
   4:./Core/Src/stm32f4xx_it.c ****   * @file    stm32f4xx_it.c
   5:./Core/Src/stm32f4xx_it.c ****   * @brief   Interrupt Service Routines.
   6:./Core/Src/stm32f4xx_it.c ****   ******************************************************************************
   7:./Core/Src/stm32f4xx_it.c ****   * @attention
   8:./Core/Src/stm32f4xx_it.c ****   *
   9:./Core/Src/stm32f4xx_it.c ****   * Copyright (c) 2025 STMicroelectronics.
  10:./Core/Src/stm32f4xx_it.c ****   * All rights reserved.
  11:./Core/Src/stm32f4xx_it.c ****   *
  12:./Core/Src/stm32f4xx_it.c ****   * This software is licensed under terms that can be found in the LICENSE file
  13:./Core/Src/stm32f4xx_it.c ****   * in the root directory of this software component.
  14:./Core/Src/stm32f4xx_it.c ****   * If no LICENSE file comes with this software, it is provided AS-IS.
  15:./Core/Src/stm32f4xx_it.c ****   *
  16:./Core/Src/stm32f4xx_it.c ****   ******************************************************************************
  17:./Core/Src/stm32f4xx_it.c ****   */
  18:./Core/Src/stm32f4xx_it.c **** /* USER CODE END Header */
  19:./Core/Src/stm32f4xx_it.c **** 
  20:./Core/Src/stm32f4xx_it.c **** /* Includes ------------------------------------------------------------------*/
  21:./Core/Src/stm32f4xx_it.c **** #include "main.h"
  22:./Core/Src/stm32f4xx_it.c **** #include "stm32f4xx_it.h"
  23:./Core/Src/stm32f4xx_it.c **** /* Private includes ----------------------------------------------------------*/
  24:./Core/Src/stm32f4xx_it.c **** /* USER CODE BEGIN Includes */
  25:./Core/Src/stm32f4xx_it.c **** #include "Thread_cmd.h"
  26:./Core/Src/stm32f4xx_it.c **** 
  27:./Core/Src/stm32f4xx_it.c **** /* USER CODE END Includes */
  28:./Core/Src/stm32f4xx_it.c **** 
  29:./Core/Src/stm32f4xx_it.c **** /* Private typedef -----------------------------------------------------------*/
  30:./Core/Src/stm32f4xx_it.c **** /* USER CODE BEGIN TD */
ARM GAS  C:\Users\Dennis\AppData\Local\Temp\ccTFm9hA.s 			page 2


  31:./Core/Src/stm32f4xx_it.c **** 
  32:./Core/Src/stm32f4xx_it.c **** /* USER CODE END TD */
  33:./Core/Src/stm32f4xx_it.c **** 
  34:./Core/Src/stm32f4xx_it.c **** /* Private define ------------------------------------------------------------*/
  35:./Core/Src/stm32f4xx_it.c **** /* USER CODE BEGIN PD */
  36:./Core/Src/stm32f4xx_it.c **** 
  37:./Core/Src/stm32f4xx_it.c **** /* USER CODE END PD */
  38:./Core/Src/stm32f4xx_it.c **** 
  39:./Core/Src/stm32f4xx_it.c **** /* Private macro -------------------------------------------------------------*/
  40:./Core/Src/stm32f4xx_it.c **** /* USER CODE BEGIN PM */
  41:./Core/Src/stm32f4xx_it.c **** 
  42:./Core/Src/stm32f4xx_it.c **** /* USER CODE END PM */
  43:./Core/Src/stm32f4xx_it.c **** 
  44:./Core/Src/stm32f4xx_it.c **** /* Private variables ---------------------------------------------------------*/
  45:./Core/Src/stm32f4xx_it.c **** /* USER CODE BEGIN PV */
  46:./Core/Src/stm32f4xx_it.c **** 
  47:./Core/Src/stm32f4xx_it.c **** /* USER CODE END PV */
  48:./Core/Src/stm32f4xx_it.c **** 
  49:./Core/Src/stm32f4xx_it.c **** /* Private function prototypes -----------------------------------------------*/
  50:./Core/Src/stm32f4xx_it.c **** /* USER CODE BEGIN PFP */
  51:./Core/Src/stm32f4xx_it.c **** 
  52:./Core/Src/stm32f4xx_it.c **** /* USER CODE END PFP */
  53:./Core/Src/stm32f4xx_it.c **** 
  54:./Core/Src/stm32f4xx_it.c **** /* Private user code ---------------------------------------------------------*/
  55:./Core/Src/stm32f4xx_it.c **** /* USER CODE BEGIN 0 */
  56:./Core/Src/stm32f4xx_it.c **** 
  57:./Core/Src/stm32f4xx_it.c **** /* USER CODE END 0 */
  58:./Core/Src/stm32f4xx_it.c **** 
  59:./Core/Src/stm32f4xx_it.c **** /* External variables --------------------------------------------------------*/
  60:./Core/Src/stm32f4xx_it.c **** extern DMA_HandleTypeDef hdma_adc1;
  61:./Core/Src/stm32f4xx_it.c **** extern CAN_HandleTypeDef hcan1;
  62:./Core/Src/stm32f4xx_it.c **** extern CAN_HandleTypeDef hcan2;
  63:./Core/Src/stm32f4xx_it.c **** extern DMA_HandleTypeDef hdma_i2c1_rx;
  64:./Core/Src/stm32f4xx_it.c **** extern DMA_HandleTypeDef hdma_i2c1_tx;
  65:./Core/Src/stm32f4xx_it.c **** extern I2C_HandleTypeDef hi2c1;
  66:./Core/Src/stm32f4xx_it.c **** extern I2C_HandleTypeDef hi2c2;
  67:./Core/Src/stm32f4xx_it.c **** extern DMA_HandleTypeDef hdma_spi1_tx;
  68:./Core/Src/stm32f4xx_it.c **** extern DMA_HandleTypeDef hdma_spi1_rx;
  69:./Core/Src/stm32f4xx_it.c **** extern SPI_HandleTypeDef hspi1;
  70:./Core/Src/stm32f4xx_it.c **** extern SPI_HandleTypeDef hspi2;
  71:./Core/Src/stm32f4xx_it.c **** extern TIM_HandleTypeDef htim4;
  72:./Core/Src/stm32f4xx_it.c **** extern TIM_HandleTypeDef htim8;
  73:./Core/Src/stm32f4xx_it.c **** extern DMA_HandleTypeDef hdma_usart1_rx;
  74:./Core/Src/stm32f4xx_it.c **** extern DMA_HandleTypeDef hdma_usart1_tx;
  75:./Core/Src/stm32f4xx_it.c **** extern DMA_HandleTypeDef hdma_usart2_rx;
  76:./Core/Src/stm32f4xx_it.c **** extern DMA_HandleTypeDef hdma_usart2_tx;
  77:./Core/Src/stm32f4xx_it.c **** extern DMA_HandleTypeDef hdma_usart3_rx;
  78:./Core/Src/stm32f4xx_it.c **** extern DMA_HandleTypeDef hdma_usart3_tx;
  79:./Core/Src/stm32f4xx_it.c **** extern UART_HandleTypeDef huart1;
  80:./Core/Src/stm32f4xx_it.c **** extern UART_HandleTypeDef huart2;
  81:./Core/Src/stm32f4xx_it.c **** extern UART_HandleTypeDef huart3;
  82:./Core/Src/stm32f4xx_it.c **** extern PCD_HandleTypeDef hpcd_USB_OTG_FS;
  83:./Core/Src/stm32f4xx_it.c **** extern TIM_HandleTypeDef htim13;
  84:./Core/Src/stm32f4xx_it.c **** 
  85:./Core/Src/stm32f4xx_it.c **** /* USER CODE BEGIN EV */
  86:./Core/Src/stm32f4xx_it.c **** 
  87:./Core/Src/stm32f4xx_it.c **** /* USER CODE END EV */
ARM GAS  C:\Users\Dennis\AppData\Local\Temp\ccTFm9hA.s 			page 3


  88:./Core/Src/stm32f4xx_it.c **** 
  89:./Core/Src/stm32f4xx_it.c **** /******************************************************************************/
  90:./Core/Src/stm32f4xx_it.c **** /*           Cortex-M4 Processor Interruption and Exception Handlers          */
  91:./Core/Src/stm32f4xx_it.c **** /******************************************************************************/
  92:./Core/Src/stm32f4xx_it.c **** /**
  93:./Core/Src/stm32f4xx_it.c ****   * @brief This function handles Non maskable interrupt.
  94:./Core/Src/stm32f4xx_it.c ****   */
  95:./Core/Src/stm32f4xx_it.c **** void NMI_Handler(void)
  96:./Core/Src/stm32f4xx_it.c **** {
  29              		.loc 1 96 1 view -0
  30              		.cfi_startproc
  31              		@ Volatile: function does not return.
  32              		@ args = 0, pretend = 0, frame = 0
  33              		@ frame_needed = 0, uses_anonymous_args = 0
  34              		@ link register save eliminated.
  35              	.L2:
  97:./Core/Src/stm32f4xx_it.c ****   /* USER CODE BEGIN NonMaskableInt_IRQn 0 */
  98:./Core/Src/stm32f4xx_it.c **** 
  99:./Core/Src/stm32f4xx_it.c ****   /* USER CODE END NonMaskableInt_IRQn 0 */
 100:./Core/Src/stm32f4xx_it.c ****   /* USER CODE BEGIN NonMaskableInt_IRQn 1 */
 101:./Core/Src/stm32f4xx_it.c ****    while (1)
  36              		.loc 1 101 4 discriminator 1 view .LVU1
 102:./Core/Src/stm32f4xx_it.c ****   {
 103:./Core/Src/stm32f4xx_it.c ****   }
  37              		.loc 1 103 3 discriminator 1 view .LVU2
 101:./Core/Src/stm32f4xx_it.c ****   {
  38              		.loc 1 101 10 discriminator 1 view .LVU3
  39 0000 FEE7     		b	.L2
  40              		.cfi_endproc
  41              	.LFE250:
  43              		.section	.text.HardFault_Handler,"ax",%progbits
  44              		.align	1
  45              		.global	HardFault_Handler
  46              		.syntax unified
  47              		.thumb
  48              		.thumb_func
  50              	HardFault_Handler:
  51              	.LFB251:
 104:./Core/Src/stm32f4xx_it.c ****   /* USER CODE END NonMaskableInt_IRQn 1 */
 105:./Core/Src/stm32f4xx_it.c **** }
 106:./Core/Src/stm32f4xx_it.c **** 
 107:./Core/Src/stm32f4xx_it.c **** /**
 108:./Core/Src/stm32f4xx_it.c ****   * @brief This function handles Hard fault interrupt.
 109:./Core/Src/stm32f4xx_it.c ****   */
 110:./Core/Src/stm32f4xx_it.c **** void HardFault_Handler(void)
 111:./Core/Src/stm32f4xx_it.c **** {
  52              		.loc 1 111 1 view -0
  53              		.cfi_startproc
  54              		@ Volatile: function does not return.
  55              		@ args = 0, pretend = 0, frame = 0
  56              		@ frame_needed = 0, uses_anonymous_args = 0
  57              		@ link register save eliminated.
  58              	.L4:
 112:./Core/Src/stm32f4xx_it.c ****   /* USER CODE BEGIN HardFault_IRQn 0 */
 113:./Core/Src/stm32f4xx_it.c **** 
 114:./Core/Src/stm32f4xx_it.c ****   /* USER CODE END HardFault_IRQn 0 */
 115:./Core/Src/stm32f4xx_it.c ****   while (1)
ARM GAS  C:\Users\Dennis\AppData\Local\Temp\ccTFm9hA.s 			page 4


  59              		.loc 1 115 3 discriminator 1 view .LVU5
 116:./Core/Src/stm32f4xx_it.c ****   {
 117:./Core/Src/stm32f4xx_it.c ****     /* USER CODE BEGIN W1_HardFault_IRQn 0 */
 118:./Core/Src/stm32f4xx_it.c ****     /* USER CODE END W1_HardFault_IRQn 0 */
 119:./Core/Src/stm32f4xx_it.c ****   }
  60              		.loc 1 119 3 discriminator 1 view .LVU6
 115:./Core/Src/stm32f4xx_it.c ****   {
  61              		.loc 1 115 9 discriminator 1 view .LVU7
  62 0000 FEE7     		b	.L4
  63              		.cfi_endproc
  64              	.LFE251:
  66              		.section	.text.MemManage_Handler,"ax",%progbits
  67              		.align	1
  68              		.global	MemManage_Handler
  69              		.syntax unified
  70              		.thumb
  71              		.thumb_func
  73              	MemManage_Handler:
  74              	.LFB252:
 120:./Core/Src/stm32f4xx_it.c **** }
 121:./Core/Src/stm32f4xx_it.c **** 
 122:./Core/Src/stm32f4xx_it.c **** /**
 123:./Core/Src/stm32f4xx_it.c ****   * @brief This function handles Memory management fault.
 124:./Core/Src/stm32f4xx_it.c ****   */
 125:./Core/Src/stm32f4xx_it.c **** void MemManage_Handler(void)
 126:./Core/Src/stm32f4xx_it.c **** {
  75              		.loc 1 126 1 view -0
  76              		.cfi_startproc
  77              		@ Volatile: function does not return.
  78              		@ args = 0, pretend = 0, frame = 0
  79              		@ frame_needed = 0, uses_anonymous_args = 0
  80              		@ link register save eliminated.
  81              	.L6:
 127:./Core/Src/stm32f4xx_it.c ****   /* USER CODE BEGIN MemoryManagement_IRQn 0 */
 128:./Core/Src/stm32f4xx_it.c **** 
 129:./Core/Src/stm32f4xx_it.c ****   /* USER CODE END MemoryManagement_IRQn 0 */
 130:./Core/Src/stm32f4xx_it.c ****   while (1)
  82              		.loc 1 130 3 discriminator 1 view .LVU9
 131:./Core/Src/stm32f4xx_it.c ****   {
 132:./Core/Src/stm32f4xx_it.c ****     /* USER CODE BEGIN W1_MemoryManagement_IRQn 0 */
 133:./Core/Src/stm32f4xx_it.c ****     /* USER CODE END W1_MemoryManagement_IRQn 0 */
 134:./Core/Src/stm32f4xx_it.c ****   }
  83              		.loc 1 134 3 discriminator 1 view .LVU10
 130:./Core/Src/stm32f4xx_it.c ****   {
  84              		.loc 1 130 9 discriminator 1 view .LVU11
  85 0000 FEE7     		b	.L6
  86              		.cfi_endproc
  87              	.LFE252:
  89              		.section	.text.BusFault_Handler,"ax",%progbits
  90              		.align	1
  91              		.global	BusFault_Handler
  92              		.syntax unified
  93              		.thumb
  94              		.thumb_func
  96              	BusFault_Handler:
  97              	.LFB253:
 135:./Core/Src/stm32f4xx_it.c **** }
ARM GAS  C:\Users\Dennis\AppData\Local\Temp\ccTFm9hA.s 			page 5


 136:./Core/Src/stm32f4xx_it.c **** 
 137:./Core/Src/stm32f4xx_it.c **** /**
 138:./Core/Src/stm32f4xx_it.c ****   * @brief This function handles Pre-fetch fault, memory access fault.
 139:./Core/Src/stm32f4xx_it.c ****   */
 140:./Core/Src/stm32f4xx_it.c **** void BusFault_Handler(void)
 141:./Core/Src/stm32f4xx_it.c **** {
  98              		.loc 1 141 1 view -0
  99              		.cfi_startproc
 100              		@ Volatile: function does not return.
 101              		@ args = 0, pretend = 0, frame = 0
 102              		@ frame_needed = 0, uses_anonymous_args = 0
 103              		@ link register save eliminated.
 104              	.L8:
 142:./Core/Src/stm32f4xx_it.c ****   /* USER CODE BEGIN BusFault_IRQn 0 */
 143:./Core/Src/stm32f4xx_it.c **** 
 144:./Core/Src/stm32f4xx_it.c ****   /* USER CODE END BusFault_IRQn 0 */
 145:./Core/Src/stm32f4xx_it.c ****   while (1)
 105              		.loc 1 145 3 discriminator 1 view .LVU13
 146:./Core/Src/stm32f4xx_it.c ****   {
 147:./Core/Src/stm32f4xx_it.c ****     /* USER CODE BEGIN W1_BusFault_IRQn 0 */
 148:./Core/Src/stm32f4xx_it.c ****     /* USER CODE END W1_BusFault_IRQn 0 */
 149:./Core/Src/stm32f4xx_it.c ****   }
 106              		.loc 1 149 3 discriminator 1 view .LVU14
 145:./Core/Src/stm32f4xx_it.c ****   {
 107              		.loc 1 145 9 discriminator 1 view .LVU15
 108 0000 FEE7     		b	.L8
 109              		.cfi_endproc
 110              	.LFE253:
 112              		.section	.text.UsageFault_Handler,"ax",%progbits
 113              		.align	1
 114              		.global	UsageFault_Handler
 115              		.syntax unified
 116              		.thumb
 117              		.thumb_func
 119              	UsageFault_Handler:
 120              	.LFB254:
 150:./Core/Src/stm32f4xx_it.c **** }
 151:./Core/Src/stm32f4xx_it.c **** 
 152:./Core/Src/stm32f4xx_it.c **** /**
 153:./Core/Src/stm32f4xx_it.c ****   * @brief This function handles Undefined instruction or illegal state.
 154:./Core/Src/stm32f4xx_it.c ****   */
 155:./Core/Src/stm32f4xx_it.c **** void UsageFault_Handler(void)
 156:./Core/Src/stm32f4xx_it.c **** {
 121              		.loc 1 156 1 view -0
 122              		.cfi_startproc
 123              		@ Volatile: function does not return.
 124              		@ args = 0, pretend = 0, frame = 0
 125              		@ frame_needed = 0, uses_anonymous_args = 0
 126              		@ link register save eliminated.
 127              	.L10:
 157:./Core/Src/stm32f4xx_it.c ****   /* USER CODE BEGIN UsageFault_IRQn 0 */
 158:./Core/Src/stm32f4xx_it.c **** 
 159:./Core/Src/stm32f4xx_it.c ****   /* USER CODE END UsageFault_IRQn 0 */
 160:./Core/Src/stm32f4xx_it.c ****   while (1)
 128              		.loc 1 160 3 discriminator 1 view .LVU17
 161:./Core/Src/stm32f4xx_it.c ****   {
 162:./Core/Src/stm32f4xx_it.c ****     /* USER CODE BEGIN W1_UsageFault_IRQn 0 */
ARM GAS  C:\Users\Dennis\AppData\Local\Temp\ccTFm9hA.s 			page 6


 163:./Core/Src/stm32f4xx_it.c ****     /* USER CODE END W1_UsageFault_IRQn 0 */
 164:./Core/Src/stm32f4xx_it.c ****   }
 129              		.loc 1 164 3 discriminator 1 view .LVU18
 160:./Core/Src/stm32f4xx_it.c ****   {
 130              		.loc 1 160 9 discriminator 1 view .LVU19
 131 0000 FEE7     		b	.L10
 132              		.cfi_endproc
 133              	.LFE254:
 135              		.section	.text.DebugMon_Handler,"ax",%progbits
 136              		.align	1
 137              		.global	DebugMon_Handler
 138              		.syntax unified
 139              		.thumb
 140              		.thumb_func
 142              	DebugMon_Handler:
 143              	.LFB255:
 165:./Core/Src/stm32f4xx_it.c **** }
 166:./Core/Src/stm32f4xx_it.c **** 
 167:./Core/Src/stm32f4xx_it.c **** /**
 168:./Core/Src/stm32f4xx_it.c ****   * @brief This function handles Debug monitor.
 169:./Core/Src/stm32f4xx_it.c ****   */
 170:./Core/Src/stm32f4xx_it.c **** void DebugMon_Handler(void)
 171:./Core/Src/stm32f4xx_it.c **** {
 144              		.loc 1 171 1 view -0
 145              		.cfi_startproc
 146              		@ args = 0, pretend = 0, frame = 0
 147              		@ frame_needed = 0, uses_anonymous_args = 0
 148              		@ link register save eliminated.
 172:./Core/Src/stm32f4xx_it.c ****   /* USER CODE BEGIN DebugMonitor_IRQn 0 */
 173:./Core/Src/stm32f4xx_it.c **** 
 174:./Core/Src/stm32f4xx_it.c ****   /* USER CODE END DebugMonitor_IRQn 0 */
 175:./Core/Src/stm32f4xx_it.c ****   /* USER CODE BEGIN DebugMonitor_IRQn 1 */
 176:./Core/Src/stm32f4xx_it.c **** 
 177:./Core/Src/stm32f4xx_it.c ****   /* USER CODE END DebugMonitor_IRQn 1 */
 178:./Core/Src/stm32f4xx_it.c **** }
 149              		.loc 1 178 1 view .LVU21
 150 0000 7047     		bx	lr
 151              		.cfi_endproc
 152              	.LFE255:
 154              		.section	.text.DMA1_Stream0_IRQHandler,"ax",%progbits
 155              		.align	1
 156              		.global	DMA1_Stream0_IRQHandler
 157              		.syntax unified
 158              		.thumb
 159              		.thumb_func
 161              	DMA1_Stream0_IRQHandler:
 162              	.LFB256:
 179:./Core/Src/stm32f4xx_it.c **** 
 180:./Core/Src/stm32f4xx_it.c **** /******************************************************************************/
 181:./Core/Src/stm32f4xx_it.c **** /* STM32F4xx Peripheral Interrupt Handlers                                    */
 182:./Core/Src/stm32f4xx_it.c **** /* Add here the Interrupt Handlers for the used peripherals.                  */
 183:./Core/Src/stm32f4xx_it.c **** /* For the available peripheral interrupt handler names,                      */
 184:./Core/Src/stm32f4xx_it.c **** /* please refer to the startup file (startup_stm32f4xx.s).                    */
 185:./Core/Src/stm32f4xx_it.c **** /******************************************************************************/
 186:./Core/Src/stm32f4xx_it.c **** 
 187:./Core/Src/stm32f4xx_it.c **** /**
 188:./Core/Src/stm32f4xx_it.c ****   * @brief This function handles DMA1 stream0 global interrupt.
ARM GAS  C:\Users\Dennis\AppData\Local\Temp\ccTFm9hA.s 			page 7


 189:./Core/Src/stm32f4xx_it.c ****   */
 190:./Core/Src/stm32f4xx_it.c **** void DMA1_Stream0_IRQHandler(void)
 191:./Core/Src/stm32f4xx_it.c **** {
 163              		.loc 1 191 1 view -0
 164              		.cfi_startproc
 165              		@ args = 0, pretend = 0, frame = 0
 166              		@ frame_needed = 0, uses_anonymous_args = 0
 167 0000 08B5     		push	{r3, lr}
 168              	.LCFI0:
 169              		.cfi_def_cfa_offset 8
 170              		.cfi_offset 3, -8
 171              		.cfi_offset 14, -4
 192:./Core/Src/stm32f4xx_it.c ****   /* USER CODE BEGIN DMA1_Stream0_IRQn 0 */
 193:./Core/Src/stm32f4xx_it.c **** 
 194:./Core/Src/stm32f4xx_it.c ****   /* USER CODE END DMA1_Stream0_IRQn 0 */
 195:./Core/Src/stm32f4xx_it.c ****   HAL_DMA_IRQHandler(&hdma_i2c1_rx);
 172              		.loc 1 195 3 view .LVU23
 173 0002 0248     		ldr	r0, .L14
 174 0004 FFF7FEFF 		bl	HAL_DMA_IRQHandler
 175              	.LVL0:
 196:./Core/Src/stm32f4xx_it.c ****   /* USER CODE BEGIN DMA1_Stream0_IRQn 1 */
 197:./Core/Src/stm32f4xx_it.c **** 
 198:./Core/Src/stm32f4xx_it.c ****   /* USER CODE END DMA1_Stream0_IRQn 1 */
 199:./Core/Src/stm32f4xx_it.c **** }
 176              		.loc 1 199 1 is_stmt 0 view .LVU24
 177 0008 08BD     		pop	{r3, pc}
 178              	.L15:
 179 000a 00BF     		.align	2
 180              	.L14:
 181 000c 00000000 		.word	hdma_i2c1_rx
 182              		.cfi_endproc
 183              	.LFE256:
 185              		.section	.text.DMA1_Stream1_IRQHandler,"ax",%progbits
 186              		.align	1
 187              		.global	DMA1_Stream1_IRQHandler
 188              		.syntax unified
 189              		.thumb
 190              		.thumb_func
 192              	DMA1_Stream1_IRQHandler:
 193              	.LFB257:
 200:./Core/Src/stm32f4xx_it.c **** 
 201:./Core/Src/stm32f4xx_it.c **** /**
 202:./Core/Src/stm32f4xx_it.c ****   * @brief This function handles DMA1 stream1 global interrupt.
 203:./Core/Src/stm32f4xx_it.c ****   */
 204:./Core/Src/stm32f4xx_it.c **** void DMA1_Stream1_IRQHandler(void)
 205:./Core/Src/stm32f4xx_it.c **** {
 194              		.loc 1 205 1 is_stmt 1 view -0
 195              		.cfi_startproc
 196              		@ args = 0, pretend = 0, frame = 0
 197              		@ frame_needed = 0, uses_anonymous_args = 0
 198 0000 08B5     		push	{r3, lr}
 199              	.LCFI1:
 200              		.cfi_def_cfa_offset 8
 201              		.cfi_offset 3, -8
 202              		.cfi_offset 14, -4
 206:./Core/Src/stm32f4xx_it.c ****   /* USER CODE BEGIN DMA1_Stream1_IRQn 0 */
 207:./Core/Src/stm32f4xx_it.c **** 
ARM GAS  C:\Users\Dennis\AppData\Local\Temp\ccTFm9hA.s 			page 8


 208:./Core/Src/stm32f4xx_it.c ****   /* USER CODE END DMA1_Stream1_IRQn 0 */
 209:./Core/Src/stm32f4xx_it.c ****   HAL_DMA_IRQHandler(&hdma_usart3_rx);
 203              		.loc 1 209 3 view .LVU26
 204 0002 0248     		ldr	r0, .L18
 205 0004 FFF7FEFF 		bl	HAL_DMA_IRQHandler
 206              	.LVL1:
 210:./Core/Src/stm32f4xx_it.c ****   /* USER CODE BEGIN DMA1_Stream1_IRQn 1 */
 211:./Core/Src/stm32f4xx_it.c **** 
 212:./Core/Src/stm32f4xx_it.c ****   /* USER CODE END DMA1_Stream1_IRQn 1 */
 213:./Core/Src/stm32f4xx_it.c **** }
 207              		.loc 1 213 1 is_stmt 0 view .LVU27
 208 0008 08BD     		pop	{r3, pc}
 209              	.L19:
 210 000a 00BF     		.align	2
 211              	.L18:
 212 000c 00000000 		.word	hdma_usart3_rx
 213              		.cfi_endproc
 214              	.LFE257:
 216              		.section	.text.DMA1_Stream4_IRQHandler,"ax",%progbits
 217              		.align	1
 218              		.global	DMA1_Stream4_IRQHandler
 219              		.syntax unified
 220              		.thumb
 221              		.thumb_func
 223              	DMA1_Stream4_IRQHandler:
 224              	.LFB258:
 214:./Core/Src/stm32f4xx_it.c **** 
 215:./Core/Src/stm32f4xx_it.c **** /**
 216:./Core/Src/stm32f4xx_it.c ****   * @brief This function handles DMA1 stream4 global interrupt.
 217:./Core/Src/stm32f4xx_it.c ****   */
 218:./Core/Src/stm32f4xx_it.c **** void DMA1_Stream4_IRQHandler(void)
 219:./Core/Src/stm32f4xx_it.c **** {
 225              		.loc 1 219 1 is_stmt 1 view -0
 226              		.cfi_startproc
 227              		@ args = 0, pretend = 0, frame = 0
 228              		@ frame_needed = 0, uses_anonymous_args = 0
 229 0000 08B5     		push	{r3, lr}
 230              	.LCFI2:
 231              		.cfi_def_cfa_offset 8
 232              		.cfi_offset 3, -8
 233              		.cfi_offset 14, -4
 220:./Core/Src/stm32f4xx_it.c ****   /* USER CODE BEGIN DMA1_Stream4_IRQn 0 */
 221:./Core/Src/stm32f4xx_it.c **** 
 222:./Core/Src/stm32f4xx_it.c ****   /* USER CODE END DMA1_Stream4_IRQn 0 */
 223:./Core/Src/stm32f4xx_it.c ****   HAL_DMA_IRQHandler(&hdma_usart3_tx);
 234              		.loc 1 223 3 view .LVU29
 235 0002 0248     		ldr	r0, .L22
 236 0004 FFF7FEFF 		bl	HAL_DMA_IRQHandler
 237              	.LVL2:
 224:./Core/Src/stm32f4xx_it.c ****   /* USER CODE BEGIN DMA1_Stream4_IRQn 1 */
 225:./Core/Src/stm32f4xx_it.c **** 
 226:./Core/Src/stm32f4xx_it.c ****   /* USER CODE END DMA1_Stream4_IRQn 1 */
 227:./Core/Src/stm32f4xx_it.c **** }
 238              		.loc 1 227 1 is_stmt 0 view .LVU30
 239 0008 08BD     		pop	{r3, pc}
 240              	.L23:
 241 000a 00BF     		.align	2
ARM GAS  C:\Users\Dennis\AppData\Local\Temp\ccTFm9hA.s 			page 9


 242              	.L22:
 243 000c 00000000 		.word	hdma_usart3_tx
 244              		.cfi_endproc
 245              	.LFE258:
 247              		.section	.text.DMA1_Stream5_IRQHandler,"ax",%progbits
 248              		.align	1
 249              		.global	DMA1_Stream5_IRQHandler
 250              		.syntax unified
 251              		.thumb
 252              		.thumb_func
 254              	DMA1_Stream5_IRQHandler:
 255              	.LFB259:
 228:./Core/Src/stm32f4xx_it.c **** 
 229:./Core/Src/stm32f4xx_it.c **** /**
 230:./Core/Src/stm32f4xx_it.c ****   * @brief This function handles DMA1 stream5 global interrupt.
 231:./Core/Src/stm32f4xx_it.c ****   */
 232:./Core/Src/stm32f4xx_it.c **** void DMA1_Stream5_IRQHandler(void)
 233:./Core/Src/stm32f4xx_it.c **** {
 256              		.loc 1 233 1 is_stmt 1 view -0
 257              		.cfi_startproc
 258              		@ args = 0, pretend = 0, frame = 0
 259              		@ frame_needed = 0, uses_anonymous_args = 0
 260 0000 08B5     		push	{r3, lr}
 261              	.LCFI3:
 262              		.cfi_def_cfa_offset 8
 263              		.cfi_offset 3, -8
 264              		.cfi_offset 14, -4
 234:./Core/Src/stm32f4xx_it.c ****   /* USER CODE BEGIN DMA1_Stream5_IRQn 0 */
 235:./Core/Src/stm32f4xx_it.c **** 
 236:./Core/Src/stm32f4xx_it.c ****   /* USER CODE END DMA1_Stream5_IRQn 0 */
 237:./Core/Src/stm32f4xx_it.c ****   HAL_DMA_IRQHandler(&hdma_usart2_rx);
 265              		.loc 1 237 3 view .LVU32
 266 0002 0248     		ldr	r0, .L26
 267 0004 FFF7FEFF 		bl	HAL_DMA_IRQHandler
 268              	.LVL3:
 238:./Core/Src/stm32f4xx_it.c ****   /* USER CODE BEGIN DMA1_Stream5_IRQn 1 */
 239:./Core/Src/stm32f4xx_it.c **** 
 240:./Core/Src/stm32f4xx_it.c ****   /* USER CODE END DMA1_Stream5_IRQn 1 */
 241:./Core/Src/stm32f4xx_it.c **** }
 269              		.loc 1 241 1 is_stmt 0 view .LVU33
 270 0008 08BD     		pop	{r3, pc}
 271              	.L27:
 272 000a 00BF     		.align	2
 273              	.L26:
 274 000c 00000000 		.word	hdma_usart2_rx
 275              		.cfi_endproc
 276              	.LFE259:
 278              		.section	.text.DMA1_Stream6_IRQHandler,"ax",%progbits
 279              		.align	1
 280              		.global	DMA1_Stream6_IRQHandler
 281              		.syntax unified
 282              		.thumb
 283              		.thumb_func
 285              	DMA1_Stream6_IRQHandler:
 286              	.LFB260:
 242:./Core/Src/stm32f4xx_it.c **** 
 243:./Core/Src/stm32f4xx_it.c **** /**
ARM GAS  C:\Users\Dennis\AppData\Local\Temp\ccTFm9hA.s 			page 10


 244:./Core/Src/stm32f4xx_it.c ****   * @brief This function handles DMA1 stream6 global interrupt.
 245:./Core/Src/stm32f4xx_it.c ****   */
 246:./Core/Src/stm32f4xx_it.c **** void DMA1_Stream6_IRQHandler(void)
 247:./Core/Src/stm32f4xx_it.c **** {
 287              		.loc 1 247 1 is_stmt 1 view -0
 288              		.cfi_startproc
 289              		@ args = 0, pretend = 0, frame = 0
 290              		@ frame_needed = 0, uses_anonymous_args = 0
 291 0000 08B5     		push	{r3, lr}
 292              	.LCFI4:
 293              		.cfi_def_cfa_offset 8
 294              		.cfi_offset 3, -8
 295              		.cfi_offset 14, -4
 248:./Core/Src/stm32f4xx_it.c ****   /* USER CODE BEGIN DMA1_Stream6_IRQn 0 */
 249:./Core/Src/stm32f4xx_it.c **** 
 250:./Core/Src/stm32f4xx_it.c ****   /* USER CODE END DMA1_Stream6_IRQn 0 */
 251:./Core/Src/stm32f4xx_it.c ****   HAL_DMA_IRQHandler(&hdma_usart2_tx);
 296              		.loc 1 251 3 view .LVU35
 297 0002 0248     		ldr	r0, .L30
 298 0004 FFF7FEFF 		bl	HAL_DMA_IRQHandler
 299              	.LVL4:
 252:./Core/Src/stm32f4xx_it.c ****   /* USER CODE BEGIN DMA1_Stream6_IRQn 1 */
 253:./Core/Src/stm32f4xx_it.c **** 
 254:./Core/Src/stm32f4xx_it.c ****   /* USER CODE END DMA1_Stream6_IRQn 1 */
 255:./Core/Src/stm32f4xx_it.c **** }
 300              		.loc 1 255 1 is_stmt 0 view .LVU36
 301 0008 08BD     		pop	{r3, pc}
 302              	.L31:
 303 000a 00BF     		.align	2
 304              	.L30:
 305 000c 00000000 		.word	hdma_usart2_tx
 306              		.cfi_endproc
 307              	.LFE260:
 309              		.section	.text.CAN1_TX_IRQHandler,"ax",%progbits
 310              		.align	1
 311              		.global	CAN1_TX_IRQHandler
 312              		.syntax unified
 313              		.thumb
 314              		.thumb_func
 316              	CAN1_TX_IRQHandler:
 317              	.LFB261:
 256:./Core/Src/stm32f4xx_it.c **** 
 257:./Core/Src/stm32f4xx_it.c **** /**
 258:./Core/Src/stm32f4xx_it.c ****   * @brief This function handles CAN1 TX interrupts.
 259:./Core/Src/stm32f4xx_it.c ****   */
 260:./Core/Src/stm32f4xx_it.c **** void CAN1_TX_IRQHandler(void)
 261:./Core/Src/stm32f4xx_it.c **** {
 318              		.loc 1 261 1 is_stmt 1 view -0
 319              		.cfi_startproc
 320              		@ args = 0, pretend = 0, frame = 0
 321              		@ frame_needed = 0, uses_anonymous_args = 0
 322 0000 08B5     		push	{r3, lr}
 323              	.LCFI5:
 324              		.cfi_def_cfa_offset 8
 325              		.cfi_offset 3, -8
 326              		.cfi_offset 14, -4
 262:./Core/Src/stm32f4xx_it.c ****   /* USER CODE BEGIN CAN1_TX_IRQn 0 */
ARM GAS  C:\Users\Dennis\AppData\Local\Temp\ccTFm9hA.s 			page 11


 263:./Core/Src/stm32f4xx_it.c **** 
 264:./Core/Src/stm32f4xx_it.c ****   /* USER CODE END CAN1_TX_IRQn 0 */
 265:./Core/Src/stm32f4xx_it.c ****   HAL_CAN_IRQHandler(&hcan1);
 327              		.loc 1 265 3 view .LVU38
 328 0002 0248     		ldr	r0, .L34
 329 0004 FFF7FEFF 		bl	HAL_CAN_IRQHandler
 330              	.LVL5:
 266:./Core/Src/stm32f4xx_it.c ****   /* USER CODE BEGIN CAN1_TX_IRQn 1 */
 267:./Core/Src/stm32f4xx_it.c **** 
 268:./Core/Src/stm32f4xx_it.c ****   /* USER CODE END CAN1_TX_IRQn 1 */
 269:./Core/Src/stm32f4xx_it.c **** }
 331              		.loc 1 269 1 is_stmt 0 view .LVU39
 332 0008 08BD     		pop	{r3, pc}
 333              	.L35:
 334 000a 00BF     		.align	2
 335              	.L34:
 336 000c 00000000 		.word	hcan1
 337              		.cfi_endproc
 338              	.LFE261:
 340              		.section	.text.CAN1_RX0_IRQHandler,"ax",%progbits
 341              		.align	1
 342              		.global	CAN1_RX0_IRQHandler
 343              		.syntax unified
 344              		.thumb
 345              		.thumb_func
 347              	CAN1_RX0_IRQHandler:
 348              	.LFB262:
 270:./Core/Src/stm32f4xx_it.c **** 
 271:./Core/Src/stm32f4xx_it.c **** /**
 272:./Core/Src/stm32f4xx_it.c ****   * @brief This function handles CAN1 RX0 interrupts.
 273:./Core/Src/stm32f4xx_it.c ****   */
 274:./Core/Src/stm32f4xx_it.c **** void CAN1_RX0_IRQHandler(void)
 275:./Core/Src/stm32f4xx_it.c **** {
 349              		.loc 1 275 1 is_stmt 1 view -0
 350              		.cfi_startproc
 351              		@ args = 0, pretend = 0, frame = 0
 352              		@ frame_needed = 0, uses_anonymous_args = 0
 353 0000 08B5     		push	{r3, lr}
 354              	.LCFI6:
 355              		.cfi_def_cfa_offset 8
 356              		.cfi_offset 3, -8
 357              		.cfi_offset 14, -4
 276:./Core/Src/stm32f4xx_it.c ****   /* USER CODE BEGIN CAN1_RX0_IRQn 0 */
 277:./Core/Src/stm32f4xx_it.c **** 
 278:./Core/Src/stm32f4xx_it.c ****   /* USER CODE END CAN1_RX0_IRQn 0 */
 279:./Core/Src/stm32f4xx_it.c ****   HAL_CAN_IRQHandler(&hcan1);
 358              		.loc 1 279 3 view .LVU41
 359 0002 0248     		ldr	r0, .L38
 360 0004 FFF7FEFF 		bl	HAL_CAN_IRQHandler
 361              	.LVL6:
 280:./Core/Src/stm32f4xx_it.c ****   /* USER CODE BEGIN CAN1_RX0_IRQn 1 */
 281:./Core/Src/stm32f4xx_it.c **** 
 282:./Core/Src/stm32f4xx_it.c ****   /* USER CODE END CAN1_RX0_IRQn 1 */
 283:./Core/Src/stm32f4xx_it.c **** }
 362              		.loc 1 283 1 is_stmt 0 view .LVU42
 363 0008 08BD     		pop	{r3, pc}
 364              	.L39:
ARM GAS  C:\Users\Dennis\AppData\Local\Temp\ccTFm9hA.s 			page 12


 365 000a 00BF     		.align	2
 366              	.L38:
 367 000c 00000000 		.word	hcan1
 368              		.cfi_endproc
 369              	.LFE262:
 371              		.section	.text.CAN1_RX1_IRQHandler,"ax",%progbits
 372              		.align	1
 373              		.global	CAN1_RX1_IRQHandler
 374              		.syntax unified
 375              		.thumb
 376              		.thumb_func
 378              	CAN1_RX1_IRQHandler:
 379              	.LFB263:
 284:./Core/Src/stm32f4xx_it.c **** 
 285:./Core/Src/stm32f4xx_it.c **** /**
 286:./Core/Src/stm32f4xx_it.c ****   * @brief This function handles CAN1 RX1 interrupt.
 287:./Core/Src/stm32f4xx_it.c ****   */
 288:./Core/Src/stm32f4xx_it.c **** void CAN1_RX1_IRQHandler(void)
 289:./Core/Src/stm32f4xx_it.c **** {
 380              		.loc 1 289 1 is_stmt 1 view -0
 381              		.cfi_startproc
 382              		@ args = 0, pretend = 0, frame = 0
 383              		@ frame_needed = 0, uses_anonymous_args = 0
 384 0000 08B5     		push	{r3, lr}
 385              	.LCFI7:
 386              		.cfi_def_cfa_offset 8
 387              		.cfi_offset 3, -8
 388              		.cfi_offset 14, -4
 290:./Core/Src/stm32f4xx_it.c ****   /* USER CODE BEGIN CAN1_RX1_IRQn 0 */
 291:./Core/Src/stm32f4xx_it.c **** 
 292:./Core/Src/stm32f4xx_it.c ****   /* USER CODE END CAN1_RX1_IRQn 0 */
 293:./Core/Src/stm32f4xx_it.c ****   HAL_CAN_IRQHandler(&hcan1);
 389              		.loc 1 293 3 view .LVU44
 390 0002 0248     		ldr	r0, .L42
 391 0004 FFF7FEFF 		bl	HAL_CAN_IRQHandler
 392              	.LVL7:
 294:./Core/Src/stm32f4xx_it.c ****   /* USER CODE BEGIN CAN1_RX1_IRQn 1 */
 295:./Core/Src/stm32f4xx_it.c **** 
 296:./Core/Src/stm32f4xx_it.c ****   /* USER CODE END CAN1_RX1_IRQn 1 */
 297:./Core/Src/stm32f4xx_it.c **** }
 393              		.loc 1 297 1 is_stmt 0 view .LVU45
 394 0008 08BD     		pop	{r3, pc}
 395              	.L43:
 396 000a 00BF     		.align	2
 397              	.L42:
 398 000c 00000000 		.word	hcan1
 399              		.cfi_endproc
 400              	.LFE263:
 402              		.section	.text.CAN1_SCE_IRQHandler,"ax",%progbits
 403              		.align	1
 404              		.global	CAN1_SCE_IRQHandler
 405              		.syntax unified
 406              		.thumb
 407              		.thumb_func
 409              	CAN1_SCE_IRQHandler:
 410              	.LFB264:
 298:./Core/Src/stm32f4xx_it.c **** 
ARM GAS  C:\Users\Dennis\AppData\Local\Temp\ccTFm9hA.s 			page 13


 299:./Core/Src/stm32f4xx_it.c **** /**
 300:./Core/Src/stm32f4xx_it.c ****   * @brief This function handles CAN1 SCE interrupt.
 301:./Core/Src/stm32f4xx_it.c ****   */
 302:./Core/Src/stm32f4xx_it.c **** void CAN1_SCE_IRQHandler(void)
 303:./Core/Src/stm32f4xx_it.c **** {
 411              		.loc 1 303 1 is_stmt 1 view -0
 412              		.cfi_startproc
 413              		@ args = 0, pretend = 0, frame = 0
 414              		@ frame_needed = 0, uses_anonymous_args = 0
 415 0000 08B5     		push	{r3, lr}
 416              	.LCFI8:
 417              		.cfi_def_cfa_offset 8
 418              		.cfi_offset 3, -8
 419              		.cfi_offset 14, -4
 304:./Core/Src/stm32f4xx_it.c ****   /* USER CODE BEGIN CAN1_SCE_IRQn 0 */
 305:./Core/Src/stm32f4xx_it.c **** 
 306:./Core/Src/stm32f4xx_it.c ****   /* USER CODE END CAN1_SCE_IRQn 0 */
 307:./Core/Src/stm32f4xx_it.c ****   HAL_CAN_IRQHandler(&hcan1);
 420              		.loc 1 307 3 view .LVU47
 421 0002 0248     		ldr	r0, .L46
 422 0004 FFF7FEFF 		bl	HAL_CAN_IRQHandler
 423              	.LVL8:
 308:./Core/Src/stm32f4xx_it.c ****   /* USER CODE BEGIN CAN1_SCE_IRQn 1 */
 309:./Core/Src/stm32f4xx_it.c **** 
 310:./Core/Src/stm32f4xx_it.c ****   /* USER CODE END CAN1_SCE_IRQn 1 */
 311:./Core/Src/stm32f4xx_it.c **** }
 424              		.loc 1 311 1 is_stmt 0 view .LVU48
 425 0008 08BD     		pop	{r3, pc}
 426              	.L47:
 427 000a 00BF     		.align	2
 428              	.L46:
 429 000c 00000000 		.word	hcan1
 430              		.cfi_endproc
 431              	.LFE264:
 433              		.section	.text.TIM4_IRQHandler,"ax",%progbits
 434              		.align	1
 435              		.global	TIM4_IRQHandler
 436              		.syntax unified
 437              		.thumb
 438              		.thumb_func
 440              	TIM4_IRQHandler:
 441              	.LFB265:
 312:./Core/Src/stm32f4xx_it.c **** 
 313:./Core/Src/stm32f4xx_it.c **** /**
 314:./Core/Src/stm32f4xx_it.c ****   * @brief This function handles TIM4 global interrupt.
 315:./Core/Src/stm32f4xx_it.c ****   */
 316:./Core/Src/stm32f4xx_it.c **** void TIM4_IRQHandler(void)
 317:./Core/Src/stm32f4xx_it.c **** {
 442              		.loc 1 317 1 is_stmt 1 view -0
 443              		.cfi_startproc
 444              		@ args = 0, pretend = 0, frame = 0
 445              		@ frame_needed = 0, uses_anonymous_args = 0
 446 0000 08B5     		push	{r3, lr}
 447              	.LCFI9:
 448              		.cfi_def_cfa_offset 8
 449              		.cfi_offset 3, -8
 450              		.cfi_offset 14, -4
ARM GAS  C:\Users\Dennis\AppData\Local\Temp\ccTFm9hA.s 			page 14


 318:./Core/Src/stm32f4xx_it.c ****   /* USER CODE BEGIN TIM4_IRQn 0 */
 319:./Core/Src/stm32f4xx_it.c **** 
 320:./Core/Src/stm32f4xx_it.c ****   /* USER CODE END TIM4_IRQn 0 */
 321:./Core/Src/stm32f4xx_it.c ****   HAL_TIM_IRQHandler(&htim4);
 451              		.loc 1 321 3 view .LVU50
 452 0002 0248     		ldr	r0, .L50
 453 0004 FFF7FEFF 		bl	HAL_TIM_IRQHandler
 454              	.LVL9:
 322:./Core/Src/stm32f4xx_it.c ****   /* USER CODE BEGIN TIM4_IRQn 1 */
 323:./Core/Src/stm32f4xx_it.c **** 
 324:./Core/Src/stm32f4xx_it.c ****   /* USER CODE END TIM4_IRQn 1 */
 325:./Core/Src/stm32f4xx_it.c **** }
 455              		.loc 1 325 1 is_stmt 0 view .LVU51
 456 0008 08BD     		pop	{r3, pc}
 457              	.L51:
 458 000a 00BF     		.align	2
 459              	.L50:
 460 000c 00000000 		.word	htim4
 461              		.cfi_endproc
 462              	.LFE265:
 464              		.section	.text.I2C1_EV_IRQHandler,"ax",%progbits
 465              		.align	1
 466              		.global	I2C1_EV_IRQHandler
 467              		.syntax unified
 468              		.thumb
 469              		.thumb_func
 471              	I2C1_EV_IRQHandler:
 472              	.LFB266:
 326:./Core/Src/stm32f4xx_it.c **** 
 327:./Core/Src/stm32f4xx_it.c **** /**
 328:./Core/Src/stm32f4xx_it.c ****   * @brief This function handles I2C1 event interrupt.
 329:./Core/Src/stm32f4xx_it.c ****   */
 330:./Core/Src/stm32f4xx_it.c **** void I2C1_EV_IRQHandler(void)
 331:./Core/Src/stm32f4xx_it.c **** {
 473              		.loc 1 331 1 is_stmt 1 view -0
 474              		.cfi_startproc
 475              		@ args = 0, pretend = 0, frame = 0
 476              		@ frame_needed = 0, uses_anonymous_args = 0
 477 0000 08B5     		push	{r3, lr}
 478              	.LCFI10:
 479              		.cfi_def_cfa_offset 8
 480              		.cfi_offset 3, -8
 481              		.cfi_offset 14, -4
 332:./Core/Src/stm32f4xx_it.c ****   /* USER CODE BEGIN I2C1_EV_IRQn 0 */
 333:./Core/Src/stm32f4xx_it.c **** 
 334:./Core/Src/stm32f4xx_it.c ****   /* USER CODE END I2C1_EV_IRQn 0 */
 335:./Core/Src/stm32f4xx_it.c ****   HAL_I2C_EV_IRQHandler(&hi2c1);
 482              		.loc 1 335 3 view .LVU53
 483 0002 0248     		ldr	r0, .L54
 484 0004 FFF7FEFF 		bl	HAL_I2C_EV_IRQHandler
 485              	.LVL10:
 336:./Core/Src/stm32f4xx_it.c ****   /* USER CODE BEGIN I2C1_EV_IRQn 1 */
 337:./Core/Src/stm32f4xx_it.c **** 
 338:./Core/Src/stm32f4xx_it.c ****   /* USER CODE END I2C1_EV_IRQn 1 */
 339:./Core/Src/stm32f4xx_it.c **** }
 486              		.loc 1 339 1 is_stmt 0 view .LVU54
 487 0008 08BD     		pop	{r3, pc}
ARM GAS  C:\Users\Dennis\AppData\Local\Temp\ccTFm9hA.s 			page 15


 488              	.L55:
 489 000a 00BF     		.align	2
 490              	.L54:
 491 000c 00000000 		.word	hi2c1
 492              		.cfi_endproc
 493              	.LFE266:
 495              		.section	.text.I2C1_ER_IRQHandler,"ax",%progbits
 496              		.align	1
 497              		.global	I2C1_ER_IRQHandler
 498              		.syntax unified
 499              		.thumb
 500              		.thumb_func
 502              	I2C1_ER_IRQHandler:
 503              	.LFB267:
 340:./Core/Src/stm32f4xx_it.c **** 
 341:./Core/Src/stm32f4xx_it.c **** /**
 342:./Core/Src/stm32f4xx_it.c ****   * @brief This function handles I2C1 error interrupt.
 343:./Core/Src/stm32f4xx_it.c ****   */
 344:./Core/Src/stm32f4xx_it.c **** void I2C1_ER_IRQHandler(void)
 345:./Core/Src/stm32f4xx_it.c **** {
 504              		.loc 1 345 1 is_stmt 1 view -0
 505              		.cfi_startproc
 506              		@ args = 0, pretend = 0, frame = 0
 507              		@ frame_needed = 0, uses_anonymous_args = 0
 508 0000 08B5     		push	{r3, lr}
 509              	.LCFI11:
 510              		.cfi_def_cfa_offset 8
 511              		.cfi_offset 3, -8
 512              		.cfi_offset 14, -4
 346:./Core/Src/stm32f4xx_it.c ****   /* USER CODE BEGIN I2C1_ER_IRQn 0 */
 347:./Core/Src/stm32f4xx_it.c **** 
 348:./Core/Src/stm32f4xx_it.c ****   /* USER CODE END I2C1_ER_IRQn 0 */
 349:./Core/Src/stm32f4xx_it.c ****   HAL_I2C_ER_IRQHandler(&hi2c1);
 513              		.loc 1 349 3 view .LVU56
 514 0002 0248     		ldr	r0, .L58
 515 0004 FFF7FEFF 		bl	HAL_I2C_ER_IRQHandler
 516              	.LVL11:
 350:./Core/Src/stm32f4xx_it.c ****   /* USER CODE BEGIN I2C1_ER_IRQn 1 */
 351:./Core/Src/stm32f4xx_it.c **** 
 352:./Core/Src/stm32f4xx_it.c ****   /* USER CODE END I2C1_ER_IRQn 1 */
 353:./Core/Src/stm32f4xx_it.c **** }
 517              		.loc 1 353 1 is_stmt 0 view .LVU57
 518 0008 08BD     		pop	{r3, pc}
 519              	.L59:
 520 000a 00BF     		.align	2
 521              	.L58:
 522 000c 00000000 		.word	hi2c1
 523              		.cfi_endproc
 524              	.LFE267:
 526              		.section	.text.I2C2_EV_IRQHandler,"ax",%progbits
 527              		.align	1
 528              		.global	I2C2_EV_IRQHandler
 529              		.syntax unified
 530              		.thumb
 531              		.thumb_func
 533              	I2C2_EV_IRQHandler:
 534              	.LFB268:
ARM GAS  C:\Users\Dennis\AppData\Local\Temp\ccTFm9hA.s 			page 16


 354:./Core/Src/stm32f4xx_it.c **** 
 355:./Core/Src/stm32f4xx_it.c **** /**
 356:./Core/Src/stm32f4xx_it.c ****   * @brief This function handles I2C2 event interrupt.
 357:./Core/Src/stm32f4xx_it.c ****   */
 358:./Core/Src/stm32f4xx_it.c **** void I2C2_EV_IRQHandler(void)
 359:./Core/Src/stm32f4xx_it.c **** {
 535              		.loc 1 359 1 is_stmt 1 view -0
 536              		.cfi_startproc
 537              		@ args = 0, pretend = 0, frame = 0
 538              		@ frame_needed = 0, uses_anonymous_args = 0
 539 0000 08B5     		push	{r3, lr}
 540              	.LCFI12:
 541              		.cfi_def_cfa_offset 8
 542              		.cfi_offset 3, -8
 543              		.cfi_offset 14, -4
 360:./Core/Src/stm32f4xx_it.c ****   /* USER CODE BEGIN I2C2_EV_IRQn 0 */
 361:./Core/Src/stm32f4xx_it.c **** 
 362:./Core/Src/stm32f4xx_it.c ****   /* USER CODE END I2C2_EV_IRQn 0 */
 363:./Core/Src/stm32f4xx_it.c ****   HAL_I2C_EV_IRQHandler(&hi2c2);
 544              		.loc 1 363 3 view .LVU59
 545 0002 0248     		ldr	r0, .L62
 546 0004 FFF7FEFF 		bl	HAL_I2C_EV_IRQHandler
 547              	.LVL12:
 364:./Core/Src/stm32f4xx_it.c ****   /* USER CODE BEGIN I2C2_EV_IRQn 1 */
 365:./Core/Src/stm32f4xx_it.c **** 
 366:./Core/Src/stm32f4xx_it.c ****   /* USER CODE END I2C2_EV_IRQn 1 */
 367:./Core/Src/stm32f4xx_it.c **** }
 548              		.loc 1 367 1 is_stmt 0 view .LVU60
 549 0008 08BD     		pop	{r3, pc}
 550              	.L63:
 551 000a 00BF     		.align	2
 552              	.L62:
 553 000c 00000000 		.word	hi2c2
 554              		.cfi_endproc
 555              	.LFE268:
 557              		.section	.text.I2C2_ER_IRQHandler,"ax",%progbits
 558              		.align	1
 559              		.global	I2C2_ER_IRQHandler
 560              		.syntax unified
 561              		.thumb
 562              		.thumb_func
 564              	I2C2_ER_IRQHandler:
 565              	.LFB269:
 368:./Core/Src/stm32f4xx_it.c **** 
 369:./Core/Src/stm32f4xx_it.c **** /**
 370:./Core/Src/stm32f4xx_it.c ****   * @brief This function handles I2C2 error interrupt.
 371:./Core/Src/stm32f4xx_it.c ****   */
 372:./Core/Src/stm32f4xx_it.c **** void I2C2_ER_IRQHandler(void)
 373:./Core/Src/stm32f4xx_it.c **** {
 566              		.loc 1 373 1 is_stmt 1 view -0
 567              		.cfi_startproc
 568              		@ args = 0, pretend = 0, frame = 0
 569              		@ frame_needed = 0, uses_anonymous_args = 0
 570 0000 08B5     		push	{r3, lr}
 571              	.LCFI13:
 572              		.cfi_def_cfa_offset 8
 573              		.cfi_offset 3, -8
ARM GAS  C:\Users\Dennis\AppData\Local\Temp\ccTFm9hA.s 			page 17


 574              		.cfi_offset 14, -4
 374:./Core/Src/stm32f4xx_it.c ****   /* USER CODE BEGIN I2C2_ER_IRQn 0 */
 375:./Core/Src/stm32f4xx_it.c **** 
 376:./Core/Src/stm32f4xx_it.c ****   /* USER CODE END I2C2_ER_IRQn 0 */
 377:./Core/Src/stm32f4xx_it.c ****   HAL_I2C_ER_IRQHandler(&hi2c2);
 575              		.loc 1 377 3 view .LVU62
 576 0002 0248     		ldr	r0, .L66
 577 0004 FFF7FEFF 		bl	HAL_I2C_ER_IRQHandler
 578              	.LVL13:
 378:./Core/Src/stm32f4xx_it.c ****   /* USER CODE BEGIN I2C2_ER_IRQn 1 */
 379:./Core/Src/stm32f4xx_it.c **** 
 380:./Core/Src/stm32f4xx_it.c ****   /* USER CODE END I2C2_ER_IRQn 1 */
 381:./Core/Src/stm32f4xx_it.c **** }
 579              		.loc 1 381 1 is_stmt 0 view .LVU63
 580 0008 08BD     		pop	{r3, pc}
 581              	.L67:
 582 000a 00BF     		.align	2
 583              	.L66:
 584 000c 00000000 		.word	hi2c2
 585              		.cfi_endproc
 586              	.LFE269:
 588              		.section	.text.SPI1_IRQHandler,"ax",%progbits
 589              		.align	1
 590              		.global	SPI1_IRQHandler
 591              		.syntax unified
 592              		.thumb
 593              		.thumb_func
 595              	SPI1_IRQHandler:
 596              	.LFB270:
 382:./Core/Src/stm32f4xx_it.c **** 
 383:./Core/Src/stm32f4xx_it.c **** /**
 384:./Core/Src/stm32f4xx_it.c ****   * @brief This function handles SPI1 global interrupt.
 385:./Core/Src/stm32f4xx_it.c ****   */
 386:./Core/Src/stm32f4xx_it.c **** void SPI1_IRQHandler(void)
 387:./Core/Src/stm32f4xx_it.c **** {
 597              		.loc 1 387 1 is_stmt 1 view -0
 598              		.cfi_startproc
 599              		@ args = 0, pretend = 0, frame = 0
 600              		@ frame_needed = 0, uses_anonymous_args = 0
 601 0000 08B5     		push	{r3, lr}
 602              	.LCFI14:
 603              		.cfi_def_cfa_offset 8
 604              		.cfi_offset 3, -8
 605              		.cfi_offset 14, -4
 388:./Core/Src/stm32f4xx_it.c ****   /* USER CODE BEGIN SPI1_IRQn 0 */
 389:./Core/Src/stm32f4xx_it.c **** 
 390:./Core/Src/stm32f4xx_it.c ****   /* USER CODE END SPI1_IRQn 0 */
 391:./Core/Src/stm32f4xx_it.c ****   HAL_SPI_IRQHandler(&hspi1);
 606              		.loc 1 391 3 view .LVU65
 607 0002 0248     		ldr	r0, .L70
 608 0004 FFF7FEFF 		bl	HAL_SPI_IRQHandler
 609              	.LVL14:
 392:./Core/Src/stm32f4xx_it.c ****   /* USER CODE BEGIN SPI1_IRQn 1 */
 393:./Core/Src/stm32f4xx_it.c **** 
 394:./Core/Src/stm32f4xx_it.c ****   /* USER CODE END SPI1_IRQn 1 */
 395:./Core/Src/stm32f4xx_it.c **** }
 610              		.loc 1 395 1 is_stmt 0 view .LVU66
ARM GAS  C:\Users\Dennis\AppData\Local\Temp\ccTFm9hA.s 			page 18


 611 0008 08BD     		pop	{r3, pc}
 612              	.L71:
 613 000a 00BF     		.align	2
 614              	.L70:
 615 000c 00000000 		.word	hspi1
 616              		.cfi_endproc
 617              	.LFE270:
 619              		.section	.text.SPI2_IRQHandler,"ax",%progbits
 620              		.align	1
 621              		.global	SPI2_IRQHandler
 622              		.syntax unified
 623              		.thumb
 624              		.thumb_func
 626              	SPI2_IRQHandler:
 627              	.LFB271:
 396:./Core/Src/stm32f4xx_it.c **** 
 397:./Core/Src/stm32f4xx_it.c **** /**
 398:./Core/Src/stm32f4xx_it.c ****   * @brief This function handles SPI2 global interrupt.
 399:./Core/Src/stm32f4xx_it.c ****   */
 400:./Core/Src/stm32f4xx_it.c **** void SPI2_IRQHandler(void)
 401:./Core/Src/stm32f4xx_it.c **** {
 628              		.loc 1 401 1 is_stmt 1 view -0
 629              		.cfi_startproc
 630              		@ args = 0, pretend = 0, frame = 0
 631              		@ frame_needed = 0, uses_anonymous_args = 0
 632 0000 08B5     		push	{r3, lr}
 633              	.LCFI15:
 634              		.cfi_def_cfa_offset 8
 635              		.cfi_offset 3, -8
 636              		.cfi_offset 14, -4
 402:./Core/Src/stm32f4xx_it.c ****   /* USER CODE BEGIN SPI2_IRQn 0 */
 403:./Core/Src/stm32f4xx_it.c **** 
 404:./Core/Src/stm32f4xx_it.c ****   /* USER CODE END SPI2_IRQn 0 */
 405:./Core/Src/stm32f4xx_it.c ****   HAL_SPI_IRQHandler(&hspi2);
 637              		.loc 1 405 3 view .LVU68
 638 0002 0248     		ldr	r0, .L74
 639 0004 FFF7FEFF 		bl	HAL_SPI_IRQHandler
 640              	.LVL15:
 406:./Core/Src/stm32f4xx_it.c ****   /* USER CODE BEGIN SPI2_IRQn 1 */
 407:./Core/Src/stm32f4xx_it.c **** 
 408:./Core/Src/stm32f4xx_it.c ****   /* USER CODE END SPI2_IRQn 1 */
 409:./Core/Src/stm32f4xx_it.c **** }
 641              		.loc 1 409 1 is_stmt 0 view .LVU69
 642 0008 08BD     		pop	{r3, pc}
 643              	.L75:
 644 000a 00BF     		.align	2
 645              	.L74:
 646 000c 00000000 		.word	hspi2
 647              		.cfi_endproc
 648              	.LFE271:
 650              		.section	.text.USART1_IRQHandler,"ax",%progbits
 651              		.align	1
 652              		.global	USART1_IRQHandler
 653              		.syntax unified
 654              		.thumb
 655              		.thumb_func
 657              	USART1_IRQHandler:
ARM GAS  C:\Users\Dennis\AppData\Local\Temp\ccTFm9hA.s 			page 19


 658              	.LFB272:
 410:./Core/Src/stm32f4xx_it.c **** 
 411:./Core/Src/stm32f4xx_it.c **** /**
 412:./Core/Src/stm32f4xx_it.c ****   * @brief This function handles USART1 global interrupt.
 413:./Core/Src/stm32f4xx_it.c ****   */
 414:./Core/Src/stm32f4xx_it.c **** void USART1_IRQHandler(void)
 415:./Core/Src/stm32f4xx_it.c **** {
 659              		.loc 1 415 1 is_stmt 1 view -0
 660              		.cfi_startproc
 661              		@ args = 0, pretend = 0, frame = 0
 662              		@ frame_needed = 0, uses_anonymous_args = 0
 663 0000 10B5     		push	{r4, lr}
 664              	.LCFI16:
 665              		.cfi_def_cfa_offset 8
 666              		.cfi_offset 4, -8
 667              		.cfi_offset 14, -4
 416:./Core/Src/stm32f4xx_it.c ****   /* USER CODE BEGIN USART1_IRQn 0 */
 417:./Core/Src/stm32f4xx_it.c ****   BSP_UART_IDLE_CallBack(&huart1);
 668              		.loc 1 417 3 view .LVU71
 669 0002 044C     		ldr	r4, .L78
 670 0004 2046     		mov	r0, r4
 671 0006 FFF7FEFF 		bl	BSP_UART_IDLE_CallBack
 672              	.LVL16:
 418:./Core/Src/stm32f4xx_it.c ****   /* USER CODE END USART1_IRQn 0 */
 419:./Core/Src/stm32f4xx_it.c ****   HAL_UART_IRQHandler(&huart1);
 673              		.loc 1 419 3 view .LVU72
 674 000a 2046     		mov	r0, r4
 675 000c FFF7FEFF 		bl	HAL_UART_IRQHandler
 676              	.LVL17:
 420:./Core/Src/stm32f4xx_it.c ****   /* USER CODE BEGIN USART1_IRQn 1 */
 421:./Core/Src/stm32f4xx_it.c **** 
 422:./Core/Src/stm32f4xx_it.c ****   /* USER CODE END USART1_IRQn 1 */
 423:./Core/Src/stm32f4xx_it.c **** }
 677              		.loc 1 423 1 is_stmt 0 view .LVU73
 678 0010 10BD     		pop	{r4, pc}
 679              	.L79:
 680 0012 00BF     		.align	2
 681              	.L78:
 682 0014 00000000 		.word	huart1
 683              		.cfi_endproc
 684              	.LFE272:
 686              		.section	.text.USART2_IRQHandler,"ax",%progbits
 687              		.align	1
 688              		.global	USART2_IRQHandler
 689              		.syntax unified
 690              		.thumb
 691              		.thumb_func
 693              	USART2_IRQHandler:
 694              	.LFB273:
 424:./Core/Src/stm32f4xx_it.c **** 
 425:./Core/Src/stm32f4xx_it.c **** /**
 426:./Core/Src/stm32f4xx_it.c ****   * @brief This function handles USART2 global interrupt.
 427:./Core/Src/stm32f4xx_it.c ****   */
 428:./Core/Src/stm32f4xx_it.c **** void USART2_IRQHandler(void)
 429:./Core/Src/stm32f4xx_it.c **** {
 695              		.loc 1 429 1 is_stmt 1 view -0
 696              		.cfi_startproc
ARM GAS  C:\Users\Dennis\AppData\Local\Temp\ccTFm9hA.s 			page 20


 697              		@ args = 0, pretend = 0, frame = 0
 698              		@ frame_needed = 0, uses_anonymous_args = 0
 699 0000 08B5     		push	{r3, lr}
 700              	.LCFI17:
 701              		.cfi_def_cfa_offset 8
 702              		.cfi_offset 3, -8
 703              		.cfi_offset 14, -4
 430:./Core/Src/stm32f4xx_it.c ****   /* USER CODE BEGIN USART2_IRQn 0 */
 431:./Core/Src/stm32f4xx_it.c **** 
 432:./Core/Src/stm32f4xx_it.c ****   /* USER CODE END USART2_IRQn 0 */
 433:./Core/Src/stm32f4xx_it.c ****   HAL_UART_IRQHandler(&huart2);
 704              		.loc 1 433 3 view .LVU75
 705 0002 0248     		ldr	r0, .L82
 706 0004 FFF7FEFF 		bl	HAL_UART_IRQHandler
 707              	.LVL18:
 434:./Core/Src/stm32f4xx_it.c ****   /* USER CODE BEGIN USART2_IRQn 1 */
 435:./Core/Src/stm32f4xx_it.c **** 
 436:./Core/Src/stm32f4xx_it.c ****   /* USER CODE END USART2_IRQn 1 */
 437:./Core/Src/stm32f4xx_it.c **** }
 708              		.loc 1 437 1 is_stmt 0 view .LVU76
 709 0008 08BD     		pop	{r3, pc}
 710              	.L83:
 711 000a 00BF     		.align	2
 712              	.L82:
 713 000c 00000000 		.word	huart2
 714              		.cfi_endproc
 715              	.LFE273:
 717              		.section	.text.USART3_IRQHandler,"ax",%progbits
 718              		.align	1
 719              		.global	USART3_IRQHandler
 720              		.syntax unified
 721              		.thumb
 722              		.thumb_func
 724              	USART3_IRQHandler:
 725              	.LFB274:
 438:./Core/Src/stm32f4xx_it.c **** 
 439:./Core/Src/stm32f4xx_it.c **** /**
 440:./Core/Src/stm32f4xx_it.c ****   * @brief This function handles USART3 global interrupt.
 441:./Core/Src/stm32f4xx_it.c ****   */
 442:./Core/Src/stm32f4xx_it.c **** void USART3_IRQHandler(void)
 443:./Core/Src/stm32f4xx_it.c **** {
 726              		.loc 1 443 1 is_stmt 1 view -0
 727              		.cfi_startproc
 728              		@ args = 0, pretend = 0, frame = 0
 729              		@ frame_needed = 0, uses_anonymous_args = 0
 730 0000 08B5     		push	{r3, lr}
 731              	.LCFI18:
 732              		.cfi_def_cfa_offset 8
 733              		.cfi_offset 3, -8
 734              		.cfi_offset 14, -4
 444:./Core/Src/stm32f4xx_it.c ****   /* USER CODE BEGIN USART3_IRQn 0 */
 445:./Core/Src/stm32f4xx_it.c **** 
 446:./Core/Src/stm32f4xx_it.c ****   /* USER CODE END USART3_IRQn 0 */
 447:./Core/Src/stm32f4xx_it.c ****   HAL_UART_IRQHandler(&huart3);
 735              		.loc 1 447 3 view .LVU78
 736 0002 0248     		ldr	r0, .L86
 737 0004 FFF7FEFF 		bl	HAL_UART_IRQHandler
ARM GAS  C:\Users\Dennis\AppData\Local\Temp\ccTFm9hA.s 			page 21


 738              	.LVL19:
 448:./Core/Src/stm32f4xx_it.c ****   /* USER CODE BEGIN USART3_IRQn 1 */
 449:./Core/Src/stm32f4xx_it.c **** 
 450:./Core/Src/stm32f4xx_it.c ****   /* USER CODE END USART3_IRQn 1 */
 451:./Core/Src/stm32f4xx_it.c **** }
 739              		.loc 1 451 1 is_stmt 0 view .LVU79
 740 0008 08BD     		pop	{r3, pc}
 741              	.L87:
 742 000a 00BF     		.align	2
 743              	.L86:
 744 000c 00000000 		.word	huart3
 745              		.cfi_endproc
 746              	.LFE274:
 748              		.section	.text.TIM8_UP_TIM13_IRQHandler,"ax",%progbits
 749              		.align	1
 750              		.global	TIM8_UP_TIM13_IRQHandler
 751              		.syntax unified
 752              		.thumb
 753              		.thumb_func
 755              	TIM8_UP_TIM13_IRQHandler:
 756              	.LFB275:
 452:./Core/Src/stm32f4xx_it.c **** 
 453:./Core/Src/stm32f4xx_it.c **** /**
 454:./Core/Src/stm32f4xx_it.c ****   * @brief This function handles TIM8 update interrupt and TIM13 global interrupt.
 455:./Core/Src/stm32f4xx_it.c ****   */
 456:./Core/Src/stm32f4xx_it.c **** void TIM8_UP_TIM13_IRQHandler(void)
 457:./Core/Src/stm32f4xx_it.c **** {
 757              		.loc 1 457 1 is_stmt 1 view -0
 758              		.cfi_startproc
 759              		@ args = 0, pretend = 0, frame = 0
 760              		@ frame_needed = 0, uses_anonymous_args = 0
 761 0000 08B5     		push	{r3, lr}
 762              	.LCFI19:
 763              		.cfi_def_cfa_offset 8
 764              		.cfi_offset 3, -8
 765              		.cfi_offset 14, -4
 458:./Core/Src/stm32f4xx_it.c ****   /* USER CODE BEGIN TIM8_UP_TIM13_IRQn 0 */
 459:./Core/Src/stm32f4xx_it.c **** 
 460:./Core/Src/stm32f4xx_it.c ****   /* USER CODE END TIM8_UP_TIM13_IRQn 0 */
 461:./Core/Src/stm32f4xx_it.c ****   HAL_TIM_IRQHandler(&htim8);
 766              		.loc 1 461 3 view .LVU81
 767 0002 0348     		ldr	r0, .L90
 768 0004 FFF7FEFF 		bl	HAL_TIM_IRQHandler
 769              	.LVL20:
 462:./Core/Src/stm32f4xx_it.c ****   HAL_TIM_IRQHandler(&htim13);
 770              		.loc 1 462 3 view .LVU82
 771 0008 0248     		ldr	r0, .L90+4
 772 000a FFF7FEFF 		bl	HAL_TIM_IRQHandler
 773              	.LVL21:
 463:./Core/Src/stm32f4xx_it.c ****   /* USER CODE BEGIN TIM8_UP_TIM13_IRQn 1 */
 464:./Core/Src/stm32f4xx_it.c **** 
 465:./Core/Src/stm32f4xx_it.c ****   /* USER CODE END TIM8_UP_TIM13_IRQn 1 */
 466:./Core/Src/stm32f4xx_it.c **** }
 774              		.loc 1 466 1 is_stmt 0 view .LVU83
 775 000e 08BD     		pop	{r3, pc}
 776              	.L91:
 777              		.align	2
ARM GAS  C:\Users\Dennis\AppData\Local\Temp\ccTFm9hA.s 			page 22


 778              	.L90:
 779 0010 00000000 		.word	htim8
 780 0014 00000000 		.word	htim13
 781              		.cfi_endproc
 782              	.LFE275:
 784              		.section	.text.TIM8_TRG_COM_TIM14_IRQHandler,"ax",%progbits
 785              		.align	1
 786              		.global	TIM8_TRG_COM_TIM14_IRQHandler
 787              		.syntax unified
 788              		.thumb
 789              		.thumb_func
 791              	TIM8_TRG_COM_TIM14_IRQHandler:
 792              	.LFB276:
 467:./Core/Src/stm32f4xx_it.c **** 
 468:./Core/Src/stm32f4xx_it.c **** /**
 469:./Core/Src/stm32f4xx_it.c ****   * @brief This function handles TIM8 trigger and commutation interrupts and TIM14 global interrupt
 470:./Core/Src/stm32f4xx_it.c ****   */
 471:./Core/Src/stm32f4xx_it.c **** void TIM8_TRG_COM_TIM14_IRQHandler(void)
 472:./Core/Src/stm32f4xx_it.c **** {
 793              		.loc 1 472 1 is_stmt 1 view -0
 794              		.cfi_startproc
 795              		@ args = 0, pretend = 0, frame = 0
 796              		@ frame_needed = 0, uses_anonymous_args = 0
 797 0000 08B5     		push	{r3, lr}
 798              	.LCFI20:
 799              		.cfi_def_cfa_offset 8
 800              		.cfi_offset 3, -8
 801              		.cfi_offset 14, -4
 473:./Core/Src/stm32f4xx_it.c ****   /* USER CODE BEGIN TIM8_TRG_COM_TIM14_IRQn 0 */
 474:./Core/Src/stm32f4xx_it.c **** 
 475:./Core/Src/stm32f4xx_it.c ****   /* USER CODE END TIM8_TRG_COM_TIM14_IRQn 0 */
 476:./Core/Src/stm32f4xx_it.c ****   HAL_TIM_IRQHandler(&htim8);
 802              		.loc 1 476 3 view .LVU85
 803 0002 0248     		ldr	r0, .L94
 804 0004 FFF7FEFF 		bl	HAL_TIM_IRQHandler
 805              	.LVL22:
 477:./Core/Src/stm32f4xx_it.c ****   /* USER CODE BEGIN TIM8_TRG_COM_TIM14_IRQn 1 */
 478:./Core/Src/stm32f4xx_it.c **** 
 479:./Core/Src/stm32f4xx_it.c ****   /* USER CODE END TIM8_TRG_COM_TIM14_IRQn 1 */
 480:./Core/Src/stm32f4xx_it.c **** }
 806              		.loc 1 480 1 is_stmt 0 view .LVU86
 807 0008 08BD     		pop	{r3, pc}
 808              	.L95:
 809 000a 00BF     		.align	2
 810              	.L94:
 811 000c 00000000 		.word	htim8
 812              		.cfi_endproc
 813              	.LFE276:
 815              		.section	.text.DMA1_Stream7_IRQHandler,"ax",%progbits
 816              		.align	1
 817              		.global	DMA1_Stream7_IRQHandler
 818              		.syntax unified
 819              		.thumb
 820              		.thumb_func
 822              	DMA1_Stream7_IRQHandler:
 823              	.LFB277:
 481:./Core/Src/stm32f4xx_it.c **** 
ARM GAS  C:\Users\Dennis\AppData\Local\Temp\ccTFm9hA.s 			page 23


 482:./Core/Src/stm32f4xx_it.c **** /**
 483:./Core/Src/stm32f4xx_it.c ****   * @brief This function handles DMA1 stream7 global interrupt.
 484:./Core/Src/stm32f4xx_it.c ****   */
 485:./Core/Src/stm32f4xx_it.c **** void DMA1_Stream7_IRQHandler(void)
 486:./Core/Src/stm32f4xx_it.c **** {
 824              		.loc 1 486 1 is_stmt 1 view -0
 825              		.cfi_startproc
 826              		@ args = 0, pretend = 0, frame = 0
 827              		@ frame_needed = 0, uses_anonymous_args = 0
 828 0000 08B5     		push	{r3, lr}
 829              	.LCFI21:
 830              		.cfi_def_cfa_offset 8
 831              		.cfi_offset 3, -8
 832              		.cfi_offset 14, -4
 487:./Core/Src/stm32f4xx_it.c ****   /* USER CODE BEGIN DMA1_Stream7_IRQn 0 */
 488:./Core/Src/stm32f4xx_it.c **** 
 489:./Core/Src/stm32f4xx_it.c ****   /* USER CODE END DMA1_Stream7_IRQn 0 */
 490:./Core/Src/stm32f4xx_it.c ****   HAL_DMA_IRQHandler(&hdma_i2c1_tx);
 833              		.loc 1 490 3 view .LVU88
 834 0002 0248     		ldr	r0, .L98
 835 0004 FFF7FEFF 		bl	HAL_DMA_IRQHandler
 836              	.LVL23:
 491:./Core/Src/stm32f4xx_it.c ****   /* USER CODE BEGIN DMA1_Stream7_IRQn 1 */
 492:./Core/Src/stm32f4xx_it.c **** 
 493:./Core/Src/stm32f4xx_it.c ****   /* USER CODE END DMA1_Stream7_IRQn 1 */
 494:./Core/Src/stm32f4xx_it.c **** }
 837              		.loc 1 494 1 is_stmt 0 view .LVU89
 838 0008 08BD     		pop	{r3, pc}
 839              	.L99:
 840 000a 00BF     		.align	2
 841              	.L98:
 842 000c 00000000 		.word	hdma_i2c1_tx
 843              		.cfi_endproc
 844              	.LFE277:
 846              		.section	.text.DMA2_Stream0_IRQHandler,"ax",%progbits
 847              		.align	1
 848              		.global	DMA2_Stream0_IRQHandler
 849              		.syntax unified
 850              		.thumb
 851              		.thumb_func
 853              	DMA2_Stream0_IRQHandler:
 854              	.LFB278:
 495:./Core/Src/stm32f4xx_it.c **** 
 496:./Core/Src/stm32f4xx_it.c **** /**
 497:./Core/Src/stm32f4xx_it.c ****   * @brief This function handles DMA2 stream0 global interrupt.
 498:./Core/Src/stm32f4xx_it.c ****   */
 499:./Core/Src/stm32f4xx_it.c **** void DMA2_Stream0_IRQHandler(void)
 500:./Core/Src/stm32f4xx_it.c **** {
 855              		.loc 1 500 1 is_stmt 1 view -0
 856              		.cfi_startproc
 857              		@ args = 0, pretend = 0, frame = 0
 858              		@ frame_needed = 0, uses_anonymous_args = 0
 859 0000 08B5     		push	{r3, lr}
 860              	.LCFI22:
 861              		.cfi_def_cfa_offset 8
 862              		.cfi_offset 3, -8
 863              		.cfi_offset 14, -4
ARM GAS  C:\Users\Dennis\AppData\Local\Temp\ccTFm9hA.s 			page 24


 501:./Core/Src/stm32f4xx_it.c ****   /* USER CODE BEGIN DMA2_Stream0_IRQn 0 */
 502:./Core/Src/stm32f4xx_it.c **** 
 503:./Core/Src/stm32f4xx_it.c ****   /* USER CODE END DMA2_Stream0_IRQn 0 */
 504:./Core/Src/stm32f4xx_it.c ****   HAL_DMA_IRQHandler(&hdma_spi1_rx);
 864              		.loc 1 504 3 view .LVU91
 865 0002 0248     		ldr	r0, .L102
 866 0004 FFF7FEFF 		bl	HAL_DMA_IRQHandler
 867              	.LVL24:
 505:./Core/Src/stm32f4xx_it.c ****   /* USER CODE BEGIN DMA2_Stream0_IRQn 1 */
 506:./Core/Src/stm32f4xx_it.c **** 
 507:./Core/Src/stm32f4xx_it.c ****   /* USER CODE END DMA2_Stream0_IRQn 1 */
 508:./Core/Src/stm32f4xx_it.c **** }
 868              		.loc 1 508 1 is_stmt 0 view .LVU92
 869 0008 08BD     		pop	{r3, pc}
 870              	.L103:
 871 000a 00BF     		.align	2
 872              	.L102:
 873 000c 00000000 		.word	hdma_spi1_rx
 874              		.cfi_endproc
 875              	.LFE278:
 877              		.section	.text.DMA2_Stream2_IRQHandler,"ax",%progbits
 878              		.align	1
 879              		.global	DMA2_Stream2_IRQHandler
 880              		.syntax unified
 881              		.thumb
 882              		.thumb_func
 884              	DMA2_Stream2_IRQHandler:
 885              	.LFB279:
 509:./Core/Src/stm32f4xx_it.c **** 
 510:./Core/Src/stm32f4xx_it.c **** /**
 511:./Core/Src/stm32f4xx_it.c ****   * @brief This function handles DMA2 stream2 global interrupt.
 512:./Core/Src/stm32f4xx_it.c ****   */
 513:./Core/Src/stm32f4xx_it.c **** void DMA2_Stream2_IRQHandler(void)
 514:./Core/Src/stm32f4xx_it.c **** {
 886              		.loc 1 514 1 is_stmt 1 view -0
 887              		.cfi_startproc
 888              		@ args = 0, pretend = 0, frame = 0
 889              		@ frame_needed = 0, uses_anonymous_args = 0
 890 0000 08B5     		push	{r3, lr}
 891              	.LCFI23:
 892              		.cfi_def_cfa_offset 8
 893              		.cfi_offset 3, -8
 894              		.cfi_offset 14, -4
 515:./Core/Src/stm32f4xx_it.c ****   /* USER CODE BEGIN DMA2_Stream2_IRQn 0 */
 516:./Core/Src/stm32f4xx_it.c **** 
 517:./Core/Src/stm32f4xx_it.c ****   /* USER CODE END DMA2_Stream2_IRQn 0 */
 518:./Core/Src/stm32f4xx_it.c ****   HAL_DMA_IRQHandler(&hdma_usart1_rx);
 895              		.loc 1 518 3 view .LVU94
 896 0002 0248     		ldr	r0, .L106
 897 0004 FFF7FEFF 		bl	HAL_DMA_IRQHandler
 898              	.LVL25:
 519:./Core/Src/stm32f4xx_it.c ****   /* USER CODE BEGIN DMA2_Stream2_IRQn 1 */
 520:./Core/Src/stm32f4xx_it.c **** 
 521:./Core/Src/stm32f4xx_it.c ****   /* USER CODE END DMA2_Stream2_IRQn 1 */
 522:./Core/Src/stm32f4xx_it.c **** }
 899              		.loc 1 522 1 is_stmt 0 view .LVU95
 900 0008 08BD     		pop	{r3, pc}
ARM GAS  C:\Users\Dennis\AppData\Local\Temp\ccTFm9hA.s 			page 25


 901              	.L107:
 902 000a 00BF     		.align	2
 903              	.L106:
 904 000c 00000000 		.word	hdma_usart1_rx
 905              		.cfi_endproc
 906              	.LFE279:
 908              		.section	.text.DMA2_Stream3_IRQHandler,"ax",%progbits
 909              		.align	1
 910              		.global	DMA2_Stream3_IRQHandler
 911              		.syntax unified
 912              		.thumb
 913              		.thumb_func
 915              	DMA2_Stream3_IRQHandler:
 916              	.LFB280:
 523:./Core/Src/stm32f4xx_it.c **** 
 524:./Core/Src/stm32f4xx_it.c **** /**
 525:./Core/Src/stm32f4xx_it.c ****   * @brief This function handles DMA2 stream3 global interrupt.
 526:./Core/Src/stm32f4xx_it.c ****   */
 527:./Core/Src/stm32f4xx_it.c **** void DMA2_Stream3_IRQHandler(void)
 528:./Core/Src/stm32f4xx_it.c **** {
 917              		.loc 1 528 1 is_stmt 1 view -0
 918              		.cfi_startproc
 919              		@ args = 0, pretend = 0, frame = 0
 920              		@ frame_needed = 0, uses_anonymous_args = 0
 921 0000 08B5     		push	{r3, lr}
 922              	.LCFI24:
 923              		.cfi_def_cfa_offset 8
 924              		.cfi_offset 3, -8
 925              		.cfi_offset 14, -4
 529:./Core/Src/stm32f4xx_it.c ****   /* USER CODE BEGIN DMA2_Stream3_IRQn 0 */
 530:./Core/Src/stm32f4xx_it.c **** 
 531:./Core/Src/stm32f4xx_it.c ****   /* USER CODE END DMA2_Stream3_IRQn 0 */
 532:./Core/Src/stm32f4xx_it.c ****   HAL_DMA_IRQHandler(&hdma_spi1_tx);
 926              		.loc 1 532 3 view .LVU97
 927 0002 0248     		ldr	r0, .L110
 928 0004 FFF7FEFF 		bl	HAL_DMA_IRQHandler
 929              	.LVL26:
 533:./Core/Src/stm32f4xx_it.c ****   /* USER CODE BEGIN DMA2_Stream3_IRQn 1 */
 534:./Core/Src/stm32f4xx_it.c **** 
 535:./Core/Src/stm32f4xx_it.c ****   /* USER CODE END DMA2_Stream3_IRQn 1 */
 536:./Core/Src/stm32f4xx_it.c **** }
 930              		.loc 1 536 1 is_stmt 0 view .LVU98
 931 0008 08BD     		pop	{r3, pc}
 932              	.L111:
 933 000a 00BF     		.align	2
 934              	.L110:
 935 000c 00000000 		.word	hdma_spi1_tx
 936              		.cfi_endproc
 937              	.LFE280:
 939              		.section	.text.DMA2_Stream4_IRQHandler,"ax",%progbits
 940              		.align	1
 941              		.global	DMA2_Stream4_IRQHandler
 942              		.syntax unified
 943              		.thumb
 944              		.thumb_func
 946              	DMA2_Stream4_IRQHandler:
 947              	.LFB281:
ARM GAS  C:\Users\Dennis\AppData\Local\Temp\ccTFm9hA.s 			page 26


 537:./Core/Src/stm32f4xx_it.c **** 
 538:./Core/Src/stm32f4xx_it.c **** /**
 539:./Core/Src/stm32f4xx_it.c ****   * @brief This function handles DMA2 stream4 global interrupt.
 540:./Core/Src/stm32f4xx_it.c ****   */
 541:./Core/Src/stm32f4xx_it.c **** void DMA2_Stream4_IRQHandler(void)
 542:./Core/Src/stm32f4xx_it.c **** {
 948              		.loc 1 542 1 is_stmt 1 view -0
 949              		.cfi_startproc
 950              		@ args = 0, pretend = 0, frame = 0
 951              		@ frame_needed = 0, uses_anonymous_args = 0
 952 0000 08B5     		push	{r3, lr}
 953              	.LCFI25:
 954              		.cfi_def_cfa_offset 8
 955              		.cfi_offset 3, -8
 956              		.cfi_offset 14, -4
 543:./Core/Src/stm32f4xx_it.c ****   /* USER CODE BEGIN DMA2_Stream4_IRQn 0 */
 544:./Core/Src/stm32f4xx_it.c **** 
 545:./Core/Src/stm32f4xx_it.c ****   /* USER CODE END DMA2_Stream4_IRQn 0 */
 546:./Core/Src/stm32f4xx_it.c ****   HAL_DMA_IRQHandler(&hdma_adc1);
 957              		.loc 1 546 3 view .LVU100
 958 0002 0248     		ldr	r0, .L114
 959 0004 FFF7FEFF 		bl	HAL_DMA_IRQHandler
 960              	.LVL27:
 547:./Core/Src/stm32f4xx_it.c ****   /* USER CODE BEGIN DMA2_Stream4_IRQn 1 */
 548:./Core/Src/stm32f4xx_it.c **** 
 549:./Core/Src/stm32f4xx_it.c ****   /* USER CODE END DMA2_Stream4_IRQn 1 */
 550:./Core/Src/stm32f4xx_it.c **** }
 961              		.loc 1 550 1 is_stmt 0 view .LVU101
 962 0008 08BD     		pop	{r3, pc}
 963              	.L115:
 964 000a 00BF     		.align	2
 965              	.L114:
 966 000c 00000000 		.word	hdma_adc1
 967              		.cfi_endproc
 968              	.LFE281:
 970              		.section	.text.CAN2_TX_IRQHandler,"ax",%progbits
 971              		.align	1
 972              		.global	CAN2_TX_IRQHandler
 973              		.syntax unified
 974              		.thumb
 975              		.thumb_func
 977              	CAN2_TX_IRQHandler:
 978              	.LFB282:
 551:./Core/Src/stm32f4xx_it.c **** 
 552:./Core/Src/stm32f4xx_it.c **** /**
 553:./Core/Src/stm32f4xx_it.c ****   * @brief This function handles CAN2 TX interrupts.
 554:./Core/Src/stm32f4xx_it.c ****   */
 555:./Core/Src/stm32f4xx_it.c **** void CAN2_TX_IRQHandler(void)
 556:./Core/Src/stm32f4xx_it.c **** {
 979              		.loc 1 556 1 is_stmt 1 view -0
 980              		.cfi_startproc
 981              		@ args = 0, pretend = 0, frame = 0
 982              		@ frame_needed = 0, uses_anonymous_args = 0
 983 0000 08B5     		push	{r3, lr}
 984              	.LCFI26:
 985              		.cfi_def_cfa_offset 8
 986              		.cfi_offset 3, -8
ARM GAS  C:\Users\Dennis\AppData\Local\Temp\ccTFm9hA.s 			page 27


 987              		.cfi_offset 14, -4
 557:./Core/Src/stm32f4xx_it.c ****   /* USER CODE BEGIN CAN2_TX_IRQn 0 */
 558:./Core/Src/stm32f4xx_it.c **** 
 559:./Core/Src/stm32f4xx_it.c ****   /* USER CODE END CAN2_TX_IRQn 0 */
 560:./Core/Src/stm32f4xx_it.c ****   HAL_CAN_IRQHandler(&hcan2);
 988              		.loc 1 560 3 view .LVU103
 989 0002 0248     		ldr	r0, .L118
 990 0004 FFF7FEFF 		bl	HAL_CAN_IRQHandler
 991              	.LVL28:
 561:./Core/Src/stm32f4xx_it.c ****   /* USER CODE BEGIN CAN2_TX_IRQn 1 */
 562:./Core/Src/stm32f4xx_it.c **** 
 563:./Core/Src/stm32f4xx_it.c ****   /* USER CODE END CAN2_TX_IRQn 1 */
 564:./Core/Src/stm32f4xx_it.c **** }
 992              		.loc 1 564 1 is_stmt 0 view .LVU104
 993 0008 08BD     		pop	{r3, pc}
 994              	.L119:
 995 000a 00BF     		.align	2
 996              	.L118:
 997 000c 00000000 		.word	hcan2
 998              		.cfi_endproc
 999              	.LFE282:
 1001              		.section	.text.CAN2_RX0_IRQHandler,"ax",%progbits
 1002              		.align	1
 1003              		.global	CAN2_RX0_IRQHandler
 1004              		.syntax unified
 1005              		.thumb
 1006              		.thumb_func
 1008              	CAN2_RX0_IRQHandler:
 1009              	.LFB283:
 565:./Core/Src/stm32f4xx_it.c **** 
 566:./Core/Src/stm32f4xx_it.c **** /**
 567:./Core/Src/stm32f4xx_it.c ****   * @brief This function handles CAN2 RX0 interrupts.
 568:./Core/Src/stm32f4xx_it.c ****   */
 569:./Core/Src/stm32f4xx_it.c **** void CAN2_RX0_IRQHandler(void)
 570:./Core/Src/stm32f4xx_it.c **** {
 1010              		.loc 1 570 1 is_stmt 1 view -0
 1011              		.cfi_startproc
 1012              		@ args = 0, pretend = 0, frame = 0
 1013              		@ frame_needed = 0, uses_anonymous_args = 0
 1014 0000 08B5     		push	{r3, lr}
 1015              	.LCFI27:
 1016              		.cfi_def_cfa_offset 8
 1017              		.cfi_offset 3, -8
 1018              		.cfi_offset 14, -4
 571:./Core/Src/stm32f4xx_it.c ****   /* USER CODE BEGIN CAN2_RX0_IRQn 0 */
 572:./Core/Src/stm32f4xx_it.c ****   
 573:./Core/Src/stm32f4xx_it.c ****   /* USER CODE END CAN2_RX0_IRQn 0 */
 574:./Core/Src/stm32f4xx_it.c ****   HAL_CAN_IRQHandler(&hcan2);
 1019              		.loc 1 574 3 view .LVU106
 1020 0002 0248     		ldr	r0, .L122
 1021 0004 FFF7FEFF 		bl	HAL_CAN_IRQHandler
 1022              	.LVL29:
 575:./Core/Src/stm32f4xx_it.c ****   /* USER CODE BEGIN CAN2_RX0_IRQn 1 */
 576:./Core/Src/stm32f4xx_it.c **** 
 577:./Core/Src/stm32f4xx_it.c ****   /* USER CODE END CAN2_RX0_IRQn 1 */
 578:./Core/Src/stm32f4xx_it.c **** }
 1023              		.loc 1 578 1 is_stmt 0 view .LVU107
ARM GAS  C:\Users\Dennis\AppData\Local\Temp\ccTFm9hA.s 			page 28


 1024 0008 08BD     		pop	{r3, pc}
 1025              	.L123:
 1026 000a 00BF     		.align	2
 1027              	.L122:
 1028 000c 00000000 		.word	hcan2
 1029              		.cfi_endproc
 1030              	.LFE283:
 1032              		.section	.text.CAN2_RX1_IRQHandler,"ax",%progbits
 1033              		.align	1
 1034              		.global	CAN2_RX1_IRQHandler
 1035              		.syntax unified
 1036              		.thumb
 1037              		.thumb_func
 1039              	CAN2_RX1_IRQHandler:
 1040              	.LFB284:
 579:./Core/Src/stm32f4xx_it.c **** 
 580:./Core/Src/stm32f4xx_it.c **** /**
 581:./Core/Src/stm32f4xx_it.c ****   * @brief This function handles CAN2 RX1 interrupt.
 582:./Core/Src/stm32f4xx_it.c ****   */
 583:./Core/Src/stm32f4xx_it.c **** void CAN2_RX1_IRQHandler(void)
 584:./Core/Src/stm32f4xx_it.c **** {
 1041              		.loc 1 584 1 is_stmt 1 view -0
 1042              		.cfi_startproc
 1043              		@ args = 0, pretend = 0, frame = 0
 1044              		@ frame_needed = 0, uses_anonymous_args = 0
 1045 0000 08B5     		push	{r3, lr}
 1046              	.LCFI28:
 1047              		.cfi_def_cfa_offset 8
 1048              		.cfi_offset 3, -8
 1049              		.cfi_offset 14, -4
 585:./Core/Src/stm32f4xx_it.c ****   /* USER CODE BEGIN CAN2_RX1_IRQn 0 */
 586:./Core/Src/stm32f4xx_it.c **** 
 587:./Core/Src/stm32f4xx_it.c ****   /* USER CODE END CAN2_RX1_IRQn 0 */
 588:./Core/Src/stm32f4xx_it.c ****   HAL_CAN_IRQHandler(&hcan2);
 1050              		.loc 1 588 3 view .LVU109
 1051 0002 0248     		ldr	r0, .L126
 1052 0004 FFF7FEFF 		bl	HAL_CAN_IRQHandler
 1053              	.LVL30:
 589:./Core/Src/stm32f4xx_it.c ****   /* USER CODE BEGIN CAN2_RX1_IRQn 1 */
 590:./Core/Src/stm32f4xx_it.c **** 
 591:./Core/Src/stm32f4xx_it.c ****   /* USER CODE END CAN2_RX1_IRQn 1 */
 592:./Core/Src/stm32f4xx_it.c **** }
 1054              		.loc 1 592 1 is_stmt 0 view .LVU110
 1055 0008 08BD     		pop	{r3, pc}
 1056              	.L127:
 1057 000a 00BF     		.align	2
 1058              	.L126:
 1059 000c 00000000 		.word	hcan2
 1060              		.cfi_endproc
 1061              	.LFE284:
 1063              		.section	.text.CAN2_SCE_IRQHandler,"ax",%progbits
 1064              		.align	1
 1065              		.global	CAN2_SCE_IRQHandler
 1066              		.syntax unified
 1067              		.thumb
 1068              		.thumb_func
 1070              	CAN2_SCE_IRQHandler:
ARM GAS  C:\Users\Dennis\AppData\Local\Temp\ccTFm9hA.s 			page 29


 1071              	.LFB285:
 593:./Core/Src/stm32f4xx_it.c **** 
 594:./Core/Src/stm32f4xx_it.c **** /**
 595:./Core/Src/stm32f4xx_it.c ****   * @brief This function handles CAN2 SCE interrupt.
 596:./Core/Src/stm32f4xx_it.c ****   */
 597:./Core/Src/stm32f4xx_it.c **** void CAN2_SCE_IRQHandler(void)
 598:./Core/Src/stm32f4xx_it.c **** {
 1072              		.loc 1 598 1 is_stmt 1 view -0
 1073              		.cfi_startproc
 1074              		@ args = 0, pretend = 0, frame = 0
 1075              		@ frame_needed = 0, uses_anonymous_args = 0
 1076 0000 08B5     		push	{r3, lr}
 1077              	.LCFI29:
 1078              		.cfi_def_cfa_offset 8
 1079              		.cfi_offset 3, -8
 1080              		.cfi_offset 14, -4
 599:./Core/Src/stm32f4xx_it.c ****   /* USER CODE BEGIN CAN2_SCE_IRQn 0 */
 600:./Core/Src/stm32f4xx_it.c **** 
 601:./Core/Src/stm32f4xx_it.c ****   /* USER CODE END CAN2_SCE_IRQn 0 */
 602:./Core/Src/stm32f4xx_it.c ****   HAL_CAN_IRQHandler(&hcan2);
 1081              		.loc 1 602 3 view .LVU112
 1082 0002 0248     		ldr	r0, .L130
 1083 0004 FFF7FEFF 		bl	HAL_CAN_IRQHandler
 1084              	.LVL31:
 603:./Core/Src/stm32f4xx_it.c ****   /* USER CODE BEGIN CAN2_SCE_IRQn 1 */
 604:./Core/Src/stm32f4xx_it.c **** 
 605:./Core/Src/stm32f4xx_it.c ****   /* USER CODE END CAN2_SCE_IRQn 1 */
 606:./Core/Src/stm32f4xx_it.c **** }
 1085              		.loc 1 606 1 is_stmt 0 view .LVU113
 1086 0008 08BD     		pop	{r3, pc}
 1087              	.L131:
 1088 000a 00BF     		.align	2
 1089              	.L130:
 1090 000c 00000000 		.word	hcan2
 1091              		.cfi_endproc
 1092              	.LFE285:
 1094              		.section	.text.OTG_FS_IRQHandler,"ax",%progbits
 1095              		.align	1
 1096              		.global	OTG_FS_IRQHandler
 1097              		.syntax unified
 1098              		.thumb
 1099              		.thumb_func
 1101              	OTG_FS_IRQHandler:
 1102              	.LFB286:
 607:./Core/Src/stm32f4xx_it.c **** 
 608:./Core/Src/stm32f4xx_it.c **** /**
 609:./Core/Src/stm32f4xx_it.c ****   * @brief This function handles USB On The Go FS global interrupt.
 610:./Core/Src/stm32f4xx_it.c ****   */
 611:./Core/Src/stm32f4xx_it.c **** void OTG_FS_IRQHandler(void)
 612:./Core/Src/stm32f4xx_it.c **** {
 1103              		.loc 1 612 1 is_stmt 1 view -0
 1104              		.cfi_startproc
 1105              		@ args = 0, pretend = 0, frame = 0
 1106              		@ frame_needed = 0, uses_anonymous_args = 0
 1107 0000 08B5     		push	{r3, lr}
 1108              	.LCFI30:
 1109              		.cfi_def_cfa_offset 8
ARM GAS  C:\Users\Dennis\AppData\Local\Temp\ccTFm9hA.s 			page 30


 1110              		.cfi_offset 3, -8
 1111              		.cfi_offset 14, -4
 613:./Core/Src/stm32f4xx_it.c ****   /* USER CODE BEGIN OTG_FS_IRQn 0 */
 614:./Core/Src/stm32f4xx_it.c **** 
 615:./Core/Src/stm32f4xx_it.c ****   /* USER CODE END OTG_FS_IRQn 0 */
 616:./Core/Src/stm32f4xx_it.c ****   HAL_PCD_IRQHandler(&hpcd_USB_OTG_FS);
 1112              		.loc 1 616 3 view .LVU115
 1113 0002 0248     		ldr	r0, .L134
 1114 0004 FFF7FEFF 		bl	HAL_PCD_IRQHandler
 1115              	.LVL32:
 617:./Core/Src/stm32f4xx_it.c ****   /* USER CODE BEGIN OTG_FS_IRQn 1 */
 618:./Core/Src/stm32f4xx_it.c **** 
 619:./Core/Src/stm32f4xx_it.c ****   /* USER CODE END OTG_FS_IRQn 1 */
 620:./Core/Src/stm32f4xx_it.c **** }
 1116              		.loc 1 620 1 is_stmt 0 view .LVU116
 1117 0008 08BD     		pop	{r3, pc}
 1118              	.L135:
 1119 000a 00BF     		.align	2
 1120              	.L134:
 1121 000c 00000000 		.word	hpcd_USB_OTG_FS
 1122              		.cfi_endproc
 1123              	.LFE286:
 1125              		.section	.text.DMA2_Stream7_IRQHandler,"ax",%progbits
 1126              		.align	1
 1127              		.global	DMA2_Stream7_IRQHandler
 1128              		.syntax unified
 1129              		.thumb
 1130              		.thumb_func
 1132              	DMA2_Stream7_IRQHandler:
 1133              	.LFB287:
 621:./Core/Src/stm32f4xx_it.c **** 
 622:./Core/Src/stm32f4xx_it.c **** /**
 623:./Core/Src/stm32f4xx_it.c ****   * @brief This function handles DMA2 stream7 global interrupt.
 624:./Core/Src/stm32f4xx_it.c ****   */
 625:./Core/Src/stm32f4xx_it.c **** void DMA2_Stream7_IRQHandler(void)
 626:./Core/Src/stm32f4xx_it.c **** {
 1134              		.loc 1 626 1 is_stmt 1 view -0
 1135              		.cfi_startproc
 1136              		@ args = 0, pretend = 0, frame = 0
 1137              		@ frame_needed = 0, uses_anonymous_args = 0
 1138 0000 08B5     		push	{r3, lr}
 1139              	.LCFI31:
 1140              		.cfi_def_cfa_offset 8
 1141              		.cfi_offset 3, -8
 1142              		.cfi_offset 14, -4
 627:./Core/Src/stm32f4xx_it.c ****   /* USER CODE BEGIN DMA2_Stream7_IRQn 0 */
 628:./Core/Src/stm32f4xx_it.c **** 
 629:./Core/Src/stm32f4xx_it.c ****   /* USER CODE END DMA2_Stream7_IRQn 0 */
 630:./Core/Src/stm32f4xx_it.c ****   HAL_DMA_IRQHandler(&hdma_usart1_tx);
 1143              		.loc 1 630 3 view .LVU118
 1144 0002 0248     		ldr	r0, .L138
 1145 0004 FFF7FEFF 		bl	HAL_DMA_IRQHandler
 1146              	.LVL33:
 631:./Core/Src/stm32f4xx_it.c ****   /* USER CODE BEGIN DMA2_Stream7_IRQn 1 */
 632:./Core/Src/stm32f4xx_it.c **** 
 633:./Core/Src/stm32f4xx_it.c ****   /* USER CODE END DMA2_Stream7_IRQn 1 */
 634:./Core/Src/stm32f4xx_it.c **** }
ARM GAS  C:\Users\Dennis\AppData\Local\Temp\ccTFm9hA.s 			page 31


 1147              		.loc 1 634 1 is_stmt 0 view .LVU119
 1148 0008 08BD     		pop	{r3, pc}
 1149              	.L139:
 1150 000a 00BF     		.align	2
 1151              	.L138:
 1152 000c 00000000 		.word	hdma_usart1_tx
 1153              		.cfi_endproc
 1154              	.LFE287:
 1156              		.text
 1157              	.Letext0:
 1158              		.file 2 "c:\\software_user\\armgcc\\arm-none-eabi\\include\\machine\\_default_types.h"
 1159              		.file 3 "c:\\software_user\\armgcc\\arm-none-eabi\\include\\sys\\_stdint.h"
 1160              		.file 4 "./Drivers/CMSIS/Device/ST/STM32F4xx/Include/stm32f407xx.h"
 1161              		.file 5 "./Drivers/CMSIS/Device/ST/STM32F4xx/Include/stm32f4xx.h"
 1162              		.file 6 "./Drivers/STM32F4xx_HAL_Driver/Inc/stm32f4xx_hal_def.h"
 1163              		.file 7 "./Drivers/STM32F4xx_HAL_Driver/Inc/stm32f4xx_hal_dma.h"
 1164              		.file 8 "./Drivers/STM32F4xx_HAL_Driver/Inc/stm32f4xx_hal_can.h"
 1165              		.file 9 "./Drivers/STM32F4xx_HAL_Driver/Inc/stm32f4xx_hal_i2c.h"
 1166              		.file 10 "./Drivers/STM32F4xx_HAL_Driver/Inc/stm32f4xx_hal_spi.h"
 1167              		.file 11 "./Drivers/STM32F4xx_HAL_Driver/Inc/stm32f4xx_hal_tim.h"
 1168              		.file 12 "./Drivers/STM32F4xx_HAL_Driver/Inc/stm32f4xx_hal_uart.h"
 1169              		.file 13 "./Drivers/STM32F4xx_HAL_Driver/Inc/stm32f4xx_ll_usb.h"
 1170              		.file 14 "./Drivers/STM32F4xx_HAL_Driver/Inc/stm32f4xx_hal_pcd.h"
 1171              		.file 15 "./Core/Inc/usart.h"
 1172              		.file 16 "./app/Threads/Thread_cmd/Thread_cmd.h"
ARM GAS  C:\Users\Dennis\AppData\Local\Temp\ccTFm9hA.s 			page 32

