ARM GAS  C:\Users\Dennis\AppData\Local\Temp\ccHsnBwd.s 			page 1


   1              		.cpu cortex-m4
   2              		.arch armv7e-m
   3              		.fpu fpv4-sp-d16
   4              		.eabi_attribute 27, 1
   5              		.eabi_attribute 28, 1
   6              		.eabi_attribute 20, 1
   7              		.eabi_attribute 21, 1
   8              		.eabi_attribute 23, 3
   9              		.eabi_attribute 24, 1
  10              		.eabi_attribute 25, 1
  11              		.eabi_attribute 26, 1
  12              		.eabi_attribute 30, 1
  13              		.eabi_attribute 34, 1
  14              		.eabi_attribute 18, 4
  15              		.file	"stm32f4xx_it.c"
  16              		.text
  17              	.Ltext0:
  18              		.cfi_sections	.debug_frame
  19              		.section	.text.NMI_Handler,"ax",%progbits
  20              		.align	1
  21              		.global	NMI_Handler
  22              		.syntax unified
  23              		.thumb
  24              		.thumb_func
  26              	NMI_Handler:
  27              	.LFB250:
  28              		.file 1 "./Core/Src/stm32f4xx_it.c"
   1:./Core/Src/stm32f4xx_it.c **** /* USER CODE BEGIN Header */
   2:./Core/Src/stm32f4xx_it.c **** /**
   3:./Core/Src/stm32f4xx_it.c ****   ******************************************************************************
   4:./Core/Src/stm32f4xx_it.c ****   * @file    stm32f4xx_it.c
   5:./Core/Src/stm32f4xx_it.c ****   * @brief   Interrupt Service Routines.
   6:./Core/Src/stm32f4xx_it.c ****   ******************************************************************************
   7:./Core/Src/stm32f4xx_it.c ****   * @attention
   8:./Core/Src/stm32f4xx_it.c ****   *
   9:./Core/Src/stm32f4xx_it.c ****   * Copyright (c) 2025 STMicroelectronics.
  10:./Core/Src/stm32f4xx_it.c ****   * All rights reserved.
  11:./Core/Src/stm32f4xx_it.c ****   *
  12:./Core/Src/stm32f4xx_it.c ****   * This software is licensed under terms that can be found in the LICENSE file
  13:./Core/Src/stm32f4xx_it.c ****   * in the root directory of this software component.
  14:./Core/Src/stm32f4xx_it.c ****   * If no LICENSE file comes with this software, it is provided AS-IS.
  15:./Core/Src/stm32f4xx_it.c ****   *
  16:./Core/Src/stm32f4xx_it.c ****   ******************************************************************************
  17:./Core/Src/stm32f4xx_it.c ****   */
  18:./Core/Src/stm32f4xx_it.c **** /* USER CODE END Header */
  19:./Core/Src/stm32f4xx_it.c **** 
  20:./Core/Src/stm32f4xx_it.c **** /* Includes ------------------------------------------------------------------*/
  21:./Core/Src/stm32f4xx_it.c **** #include "main.h"
  22:./Core/Src/stm32f4xx_it.c **** #include "stm32f4xx_it.h"
  23:./Core/Src/stm32f4xx_it.c **** /* Private includes ----------------------------------------------------------*/
  24:./Core/Src/stm32f4xx_it.c **** /* USER CODE BEGIN Includes */
  25:./Core/Src/stm32f4xx_it.c **** #include "Thread_cmd.h"
  26:./Core/Src/stm32f4xx_it.c **** /* USER CODE END Includes */
  27:./Core/Src/stm32f4xx_it.c **** 
  28:./Core/Src/stm32f4xx_it.c **** /* Private typedef -----------------------------------------------------------*/
  29:./Core/Src/stm32f4xx_it.c **** /* USER CODE BEGIN TD */
  30:./Core/Src/stm32f4xx_it.c **** 
ARM GAS  C:\Users\Dennis\AppData\Local\Temp\ccHsnBwd.s 			page 2


  31:./Core/Src/stm32f4xx_it.c **** /* USER CODE END TD */
  32:./Core/Src/stm32f4xx_it.c **** 
  33:./Core/Src/stm32f4xx_it.c **** /* Private define ------------------------------------------------------------*/
  34:./Core/Src/stm32f4xx_it.c **** /* USER CODE BEGIN PD */
  35:./Core/Src/stm32f4xx_it.c **** 
  36:./Core/Src/stm32f4xx_it.c **** /* USER CODE END PD */
  37:./Core/Src/stm32f4xx_it.c **** 
  38:./Core/Src/stm32f4xx_it.c **** /* Private macro -------------------------------------------------------------*/
  39:./Core/Src/stm32f4xx_it.c **** /* USER CODE BEGIN PM */
  40:./Core/Src/stm32f4xx_it.c **** 
  41:./Core/Src/stm32f4xx_it.c **** /* USER CODE END PM */
  42:./Core/Src/stm32f4xx_it.c **** 
  43:./Core/Src/stm32f4xx_it.c **** /* Private variables ---------------------------------------------------------*/
  44:./Core/Src/stm32f4xx_it.c **** /* USER CODE BEGIN PV */
  45:./Core/Src/stm32f4xx_it.c **** 
  46:./Core/Src/stm32f4xx_it.c **** /* USER CODE END PV */
  47:./Core/Src/stm32f4xx_it.c **** 
  48:./Core/Src/stm32f4xx_it.c **** /* Private function prototypes -----------------------------------------------*/
  49:./Core/Src/stm32f4xx_it.c **** /* USER CODE BEGIN PFP */
  50:./Core/Src/stm32f4xx_it.c **** 
  51:./Core/Src/stm32f4xx_it.c **** /* USER CODE END PFP */
  52:./Core/Src/stm32f4xx_it.c **** 
  53:./Core/Src/stm32f4xx_it.c **** /* Private user code ---------------------------------------------------------*/
  54:./Core/Src/stm32f4xx_it.c **** /* USER CODE BEGIN 0 */
  55:./Core/Src/stm32f4xx_it.c **** 
  56:./Core/Src/stm32f4xx_it.c **** /* USER CODE END 0 */
  57:./Core/Src/stm32f4xx_it.c **** 
  58:./Core/Src/stm32f4xx_it.c **** /* External variables --------------------------------------------------------*/
  59:./Core/Src/stm32f4xx_it.c **** extern DMA_HandleTypeDef hdma_adc1;
  60:./Core/Src/stm32f4xx_it.c **** extern CAN_HandleTypeDef hcan1;
  61:./Core/Src/stm32f4xx_it.c **** extern CAN_HandleTypeDef hcan2;
  62:./Core/Src/stm32f4xx_it.c **** extern TIM_HandleTypeDef htim4;
  63:./Core/Src/stm32f4xx_it.c **** extern TIM_HandleTypeDef htim8;
  64:./Core/Src/stm32f4xx_it.c **** extern DMA_HandleTypeDef hdma_usart1_rx;
  65:./Core/Src/stm32f4xx_it.c **** extern UART_HandleTypeDef huart1;
  66:./Core/Src/stm32f4xx_it.c **** extern PCD_HandleTypeDef hpcd_USB_OTG_FS;
  67:./Core/Src/stm32f4xx_it.c **** extern TIM_HandleTypeDef htim13;
  68:./Core/Src/stm32f4xx_it.c **** 
  69:./Core/Src/stm32f4xx_it.c **** /* USER CODE BEGIN EV */
  70:./Core/Src/stm32f4xx_it.c **** 
  71:./Core/Src/stm32f4xx_it.c **** /* USER CODE END EV */
  72:./Core/Src/stm32f4xx_it.c **** 
  73:./Core/Src/stm32f4xx_it.c **** /******************************************************************************/
  74:./Core/Src/stm32f4xx_it.c **** /*           Cortex-M4 Processor Interruption and Exception Handlers          */
  75:./Core/Src/stm32f4xx_it.c **** /******************************************************************************/
  76:./Core/Src/stm32f4xx_it.c **** /**
  77:./Core/Src/stm32f4xx_it.c ****   * @brief This function handles Non maskable interrupt.
  78:./Core/Src/stm32f4xx_it.c ****   */
  79:./Core/Src/stm32f4xx_it.c **** void NMI_Handler(void)
  80:./Core/Src/stm32f4xx_it.c **** {
  29              		.loc 1 80 1 view -0
  30              		.cfi_startproc
  31              		@ Volatile: function does not return.
  32              		@ args = 0, pretend = 0, frame = 0
  33              		@ frame_needed = 0, uses_anonymous_args = 0
  34              		@ link register save eliminated.
  35              	.L2:
ARM GAS  C:\Users\Dennis\AppData\Local\Temp\ccHsnBwd.s 			page 3


  81:./Core/Src/stm32f4xx_it.c ****   /* USER CODE BEGIN NonMaskableInt_IRQn 0 */
  82:./Core/Src/stm32f4xx_it.c **** 
  83:./Core/Src/stm32f4xx_it.c ****   /* USER CODE END NonMaskableInt_IRQn 0 */
  84:./Core/Src/stm32f4xx_it.c ****   /* USER CODE BEGIN NonMaskableInt_IRQn 1 */
  85:./Core/Src/stm32f4xx_it.c ****    while (1)
  36              		.loc 1 85 4 discriminator 1 view .LVU1
  86:./Core/Src/stm32f4xx_it.c ****   {
  87:./Core/Src/stm32f4xx_it.c ****   }
  37              		.loc 1 87 3 discriminator 1 view .LVU2
  85:./Core/Src/stm32f4xx_it.c ****   {
  38              		.loc 1 85 10 discriminator 1 view .LVU3
  39 0000 FEE7     		b	.L2
  40              		.cfi_endproc
  41              	.LFE250:
  43              		.section	.text.HardFault_Handler,"ax",%progbits
  44              		.align	1
  45              		.global	HardFault_Handler
  46              		.syntax unified
  47              		.thumb
  48              		.thumb_func
  50              	HardFault_Handler:
  51              	.LFB251:
  88:./Core/Src/stm32f4xx_it.c ****   /* USER CODE END NonMaskableInt_IRQn 1 */
  89:./Core/Src/stm32f4xx_it.c **** }
  90:./Core/Src/stm32f4xx_it.c **** 
  91:./Core/Src/stm32f4xx_it.c **** /**
  92:./Core/Src/stm32f4xx_it.c ****   * @brief This function handles Hard fault interrupt.
  93:./Core/Src/stm32f4xx_it.c ****   */
  94:./Core/Src/stm32f4xx_it.c **** void HardFault_Handler(void)
  95:./Core/Src/stm32f4xx_it.c **** {
  52              		.loc 1 95 1 view -0
  53              		.cfi_startproc
  54              		@ Volatile: function does not return.
  55              		@ args = 0, pretend = 0, frame = 0
  56              		@ frame_needed = 0, uses_anonymous_args = 0
  57              		@ link register save eliminated.
  58              	.L4:
  96:./Core/Src/stm32f4xx_it.c ****   /* USER CODE BEGIN HardFault_IRQn 0 */
  97:./Core/Src/stm32f4xx_it.c **** 
  98:./Core/Src/stm32f4xx_it.c ****   /* USER CODE END HardFault_IRQn 0 */
  99:./Core/Src/stm32f4xx_it.c ****   while (1)
  59              		.loc 1 99 3 discriminator 1 view .LVU5
 100:./Core/Src/stm32f4xx_it.c ****   {
 101:./Core/Src/stm32f4xx_it.c ****     /* USER CODE BEGIN W1_HardFault_IRQn 0 */
 102:./Core/Src/stm32f4xx_it.c ****     /* USER CODE END W1_HardFault_IRQn 0 */
 103:./Core/Src/stm32f4xx_it.c ****   }
  60              		.loc 1 103 3 discriminator 1 view .LVU6
  99:./Core/Src/stm32f4xx_it.c ****   {
  61              		.loc 1 99 9 discriminator 1 view .LVU7
  62 0000 FEE7     		b	.L4
  63              		.cfi_endproc
  64              	.LFE251:
  66              		.section	.text.MemManage_Handler,"ax",%progbits
  67              		.align	1
  68              		.global	MemManage_Handler
  69              		.syntax unified
  70              		.thumb
ARM GAS  C:\Users\Dennis\AppData\Local\Temp\ccHsnBwd.s 			page 4


  71              		.thumb_func
  73              	MemManage_Handler:
  74              	.LFB252:
 104:./Core/Src/stm32f4xx_it.c **** }
 105:./Core/Src/stm32f4xx_it.c **** 
 106:./Core/Src/stm32f4xx_it.c **** /**
 107:./Core/Src/stm32f4xx_it.c ****   * @brief This function handles Memory management fault.
 108:./Core/Src/stm32f4xx_it.c ****   */
 109:./Core/Src/stm32f4xx_it.c **** void MemManage_Handler(void)
 110:./Core/Src/stm32f4xx_it.c **** {
  75              		.loc 1 110 1 view -0
  76              		.cfi_startproc
  77              		@ Volatile: function does not return.
  78              		@ args = 0, pretend = 0, frame = 0
  79              		@ frame_needed = 0, uses_anonymous_args = 0
  80              		@ link register save eliminated.
  81              	.L6:
 111:./Core/Src/stm32f4xx_it.c ****   /* USER CODE BEGIN MemoryManagement_IRQn 0 */
 112:./Core/Src/stm32f4xx_it.c **** 
 113:./Core/Src/stm32f4xx_it.c ****   /* USER CODE END MemoryManagement_IRQn 0 */
 114:./Core/Src/stm32f4xx_it.c ****   while (1)
  82              		.loc 1 114 3 discriminator 1 view .LVU9
 115:./Core/Src/stm32f4xx_it.c ****   {
 116:./Core/Src/stm32f4xx_it.c ****     /* USER CODE BEGIN W1_MemoryManagement_IRQn 0 */
 117:./Core/Src/stm32f4xx_it.c ****     /* USER CODE END W1_MemoryManagement_IRQn 0 */
 118:./Core/Src/stm32f4xx_it.c ****   }
  83              		.loc 1 118 3 discriminator 1 view .LVU10
 114:./Core/Src/stm32f4xx_it.c ****   {
  84              		.loc 1 114 9 discriminator 1 view .LVU11
  85 0000 FEE7     		b	.L6
  86              		.cfi_endproc
  87              	.LFE252:
  89              		.section	.text.BusFault_Handler,"ax",%progbits
  90              		.align	1
  91              		.global	BusFault_Handler
  92              		.syntax unified
  93              		.thumb
  94              		.thumb_func
  96              	BusFault_Handler:
  97              	.LFB253:
 119:./Core/Src/stm32f4xx_it.c **** }
 120:./Core/Src/stm32f4xx_it.c **** 
 121:./Core/Src/stm32f4xx_it.c **** /**
 122:./Core/Src/stm32f4xx_it.c ****   * @brief This function handles Pre-fetch fault, memory access fault.
 123:./Core/Src/stm32f4xx_it.c ****   */
 124:./Core/Src/stm32f4xx_it.c **** void BusFault_Handler(void)
 125:./Core/Src/stm32f4xx_it.c **** {
  98              		.loc 1 125 1 view -0
  99              		.cfi_startproc
 100              		@ Volatile: function does not return.
 101              		@ args = 0, pretend = 0, frame = 0
 102              		@ frame_needed = 0, uses_anonymous_args = 0
 103              		@ link register save eliminated.
 104              	.L8:
 126:./Core/Src/stm32f4xx_it.c ****   /* USER CODE BEGIN BusFault_IRQn 0 */
 127:./Core/Src/stm32f4xx_it.c **** 
 128:./Core/Src/stm32f4xx_it.c ****   /* USER CODE END BusFault_IRQn 0 */
ARM GAS  C:\Users\Dennis\AppData\Local\Temp\ccHsnBwd.s 			page 5


 129:./Core/Src/stm32f4xx_it.c ****   while (1)
 105              		.loc 1 129 3 discriminator 1 view .LVU13
 130:./Core/Src/stm32f4xx_it.c ****   {
 131:./Core/Src/stm32f4xx_it.c ****     /* USER CODE BEGIN W1_BusFault_IRQn 0 */
 132:./Core/Src/stm32f4xx_it.c ****     /* USER CODE END W1_BusFault_IRQn 0 */
 133:./Core/Src/stm32f4xx_it.c ****   }
 106              		.loc 1 133 3 discriminator 1 view .LVU14
 129:./Core/Src/stm32f4xx_it.c ****   {
 107              		.loc 1 129 9 discriminator 1 view .LVU15
 108 0000 FEE7     		b	.L8
 109              		.cfi_endproc
 110              	.LFE253:
 112              		.section	.text.UsageFault_Handler,"ax",%progbits
 113              		.align	1
 114              		.global	UsageFault_Handler
 115              		.syntax unified
 116              		.thumb
 117              		.thumb_func
 119              	UsageFault_Handler:
 120              	.LFB254:
 134:./Core/Src/stm32f4xx_it.c **** }
 135:./Core/Src/stm32f4xx_it.c **** 
 136:./Core/Src/stm32f4xx_it.c **** /**
 137:./Core/Src/stm32f4xx_it.c ****   * @brief This function handles Undefined instruction or illegal state.
 138:./Core/Src/stm32f4xx_it.c ****   */
 139:./Core/Src/stm32f4xx_it.c **** void UsageFault_Handler(void)
 140:./Core/Src/stm32f4xx_it.c **** {
 121              		.loc 1 140 1 view -0
 122              		.cfi_startproc
 123              		@ Volatile: function does not return.
 124              		@ args = 0, pretend = 0, frame = 0
 125              		@ frame_needed = 0, uses_anonymous_args = 0
 126              		@ link register save eliminated.
 127              	.L10:
 141:./Core/Src/stm32f4xx_it.c ****   /* USER CODE BEGIN UsageFault_IRQn 0 */
 142:./Core/Src/stm32f4xx_it.c **** 
 143:./Core/Src/stm32f4xx_it.c ****   /* USER CODE END UsageFault_IRQn 0 */
 144:./Core/Src/stm32f4xx_it.c ****   while (1)
 128              		.loc 1 144 3 discriminator 1 view .LVU17
 145:./Core/Src/stm32f4xx_it.c ****   {
 146:./Core/Src/stm32f4xx_it.c ****     /* USER CODE BEGIN W1_UsageFault_IRQn 0 */
 147:./Core/Src/stm32f4xx_it.c ****     /* USER CODE END W1_UsageFault_IRQn 0 */
 148:./Core/Src/stm32f4xx_it.c ****   }
 129              		.loc 1 148 3 discriminator 1 view .LVU18
 144:./Core/Src/stm32f4xx_it.c ****   {
 130              		.loc 1 144 9 discriminator 1 view .LVU19
 131 0000 FEE7     		b	.L10
 132              		.cfi_endproc
 133              	.LFE254:
 135              		.section	.text.DebugMon_Handler,"ax",%progbits
 136              		.align	1
 137              		.global	DebugMon_Handler
 138              		.syntax unified
 139              		.thumb
 140              		.thumb_func
 142              	DebugMon_Handler:
 143              	.LFB255:
ARM GAS  C:\Users\Dennis\AppData\Local\Temp\ccHsnBwd.s 			page 6


 149:./Core/Src/stm32f4xx_it.c **** }
 150:./Core/Src/stm32f4xx_it.c **** 
 151:./Core/Src/stm32f4xx_it.c **** /**
 152:./Core/Src/stm32f4xx_it.c ****   * @brief This function handles Debug monitor.
 153:./Core/Src/stm32f4xx_it.c ****   */
 154:./Core/Src/stm32f4xx_it.c **** void DebugMon_Handler(void)
 155:./Core/Src/stm32f4xx_it.c **** {
 144              		.loc 1 155 1 view -0
 145              		.cfi_startproc
 146              		@ args = 0, pretend = 0, frame = 0
 147              		@ frame_needed = 0, uses_anonymous_args = 0
 148              		@ link register save eliminated.
 156:./Core/Src/stm32f4xx_it.c ****   /* USER CODE BEGIN DebugMonitor_IRQn 0 */
 157:./Core/Src/stm32f4xx_it.c **** 
 158:./Core/Src/stm32f4xx_it.c ****   /* USER CODE END DebugMonitor_IRQn 0 */
 159:./Core/Src/stm32f4xx_it.c ****   /* USER CODE BEGIN DebugMonitor_IRQn 1 */
 160:./Core/Src/stm32f4xx_it.c **** 
 161:./Core/Src/stm32f4xx_it.c ****   /* USER CODE END DebugMonitor_IRQn 1 */
 162:./Core/Src/stm32f4xx_it.c **** }
 149              		.loc 1 162 1 view .LVU21
 150 0000 7047     		bx	lr
 151              		.cfi_endproc
 152              	.LFE255:
 154              		.section	.text.CAN1_TX_IRQHandler,"ax",%progbits
 155              		.align	1
 156              		.global	CAN1_TX_IRQHandler
 157              		.syntax unified
 158              		.thumb
 159              		.thumb_func
 161              	CAN1_TX_IRQHandler:
 162              	.LFB256:
 163:./Core/Src/stm32f4xx_it.c **** 
 164:./Core/Src/stm32f4xx_it.c **** /******************************************************************************/
 165:./Core/Src/stm32f4xx_it.c **** /* STM32F4xx Peripheral Interrupt Handlers                                    */
 166:./Core/Src/stm32f4xx_it.c **** /* Add here the Interrupt Handlers for the used peripherals.                  */
 167:./Core/Src/stm32f4xx_it.c **** /* For the available peripheral interrupt handler names,                      */
 168:./Core/Src/stm32f4xx_it.c **** /* please refer to the startup file (startup_stm32f4xx.s).                    */
 169:./Core/Src/stm32f4xx_it.c **** /******************************************************************************/
 170:./Core/Src/stm32f4xx_it.c **** 
 171:./Core/Src/stm32f4xx_it.c **** /**
 172:./Core/Src/stm32f4xx_it.c ****   * @brief This function handles CAN1 TX interrupts.
 173:./Core/Src/stm32f4xx_it.c ****   */
 174:./Core/Src/stm32f4xx_it.c **** void CAN1_TX_IRQHandler(void)
 175:./Core/Src/stm32f4xx_it.c **** {
 163              		.loc 1 175 1 view -0
 164              		.cfi_startproc
 165              		@ args = 0, pretend = 0, frame = 0
 166              		@ frame_needed = 0, uses_anonymous_args = 0
 167 0000 08B5     		push	{r3, lr}
 168              	.LCFI0:
 169              		.cfi_def_cfa_offset 8
 170              		.cfi_offset 3, -8
 171              		.cfi_offset 14, -4
 176:./Core/Src/stm32f4xx_it.c ****   /* USER CODE BEGIN CAN1_TX_IRQn 0 */
 177:./Core/Src/stm32f4xx_it.c **** 
 178:./Core/Src/stm32f4xx_it.c ****   /* USER CODE END CAN1_TX_IRQn 0 */
 179:./Core/Src/stm32f4xx_it.c ****   HAL_CAN_IRQHandler(&hcan1);
ARM GAS  C:\Users\Dennis\AppData\Local\Temp\ccHsnBwd.s 			page 7


 172              		.loc 1 179 3 view .LVU23
 173 0002 0248     		ldr	r0, .L14
 174 0004 FFF7FEFF 		bl	HAL_CAN_IRQHandler
 175              	.LVL0:
 180:./Core/Src/stm32f4xx_it.c ****   /* USER CODE BEGIN CAN1_TX_IRQn 1 */
 181:./Core/Src/stm32f4xx_it.c **** 
 182:./Core/Src/stm32f4xx_it.c ****   /* USER CODE END CAN1_TX_IRQn 1 */
 183:./Core/Src/stm32f4xx_it.c **** }
 176              		.loc 1 183 1 is_stmt 0 view .LVU24
 177 0008 08BD     		pop	{r3, pc}
 178              	.L15:
 179 000a 00BF     		.align	2
 180              	.L14:
 181 000c 00000000 		.word	hcan1
 182              		.cfi_endproc
 183              	.LFE256:
 185              		.section	.text.CAN1_RX0_IRQHandler,"ax",%progbits
 186              		.align	1
 187              		.global	CAN1_RX0_IRQHandler
 188              		.syntax unified
 189              		.thumb
 190              		.thumb_func
 192              	CAN1_RX0_IRQHandler:
 193              	.LFB257:
 184:./Core/Src/stm32f4xx_it.c **** 
 185:./Core/Src/stm32f4xx_it.c **** /**
 186:./Core/Src/stm32f4xx_it.c ****   * @brief This function handles CAN1 RX0 interrupts.
 187:./Core/Src/stm32f4xx_it.c ****   */
 188:./Core/Src/stm32f4xx_it.c **** void CAN1_RX0_IRQHandler(void)
 189:./Core/Src/stm32f4xx_it.c **** {
 194              		.loc 1 189 1 is_stmt 1 view -0
 195              		.cfi_startproc
 196              		@ args = 0, pretend = 0, frame = 0
 197              		@ frame_needed = 0, uses_anonymous_args = 0
 198 0000 08B5     		push	{r3, lr}
 199              	.LCFI1:
 200              		.cfi_def_cfa_offset 8
 201              		.cfi_offset 3, -8
 202              		.cfi_offset 14, -4
 190:./Core/Src/stm32f4xx_it.c ****   /* USER CODE BEGIN CAN1_RX0_IRQn 0 */
 191:./Core/Src/stm32f4xx_it.c **** 
 192:./Core/Src/stm32f4xx_it.c ****   /* USER CODE END CAN1_RX0_IRQn 0 */
 193:./Core/Src/stm32f4xx_it.c ****   HAL_CAN_IRQHandler(&hcan1);
 203              		.loc 1 193 3 view .LVU26
 204 0002 0248     		ldr	r0, .L18
 205 0004 FFF7FEFF 		bl	HAL_CAN_IRQHandler
 206              	.LVL1:
 194:./Core/Src/stm32f4xx_it.c ****   /* USER CODE BEGIN CAN1_RX0_IRQn 1 */
 195:./Core/Src/stm32f4xx_it.c **** 
 196:./Core/Src/stm32f4xx_it.c ****   /* USER CODE END CAN1_RX0_IRQn 1 */
 197:./Core/Src/stm32f4xx_it.c **** }
 207              		.loc 1 197 1 is_stmt 0 view .LVU27
 208 0008 08BD     		pop	{r3, pc}
 209              	.L19:
 210 000a 00BF     		.align	2
 211              	.L18:
 212 000c 00000000 		.word	hcan1
ARM GAS  C:\Users\Dennis\AppData\Local\Temp\ccHsnBwd.s 			page 8


 213              		.cfi_endproc
 214              	.LFE257:
 216              		.section	.text.CAN1_RX1_IRQHandler,"ax",%progbits
 217              		.align	1
 218              		.global	CAN1_RX1_IRQHandler
 219              		.syntax unified
 220              		.thumb
 221              		.thumb_func
 223              	CAN1_RX1_IRQHandler:
 224              	.LFB258:
 198:./Core/Src/stm32f4xx_it.c **** 
 199:./Core/Src/stm32f4xx_it.c **** /**
 200:./Core/Src/stm32f4xx_it.c ****   * @brief This function handles CAN1 RX1 interrupt.
 201:./Core/Src/stm32f4xx_it.c ****   */
 202:./Core/Src/stm32f4xx_it.c **** void CAN1_RX1_IRQHandler(void)
 203:./Core/Src/stm32f4xx_it.c **** {
 225              		.loc 1 203 1 is_stmt 1 view -0
 226              		.cfi_startproc
 227              		@ args = 0, pretend = 0, frame = 0
 228              		@ frame_needed = 0, uses_anonymous_args = 0
 229 0000 08B5     		push	{r3, lr}
 230              	.LCFI2:
 231              		.cfi_def_cfa_offset 8
 232              		.cfi_offset 3, -8
 233              		.cfi_offset 14, -4
 204:./Core/Src/stm32f4xx_it.c ****   /* USER CODE BEGIN CAN1_RX1_IRQn 0 */
 205:./Core/Src/stm32f4xx_it.c **** 
 206:./Core/Src/stm32f4xx_it.c ****   /* USER CODE END CAN1_RX1_IRQn 0 */
 207:./Core/Src/stm32f4xx_it.c ****   HAL_CAN_IRQHandler(&hcan1);
 234              		.loc 1 207 3 view .LVU29
 235 0002 0248     		ldr	r0, .L22
 236 0004 FFF7FEFF 		bl	HAL_CAN_IRQHandler
 237              	.LVL2:
 208:./Core/Src/stm32f4xx_it.c ****   /* USER CODE BEGIN CAN1_RX1_IRQn 1 */
 209:./Core/Src/stm32f4xx_it.c **** 
 210:./Core/Src/stm32f4xx_it.c ****   /* USER CODE END CAN1_RX1_IRQn 1 */
 211:./Core/Src/stm32f4xx_it.c **** }
 238              		.loc 1 211 1 is_stmt 0 view .LVU30
 239 0008 08BD     		pop	{r3, pc}
 240              	.L23:
 241 000a 00BF     		.align	2
 242              	.L22:
 243 000c 00000000 		.word	hcan1
 244              		.cfi_endproc
 245              	.LFE258:
 247              		.section	.text.CAN1_SCE_IRQHandler,"ax",%progbits
 248              		.align	1
 249              		.global	CAN1_SCE_IRQHandler
 250              		.syntax unified
 251              		.thumb
 252              		.thumb_func
 254              	CAN1_SCE_IRQHandler:
 255              	.LFB259:
 212:./Core/Src/stm32f4xx_it.c **** 
 213:./Core/Src/stm32f4xx_it.c **** /**
 214:./Core/Src/stm32f4xx_it.c ****   * @brief This function handles CAN1 SCE interrupt.
 215:./Core/Src/stm32f4xx_it.c ****   */
ARM GAS  C:\Users\Dennis\AppData\Local\Temp\ccHsnBwd.s 			page 9


 216:./Core/Src/stm32f4xx_it.c **** void CAN1_SCE_IRQHandler(void)
 217:./Core/Src/stm32f4xx_it.c **** {
 256              		.loc 1 217 1 is_stmt 1 view -0
 257              		.cfi_startproc
 258              		@ args = 0, pretend = 0, frame = 0
 259              		@ frame_needed = 0, uses_anonymous_args = 0
 260 0000 08B5     		push	{r3, lr}
 261              	.LCFI3:
 262              		.cfi_def_cfa_offset 8
 263              		.cfi_offset 3, -8
 264              		.cfi_offset 14, -4
 218:./Core/Src/stm32f4xx_it.c ****   /* USER CODE BEGIN CAN1_SCE_IRQn 0 */
 219:./Core/Src/stm32f4xx_it.c **** 
 220:./Core/Src/stm32f4xx_it.c ****   /* USER CODE END CAN1_SCE_IRQn 0 */
 221:./Core/Src/stm32f4xx_it.c ****   HAL_CAN_IRQHandler(&hcan1);
 265              		.loc 1 221 3 view .LVU32
 266 0002 0248     		ldr	r0, .L26
 267 0004 FFF7FEFF 		bl	HAL_CAN_IRQHandler
 268              	.LVL3:
 222:./Core/Src/stm32f4xx_it.c ****   /* USER CODE BEGIN CAN1_SCE_IRQn 1 */
 223:./Core/Src/stm32f4xx_it.c **** 
 224:./Core/Src/stm32f4xx_it.c ****   /* USER CODE END CAN1_SCE_IRQn 1 */
 225:./Core/Src/stm32f4xx_it.c **** }
 269              		.loc 1 225 1 is_stmt 0 view .LVU33
 270 0008 08BD     		pop	{r3, pc}
 271              	.L27:
 272 000a 00BF     		.align	2
 273              	.L26:
 274 000c 00000000 		.word	hcan1
 275              		.cfi_endproc
 276              	.LFE259:
 278              		.section	.text.TIM4_IRQHandler,"ax",%progbits
 279              		.align	1
 280              		.global	TIM4_IRQHandler
 281              		.syntax unified
 282              		.thumb
 283              		.thumb_func
 285              	TIM4_IRQHandler:
 286              	.LFB260:
 226:./Core/Src/stm32f4xx_it.c **** 
 227:./Core/Src/stm32f4xx_it.c **** /**
 228:./Core/Src/stm32f4xx_it.c ****   * @brief This function handles TIM4 global interrupt.
 229:./Core/Src/stm32f4xx_it.c ****   */
 230:./Core/Src/stm32f4xx_it.c **** void TIM4_IRQHandler(void)
 231:./Core/Src/stm32f4xx_it.c **** {
 287              		.loc 1 231 1 is_stmt 1 view -0
 288              		.cfi_startproc
 289              		@ args = 0, pretend = 0, frame = 0
 290              		@ frame_needed = 0, uses_anonymous_args = 0
 291 0000 08B5     		push	{r3, lr}
 292              	.LCFI4:
 293              		.cfi_def_cfa_offset 8
 294              		.cfi_offset 3, -8
 295              		.cfi_offset 14, -4
 232:./Core/Src/stm32f4xx_it.c ****   /* USER CODE BEGIN TIM4_IRQn 0 */
 233:./Core/Src/stm32f4xx_it.c **** 
 234:./Core/Src/stm32f4xx_it.c ****   /* USER CODE END TIM4_IRQn 0 */
ARM GAS  C:\Users\Dennis\AppData\Local\Temp\ccHsnBwd.s 			page 10


 235:./Core/Src/stm32f4xx_it.c ****   HAL_TIM_IRQHandler(&htim4);
 296              		.loc 1 235 3 view .LVU35
 297 0002 0248     		ldr	r0, .L30
 298 0004 FFF7FEFF 		bl	HAL_TIM_IRQHandler
 299              	.LVL4:
 236:./Core/Src/stm32f4xx_it.c ****   /* USER CODE BEGIN TIM4_IRQn 1 */
 237:./Core/Src/stm32f4xx_it.c **** 
 238:./Core/Src/stm32f4xx_it.c ****   /* USER CODE END TIM4_IRQn 1 */
 239:./Core/Src/stm32f4xx_it.c **** }
 300              		.loc 1 239 1 is_stmt 0 view .LVU36
 301 0008 08BD     		pop	{r3, pc}
 302              	.L31:
 303 000a 00BF     		.align	2
 304              	.L30:
 305 000c 00000000 		.word	htim4
 306              		.cfi_endproc
 307              	.LFE260:
 309              		.section	.text.USART1_IRQHandler,"ax",%progbits
 310              		.align	1
 311              		.global	USART1_IRQHandler
 312              		.syntax unified
 313              		.thumb
 314              		.thumb_func
 316              	USART1_IRQHandler:
 317              	.LFB261:
 240:./Core/Src/stm32f4xx_it.c **** 
 241:./Core/Src/stm32f4xx_it.c **** /**
 242:./Core/Src/stm32f4xx_it.c ****   * @brief This function handles USART1 global interrupt.
 243:./Core/Src/stm32f4xx_it.c ****   */
 244:./Core/Src/stm32f4xx_it.c **** void USART1_IRQHandler(void)
 245:./Core/Src/stm32f4xx_it.c **** {
 318              		.loc 1 245 1 is_stmt 1 view -0
 319              		.cfi_startproc
 320              		@ args = 0, pretend = 0, frame = 0
 321              		@ frame_needed = 0, uses_anonymous_args = 0
 322 0000 10B5     		push	{r4, lr}
 323              	.LCFI5:
 324              		.cfi_def_cfa_offset 8
 325              		.cfi_offset 4, -8
 326              		.cfi_offset 14, -4
 246:./Core/Src/stm32f4xx_it.c ****   /* USER CODE BEGIN USART1_IRQn 0 */
 247:./Core/Src/stm32f4xx_it.c ****   BSP_UART_IDLE_CallBack(&huart1);
 327              		.loc 1 247 3 view .LVU38
 328 0002 044C     		ldr	r4, .L34
 329 0004 2046     		mov	r0, r4
 330 0006 FFF7FEFF 		bl	BSP_UART_IDLE_CallBack
 331              	.LVL5:
 248:./Core/Src/stm32f4xx_it.c ****   /* USER CODE END USART1_IRQn 0 */
 249:./Core/Src/stm32f4xx_it.c ****   HAL_UART_IRQHandler(&huart1);
 332              		.loc 1 249 3 view .LVU39
 333 000a 2046     		mov	r0, r4
 334 000c FFF7FEFF 		bl	HAL_UART_IRQHandler
 335              	.LVL6:
 250:./Core/Src/stm32f4xx_it.c ****   /* USER CODE BEGIN USART1_IRQn 1 */
 251:./Core/Src/stm32f4xx_it.c **** 
 252:./Core/Src/stm32f4xx_it.c ****   /* USER CODE END USART1_IRQn 1 */
 253:./Core/Src/stm32f4xx_it.c **** }
ARM GAS  C:\Users\Dennis\AppData\Local\Temp\ccHsnBwd.s 			page 11


 336              		.loc 1 253 1 is_stmt 0 view .LVU40
 337 0010 10BD     		pop	{r4, pc}
 338              	.L35:
 339 0012 00BF     		.align	2
 340              	.L34:
 341 0014 00000000 		.word	huart1
 342              		.cfi_endproc
 343              	.LFE261:
 345              		.section	.text.TIM8_UP_TIM13_IRQHandler,"ax",%progbits
 346              		.align	1
 347              		.global	TIM8_UP_TIM13_IRQHandler
 348              		.syntax unified
 349              		.thumb
 350              		.thumb_func
 352              	TIM8_UP_TIM13_IRQHandler:
 353              	.LFB262:
 254:./Core/Src/stm32f4xx_it.c **** 
 255:./Core/Src/stm32f4xx_it.c **** /**
 256:./Core/Src/stm32f4xx_it.c ****   * @brief This function handles TIM8 update interrupt and TIM13 global interrupt.
 257:./Core/Src/stm32f4xx_it.c ****   */
 258:./Core/Src/stm32f4xx_it.c **** void TIM8_UP_TIM13_IRQHandler(void)
 259:./Core/Src/stm32f4xx_it.c **** {
 354              		.loc 1 259 1 is_stmt 1 view -0
 355              		.cfi_startproc
 356              		@ args = 0, pretend = 0, frame = 0
 357              		@ frame_needed = 0, uses_anonymous_args = 0
 358 0000 08B5     		push	{r3, lr}
 359              	.LCFI6:
 360              		.cfi_def_cfa_offset 8
 361              		.cfi_offset 3, -8
 362              		.cfi_offset 14, -4
 260:./Core/Src/stm32f4xx_it.c ****   /* USER CODE BEGIN TIM8_UP_TIM13_IRQn 0 */
 261:./Core/Src/stm32f4xx_it.c **** 
 262:./Core/Src/stm32f4xx_it.c ****   /* USER CODE END TIM8_UP_TIM13_IRQn 0 */
 263:./Core/Src/stm32f4xx_it.c ****   HAL_TIM_IRQHandler(&htim8);
 363              		.loc 1 263 3 view .LVU42
 364 0002 0348     		ldr	r0, .L38
 365 0004 FFF7FEFF 		bl	HAL_TIM_IRQHandler
 366              	.LVL7:
 264:./Core/Src/stm32f4xx_it.c ****   HAL_TIM_IRQHandler(&htim13);
 367              		.loc 1 264 3 view .LVU43
 368 0008 0248     		ldr	r0, .L38+4
 369 000a FFF7FEFF 		bl	HAL_TIM_IRQHandler
 370              	.LVL8:
 265:./Core/Src/stm32f4xx_it.c ****   /* USER CODE BEGIN TIM8_UP_TIM13_IRQn 1 */
 266:./Core/Src/stm32f4xx_it.c **** 
 267:./Core/Src/stm32f4xx_it.c ****   /* USER CODE END TIM8_UP_TIM13_IRQn 1 */
 268:./Core/Src/stm32f4xx_it.c **** }
 371              		.loc 1 268 1 is_stmt 0 view .LVU44
 372 000e 08BD     		pop	{r3, pc}
 373              	.L39:
 374              		.align	2
 375              	.L38:
 376 0010 00000000 		.word	htim8
 377 0014 00000000 		.word	htim13
 378              		.cfi_endproc
 379              	.LFE262:
ARM GAS  C:\Users\Dennis\AppData\Local\Temp\ccHsnBwd.s 			page 12


 381              		.section	.text.TIM8_TRG_COM_TIM14_IRQHandler,"ax",%progbits
 382              		.align	1
 383              		.global	TIM8_TRG_COM_TIM14_IRQHandler
 384              		.syntax unified
 385              		.thumb
 386              		.thumb_func
 388              	TIM8_TRG_COM_TIM14_IRQHandler:
 389              	.LFB263:
 269:./Core/Src/stm32f4xx_it.c **** 
 270:./Core/Src/stm32f4xx_it.c **** /**
 271:./Core/Src/stm32f4xx_it.c ****   * @brief This function handles TIM8 trigger and commutation interrupts and TIM14 global interrupt
 272:./Core/Src/stm32f4xx_it.c ****   */
 273:./Core/Src/stm32f4xx_it.c **** void TIM8_TRG_COM_TIM14_IRQHandler(void)
 274:./Core/Src/stm32f4xx_it.c **** {
 390              		.loc 1 274 1 is_stmt 1 view -0
 391              		.cfi_startproc
 392              		@ args = 0, pretend = 0, frame = 0
 393              		@ frame_needed = 0, uses_anonymous_args = 0
 394 0000 08B5     		push	{r3, lr}
 395              	.LCFI7:
 396              		.cfi_def_cfa_offset 8
 397              		.cfi_offset 3, -8
 398              		.cfi_offset 14, -4
 275:./Core/Src/stm32f4xx_it.c ****   /* USER CODE BEGIN TIM8_TRG_COM_TIM14_IRQn 0 */
 276:./Core/Src/stm32f4xx_it.c **** 
 277:./Core/Src/stm32f4xx_it.c ****   /* USER CODE END TIM8_TRG_COM_TIM14_IRQn 0 */
 278:./Core/Src/stm32f4xx_it.c ****   HAL_TIM_IRQHandler(&htim8);
 399              		.loc 1 278 3 view .LVU46
 400 0002 0248     		ldr	r0, .L42
 401 0004 FFF7FEFF 		bl	HAL_TIM_IRQHandler
 402              	.LVL9:
 279:./Core/Src/stm32f4xx_it.c ****   /* USER CODE BEGIN TIM8_TRG_COM_TIM14_IRQn 1 */
 280:./Core/Src/stm32f4xx_it.c **** 
 281:./Core/Src/stm32f4xx_it.c ****   /* USER CODE END TIM8_TRG_COM_TIM14_IRQn 1 */
 282:./Core/Src/stm32f4xx_it.c **** }
 403              		.loc 1 282 1 is_stmt 0 view .LVU47
 404 0008 08BD     		pop	{r3, pc}
 405              	.L43:
 406 000a 00BF     		.align	2
 407              	.L42:
 408 000c 00000000 		.word	htim8
 409              		.cfi_endproc
 410              	.LFE263:
 412              		.section	.text.DMA2_Stream0_IRQHandler,"ax",%progbits
 413              		.align	1
 414              		.global	DMA2_Stream0_IRQHandler
 415              		.syntax unified
 416              		.thumb
 417              		.thumb_func
 419              	DMA2_Stream0_IRQHandler:
 420              	.LFB264:
 283:./Core/Src/stm32f4xx_it.c **** 
 284:./Core/Src/stm32f4xx_it.c **** /**
 285:./Core/Src/stm32f4xx_it.c ****   * @brief This function handles DMA2 stream0 global interrupt.
 286:./Core/Src/stm32f4xx_it.c ****   */
 287:./Core/Src/stm32f4xx_it.c **** void DMA2_Stream0_IRQHandler(void)
 288:./Core/Src/stm32f4xx_it.c **** {
ARM GAS  C:\Users\Dennis\AppData\Local\Temp\ccHsnBwd.s 			page 13


 421              		.loc 1 288 1 is_stmt 1 view -0
 422              		.cfi_startproc
 423              		@ args = 0, pretend = 0, frame = 0
 424              		@ frame_needed = 0, uses_anonymous_args = 0
 425 0000 08B5     		push	{r3, lr}
 426              	.LCFI8:
 427              		.cfi_def_cfa_offset 8
 428              		.cfi_offset 3, -8
 429              		.cfi_offset 14, -4
 289:./Core/Src/stm32f4xx_it.c ****   /* USER CODE BEGIN DMA2_Stream0_IRQn 0 */
 290:./Core/Src/stm32f4xx_it.c **** 
 291:./Core/Src/stm32f4xx_it.c ****   /* USER CODE END DMA2_Stream0_IRQn 0 */
 292:./Core/Src/stm32f4xx_it.c ****   HAL_DMA_IRQHandler(&hdma_adc1);
 430              		.loc 1 292 3 view .LVU49
 431 0002 0248     		ldr	r0, .L46
 432 0004 FFF7FEFF 		bl	HAL_DMA_IRQHandler
 433              	.LVL10:
 293:./Core/Src/stm32f4xx_it.c ****   /* USER CODE BEGIN DMA2_Stream0_IRQn 1 */
 294:./Core/Src/stm32f4xx_it.c **** 
 295:./Core/Src/stm32f4xx_it.c ****   /* USER CODE END DMA2_Stream0_IRQn 1 */
 296:./Core/Src/stm32f4xx_it.c **** }
 434              		.loc 1 296 1 is_stmt 0 view .LVU50
 435 0008 08BD     		pop	{r3, pc}
 436              	.L47:
 437 000a 00BF     		.align	2
 438              	.L46:
 439 000c 00000000 		.word	hdma_adc1
 440              		.cfi_endproc
 441              	.LFE264:
 443              		.section	.text.DMA2_Stream2_IRQHandler,"ax",%progbits
 444              		.align	1
 445              		.global	DMA2_Stream2_IRQHandler
 446              		.syntax unified
 447              		.thumb
 448              		.thumb_func
 450              	DMA2_Stream2_IRQHandler:
 451              	.LFB265:
 297:./Core/Src/stm32f4xx_it.c **** 
 298:./Core/Src/stm32f4xx_it.c **** /**
 299:./Core/Src/stm32f4xx_it.c ****   * @brief This function handles DMA2 stream2 global interrupt.
 300:./Core/Src/stm32f4xx_it.c ****   */
 301:./Core/Src/stm32f4xx_it.c **** void DMA2_Stream2_IRQHandler(void)
 302:./Core/Src/stm32f4xx_it.c **** {
 452              		.loc 1 302 1 is_stmt 1 view -0
 453              		.cfi_startproc
 454              		@ args = 0, pretend = 0, frame = 0
 455              		@ frame_needed = 0, uses_anonymous_args = 0
 456 0000 08B5     		push	{r3, lr}
 457              	.LCFI9:
 458              		.cfi_def_cfa_offset 8
 459              		.cfi_offset 3, -8
 460              		.cfi_offset 14, -4
 303:./Core/Src/stm32f4xx_it.c ****   /* USER CODE BEGIN DMA2_Stream2_IRQn 0 */
 304:./Core/Src/stm32f4xx_it.c **** 
 305:./Core/Src/stm32f4xx_it.c ****   /* USER CODE END DMA2_Stream2_IRQn 0 */
 306:./Core/Src/stm32f4xx_it.c ****   HAL_DMA_IRQHandler(&hdma_usart1_rx);
 461              		.loc 1 306 3 view .LVU52
ARM GAS  C:\Users\Dennis\AppData\Local\Temp\ccHsnBwd.s 			page 14


 462 0002 0248     		ldr	r0, .L50
 463 0004 FFF7FEFF 		bl	HAL_DMA_IRQHandler
 464              	.LVL11:
 307:./Core/Src/stm32f4xx_it.c ****   /* USER CODE BEGIN DMA2_Stream2_IRQn 1 */
 308:./Core/Src/stm32f4xx_it.c **** 
 309:./Core/Src/stm32f4xx_it.c ****   /* USER CODE END DMA2_Stream2_IRQn 1 */
 310:./Core/Src/stm32f4xx_it.c **** }
 465              		.loc 1 310 1 is_stmt 0 view .LVU53
 466 0008 08BD     		pop	{r3, pc}
 467              	.L51:
 468 000a 00BF     		.align	2
 469              	.L50:
 470 000c 00000000 		.word	hdma_usart1_rx
 471              		.cfi_endproc
 472              	.LFE265:
 474              		.section	.text.CAN2_TX_IRQHandler,"ax",%progbits
 475              		.align	1
 476              		.global	CAN2_TX_IRQHandler
 477              		.syntax unified
 478              		.thumb
 479              		.thumb_func
 481              	CAN2_TX_IRQHandler:
 482              	.LFB266:
 311:./Core/Src/stm32f4xx_it.c **** 
 312:./Core/Src/stm32f4xx_it.c **** /**
 313:./Core/Src/stm32f4xx_it.c ****   * @brief This function handles CAN2 TX interrupts.
 314:./Core/Src/stm32f4xx_it.c ****   */
 315:./Core/Src/stm32f4xx_it.c **** void CAN2_TX_IRQHandler(void)
 316:./Core/Src/stm32f4xx_it.c **** {
 483              		.loc 1 316 1 is_stmt 1 view -0
 484              		.cfi_startproc
 485              		@ args = 0, pretend = 0, frame = 0
 486              		@ frame_needed = 0, uses_anonymous_args = 0
 487 0000 08B5     		push	{r3, lr}
 488              	.LCFI10:
 489              		.cfi_def_cfa_offset 8
 490              		.cfi_offset 3, -8
 491              		.cfi_offset 14, -4
 317:./Core/Src/stm32f4xx_it.c ****   /* USER CODE BEGIN CAN2_TX_IRQn 0 */
 318:./Core/Src/stm32f4xx_it.c **** 
 319:./Core/Src/stm32f4xx_it.c ****   /* USER CODE END CAN2_TX_IRQn 0 */
 320:./Core/Src/stm32f4xx_it.c ****   HAL_CAN_IRQHandler(&hcan2);
 492              		.loc 1 320 3 view .LVU55
 493 0002 0248     		ldr	r0, .L54
 494 0004 FFF7FEFF 		bl	HAL_CAN_IRQHandler
 495              	.LVL12:
 321:./Core/Src/stm32f4xx_it.c ****   /* USER CODE BEGIN CAN2_TX_IRQn 1 */
 322:./Core/Src/stm32f4xx_it.c **** 
 323:./Core/Src/stm32f4xx_it.c ****   /* USER CODE END CAN2_TX_IRQn 1 */
 324:./Core/Src/stm32f4xx_it.c **** }
 496              		.loc 1 324 1 is_stmt 0 view .LVU56
 497 0008 08BD     		pop	{r3, pc}
 498              	.L55:
 499 000a 00BF     		.align	2
 500              	.L54:
 501 000c 00000000 		.word	hcan2
 502              		.cfi_endproc
ARM GAS  C:\Users\Dennis\AppData\Local\Temp\ccHsnBwd.s 			page 15


 503              	.LFE266:
 505              		.section	.text.CAN2_RX0_IRQHandler,"ax",%progbits
 506              		.align	1
 507              		.global	CAN2_RX0_IRQHandler
 508              		.syntax unified
 509              		.thumb
 510              		.thumb_func
 512              	CAN2_RX0_IRQHandler:
 513              	.LFB267:
 325:./Core/Src/stm32f4xx_it.c **** 
 326:./Core/Src/stm32f4xx_it.c **** /**
 327:./Core/Src/stm32f4xx_it.c ****   * @brief This function handles CAN2 RX0 interrupts.
 328:./Core/Src/stm32f4xx_it.c ****   */
 329:./Core/Src/stm32f4xx_it.c **** void CAN2_RX0_IRQHandler(void)
 330:./Core/Src/stm32f4xx_it.c **** {
 514              		.loc 1 330 1 is_stmt 1 view -0
 515              		.cfi_startproc
 516              		@ args = 0, pretend = 0, frame = 0
 517              		@ frame_needed = 0, uses_anonymous_args = 0
 518 0000 08B5     		push	{r3, lr}
 519              	.LCFI11:
 520              		.cfi_def_cfa_offset 8
 521              		.cfi_offset 3, -8
 522              		.cfi_offset 14, -4
 331:./Core/Src/stm32f4xx_it.c ****   /* USER CODE BEGIN CAN2_RX0_IRQn 0 */
 332:./Core/Src/stm32f4xx_it.c ****   
 333:./Core/Src/stm32f4xx_it.c ****   /* USER CODE END CAN2_RX0_IRQn 0 */
 334:./Core/Src/stm32f4xx_it.c ****   HAL_CAN_IRQHandler(&hcan2);
 523              		.loc 1 334 3 view .LVU58
 524 0002 0248     		ldr	r0, .L58
 525 0004 FFF7FEFF 		bl	HAL_CAN_IRQHandler
 526              	.LVL13:
 335:./Core/Src/stm32f4xx_it.c ****   /* USER CODE BEGIN CAN2_RX0_IRQn 1 */
 336:./Core/Src/stm32f4xx_it.c **** 
 337:./Core/Src/stm32f4xx_it.c ****   /* USER CODE END CAN2_RX0_IRQn 1 */
 338:./Core/Src/stm32f4xx_it.c **** }
 527              		.loc 1 338 1 is_stmt 0 view .LVU59
 528 0008 08BD     		pop	{r3, pc}
 529              	.L59:
 530 000a 00BF     		.align	2
 531              	.L58:
 532 000c 00000000 		.word	hcan2
 533              		.cfi_endproc
 534              	.LFE267:
 536              		.section	.text.CAN2_RX1_IRQHandler,"ax",%progbits
 537              		.align	1
 538              		.global	CAN2_RX1_IRQHandler
 539              		.syntax unified
 540              		.thumb
 541              		.thumb_func
 543              	CAN2_RX1_IRQHandler:
 544              	.LFB268:
 339:./Core/Src/stm32f4xx_it.c **** 
 340:./Core/Src/stm32f4xx_it.c **** /**
 341:./Core/Src/stm32f4xx_it.c ****   * @brief This function handles CAN2 RX1 interrupt.
 342:./Core/Src/stm32f4xx_it.c ****   */
 343:./Core/Src/stm32f4xx_it.c **** void CAN2_RX1_IRQHandler(void)
ARM GAS  C:\Users\Dennis\AppData\Local\Temp\ccHsnBwd.s 			page 16


 344:./Core/Src/stm32f4xx_it.c **** {
 545              		.loc 1 344 1 is_stmt 1 view -0
 546              		.cfi_startproc
 547              		@ args = 0, pretend = 0, frame = 0
 548              		@ frame_needed = 0, uses_anonymous_args = 0
 549 0000 08B5     		push	{r3, lr}
 550              	.LCFI12:
 551              		.cfi_def_cfa_offset 8
 552              		.cfi_offset 3, -8
 553              		.cfi_offset 14, -4
 345:./Core/Src/stm32f4xx_it.c ****   /* USER CODE BEGIN CAN2_RX1_IRQn 0 */
 346:./Core/Src/stm32f4xx_it.c **** 
 347:./Core/Src/stm32f4xx_it.c ****   /* USER CODE END CAN2_RX1_IRQn 0 */
 348:./Core/Src/stm32f4xx_it.c ****   HAL_CAN_IRQHandler(&hcan2);
 554              		.loc 1 348 3 view .LVU61
 555 0002 0248     		ldr	r0, .L62
 556 0004 FFF7FEFF 		bl	HAL_CAN_IRQHandler
 557              	.LVL14:
 349:./Core/Src/stm32f4xx_it.c ****   /* USER CODE BEGIN CAN2_RX1_IRQn 1 */
 350:./Core/Src/stm32f4xx_it.c **** 
 351:./Core/Src/stm32f4xx_it.c ****   /* USER CODE END CAN2_RX1_IRQn 1 */
 352:./Core/Src/stm32f4xx_it.c **** }
 558              		.loc 1 352 1 is_stmt 0 view .LVU62
 559 0008 08BD     		pop	{r3, pc}
 560              	.L63:
 561 000a 00BF     		.align	2
 562              	.L62:
 563 000c 00000000 		.word	hcan2
 564              		.cfi_endproc
 565              	.LFE268:
 567              		.section	.text.CAN2_SCE_IRQHandler,"ax",%progbits
 568              		.align	1
 569              		.global	CAN2_SCE_IRQHandler
 570              		.syntax unified
 571              		.thumb
 572              		.thumb_func
 574              	CAN2_SCE_IRQHandler:
 575              	.LFB269:
 353:./Core/Src/stm32f4xx_it.c **** 
 354:./Core/Src/stm32f4xx_it.c **** /**
 355:./Core/Src/stm32f4xx_it.c ****   * @brief This function handles CAN2 SCE interrupt.
 356:./Core/Src/stm32f4xx_it.c ****   */
 357:./Core/Src/stm32f4xx_it.c **** void CAN2_SCE_IRQHandler(void)
 358:./Core/Src/stm32f4xx_it.c **** {
 576              		.loc 1 358 1 is_stmt 1 view -0
 577              		.cfi_startproc
 578              		@ args = 0, pretend = 0, frame = 0
 579              		@ frame_needed = 0, uses_anonymous_args = 0
 580 0000 08B5     		push	{r3, lr}
 581              	.LCFI13:
 582              		.cfi_def_cfa_offset 8
 583              		.cfi_offset 3, -8
 584              		.cfi_offset 14, -4
 359:./Core/Src/stm32f4xx_it.c ****   /* USER CODE BEGIN CAN2_SCE_IRQn 0 */
 360:./Core/Src/stm32f4xx_it.c **** 
 361:./Core/Src/stm32f4xx_it.c ****   /* USER CODE END CAN2_SCE_IRQn 0 */
 362:./Core/Src/stm32f4xx_it.c ****   HAL_CAN_IRQHandler(&hcan2);
ARM GAS  C:\Users\Dennis\AppData\Local\Temp\ccHsnBwd.s 			page 17


 585              		.loc 1 362 3 view .LVU64
 586 0002 0248     		ldr	r0, .L66
 587 0004 FFF7FEFF 		bl	HAL_CAN_IRQHandler
 588              	.LVL15:
 363:./Core/Src/stm32f4xx_it.c ****   /* USER CODE BEGIN CAN2_SCE_IRQn 1 */
 364:./Core/Src/stm32f4xx_it.c **** 
 365:./Core/Src/stm32f4xx_it.c ****   /* USER CODE END CAN2_SCE_IRQn 1 */
 366:./Core/Src/stm32f4xx_it.c **** }
 589              		.loc 1 366 1 is_stmt 0 view .LVU65
 590 0008 08BD     		pop	{r3, pc}
 591              	.L67:
 592 000a 00BF     		.align	2
 593              	.L66:
 594 000c 00000000 		.word	hcan2
 595              		.cfi_endproc
 596              	.LFE269:
 598              		.section	.text.OTG_FS_IRQHandler,"ax",%progbits
 599              		.align	1
 600              		.global	OTG_FS_IRQHandler
 601              		.syntax unified
 602              		.thumb
 603              		.thumb_func
 605              	OTG_FS_IRQHandler:
 606              	.LFB270:
 367:./Core/Src/stm32f4xx_it.c **** 
 368:./Core/Src/stm32f4xx_it.c **** /**
 369:./Core/Src/stm32f4xx_it.c ****   * @brief This function handles USB On The Go FS global interrupt.
 370:./Core/Src/stm32f4xx_it.c ****   */
 371:./Core/Src/stm32f4xx_it.c **** void OTG_FS_IRQHandler(void)
 372:./Core/Src/stm32f4xx_it.c **** {
 607              		.loc 1 372 1 is_stmt 1 view -0
 608              		.cfi_startproc
 609              		@ args = 0, pretend = 0, frame = 0
 610              		@ frame_needed = 0, uses_anonymous_args = 0
 611 0000 08B5     		push	{r3, lr}
 612              	.LCFI14:
 613              		.cfi_def_cfa_offset 8
 614              		.cfi_offset 3, -8
 615              		.cfi_offset 14, -4
 373:./Core/Src/stm32f4xx_it.c ****   /* USER CODE BEGIN OTG_FS_IRQn 0 */
 374:./Core/Src/stm32f4xx_it.c **** 
 375:./Core/Src/stm32f4xx_it.c ****   /* USER CODE END OTG_FS_IRQn 0 */
 376:./Core/Src/stm32f4xx_it.c ****   HAL_PCD_IRQHandler(&hpcd_USB_OTG_FS);
 616              		.loc 1 376 3 view .LVU67
 617 0002 0248     		ldr	r0, .L70
 618 0004 FFF7FEFF 		bl	HAL_PCD_IRQHandler
 619              	.LVL16:
 377:./Core/Src/stm32f4xx_it.c ****   /* USER CODE BEGIN OTG_FS_IRQn 1 */
 378:./Core/Src/stm32f4xx_it.c **** 
 379:./Core/Src/stm32f4xx_it.c ****   /* USER CODE END OTG_FS_IRQn 1 */
 380:./Core/Src/stm32f4xx_it.c **** }
 620              		.loc 1 380 1 is_stmt 0 view .LVU68
 621 0008 08BD     		pop	{r3, pc}
 622              	.L71:
 623 000a 00BF     		.align	2
 624              	.L70:
 625 000c 00000000 		.word	hpcd_USB_OTG_FS
ARM GAS  C:\Users\Dennis\AppData\Local\Temp\ccHsnBwd.s 			page 18


 626              		.cfi_endproc
 627              	.LFE270:
 629              		.text
 630              	.Letext0:
 631              		.file 2 "c:\\software_user\\armgcc\\arm-none-eabi\\include\\machine\\_default_types.h"
 632              		.file 3 "c:\\software_user\\armgcc\\arm-none-eabi\\include\\sys\\_stdint.h"
 633              		.file 4 "./Drivers/CMSIS/Device/ST/STM32F4xx/Include/stm32f407xx.h"
 634              		.file 5 "./Drivers/CMSIS/Device/ST/STM32F4xx/Include/stm32f4xx.h"
 635              		.file 6 "./Drivers/STM32F4xx_HAL_Driver/Inc/stm32f4xx_hal_def.h"
 636              		.file 7 "./Drivers/STM32F4xx_HAL_Driver/Inc/stm32f4xx_hal_dma.h"
 637              		.file 8 "./Drivers/STM32F4xx_HAL_Driver/Inc/stm32f4xx_hal_can.h"
 638              		.file 9 "./Drivers/STM32F4xx_HAL_Driver/Inc/stm32f4xx_hal_tim.h"
 639              		.file 10 "./Drivers/STM32F4xx_HAL_Driver/Inc/stm32f4xx_hal_uart.h"
 640              		.file 11 "./Drivers/STM32F4xx_HAL_Driver/Inc/stm32f4xx_ll_usb.h"
 641              		.file 12 "./Drivers/STM32F4xx_HAL_Driver/Inc/stm32f4xx_hal_pcd.h"
 642              		.file 13 "./Core/Inc/usart.h"
 643              		.file 14 "./app/Threads/Thread_cmd/Thread_cmd.h"
ARM GAS  C:\Users\Dennis\AppData\Local\Temp\ccHsnBwd.s 			page 19


DEFINED SYMBOLS
                            *ABS*:00000000 stm32f4xx_it.c
C:\Users\Dennis\AppData\Local\Temp\ccHsnBwd.s:20     .text.NMI_Handler:00000000 $t
C:\Users\Dennis\AppData\Local\Temp\ccHsnBwd.s:26     .text.NMI_Handler:00000000 NMI_Handler
C:\Users\Dennis\AppData\Local\Temp\ccHsnBwd.s:44     .text.HardFault_Handler:00000000 $t
C:\Users\Dennis\AppData\Local\Temp\ccHsnBwd.s:50     .text.HardFault_Handler:00000000 HardFault_Handler
C:\Users\Dennis\AppData\Local\Temp\ccHsnBwd.s:67     .text.MemManage_Handler:00000000 $t
C:\Users\Dennis\AppData\Local\Temp\ccHsnBwd.s:73     .text.MemManage_Handler:00000000 MemManage_Handler
C:\Users\Dennis\AppData\Local\Temp\ccHsnBwd.s:90     .text.BusFault_Handler:00000000 $t
C:\Users\Dennis\AppData\Local\Temp\ccHsnBwd.s:96     .text.BusFault_Handler:00000000 BusFault_Handler
C:\Users\Dennis\AppData\Local\Temp\ccHsnBwd.s:113    .text.UsageFault_Handler:00000000 $t
C:\Users\Dennis\AppData\Local\Temp\ccHsnBwd.s:119    .text.UsageFault_Handler:00000000 UsageFault_Handler
C:\Users\Dennis\AppData\Local\Temp\ccHsnBwd.s:136    .text.DebugMon_Handler:00000000 $t
C:\Users\Dennis\AppData\Local\Temp\ccHsnBwd.s:142    .text.DebugMon_Handler:00000000 DebugMon_Handler
C:\Users\Dennis\AppData\Local\Temp\ccHsnBwd.s:155    .text.CAN1_TX_IRQHandler:00000000 $t
C:\Users\Dennis\AppData\Local\Temp\ccHsnBwd.s:161    .text.CAN1_TX_IRQHandler:00000000 CAN1_TX_IRQHandler
C:\Users\Dennis\AppData\Local\Temp\ccHsnBwd.s:181    .text.CAN1_TX_IRQHandler:0000000c $d
C:\Users\Dennis\AppData\Local\Temp\ccHsnBwd.s:186    .text.CAN1_RX0_IRQHandler:00000000 $t
C:\Users\Dennis\AppData\Local\Temp\ccHsnBwd.s:192    .text.CAN1_RX0_IRQHandler:00000000 CAN1_RX0_IRQHandler
C:\Users\Dennis\AppData\Local\Temp\ccHsnBwd.s:212    .text.CAN1_RX0_IRQHandler:0000000c $d
C:\Users\Dennis\AppData\Local\Temp\ccHsnBwd.s:217    .text.CAN1_RX1_IRQHandler:00000000 $t
C:\Users\Dennis\AppData\Local\Temp\ccHsnBwd.s:223    .text.CAN1_RX1_IRQHandler:00000000 CAN1_RX1_IRQHandler
C:\Users\Dennis\AppData\Local\Temp\ccHsnBwd.s:243    .text.CAN1_RX1_IRQHandler:0000000c $d
C:\Users\Dennis\AppData\Local\Temp\ccHsnBwd.s:248    .text.CAN1_SCE_IRQHandler:00000000 $t
C:\Users\Dennis\AppData\Local\Temp\ccHsnBwd.s:254    .text.CAN1_SCE_IRQHandler:00000000 CAN1_SCE_IRQHandler
C:\Users\Dennis\AppData\Local\Temp\ccHsnBwd.s:274    .text.CAN1_SCE_IRQHandler:0000000c $d
C:\Users\Dennis\AppData\Local\Temp\ccHsnBwd.s:279    .text.TIM4_IRQHandler:00000000 $t
C:\Users\Dennis\AppData\Local\Temp\ccHsnBwd.s:285    .text.TIM4_IRQHandler:00000000 TIM4_IRQHandler
C:\Users\Dennis\AppData\Local\Temp\ccHsnBwd.s:305    .text.TIM4_IRQHandler:0000000c $d
C:\Users\Dennis\AppData\Local\Temp\ccHsnBwd.s:310    .text.USART1_IRQHandler:00000000 $t
C:\Users\Dennis\AppData\Local\Temp\ccHsnBwd.s:316    .text.USART1_IRQHandler:00000000 USART1_IRQHandler
C:\Users\Dennis\AppData\Local\Temp\ccHsnBwd.s:341    .text.USART1_IRQHandler:00000014 $d
C:\Users\Dennis\AppData\Local\Temp\ccHsnBwd.s:346    .text.TIM8_UP_TIM13_IRQHandler:00000000 $t
C:\Users\Dennis\AppData\Local\Temp\ccHsnBwd.s:352    .text.TIM8_UP_TIM13_IRQHandler:00000000 TIM8_UP_TIM13_IRQHandler
C:\Users\Dennis\AppData\Local\Temp\ccHsnBwd.s:376    .text.TIM8_UP_TIM13_IRQHandler:00000010 $d
C:\Users\Dennis\AppData\Local\Temp\ccHsnBwd.s:382    .text.TIM8_TRG_COM_TIM14_IRQHandler:00000000 $t
C:\Users\Dennis\AppData\Local\Temp\ccHsnBwd.s:388    .text.TIM8_TRG_COM_TIM14_IRQHandler:00000000 TIM8_TRG_COM_TIM14_IRQHandler
C:\Users\Dennis\AppData\Local\Temp\ccHsnBwd.s:408    .text.TIM8_TRG_COM_TIM14_IRQHandler:0000000c $d
C:\Users\Dennis\AppData\Local\Temp\ccHsnBwd.s:413    .text.DMA2_Stream0_IRQHandler:00000000 $t
C:\Users\Dennis\AppData\Local\Temp\ccHsnBwd.s:419    .text.DMA2_Stream0_IRQHandler:00000000 DMA2_Stream0_IRQHandler
C:\Users\Dennis\AppData\Local\Temp\ccHsnBwd.s:439    .text.DMA2_Stream0_IRQHandler:0000000c $d
C:\Users\Dennis\AppData\Local\Temp\ccHsnBwd.s:444    .text.DMA2_Stream2_IRQHandler:00000000 $t
C:\Users\Dennis\AppData\Local\Temp\ccHsnBwd.s:450    .text.DMA2_Stream2_IRQHandler:00000000 DMA2_Stream2_IRQHandler
C:\Users\Dennis\AppData\Local\Temp\ccHsnBwd.s:470    .text.DMA2_Stream2_IRQHandler:0000000c $d
C:\Users\Dennis\AppData\Local\Temp\ccHsnBwd.s:475    .text.CAN2_TX_IRQHandler:00000000 $t
C:\Users\Dennis\AppData\Local\Temp\ccHsnBwd.s:481    .text.CAN2_TX_IRQHandler:00000000 CAN2_TX_IRQHandler
C:\Users\Dennis\AppData\Local\Temp\ccHsnBwd.s:501    .text.CAN2_TX_IRQHandler:0000000c $d
C:\Users\Dennis\AppData\Local\Temp\ccHsnBwd.s:506    .text.CAN2_RX0_IRQHandler:00000000 $t
C:\Users\Dennis\AppData\Local\Temp\ccHsnBwd.s:512    .text.CAN2_RX0_IRQHandler:00000000 CAN2_RX0_IRQHandler
C:\Users\Dennis\AppData\Local\Temp\ccHsnBwd.s:532    .text.CAN2_RX0_IRQHandler:0000000c $d
C:\Users\Dennis\AppData\Local\Temp\ccHsnBwd.s:537    .text.CAN2_RX1_IRQHandler:00000000 $t
C:\Users\Dennis\AppData\Local\Temp\ccHsnBwd.s:543    .text.CAN2_RX1_IRQHandler:00000000 CAN2_RX1_IRQHandler
C:\Users\Dennis\AppData\Local\Temp\ccHsnBwd.s:563    .text.CAN2_RX1_IRQHandler:0000000c $d
C:\Users\Dennis\AppData\Local\Temp\ccHsnBwd.s:568    .text.CAN2_SCE_IRQHandler:00000000 $t
C:\Users\Dennis\AppData\Local\Temp\ccHsnBwd.s:574    .text.CAN2_SCE_IRQHandler:00000000 CAN2_SCE_IRQHandler
C:\Users\Dennis\AppData\Local\Temp\ccHsnBwd.s:594    .text.CAN2_SCE_IRQHandler:0000000c $d
C:\Users\Dennis\AppData\Local\Temp\ccHsnBwd.s:599    .text.OTG_FS_IRQHandler:00000000 $t
ARM GAS  C:\Users\Dennis\AppData\Local\Temp\ccHsnBwd.s 			page 20


C:\Users\Dennis\AppData\Local\Temp\ccHsnBwd.s:605    .text.OTG_FS_IRQHandler:00000000 OTG_FS_IRQHandler
C:\Users\Dennis\AppData\Local\Temp\ccHsnBwd.s:625    .text.OTG_FS_IRQHandler:0000000c $d

UNDEFINED SYMBOLS
HAL_CAN_IRQHandler
hcan1
HAL_TIM_IRQHandler
htim4
BSP_UART_IDLE_CallBack
HAL_UART_IRQHandler
huart1
htim8
htim13
HAL_DMA_IRQHandler
hdma_adc1
hdma_usart1_rx
hcan2
HAL_PCD_IRQHandler
hpcd_USB_OTG_FS
