ARM GAS  /tmp/ccwX2Ruc.s 			page 1


   1              		.cpu cortex-m4
   2              		.arch armv7e-m
   3              		.fpu fpv4-sp-d16
   4              		.eabi_attribute 27, 1
   5              		.eabi_attribute 28, 1
   6              		.eabi_attribute 20, 1
   7              		.eabi_attribute 21, 1
   8              		.eabi_attribute 23, 3
   9              		.eabi_attribute 24, 1
  10              		.eabi_attribute 25, 1
  11              		.eabi_attribute 26, 1
  12              		.eabi_attribute 30, 1
  13              		.eabi_attribute 34, 1
  14              		.eabi_attribute 18, 4
  15              		.file	"Thread_Motor_Control.c"
  16              		.text
  17              	.Ltext0:
  18              		.cfi_sections	.debug_frame
  19              		.file 1 "./app/Threads/Thread_Motor_Control/Thread_Motor_Control.c"
  20              		.global	__aeabi_d2f
  21              		.global	__aeabi_f2d
  22              		.section	.rodata.Thread_Motor_Control_Entry.str1.4,"aMS",%progbits,1
  23              		.align	2
  24              	.LC0:
  25 0000 25662C00 		.ascii	"%f,\000"
  26              		.align	2
  27              	.LC1:
  28 0004 25660D0A 		.ascii	"%f\015\012\000"
  28      00
  29              		.section	.text.Thread_Motor_Control_Entry,"ax",%progbits
  30              		.align	1
  31              		.global	Thread_Motor_Control_Entry
  32              		.syntax unified
  33              		.thumb
  34              		.thumb_func
  36              	Thread_Motor_Control_Entry:
  37              	.LVL0:
  38              	.LFB250:
   1:./app/Threads/Thread_Motor_Control/Thread_Motor_Control.c **** /*
   2:./app/Threads/Thread_Motor_Control/Thread_Motor_Control.c ****  * @Author: Dennis 488132230@qq.com
   3:./app/Threads/Thread_Motor_Control/Thread_Motor_Control.c ****  * @Date: 2025-05-03 11:43:38
   4:./app/Threads/Thread_Motor_Control/Thread_Motor_Control.c ****  * @LastEditors: Dennis 488132230@qq.com
   5:./app/Threads/Thread_Motor_Control/Thread_Motor_Control.c ****  * @LastEditTime: 2025-05-19 11:41:41
   6:./app/Threads/Thread_Motor_Control/Thread_Motor_Control.c ****  * @FilePath: \TS_FOC_F407_Makefile_ThreadX\app\Threads\Thread_Motor_Control\Thread_Motor_Control.c
   7:./app/Threads/Thread_Motor_Control/Thread_Motor_Control.c ****  * @Description: 
   8:./app/Threads/Thread_Motor_Control/Thread_Motor_Control.c ****  */
   9:./app/Threads/Thread_Motor_Control/Thread_Motor_Control.c **** /**
  10:./app/Threads/Thread_Motor_Control/Thread_Motor_Control.c ****   ******************************************************************************
  11:./app/Threads/Thread_Motor_Control/Thread_Motor_Control.c ****   * @file           : Thread_template.c
  12:./app/Threads/Thread_Motor_Control/Thread_Motor_Control.c ****   * @brief          : 降低代码耦合
  13:./app/Threads/Thread_Motor_Control/Thread_Motor_Control.c ****   ******************************************************************************
  14:./app/Threads/Thread_Motor_Control/Thread_Motor_Control.c ****   * @author			  : Dennis_Re_Yoonjiho
  15:./app/Threads/Thread_Motor_Control/Thread_Motor_Control.c ****   * @attention		:
  16:./app/Threads/Thread_Motor_Control/Thread_Motor_Control.c ****   *	
  17:./app/Threads/Thread_Motor_Control/Thread_Motor_Control.c ****   * 						   	Copyright (c) 2021 Dennis_Re_Yoonjiho
  18:./app/Threads/Thread_Motor_Control/Thread_Motor_Control.c ****   ******************************************************************************
  19:./app/Threads/Thread_Motor_Control/Thread_Motor_Control.c ****   */
ARM GAS  /tmp/ccwX2Ruc.s 			page 2


  20:./app/Threads/Thread_Motor_Control/Thread_Motor_Control.c **** 
  21:./app/Threads/Thread_Motor_Control/Thread_Motor_Control.c **** 
  22:./app/Threads/Thread_Motor_Control/Thread_Motor_Control.c **** #include "Thread_Motor_Control.h"
  23:./app/Threads/Thread_Motor_Control/Thread_Motor_Control.c **** 
  24:./app/Threads/Thread_Motor_Control/Thread_Motor_Control.c **** 
  25:./app/Threads/Thread_Motor_Control/Thread_Motor_Control.c **** TX_THREAD Thread_Motor_Control;						//实例化线程句柄,线程相关信息
  26:./app/Threads/Thread_Motor_Control/Thread_Motor_Control.c **** Thread_Motor_Control_parama Thread_Motor_Control_parama1={
  27:./app/Threads/Thread_Motor_Control/Thread_Motor_Control.c ****    .Thread_param1_handle = &Thread_Cmd_parama1,
  28:./app/Threads/Thread_Motor_Control/Thread_Motor_Control.c **** };	//实例化入口函数的参数
  29:./app/Threads/Thread_Motor_Control/Thread_Motor_Control.c **** 
  30:./app/Threads/Thread_Motor_Control/Thread_Motor_Control.c **** 
  31:./app/Threads/Thread_Motor_Control/Thread_Motor_Control.c **** 
  32:./app/Threads/Thread_Motor_Control/Thread_Motor_Control.c **** 
  33:./app/Threads/Thread_Motor_Control/Thread_Motor_Control.c **** /*******************************************************************************
  34:./app/Threads/Thread_Motor_Control/Thread_Motor_Control.c **** * Function Name  : Thread_Motor_Control_Entry
  35:./app/Threads/Thread_Motor_Control/Thread_Motor_Control.c **** * Description    : Thread_Motor_Control_Entry线程
  36:./app/Threads/Thread_Motor_Control/Thread_Motor_Control.c **** * Input          : ULONG thread_input
  37:./app/Threads/Thread_Motor_Control/Thread_Motor_Control.c **** * Output         : None
  38:./app/Threads/Thread_Motor_Control/Thread_Motor_Control.c **** * Return         : None
  39:./app/Threads/Thread_Motor_Control/Thread_Motor_Control.c **** * Note			 : 快速创建线程demo
  40:./app/Threads/Thread_Motor_Control/Thread_Motor_Control.c **** *******************************************************************************/
  41:./app/Threads/Thread_Motor_Control/Thread_Motor_Control.c **** void Thread_Motor_Control_Entry(ULONG thread_input)
  42:./app/Threads/Thread_Motor_Control/Thread_Motor_Control.c **** {
  39              		.loc 1 42 1 view -0
  40              		.cfi_startproc
  41              		@ args = 0, pretend = 0, frame = 0
  42              		@ frame_needed = 0, uses_anonymous_args = 0
  43              		.loc 1 42 1 is_stmt 0 view .LVU1
  44 0000 70B5     		push	{r4, r5, r6, lr}
  45              	.LCFI0:
  46              		.cfi_def_cfa_offset 16
  47              		.cfi_offset 4, -16
  48              		.cfi_offset 5, -12
  49              		.cfi_offset 6, -8
  50              		.cfi_offset 14, -4
  51 0002 0025     		movs	r5, #0
  43:./app/Threads/Thread_Motor_Control/Thread_Motor_Control.c ****     Thread_Motor_Control_parama * thread_param = (Thread_Motor_Control_parama *)thread_input;
  52              		.loc 1 43 5 is_stmt 1 view .LVU2
  53              	.LVL1:
  44:./app/Threads/Thread_Motor_Control/Thread_Motor_Control.c ****     Motor* motor1 = (Motor*)thread_param->Motor1_handle;
  54              		.loc 1 44 5 view .LVU3
  55              		.loc 1 44 41 is_stmt 0 view .LVU4
  56 0004 4468     		ldr	r4, [r0, #4]
  57              	.LVL2:
  45:./app/Threads/Thread_Motor_Control/Thread_Motor_Control.c ****     Thread_Cmd_parama * thread_cmd_param = (Thread_Cmd_parama *)thread_param->Thread_param1_handle;
  58              		.loc 1 45 5 is_stmt 1 view .LVU5
  59              		.loc 1 45 77 is_stmt 0 view .LVU6
  60 0006 0668     		ldr	r6, [r0]
  61              	.LVL3:
  62              		.loc 1 45 77 view .LVU7
  63 0008 27E0     		b	.L3
  64              	.LVL4:
  65              	.L6:
  46:./app/Threads/Thread_Motor_Control/Thread_Motor_Control.c ****     uint16_t count;
  47:./app/Threads/Thread_Motor_Control/Thread_Motor_Control.c ****     //电机参数自整定
  48:./app/Threads/Thread_Motor_Control/Thread_Motor_Control.c **** 
  49:./app/Threads/Thread_Motor_Control/Thread_Motor_Control.c **** 
ARM GAS  /tmp/ccwX2Ruc.s 			page 3


  50:./app/Threads/Thread_Motor_Control/Thread_Motor_Control.c **** 
  51:./app/Threads/Thread_Motor_Control/Thread_Motor_Control.c ****     while(1)
  52:./app/Threads/Thread_Motor_Control/Thread_Motor_Control.c ****     {
  53:./app/Threads/Thread_Motor_Control/Thread_Motor_Control.c ****       Read_AS5600_Angle(motor1->As5600_Sensor);
  54:./app/Threads/Thread_Motor_Control/Thread_Motor_Control.c ****       // Current_Update(motor1->Inlinecurrent);
  55:./app/Threads/Thread_Motor_Control/Thread_Motor_Control.c ****       // 位置闭环
  56:./app/Threads/Thread_Motor_Control/Thread_Motor_Control.c ****       // setTorque(motor1,.133*(thread_cmd_param->Cmd_Param_last-motor1->DIR*Get_AS5600_Angle(motor
  57:./app/Threads/Thread_Motor_Control/Thread_Motor_Control.c ****       //力矩闭环
  58:./app/Threads/Thread_Motor_Control/Thread_Motor_Control.c ****       // setTorque(motor1, thread_cmd_param->Cmd_Param_last, _electricalAngle(motor1));   
  59:./app/Threads/Thread_Motor_Control/Thread_Motor_Control.c ****       // 电压速度环
  60:./app/Threads/Thread_Motor_Control/Thread_Motor_Control.c ****       Set_Velocity(motor1, thread_cmd_param->Cmd_Param_last);
  61:./app/Threads/Thread_Motor_Control/Thread_Motor_Control.c ****       // 电压力矩角度环
  62:./app/Threads/Thread_Motor_Control/Thread_Motor_Control.c ****       // Set_Force_Angle(motor1, thread_cmd_param->Cmd_Param_last);
  63:./app/Threads/Thread_Motor_Control/Thread_Motor_Control.c ****       // 电压角度速度环
  64:./app/Threads/Thread_Motor_Control/Thread_Motor_Control.c ****       // Set_Velocity_Angle(motor1, thread_cmd_param->Cmd_Param_last);
  65:./app/Threads/Thread_Motor_Control/Thread_Motor_Control.c ****       if(count++>10)
  66:./app/Threads/Thread_Motor_Control/Thread_Motor_Control.c ****       {
  67:./app/Threads/Thread_Motor_Control/Thread_Motor_Control.c ****         count = 0;
  66              		.loc 1 67 9 is_stmt 1 view .LVU8
  68:./app/Threads/Thread_Motor_Control/Thread_Motor_Control.c ****         printf("%f,", Get_AS5600_Angle(motor1->As5600_Sensor));
  67              		.loc 1 68 9 view .LVU9
  68              		.loc 1 68 23 is_stmt 0 view .LVU10
  69 000a A06A     		ldr	r0, [r4, #40]
  70 000c FFF7FEFF 		bl	Get_AS5600_Angle
  71              	.LVL5:
  72 0010 10EE100A 		vmov	r0, s0
  73              		.loc 1 68 9 discriminator 1 view .LVU11
  74 0014 FFF7FEFF 		bl	__aeabi_f2d
  75              	.LVL6:
  76 0018 0246     		mov	r2, r0
  77 001a 0B46     		mov	r3, r1
  78 001c 184D     		ldr	r5, .L7
  79 001e 2846     		mov	r0, r5
  80 0020 FFF7FEFF 		bl	printf
  81              	.LVL7:
  69:./app/Threads/Thread_Motor_Control/Thread_Motor_Control.c ****         printf("%f,", motor1->As5600_Sensor->Angle);
  82              		.loc 1 69 9 is_stmt 1 view .LVU12
  83              		.loc 1 69 29 is_stmt 0 view .LVU13
  84 0024 A36A     		ldr	r3, [r4, #40]
  85              		.loc 1 69 9 view .LVU14
  86 0026 D868     		ldr	r0, [r3, #12]	@ float
  87 0028 FFF7FEFF 		bl	__aeabi_f2d
  88              	.LVL8:
  89 002c 0246     		mov	r2, r0
  90 002e 0B46     		mov	r3, r1
  91 0030 2846     		mov	r0, r5
  92 0032 FFF7FEFF 		bl	printf
  93              	.LVL9:
  70:./app/Threads/Thread_Motor_Control/Thread_Motor_Control.c ****         printf("%f,", motor1->As5600_Sensor->Velocity);
  94              		.loc 1 70 9 is_stmt 1 view .LVU15
  95              		.loc 1 70 29 is_stmt 0 view .LVU16
  96 0036 A36A     		ldr	r3, [r4, #40]
  97              		.loc 1 70 9 view .LVU17
  98 0038 5868     		ldr	r0, [r3, #4]	@ float
  99 003a FFF7FEFF 		bl	__aeabi_f2d
 100              	.LVL10:
 101 003e 0246     		mov	r2, r0
ARM GAS  /tmp/ccwX2Ruc.s 			page 4


 102 0040 0B46     		mov	r3, r1
 103 0042 2846     		mov	r0, r5
 104 0044 FFF7FEFF 		bl	printf
 105              	.LVL11:
  71:./app/Threads/Thread_Motor_Control/Thread_Motor_Control.c ****         printf("%f\r\n",thread_cmd_param->Cmd_Param_last);
 106              		.loc 1 71 9 is_stmt 1 view .LVU18
 107 0048 D6E90823 		ldrd	r2, [r6, #32]
 108 004c 0D48     		ldr	r0, .L7+4
 109 004e FFF7FEFF 		bl	printf
 110              	.LVL12:
  67:./app/Threads/Thread_Motor_Control/Thread_Motor_Control.c ****         printf("%f,", Get_AS5600_Angle(motor1->As5600_Sensor));
 111              		.loc 1 67 15 is_stmt 0 view .LVU19
 112 0052 0025     		movs	r5, #0
 113              	.LVL13:
 114              	.L2:
  72:./app/Threads/Thread_Motor_Control/Thread_Motor_Control.c ****         // printf("%f,%f,%f\r\n",motor1->Inlinecurrent->I_a, motor1->Inlinecurrent->I_b, motor1->In
  73:./app/Threads/Thread_Motor_Control/Thread_Motor_Control.c ****       }
  74:./app/Threads/Thread_Motor_Control/Thread_Motor_Control.c ****       // printf("Motor1 Angle: %f\n", motor1->As5600_Sensor->Angle);
  75:./app/Threads/Thread_Motor_Control/Thread_Motor_Control.c ****       tx_thread_sleep(1);
 115              		.loc 1 75 7 is_stmt 1 view .LVU20
 116 0054 0120     		movs	r0, #1
 117 0056 FFF7FEFF 		bl	_tx_thread_sleep
 118              	.LVL14:
  51:./app/Threads/Thread_Motor_Control/Thread_Motor_Control.c ****     {
 119              		.loc 1 51 10 view .LVU21
 120              	.L3:
  46:./app/Threads/Thread_Motor_Control/Thread_Motor_Control.c ****     //电机参数自整定
 121              		.loc 1 46 5 view .LVU22
  51:./app/Threads/Thread_Motor_Control/Thread_Motor_Control.c ****     {
 122              		.loc 1 51 5 view .LVU23
  53:./app/Threads/Thread_Motor_Control/Thread_Motor_Control.c ****       // Current_Update(motor1->Inlinecurrent);
 123              		.loc 1 53 7 view .LVU24
 124 005a A06A     		ldr	r0, [r4, #40]
 125 005c FFF7FEFF 		bl	Read_AS5600_Angle
 126              	.LVL15:
  60:./app/Threads/Thread_Motor_Control/Thread_Motor_Control.c ****       // 电压力矩角度环
 127              		.loc 1 60 7 view .LVU25
 128 0060 D6E90801 		ldrd	r0, [r6, #32]
 129 0064 FFF7FEFF 		bl	__aeabi_d2f
 130              	.LVL16:
 131 0068 00EE100A 		vmov	s0, r0
 132 006c 2046     		mov	r0, r4
 133 006e FFF7FEFF 		bl	Set_Velocity
 134              	.LVL17:
  65:./app/Threads/Thread_Motor_Control/Thread_Motor_Control.c ****       {
 135              		.loc 1 65 7 view .LVU26
  65:./app/Threads/Thread_Motor_Control/Thread_Motor_Control.c ****       {
 136              		.loc 1 65 15 is_stmt 0 view .LVU27
 137 0072 6B1C     		adds	r3, r5, #1
 138 0074 9BB2     		uxth	r3, r3
 139              	.LVL18:
  65:./app/Threads/Thread_Motor_Control/Thread_Motor_Control.c ****       {
 140              		.loc 1 65 9 view .LVU28
 141 0076 0A2D     		cmp	r5, #10
 142 0078 C7D8     		bhi	.L6
  65:./app/Threads/Thread_Motor_Control/Thread_Motor_Control.c ****       {
 143              		.loc 1 65 15 view .LVU29
ARM GAS  /tmp/ccwX2Ruc.s 			page 5


 144 007a 1D46     		mov	r5, r3
 145 007c EAE7     		b	.L2
 146              	.L8:
 147 007e 00BF     		.align	2
 148              	.L7:
 149 0080 00000000 		.word	.LC0
 150 0084 04000000 		.word	.LC1
 151              		.cfi_endproc
 152              	.LFE250:
 154              		.global	Thread_Motor_Control_parama1
 155              		.section	.data.Thread_Motor_Control_parama1,"aw"
 156              		.align	2
 159              	Thread_Motor_Control_parama1:
 160 0000 00000000 		.word	Thread_Cmd_parama1
 161 0004 00000000 		.space	4
 162              		.global	Thread_Motor_Control
 163              		.section	.bss.Thread_Motor_Control,"aw",%nobits
 164              		.align	2
 167              	Thread_Motor_Control:
 168 0000 00000000 		.space	176
 168      00000000 
 168      00000000 
 168      00000000 
 168      00000000 
 169              		.text
 170              	.Letext0:
 171              		.file 2 "./Middlewares/ST/threadx/ports/cortex_m4/gnu/inc/tx_port.h"
 172              		.file 3 "./Middlewares/ST/threadx/common/inc/tx_api.h"
 173              		.file 4 "/usr/lib/gcc/arm-none-eabi/13.2.1/include/stdint.h"
 174              		.file 5 "./Drivers/CMSIS/Device/ST/STM32F4xx/Include/stm32f407xx.h"
 175              		.file 6 "./Drivers/STM32F4xx_HAL_Driver/Inc/stm32f4xx_hal_def.h"
 176              		.file 7 "./Drivers/STM32F4xx_HAL_Driver/Inc/stm32f4xx_hal_dma.h"
 177              		.file 8 "./Drivers/STM32F4xx_HAL_Driver/Inc/stm32f4xx_hal_i2c.h"
 178              		.file 9 "./app/peripheral/inc/as5600.h"
 179              		.file 10 "./app/algorithm/inc/pid.h"
 180              		.file 11 "./app/algorithm/inc/lowpass_filter.h"
 181              		.file 12 "./app/peripheral/inc/inlinecurrent.h"
 182              		.file 13 "./app/algorithm/inc/ts_foc.h"
 183              		.file 14 "./app/Threads/Thread_cmd/Thread_cmd.h"
 184              		.file 15 "./app/Threads/Thread_Motor_Control/Thread_Motor_Control.h"
 185              		.file 16 "/usr/include/newlib/stdio.h"
ARM GAS  /tmp/ccwX2Ruc.s 			page 6


DEFINED SYMBOLS
                            *ABS*:00000000 Thread_Motor_Control.c
     /tmp/ccwX2Ruc.s:23     .rodata.Thread_Motor_Control_Entry.str1.4:00000000 $d
     /tmp/ccwX2Ruc.s:30     .text.Thread_Motor_Control_Entry:00000000 $t
     /tmp/ccwX2Ruc.s:36     .text.Thread_Motor_Control_Entry:00000000 Thread_Motor_Control_Entry
     /tmp/ccwX2Ruc.s:149    .text.Thread_Motor_Control_Entry:00000080 $d
     /tmp/ccwX2Ruc.s:159    .data.Thread_Motor_Control_parama1:00000000 Thread_Motor_Control_parama1
     /tmp/ccwX2Ruc.s:156    .data.Thread_Motor_Control_parama1:00000000 $d
     /tmp/ccwX2Ruc.s:167    .bss.Thread_Motor_Control:00000000 Thread_Motor_Control
     /tmp/ccwX2Ruc.s:164    .bss.Thread_Motor_Control:00000000 $d

UNDEFINED SYMBOLS
__aeabi_d2f
__aeabi_f2d
Get_AS5600_Angle
printf
_tx_thread_sleep
Read_AS5600_Angle
Set_Velocity
Thread_Cmd_parama1
