ARM GAS  C:\Users\Dennis\AppData\Local\Temp\ccuCYFLg.s 			page 1


   1              		.cpu cortex-m4
   2              		.arch armv7e-m
   3              		.fpu fpv4-sp-d16
   4              		.eabi_attribute 27, 1
   5              		.eabi_attribute 28, 1
   6              		.eabi_attribute 20, 1
   7              		.eabi_attribute 21, 1
   8              		.eabi_attribute 23, 3
   9              		.eabi_attribute 24, 1
  10              		.eabi_attribute 25, 1
  11              		.eabi_attribute 26, 1
  12              		.eabi_attribute 30, 1
  13              		.eabi_attribute 34, 1
  14              		.eabi_attribute 18, 4
  15              		.file	"Thread_led.c"
  16              		.text
  17              	.Ltext0:
  18              		.cfi_sections	.debug_frame
  19              		.section	.text.aRGB_led_show,"ax",%progbits
  20              		.align	1
  21              		.global	aRGB_led_show
  22              		.syntax unified
  23              		.thumb
  24              		.thumb_func
  26              	aRGB_led_show:
  27              	.LVL0:
  28              	.LFB251:
  29              		.file 1 "./app/Threads/Thread_led/Thread_led.c"
   1:./app/Threads/Thread_led/Thread_led.c **** /**
   2:./app/Threads/Thread_led/Thread_led.c ****   ******************************************************************************
   3:./app/Threads/Thread_led/Thread_led.c ****   * @file           : Thread_led.c
   4:./app/Threads/Thread_led/Thread_led.c ****   * @brief          : 降低代码耦合
   5:./app/Threads/Thread_led/Thread_led.c ****   ******************************************************************************
   6:./app/Threads/Thread_led/Thread_led.c ****   * @author			  : Dennis_Re_Yoonjiho
   7:./app/Threads/Thread_led/Thread_led.c ****   * @attention		:
   8:./app/Threads/Thread_led/Thread_led.c ****   *	
   9:./app/Threads/Thread_led/Thread_led.c ****   * 						   	Copyright (c) 2021 Dennis_Re_Yoonjiho
  10:./app/Threads/Thread_led/Thread_led.c ****   ******************************************************************************
  11:./app/Threads/Thread_led/Thread_led.c ****   */
  12:./app/Threads/Thread_led/Thread_led.c **** #include "Thread_led.h"
  13:./app/Threads/Thread_led/Thread_led.c **** 
  14:./app/Threads/Thread_led/Thread_led.c **** 
  15:./app/Threads/Thread_led/Thread_led.c **** TX_THREAD Thread_led;						//实例化线程句柄,线程相关信息
  16:./app/Threads/Thread_led/Thread_led.c **** Thread_led_parama Thread_led_parama1;	//实例化入口函数的参数
  17:./app/Threads/Thread_led/Thread_led.c **** 
  18:./app/Threads/Thread_led/Thread_led.c **** /*******************************************************************************
  19:./app/Threads/Thread_led/Thread_led.c **** * Function Name  : Thread_led_Entry
  20:./app/Threads/Thread_led/Thread_led.c **** * Description    : Thread_led_Entry线程
  21:./app/Threads/Thread_led/Thread_led.c **** * Input          : ULONG thread_input
  22:./app/Threads/Thread_led/Thread_led.c **** * Output         : None
  23:./app/Threads/Thread_led/Thread_led.c **** * Return         : None
  24:./app/Threads/Thread_led/Thread_led.c **** * Note			 : 快速创建线程demo
  25:./app/Threads/Thread_led/Thread_led.c **** *******************************************************************************/
  26:./app/Threads/Thread_led/Thread_led.c **** void Thread_led_Entry(ULONG thread_input)
  27:./app/Threads/Thread_led/Thread_led.c **** {
  28:./app/Threads/Thread_led/Thread_led.c ****   // Thread_led_parama *parama = (Thread_led_parama*)thread_input;	//获取入口函数的参数
  29:./app/Threads/Thread_led/Thread_led.c ****   can_filter_init();							//初始化CAN滤波器
ARM GAS  C:\Users\Dennis\AppData\Local\Temp\ccuCYFLg.s 			page 2


  30:./app/Threads/Thread_led/Thread_led.c ****   HAL_TIM_PWM_Start(&htim1, TIM_CHANNEL_1);
  31:./app/Threads/Thread_led/Thread_led.c ****   HAL_TIM_PWM_Start(&htim1, TIM_CHANNEL_2);
  32:./app/Threads/Thread_led/Thread_led.c ****   HAL_TIM_PWM_Start(&htim1, TIM_CHANNEL_3);
  33:./app/Threads/Thread_led/Thread_led.c ****   
  34:./app/Threads/Thread_led/Thread_led.c ****   uint32_t RGB_flow_color[RGB_FLOW_COLOR_LENGHT + 1] = {0xFF0000FF, 0xFF00FF00, 0xFFFF0000, 0xFF000
  35:./app/Threads/Thread_led/Thread_led.c ****   uint16_t i, j;
  36:./app/Threads/Thread_led/Thread_led.c ****   float delta_alpha, delta_red, delta_green, delta_blue;
  37:./app/Threads/Thread_led/Thread_led.c ****   float alpha,red,green,blue;
  38:./app/Threads/Thread_led/Thread_led.c ****   uint32_t aRGB;
  39:./app/Threads/Thread_led/Thread_led.c **** 
  40:./app/Threads/Thread_led/Thread_led.c **** 	while(1)
  41:./app/Threads/Thread_led/Thread_led.c **** 	{
  42:./app/Threads/Thread_led/Thread_led.c **** 
  43:./app/Threads/Thread_led/Thread_led.c ****     for(i = 0; i < RGB_FLOW_COLOR_LENGHT; i++)
  44:./app/Threads/Thread_led/Thread_led.c ****     {
  45:./app/Threads/Thread_led/Thread_led.c ****         alpha = (RGB_flow_color[i] & 0xFF000000) >> 24;
  46:./app/Threads/Thread_led/Thread_led.c ****         red = ((RGB_flow_color[i] & 0x00FF0000) >> 16);
  47:./app/Threads/Thread_led/Thread_led.c ****         green = ((RGB_flow_color[i] & 0x0000FF00) >> 8);
  48:./app/Threads/Thread_led/Thread_led.c ****         blue = ((RGB_flow_color[i] & 0x000000FF) >> 0);
  49:./app/Threads/Thread_led/Thread_led.c **** 
  50:./app/Threads/Thread_led/Thread_led.c ****         delta_alpha = (float)((RGB_flow_color[i + 1] & 0xFF000000) >> 24) - (float)((RGB_flow_color
  51:./app/Threads/Thread_led/Thread_led.c ****         delta_red = (float)((RGB_flow_color[i + 1] & 0x00FF0000) >> 16) - (float)((RGB_flow_color[i
  52:./app/Threads/Thread_led/Thread_led.c ****         delta_green = (float)((RGB_flow_color[i + 1] & 0x0000FF00) >> 8) - (float)((RGB_flow_color[
  53:./app/Threads/Thread_led/Thread_led.c ****         delta_blue = (float)((RGB_flow_color[i + 1] & 0x000000FF) >> 0) - (float)((RGB_flow_color[i
  54:./app/Threads/Thread_led/Thread_led.c **** 
  55:./app/Threads/Thread_led/Thread_led.c ****         delta_alpha /= RGB_FLOW_COLOR_CHANGE_TIME;
  56:./app/Threads/Thread_led/Thread_led.c ****         delta_red /= RGB_FLOW_COLOR_CHANGE_TIME;
  57:./app/Threads/Thread_led/Thread_led.c ****         delta_green /= RGB_FLOW_COLOR_CHANGE_TIME;
  58:./app/Threads/Thread_led/Thread_led.c ****         delta_blue /= RGB_FLOW_COLOR_CHANGE_TIME;
  59:./app/Threads/Thread_led/Thread_led.c ****         for(j = 0; j < RGB_FLOW_COLOR_CHANGE_TIME; j++)
  60:./app/Threads/Thread_led/Thread_led.c ****         {
  61:./app/Threads/Thread_led/Thread_led.c ****             alpha += delta_alpha;
  62:./app/Threads/Thread_led/Thread_led.c ****             red += delta_red;
  63:./app/Threads/Thread_led/Thread_led.c ****             green += delta_green;
  64:./app/Threads/Thread_led/Thread_led.c ****             blue += delta_blue;
  65:./app/Threads/Thread_led/Thread_led.c **** 
  66:./app/Threads/Thread_led/Thread_led.c ****             aRGB = ((uint32_t)(alpha)) << 24 | ((uint32_t)(red)) << 16 | ((uint32_t)(green)) << 8 |
  67:./app/Threads/Thread_led/Thread_led.c ****             aRGB_led_show(aRGB);
  68:./app/Threads/Thread_led/Thread_led.c ****             tx_thread_sleep(4);
  69:./app/Threads/Thread_led/Thread_led.c ****         }
  70:./app/Threads/Thread_led/Thread_led.c **** 
  71:./app/Threads/Thread_led/Thread_led.c ****     }
  72:./app/Threads/Thread_led/Thread_led.c ****     
  73:./app/Threads/Thread_led/Thread_led.c ****     tx_thread_sleep(1);
  74:./app/Threads/Thread_led/Thread_led.c **** 	}
  75:./app/Threads/Thread_led/Thread_led.c **** }
  76:./app/Threads/Thread_led/Thread_led.c **** 
  77:./app/Threads/Thread_led/Thread_led.c **** 
  78:./app/Threads/Thread_led/Thread_led.c **** 
  79:./app/Threads/Thread_led/Thread_led.c **** 
  80:./app/Threads/Thread_led/Thread_led.c **** void aRGB_led_show(uint32_t aRGB)
  81:./app/Threads/Thread_led/Thread_led.c **** {
  30              		.loc 1 81 1 view -0
  31              		.cfi_startproc
  32              		@ args = 0, pretend = 0, frame = 0
  33              		@ frame_needed = 0, uses_anonymous_args = 0
  34              		@ link register save eliminated.
ARM GAS  C:\Users\Dennis\AppData\Local\Temp\ccuCYFLg.s 			page 3


  35              		.loc 1 81 1 is_stmt 0 view .LVU1
  36 0000 10B4     		push	{r4}
  37              	.LCFI0:
  38              		.cfi_def_cfa_offset 4
  39              		.cfi_offset 4, -4
  82:./app/Threads/Thread_led/Thread_led.c ****     static uint8_t alpha;
  40              		.loc 1 82 5 is_stmt 1 view .LVU2
  83:./app/Threads/Thread_led/Thread_led.c ****     static uint16_t red,green,blue;
  41              		.loc 1 83 5 view .LVU3
  84:./app/Threads/Thread_led/Thread_led.c **** 
  85:./app/Threads/Thread_led/Thread_led.c ****     alpha = (aRGB & 0xFF000000) >> 24;
  42              		.loc 1 85 5 view .LVU4
  43              		.loc 1 85 11 is_stmt 0 view .LVU5
  44 0002 030E     		lsrs	r3, r0, #24
  45 0004 0D4A     		ldr	r2, .L3
  46 0006 1370     		strb	r3, [r2]
  86:./app/Threads/Thread_led/Thread_led.c ****     red = ((aRGB & 0x00FF0000) >> 16) * alpha;
  47              		.loc 1 86 5 is_stmt 1 view .LVU6
  48              		.loc 1 86 9 is_stmt 0 view .LVU7
  49 0008 C0F30742 		ubfx	r2, r0, #16, #8
  50 000c 03FB02F2 		mul	r2, r3, r2
  51 0010 0B49     		ldr	r1, .L3+4
  52 0012 0A80     		strh	r2, [r1]	@ movhi
  87:./app/Threads/Thread_led/Thread_led.c ****     green = ((aRGB & 0x0000FF00) >> 8) * alpha;
  53              		.loc 1 87 5 is_stmt 1 view .LVU8
  54              		.loc 1 87 11 is_stmt 0 view .LVU9
  55 0014 C0F30721 		ubfx	r1, r0, #8, #8
  56 0018 03FB01F1 		mul	r1, r3, r1
  57 001c 094C     		ldr	r4, .L3+8
  58 001e 2180     		strh	r1, [r4]	@ movhi
  88:./app/Threads/Thread_led/Thread_led.c ****     blue = ((aRGB & 0x000000FF) >> 0) * alpha;
  59              		.loc 1 88 5 is_stmt 1 view .LVU10
  60              		.loc 1 88 10 is_stmt 0 view .LVU11
  61 0020 C0B2     		uxtb	r0, r0
  62              	.LVL1:
  63              		.loc 1 88 10 view .LVU12
  64 0022 03FB00F0 		mul	r0, r3, r0
  65 0026 084B     		ldr	r3, .L3+12
  66 0028 1880     		strh	r0, [r3]	@ movhi
  89:./app/Threads/Thread_led/Thread_led.c **** 
  90:./app/Threads/Thread_led/Thread_led.c ****     __HAL_TIM_SetCompare(&htim1, TIM_CHANNEL_1, blue);
  67              		.loc 1 90 5 is_stmt 1 view .LVU13
  68 002a 084B     		ldr	r3, .L3+16
  69 002c 1B68     		ldr	r3, [r3]
  70 002e 5863     		str	r0, [r3, #52]
  91:./app/Threads/Thread_led/Thread_led.c ****     __HAL_TIM_SetCompare(&htim1, TIM_CHANNEL_2, green);
  71              		.loc 1 91 5 view .LVU14
  72 0030 9963     		str	r1, [r3, #56]
  92:./app/Threads/Thread_led/Thread_led.c ****     __HAL_TIM_SetCompare(&htim1, TIM_CHANNEL_3, red);
  73              		.loc 1 92 5 view .LVU15
  74 0032 DA63     		str	r2, [r3, #60]
  93:./app/Threads/Thread_led/Thread_led.c **** }
  75              		.loc 1 93 1 is_stmt 0 view .LVU16
  76 0034 5DF8044B 		ldr	r4, [sp], #4
  77              	.LCFI1:
  78              		.cfi_restore 4
  79              		.cfi_def_cfa_offset 0
ARM GAS  C:\Users\Dennis\AppData\Local\Temp\ccuCYFLg.s 			page 4


  80 0038 7047     		bx	lr
  81              	.L4:
  82 003a 00BF     		.align	2
  83              	.L3:
  84 003c 00000000 		.word	.LANCHOR0
  85 0040 00000000 		.word	.LANCHOR1
  86 0044 00000000 		.word	.LANCHOR2
  87 0048 00000000 		.word	.LANCHOR3
  88 004c 00000000 		.word	htim1
  89              		.cfi_endproc
  90              	.LFE251:
  92              		.section	.text.Thread_led_Entry,"ax",%progbits
  93              		.align	1
  94              		.global	Thread_led_Entry
  95              		.syntax unified
  96              		.thumb
  97              		.thumb_func
  99              	Thread_led_Entry:
 100              	.LVL2:
 101              	.LFB250:
  27:./app/Threads/Thread_led/Thread_led.c ****   // Thread_led_parama *parama = (Thread_led_parama*)thread_input;	//获取入口函数的参数
 102              		.loc 1 27 1 is_stmt 1 view -0
 103              		.cfi_startproc
 104              		@ args = 0, pretend = 0, frame = 16
 105              		@ frame_needed = 0, uses_anonymous_args = 0
  27:./app/Threads/Thread_led/Thread_led.c ****   // Thread_led_parama *parama = (Thread_led_parama*)thread_input;	//获取入口函数的参数
 106              		.loc 1 27 1 is_stmt 0 view .LVU18
 107 0000 30B5     		push	{r4, r5, lr}
 108              	.LCFI2:
 109              		.cfi_def_cfa_offset 12
 110              		.cfi_offset 4, -12
 111              		.cfi_offset 5, -8
 112              		.cfi_offset 14, -4
 113 0002 2DED088B 		vpush.64	{d8, d9, d10, d11}
 114              	.LCFI3:
 115              		.cfi_def_cfa_offset 44
 116              		.cfi_offset 80, -44
 117              		.cfi_offset 81, -40
 118              		.cfi_offset 82, -36
 119              		.cfi_offset 83, -32
 120              		.cfi_offset 84, -28
 121              		.cfi_offset 85, -24
 122              		.cfi_offset 86, -20
 123              		.cfi_offset 87, -16
 124 0006 85B0     		sub	sp, sp, #20
 125              	.LCFI4:
 126              		.cfi_def_cfa_offset 64
  29:./app/Threads/Thread_led/Thread_led.c ****   HAL_TIM_PWM_Start(&htim1, TIM_CHANNEL_1);
 127              		.loc 1 29 3 is_stmt 1 view .LVU19
 128 0008 FFF7FEFF 		bl	can_filter_init
 129              	.LVL3:
  30:./app/Threads/Thread_led/Thread_led.c ****   HAL_TIM_PWM_Start(&htim1, TIM_CHANNEL_2);
 130              		.loc 1 30 3 view .LVU20
 131 000c 474C     		ldr	r4, .L13
 132 000e 0021     		movs	r1, #0
 133 0010 2046     		mov	r0, r4
 134 0012 FFF7FEFF 		bl	HAL_TIM_PWM_Start
ARM GAS  C:\Users\Dennis\AppData\Local\Temp\ccuCYFLg.s 			page 5


 135              	.LVL4:
  31:./app/Threads/Thread_led/Thread_led.c ****   HAL_TIM_PWM_Start(&htim1, TIM_CHANNEL_3);
 136              		.loc 1 31 3 view .LVU21
 137 0016 0421     		movs	r1, #4
 138 0018 2046     		mov	r0, r4
 139 001a FFF7FEFF 		bl	HAL_TIM_PWM_Start
 140              	.LVL5:
  32:./app/Threads/Thread_led/Thread_led.c ****   
 141              		.loc 1 32 3 view .LVU22
 142 001e 0821     		movs	r1, #8
 143 0020 2046     		mov	r0, r4
 144 0022 FFF7FEFF 		bl	HAL_TIM_PWM_Start
 145              	.LVL6:
  34:./app/Threads/Thread_led/Thread_led.c ****   uint16_t i, j;
 146              		.loc 1 34 3 view .LVU23
  34:./app/Threads/Thread_led/Thread_led.c ****   uint16_t i, j;
 147              		.loc 1 34 12 is_stmt 0 view .LVU24
 148 0026 424B     		ldr	r3, .L13+4
 149 0028 0FCB     		ldm	r3, {r0, r1, r2, r3}
 150 002a 04AC     		add	r4, sp, #16
 151 002c 04E90F00 		stmdb	r4, {r0, r1, r2, r3}
 152 0030 79E0     		b	.L10
 153              	.LVL7:
 154              	.L8:
  61:./app/Threads/Thread_led/Thread_led.c ****             red += delta_red;
 155              		.loc 1 61 13 is_stmt 1 discriminator 3 view .LVU25
  61:./app/Threads/Thread_led/Thread_led.c ****             red += delta_red;
 156              		.loc 1 61 19 is_stmt 0 discriminator 3 view .LVU26
 157 0032 7BEE8ABA 		vadd.f32	s23, s23, s20
 158              	.LVL8:
  62:./app/Threads/Thread_led/Thread_led.c ****             green += delta_green;
 159              		.loc 1 62 13 is_stmt 1 discriminator 3 view .LVU27
  62:./app/Threads/Thread_led/Thread_led.c ****             green += delta_green;
 160              		.loc 1 62 17 is_stmt 0 discriminator 3 view .LVU28
 161 0036 3BEE29BA 		vadd.f32	s22, s22, s19
 162              	.LVL9:
  63:./app/Threads/Thread_led/Thread_led.c ****             blue += delta_blue;
 163              		.loc 1 63 13 is_stmt 1 discriminator 3 view .LVU29
  63:./app/Threads/Thread_led/Thread_led.c ****             blue += delta_blue;
 164              		.loc 1 63 19 is_stmt 0 discriminator 3 view .LVU30
 165 003a 7AEE89AA 		vadd.f32	s21, s21, s18
 166              	.LVL10:
  64:./app/Threads/Thread_led/Thread_led.c **** 
 167              		.loc 1 64 13 is_stmt 1 discriminator 3 view .LVU31
  64:./app/Threads/Thread_led/Thread_led.c **** 
 168              		.loc 1 64 18 is_stmt 0 discriminator 3 view .LVU32
 169 003e 38EE288A 		vadd.f32	s16, s16, s17
 170              	.LVL11:
  66:./app/Threads/Thread_led/Thread_led.c ****             aRGB_led_show(aRGB);
 171              		.loc 1 66 13 is_stmt 1 discriminator 3 view .LVU33
  66:./app/Threads/Thread_led/Thread_led.c ****             aRGB_led_show(aRGB);
 172              		.loc 1 66 21 is_stmt 0 discriminator 3 view .LVU34
 173 0042 FCEEEB7A 		vcvt.u32.f32	s15, s23
 174 0046 17EE903A 		vmov	r3, s15	@ int
  66:./app/Threads/Thread_led/Thread_led.c ****             aRGB_led_show(aRGB);
 175              		.loc 1 66 49 discriminator 3 view .LVU35
 176 004a FCEECB7A 		vcvt.u32.f32	s15, s22
ARM GAS  C:\Users\Dennis\AppData\Local\Temp\ccuCYFLg.s 			page 6


 177 004e 17EE900A 		vmov	r0, s15	@ int
  66:./app/Threads/Thread_led/Thread_led.c ****             aRGB_led_show(aRGB);
 178              		.loc 1 66 66 discriminator 3 view .LVU36
 179 0052 0204     		lsls	r2, r0, #16
  66:./app/Threads/Thread_led/Thread_led.c ****             aRGB_led_show(aRGB);
 180              		.loc 1 66 46 discriminator 3 view .LVU37
 181 0054 42EA0360 		orr	r0, r2, r3, lsl #24
  66:./app/Threads/Thread_led/Thread_led.c ****             aRGB_led_show(aRGB);
 182              		.loc 1 66 75 discriminator 3 view .LVU38
 183 0058 FCEEEA7A 		vcvt.u32.f32	s15, s21
 184 005c 17EE903A 		vmov	r3, s15	@ int
  66:./app/Threads/Thread_led/Thread_led.c ****             aRGB_led_show(aRGB);
 185              		.loc 1 66 72 discriminator 3 view .LVU39
 186 0060 40EA0323 		orr	r3, r0, r3, lsl #8
  66:./app/Threads/Thread_led/Thread_led.c ****             aRGB_led_show(aRGB);
 187              		.loc 1 66 120 discriminator 3 view .LVU40
 188 0064 FCEEC87A 		vcvt.u32.f32	s15, s16
 189 0068 17EE900A 		vmov	r0, s15	@ int
 190              	.LVL12:
  67:./app/Threads/Thread_led/Thread_led.c ****             tx_thread_sleep(4);
 191              		.loc 1 67 13 is_stmt 1 discriminator 3 view .LVU41
 192 006c 1843     		orrs	r0, r0, r3
 193              	.LVL13:
  67:./app/Threads/Thread_led/Thread_led.c ****             tx_thread_sleep(4);
 194              		.loc 1 67 13 is_stmt 0 discriminator 3 view .LVU42
 195 006e FFF7FEFF 		bl	aRGB_led_show
 196              	.LVL14:
  68:./app/Threads/Thread_led/Thread_led.c ****         }
 197              		.loc 1 68 13 is_stmt 1 discriminator 3 view .LVU43
 198 0072 0420     		movs	r0, #4
 199 0074 FFF7FEFF 		bl	_tx_thread_sleep
 200              	.LVL15:
  59:./app/Threads/Thread_led/Thread_led.c ****         {
 201              		.loc 1 59 52 discriminator 3 view .LVU44
  59:./app/Threads/Thread_led/Thread_led.c ****         {
 202              		.loc 1 59 53 is_stmt 0 discriminator 3 view .LVU45
 203 0078 0134     		adds	r4, r4, #1
 204              	.LVL16:
  59:./app/Threads/Thread_led/Thread_led.c ****         {
 205              		.loc 1 59 53 discriminator 3 view .LVU46
 206 007a A4B2     		uxth	r4, r4
 207              	.LVL17:
 208              	.L7:
  59:./app/Threads/Thread_led/Thread_led.c ****         {
 209              		.loc 1 59 20 is_stmt 1 discriminator 1 view .LVU47
  59:./app/Threads/Thread_led/Thread_led.c ****         {
 210              		.loc 1 59 9 is_stmt 0 discriminator 1 view .LVU48
 211 007c B4F5FA7F 		cmp	r4, #500
 212 0080 D7D3     		bcc	.L8
  43:./app/Threads/Thread_led/Thread_led.c ****     {
 213              		.loc 1 43 43 is_stmt 1 discriminator 2 view .LVU49
  43:./app/Threads/Thread_led/Thread_led.c ****     {
 214              		.loc 1 43 44 is_stmt 0 discriminator 2 view .LVU50
 215 0082 0135     		adds	r5, r5, #1
 216              	.LVL18:
  43:./app/Threads/Thread_led/Thread_led.c ****     {
 217              		.loc 1 43 44 discriminator 2 view .LVU51
ARM GAS  C:\Users\Dennis\AppData\Local\Temp\ccuCYFLg.s 			page 7


 218 0084 ADB2     		uxth	r5, r5
 219              	.LVL19:
 220              	.L6:
  43:./app/Threads/Thread_led/Thread_led.c ****     {
 221              		.loc 1 43 16 is_stmt 1 discriminator 1 view .LVU52
  43:./app/Threads/Thread_led/Thread_led.c ****     {
 222              		.loc 1 43 5 is_stmt 0 discriminator 1 view .LVU53
 223 0086 022D     		cmp	r5, #2
 224 0088 4AD8     		bhi	.L12
  45:./app/Threads/Thread_led/Thread_led.c ****         red = ((RGB_flow_color[i] & 0x00FF0000) >> 16);
 225              		.loc 1 45 9 is_stmt 1 view .LVU54
  45:./app/Threads/Thread_led/Thread_led.c ****         red = ((RGB_flow_color[i] & 0x00FF0000) >> 16);
 226              		.loc 1 45 32 is_stmt 0 view .LVU55
 227 008a 04AB     		add	r3, sp, #16
 228 008c 03EB8503 		add	r3, r3, r5, lsl #2
 229 0090 53F8103C 		ldr	r3, [r3, #-16]
  45:./app/Threads/Thread_led/Thread_led.c ****         red = ((RGB_flow_color[i] & 0x00FF0000) >> 16);
 230              		.loc 1 45 50 view .LVU56
 231 0094 1A0E     		lsrs	r2, r3, #24
 232 0096 0BEE902A 		vmov	s23, r2	@ int
  45:./app/Threads/Thread_led/Thread_led.c ****         red = ((RGB_flow_color[i] & 0x00FF0000) >> 16);
 233              		.loc 1 45 15 view .LVU57
 234 009a F8EE6BBA 		vcvt.f32.u32	s23, s23
 235              	.LVL20:
  46:./app/Threads/Thread_led/Thread_led.c ****         green = ((RGB_flow_color[i] & 0x0000FF00) >> 8);
 236              		.loc 1 46 9 is_stmt 1 view .LVU58
  46:./app/Threads/Thread_led/Thread_led.c ****         green = ((RGB_flow_color[i] & 0x0000FF00) >> 8);
 237              		.loc 1 46 49 is_stmt 0 view .LVU59
 238 009e C3F30742 		ubfx	r2, r3, #16, #8
 239 00a2 0BEE102A 		vmov	s22, r2	@ int
  46:./app/Threads/Thread_led/Thread_led.c ****         green = ((RGB_flow_color[i] & 0x0000FF00) >> 8);
 240              		.loc 1 46 13 view .LVU60
 241 00a6 B8EE4BBA 		vcvt.f32.u32	s22, s22
 242              	.LVL21:
  47:./app/Threads/Thread_led/Thread_led.c ****         blue = ((RGB_flow_color[i] & 0x000000FF) >> 0);
 243              		.loc 1 47 9 is_stmt 1 view .LVU61
  47:./app/Threads/Thread_led/Thread_led.c ****         blue = ((RGB_flow_color[i] & 0x000000FF) >> 0);
 244              		.loc 1 47 51 is_stmt 0 view .LVU62
 245 00aa C3F30722 		ubfx	r2, r3, #8, #8
 246 00ae 0AEE902A 		vmov	s21, r2	@ int
  47:./app/Threads/Thread_led/Thread_led.c ****         blue = ((RGB_flow_color[i] & 0x000000FF) >> 0);
 247              		.loc 1 47 15 view .LVU63
 248 00b2 F8EE6AAA 		vcvt.f32.u32	s21, s21
 249              	.LVL22:
  48:./app/Threads/Thread_led/Thread_led.c **** 
 250              		.loc 1 48 9 is_stmt 1 view .LVU64
  48:./app/Threads/Thread_led/Thread_led.c **** 
 251              		.loc 1 48 50 is_stmt 0 view .LVU65
 252 00b6 DBB2     		uxtb	r3, r3
  48:./app/Threads/Thread_led/Thread_led.c **** 
 253              		.loc 1 48 14 view .LVU66
 254 00b8 07EE903A 		vmov	s15, r3	@ int
 255 00bc B8EE678A 		vcvt.f32.u32	s16, s15
 256              	.LVL23:
  50:./app/Threads/Thread_led/Thread_led.c ****         delta_red = (float)((RGB_flow_color[i + 1] & 0x00FF0000) >> 16) - (float)((RGB_flow_color[i
 257              		.loc 1 50 9 is_stmt 1 view .LVU67
  50:./app/Threads/Thread_led/Thread_led.c ****         delta_red = (float)((RGB_flow_color[i + 1] & 0x00FF0000) >> 16) - (float)((RGB_flow_color[i
ARM GAS  C:\Users\Dennis\AppData\Local\Temp\ccuCYFLg.s 			page 8


 258              		.loc 1 50 49 is_stmt 0 view .LVU68
 259 00c0 6B1C     		adds	r3, r5, #1
  50:./app/Threads/Thread_led/Thread_led.c ****         delta_red = (float)((RGB_flow_color[i + 1] & 0x00FF0000) >> 16) - (float)((RGB_flow_color[i
 260              		.loc 1 50 46 view .LVU69
 261 00c2 04AA     		add	r2, sp, #16
 262 00c4 02EB8303 		add	r3, r2, r3, lsl #2
 263 00c8 53F8103C 		ldr	r3, [r3, #-16]
  50:./app/Threads/Thread_led/Thread_led.c ****         delta_red = (float)((RGB_flow_color[i + 1] & 0x00FF0000) >> 16) - (float)((RGB_flow_color[i
 264              		.loc 1 50 68 view .LVU70
 265 00cc 1A0E     		lsrs	r2, r3, #24
 266 00ce 06EE102A 		vmov	s12, r2	@ int
  50:./app/Threads/Thread_led/Thread_led.c ****         delta_red = (float)((RGB_flow_color[i + 1] & 0x00FF0000) >> 16) - (float)((RGB_flow_color[i
 267              		.loc 1 50 23 view .LVU71
 268 00d2 B8EE466A 		vcvt.f32.u32	s12, s12
  50:./app/Threads/Thread_led/Thread_led.c ****         delta_red = (float)((RGB_flow_color[i + 1] & 0x00FF0000) >> 16) - (float)((RGB_flow_color[i
 269              		.loc 1 50 21 view .LVU72
 270 00d6 36EE6B6A 		vsub.f32	s12, s12, s23
 271              	.LVL24:
  51:./app/Threads/Thread_led/Thread_led.c ****         delta_green = (float)((RGB_flow_color[i + 1] & 0x0000FF00) >> 8) - (float)((RGB_flow_color[
 272              		.loc 1 51 9 is_stmt 1 view .LVU73
  51:./app/Threads/Thread_led/Thread_led.c ****         delta_green = (float)((RGB_flow_color[i + 1] & 0x0000FF00) >> 8) - (float)((RGB_flow_color[
 273              		.loc 1 51 66 is_stmt 0 view .LVU74
 274 00da C3F30742 		ubfx	r2, r3, #16, #8
 275 00de 06EE902A 		vmov	s13, r2	@ int
  51:./app/Threads/Thread_led/Thread_led.c ****         delta_green = (float)((RGB_flow_color[i + 1] & 0x0000FF00) >> 8) - (float)((RGB_flow_color[
 276              		.loc 1 51 21 view .LVU75
 277 00e2 F8EE666A 		vcvt.f32.u32	s13, s13
  51:./app/Threads/Thread_led/Thread_led.c ****         delta_green = (float)((RGB_flow_color[i + 1] & 0x0000FF00) >> 8) - (float)((RGB_flow_color[
 278              		.loc 1 51 19 view .LVU76
 279 00e6 76EECB6A 		vsub.f32	s13, s13, s22
 280              	.LVL25:
  52:./app/Threads/Thread_led/Thread_led.c ****         delta_blue = (float)((RGB_flow_color[i + 1] & 0x000000FF) >> 0) - (float)((RGB_flow_color[i
 281              		.loc 1 52 9 is_stmt 1 view .LVU77
  52:./app/Threads/Thread_led/Thread_led.c ****         delta_blue = (float)((RGB_flow_color[i + 1] & 0x000000FF) >> 0) - (float)((RGB_flow_color[i
 282              		.loc 1 52 68 is_stmt 0 view .LVU78
 283 00ea C3F30722 		ubfx	r2, r3, #8, #8
 284 00ee 07EE102A 		vmov	s14, r2	@ int
  52:./app/Threads/Thread_led/Thread_led.c ****         delta_blue = (float)((RGB_flow_color[i + 1] & 0x000000FF) >> 0) - (float)((RGB_flow_color[i
 285              		.loc 1 52 23 view .LVU79
 286 00f2 B8EE477A 		vcvt.f32.u32	s14, s14
  52:./app/Threads/Thread_led/Thread_led.c ****         delta_blue = (float)((RGB_flow_color[i + 1] & 0x000000FF) >> 0) - (float)((RGB_flow_color[i
 287              		.loc 1 52 21 view .LVU80
 288 00f6 37EE6A7A 		vsub.f32	s14, s14, s21
 289              	.LVL26:
  53:./app/Threads/Thread_led/Thread_led.c **** 
 290              		.loc 1 53 9 is_stmt 1 view .LVU81
  53:./app/Threads/Thread_led/Thread_led.c **** 
 291              		.loc 1 53 67 is_stmt 0 view .LVU82
 292 00fa DBB2     		uxtb	r3, r3
 293 00fc 07EE903A 		vmov	s15, r3	@ int
  53:./app/Threads/Thread_led/Thread_led.c **** 
 294              		.loc 1 53 22 view .LVU83
 295 0100 F8EE677A 		vcvt.f32.u32	s15, s15
  53:./app/Threads/Thread_led/Thread_led.c **** 
 296              		.loc 1 53 20 view .LVU84
 297 0104 77EEC87A 		vsub.f32	s15, s15, s16
 298              	.LVL27:
ARM GAS  C:\Users\Dennis\AppData\Local\Temp\ccuCYFLg.s 			page 9


  55:./app/Threads/Thread_led/Thread_led.c ****         delta_red /= RGB_FLOW_COLOR_CHANGE_TIME;
 299              		.loc 1 55 9 is_stmt 1 view .LVU85
  55:./app/Threads/Thread_led/Thread_led.c ****         delta_red /= RGB_FLOW_COLOR_CHANGE_TIME;
 300              		.loc 1 55 21 is_stmt 0 view .LVU86
 301 0108 DFED0A5A 		vldr.32	s11, .L13+8
 302 010c 86EE25AA 		vdiv.f32	s20, s12, s11
 303              	.LVL28:
  56:./app/Threads/Thread_led/Thread_led.c ****         delta_green /= RGB_FLOW_COLOR_CHANGE_TIME;
 304              		.loc 1 56 9 is_stmt 1 view .LVU87
  56:./app/Threads/Thread_led/Thread_led.c ****         delta_green /= RGB_FLOW_COLOR_CHANGE_TIME;
 305              		.loc 1 56 19 is_stmt 0 view .LVU88
 306 0110 C6EEA59A 		vdiv.f32	s19, s13, s11
 307              	.LVL29:
  57:./app/Threads/Thread_led/Thread_led.c ****         delta_blue /= RGB_FLOW_COLOR_CHANGE_TIME;
 308              		.loc 1 57 9 is_stmt 1 view .LVU89
  57:./app/Threads/Thread_led/Thread_led.c ****         delta_blue /= RGB_FLOW_COLOR_CHANGE_TIME;
 309              		.loc 1 57 21 is_stmt 0 view .LVU90
 310 0114 87EE259A 		vdiv.f32	s18, s14, s11
 311              	.LVL30:
  58:./app/Threads/Thread_led/Thread_led.c ****         for(j = 0; j < RGB_FLOW_COLOR_CHANGE_TIME; j++)
 312              		.loc 1 58 9 is_stmt 1 view .LVU91
  58:./app/Threads/Thread_led/Thread_led.c ****         for(j = 0; j < RGB_FLOW_COLOR_CHANGE_TIME; j++)
 313              		.loc 1 58 20 is_stmt 0 view .LVU92
 314 0118 C7EEA58A 		vdiv.f32	s17, s15, s11
 315              	.LVL31:
  59:./app/Threads/Thread_led/Thread_led.c ****         {
 316              		.loc 1 59 9 is_stmt 1 view .LVU93
  59:./app/Threads/Thread_led/Thread_led.c ****         {
 317              		.loc 1 59 15 is_stmt 0 view .LVU94
 318 011c 0024     		movs	r4, #0
  59:./app/Threads/Thread_led/Thread_led.c ****         {
 319              		.loc 1 59 9 view .LVU95
 320 011e ADE7     		b	.L7
 321              	.LVL32:
 322              	.L12:
  73:./app/Threads/Thread_led/Thread_led.c **** 	}
 323              		.loc 1 73 5 is_stmt 1 view .LVU96
 324 0120 0120     		movs	r0, #1
 325 0122 FFF7FEFF 		bl	_tx_thread_sleep
 326              	.LVL33:
  40:./app/Threads/Thread_led/Thread_led.c **** 	{
 327              		.loc 1 40 7 view .LVU97
 328              	.L10:
  35:./app/Threads/Thread_led/Thread_led.c ****   float delta_alpha, delta_red, delta_green, delta_blue;
 329              		.loc 1 35 3 view .LVU98
  36:./app/Threads/Thread_led/Thread_led.c ****   float alpha,red,green,blue;
 330              		.loc 1 36 3 view .LVU99
  37:./app/Threads/Thread_led/Thread_led.c ****   uint32_t aRGB;
 331              		.loc 1 37 3 view .LVU100
  38:./app/Threads/Thread_led/Thread_led.c **** 
 332              		.loc 1 38 3 view .LVU101
  40:./app/Threads/Thread_led/Thread_led.c **** 	{
 333              		.loc 1 40 2 view .LVU102
  43:./app/Threads/Thread_led/Thread_led.c ****     {
 334              		.loc 1 43 5 view .LVU103
  43:./app/Threads/Thread_led/Thread_led.c ****     {
 335              		.loc 1 43 11 is_stmt 0 view .LVU104
ARM GAS  C:\Users\Dennis\AppData\Local\Temp\ccuCYFLg.s 			page 10


 336 0126 0025     		movs	r5, #0
  43:./app/Threads/Thread_led/Thread_led.c ****     {
 337              		.loc 1 43 5 view .LVU105
 338 0128 ADE7     		b	.L6
 339              	.L14:
 340 012a 00BF     		.align	2
 341              	.L13:
 342 012c 00000000 		.word	htim1
 343 0130 00000000 		.word	.LANCHOR4
 344 0134 0000FA43 		.word	1140457472
 345              		.cfi_endproc
 346              	.LFE250:
 348              		.global	Thread_led_parama1
 349              		.global	Thread_led
 350              		.section	.rodata
 351              		.align	2
 352              		.set	.LANCHOR4,. + 0
 353              	.LC0:
 354 0000 FF0000FF 		.word	-16776961
 355 0004 00FF00FF 		.word	-16711936
 356 0008 0000FFFF 		.word	-65536
 357 000c FF0000FF 		.word	-16776961
 358              		.section	.bss.Thread_led,"aw",%nobits
 359              		.align	2
 362              	Thread_led:
 363 0000 00000000 		.space	176
 363      00000000 
 363      00000000 
 363      00000000 
 363      00000000 
 364              		.section	.bss.Thread_led_parama1,"aw",%nobits
 365              		.align	2
 368              	Thread_led_parama1:
 369 0000 00       		.space	1
 370              		.section	.bss.alpha.3,"aw",%nobits
 371              		.set	.LANCHOR0,. + 0
 374              	alpha.3:
 375 0000 00       		.space	1
 376              		.section	.bss.blue.0,"aw",%nobits
 377              		.align	1
 378              		.set	.LANCHOR3,. + 0
 381              	blue.0:
 382 0000 0000     		.space	2
 383              		.section	.bss.green.1,"aw",%nobits
 384              		.align	1
 385              		.set	.LANCHOR2,. + 0
 388              	green.1:
 389 0000 0000     		.space	2
 390              		.section	.bss.red.2,"aw",%nobits
 391              		.align	1
 392              		.set	.LANCHOR1,. + 0
 395              	red.2:
 396 0000 0000     		.space	2
 397              		.text
 398              	.Letext0:
 399              		.file 2 "c:\\software_user\\armgcc\\arm-none-eabi\\include\\machine\\_default_types.h"
 400              		.file 3 "./Middlewares/ST/threadx/ports/cortex_m4/gnu/inc/tx_port.h"
ARM GAS  C:\Users\Dennis\AppData\Local\Temp\ccuCYFLg.s 			page 11


 401              		.file 4 "./Middlewares/ST/threadx/common/inc/tx_api.h"
 402              		.file 5 "c:\\software_user\\armgcc\\arm-none-eabi\\include\\sys\\_stdint.h"
 403              		.file 6 "./Drivers/CMSIS/Device/ST/STM32F4xx/Include/stm32f407xx.h"
 404              		.file 7 "./Drivers/STM32F4xx_HAL_Driver/Inc/stm32f4xx_hal_def.h"
 405              		.file 8 "./Drivers/STM32F4xx_HAL_Driver/Inc/stm32f4xx_hal_dma.h"
 406              		.file 9 "./Drivers/STM32F4xx_HAL_Driver/Inc/stm32f4xx_hal_tim.h"
 407              		.file 10 "./app/Threads/Thread_led/Thread_led.h"
 408              		.file 11 "./Core/Inc/tim.h"
ARM GAS  C:\Users\Dennis\AppData\Local\Temp\ccuCYFLg.s 			page 12

