ARM GAS  C:\Users\Dennis\AppData\Local\Temp\cckBP74g.s 			page 1


   1              		.cpu cortex-m4
   2              		.arch armv7e-m
   3              		.fpu fpv4-sp-d16
   4              		.eabi_attribute 27, 1
   5              		.eabi_attribute 28, 1
   6              		.eabi_attribute 20, 1
   7              		.eabi_attribute 21, 1
   8              		.eabi_attribute 23, 3
   9              		.eabi_attribute 24, 1
  10              		.eabi_attribute 25, 1
  11              		.eabi_attribute 26, 1
  12              		.eabi_attribute 30, 1
  13              		.eabi_attribute 34, 1
  14              		.eabi_attribute 18, 4
  15              		.file	"Thread_Motor_Control.c"
  16              		.text
  17              	.Ltext0:
  18              		.cfi_sections	.debug_frame
  19              		.section	.rodata.Thread_Motor_Control_Entry.str1.4,"aMS",%progbits,1
  20              		.align	2
  21              	.LC0:
  22 0000 4F4C4544 		.ascii	"OLED-TEXT\000"
  22      2D544558 
  22      5400
  23 000a 0000     		.align	2
  24              	.LC1:
  25 000c 256C6400 		.ascii	"%ld\000"
  26              		.section	.text.Thread_Motor_Control_Entry,"ax",%progbits
  27              		.align	1
  28              		.global	Thread_Motor_Control_Entry
  29              		.syntax unified
  30              		.thumb
  31              		.thumb_func
  33              	Thread_Motor_Control_Entry:
  34              	.LVL0:
  35              	.LFB250:
  36              		.file 1 "./app/threads/Thread_Motor_Control/Thread_Motor_Control.c"
   1:./app/threads/Thread_Motor_Control/Thread_Motor_Control.c **** /**
   2:./app/threads/Thread_Motor_Control/Thread_Motor_Control.c ****   ******************************************************************************
   3:./app/threads/Thread_Motor_Control/Thread_Motor_Control.c ****   * @file           : Thread_template.c
   4:./app/threads/Thread_Motor_Control/Thread_Motor_Control.c ****   * @brief          : 降低代码耦合
   5:./app/threads/Thread_Motor_Control/Thread_Motor_Control.c ****   ******************************************************************************
   6:./app/threads/Thread_Motor_Control/Thread_Motor_Control.c ****   * @author			  : Dennis_Re_Yoonjiho
   7:./app/threads/Thread_Motor_Control/Thread_Motor_Control.c ****   * @attention		:
   8:./app/threads/Thread_Motor_Control/Thread_Motor_Control.c ****   *	
   9:./app/threads/Thread_Motor_Control/Thread_Motor_Control.c ****   * 						   	Copyright (c) 2021 Dennis_Re_Yoonjiho
  10:./app/threads/Thread_Motor_Control/Thread_Motor_Control.c ****   ******************************************************************************
  11:./app/threads/Thread_Motor_Control/Thread_Motor_Control.c ****   */
  12:./app/threads/Thread_Motor_Control/Thread_Motor_Control.c **** 
  13:./app/threads/Thread_Motor_Control/Thread_Motor_Control.c **** 
  14:./app/threads/Thread_Motor_Control/Thread_Motor_Control.c **** #include "Thread_Motor_Control.h"
  15:./app/threads/Thread_Motor_Control/Thread_Motor_Control.c **** 
  16:./app/threads/Thread_Motor_Control/Thread_Motor_Control.c **** 
  17:./app/threads/Thread_Motor_Control/Thread_Motor_Control.c **** TX_THREAD Thread_Motor_Control;						//实例化线程句柄,线程相关信息
  18:./app/threads/Thread_Motor_Control/Thread_Motor_Control.c **** Thread_Motor_Control_parama Thread_Motor_Control_parama1;	//实例化入口函数的参数
  19:./app/threads/Thread_Motor_Control/Thread_Motor_Control.c **** 
  20:./app/threads/Thread_Motor_Control/Thread_Motor_Control.c **** 
ARM GAS  C:\Users\Dennis\AppData\Local\Temp\cckBP74g.s 			page 2


  21:./app/threads/Thread_Motor_Control/Thread_Motor_Control.c **** 
  22:./app/threads/Thread_Motor_Control/Thread_Motor_Control.c **** 
  23:./app/threads/Thread_Motor_Control/Thread_Motor_Control.c **** /*******************************************************************************
  24:./app/threads/Thread_Motor_Control/Thread_Motor_Control.c **** * Function Name  : Thread_Motor_Control_Entry
  25:./app/threads/Thread_Motor_Control/Thread_Motor_Control.c **** * Description    : Thread_Motor_Control_Entry线程
  26:./app/threads/Thread_Motor_Control/Thread_Motor_Control.c **** * Input          : ULONG thread_input
  27:./app/threads/Thread_Motor_Control/Thread_Motor_Control.c **** * Output         : None
  28:./app/threads/Thread_Motor_Control/Thread_Motor_Control.c **** * Return         : None
  29:./app/threads/Thread_Motor_Control/Thread_Motor_Control.c **** * Note			 : 快速创建线程demo
  30:./app/threads/Thread_Motor_Control/Thread_Motor_Control.c **** *******************************************************************************/
  31:./app/threads/Thread_Motor_Control/Thread_Motor_Control.c **** void Thread_Motor_Control_Entry(ULONG thread_input)
  32:./app/threads/Thread_Motor_Control/Thread_Motor_Control.c **** {
  37              		.loc 1 32 1 view -0
  38              		.cfi_startproc
  39              		@ args = 0, pretend = 0, frame = 104
  40              		@ frame_needed = 0, uses_anonymous_args = 0
  41              		.loc 1 32 1 is_stmt 0 view .LVU1
  42 0000 00B5     		push	{lr}
  43              	.LCFI0:
  44              		.cfi_def_cfa_offset 4
  45              		.cfi_offset 14, -4
  46 0002 9BB0     		sub	sp, sp, #108
  47              	.LCFI1:
  48              		.cfi_def_cfa_offset 112
  33:./app/threads/Thread_Motor_Control/Thread_Motor_Control.c ****     Thread_Motor_Control_parama * thread_param = (Thread_Motor_Control_parama *)thread_input;
  49              		.loc 1 33 5 is_stmt 1 view .LVU2
  50              	.LVL1:
  34:./app/threads/Thread_Motor_Control/Thread_Motor_Control.c ****     Motor* motor1 = (Motor*)thread_param->Motor1_handle;
  51              		.loc 1 34 5 view .LVU3
  35:./app/threads/Thread_Motor_Control/Thread_Motor_Control.c ****     OLED_Init();  //OLED初始化
  52              		.loc 1 35 5 view .LVU4
  53 0004 FFF7FEFF 		bl	OLED_Init
  54              	.LVL2:
  36:./app/threads/Thread_Motor_Control/Thread_Motor_Control.c ****     OLED_ShowStr(0,0,"OLED-TEXT",1);
  55              		.loc 1 36 5 view .LVU5
  56 0008 0123     		movs	r3, #1
  57 000a 0B4A     		ldr	r2, .L4
  58 000c 0021     		movs	r1, #0
  59 000e 0846     		mov	r0, r1
  60 0010 FFF7FEFF 		bl	OLED_ShowStr
  61              	.LVL3:
  62              	.L2:
  37:./app/threads/Thread_Motor_Control/Thread_Motor_Control.c ****     char temp[100];
  63              		.loc 1 37 5 discriminator 1 view .LVU6
  38:./app/threads/Thread_Motor_Control/Thread_Motor_Control.c ****     while(1)
  64              		.loc 1 38 5 discriminator 1 view .LVU7
  39:./app/threads/Thread_Motor_Control/Thread_Motor_Control.c ****     {
  40:./app/threads/Thread_Motor_Control/Thread_Motor_Control.c **** 
  41:./app/threads/Thread_Motor_Control/Thread_Motor_Control.c ****       sprintf(temp,"%ld",HAL_GetTick());
  65              		.loc 1 41 7 discriminator 1 view .LVU8
  66 0014 FFF7FEFF 		bl	HAL_GetTick
  67              	.LVL4:
  68 0018 0246     		mov	r2, r0
  69 001a 0849     		ldr	r1, .L4+4
  70 001c 01A8     		add	r0, sp, #4
  71 001e FFF7FEFF 		bl	sprintf
  72              	.LVL5:
ARM GAS  C:\Users\Dennis\AppData\Local\Temp\cckBP74g.s 			page 3


  42:./app/threads/Thread_Motor_Control/Thread_Motor_Control.c ****       OLED_ShowStr(0,10,temp,2);
  73              		.loc 1 42 7 discriminator 1 view .LVU9
  74 0022 0223     		movs	r3, #2
  75 0024 01AA     		add	r2, sp, #4
  76 0026 0A21     		movs	r1, #10
  77 0028 0020     		movs	r0, #0
  78 002a FFF7FEFF 		bl	OLED_ShowStr
  79              	.LVL6:
  43:./app/threads/Thread_Motor_Control/Thread_Motor_Control.c ****       
  44:./app/threads/Thread_Motor_Control/Thread_Motor_Control.c ****       tx_thread_sleep(1);
  80              		.loc 1 44 7 discriminator 1 view .LVU10
  81 002e 0120     		movs	r0, #1
  82 0030 FFF7FEFF 		bl	_tx_thread_sleep
  83              	.LVL7:
  38:./app/threads/Thread_Motor_Control/Thread_Motor_Control.c ****     {
  84              		.loc 1 38 10 discriminator 1 view .LVU11
  85 0034 EEE7     		b	.L2
  86              	.L5:
  87 0036 00BF     		.align	2
  88              	.L4:
  89 0038 00000000 		.word	.LC0
  90 003c 0C000000 		.word	.LC1
  91              		.cfi_endproc
  92              	.LFE250:
  94              		.global	Thread_Motor_Control_parama1
  95              		.global	Thread_Motor_Control
  96              		.section	.bss.Thread_Motor_Control,"aw",%nobits
  97              		.align	2
 100              	Thread_Motor_Control:
 101 0000 00000000 		.space	176
 101      00000000 
 101      00000000 
 101      00000000 
 101      00000000 
 102              		.section	.bss.Thread_Motor_Control_parama1,"aw",%nobits
 103              		.align	3
 106              	Thread_Motor_Control_parama1:
 107 0000 00000000 		.space	48
 107      00000000 
 107      00000000 
 107      00000000 
 107      00000000 
 108              		.text
 109              	.Letext0:
 110              		.file 2 "c:\\software_user\\armgcc\\arm-none-eabi\\include\\machine\\_default_types.h"
 111              		.file 3 "./Middlewares/ST/threadx/ports/cortex_m4/gnu/inc/tx_port.h"
 112              		.file 4 "./Middlewares/ST/threadx/common/inc/tx_api.h"
 113              		.file 5 "c:\\software_user\\armgcc\\arm-none-eabi\\include\\sys\\_stdint.h"
 114              		.file 6 "./Drivers/CMSIS/Device/ST/STM32F4xx/Include/stm32f407xx.h"
 115              		.file 7 "./Drivers/STM32F4xx_HAL_Driver/Inc/stm32f4xx_hal_def.h"
 116              		.file 8 "./Drivers/STM32F4xx_HAL_Driver/Inc/stm32f4xx_hal_dma.h"
 117              		.file 9 "./Drivers/STM32F4xx_HAL_Driver/Inc/stm32f4xx_hal_i2c.h"
 118              		.file 10 "./app/peripheral/inc/as5600.h"
 119              		.file 11 "./app/algorithm/inc/pid.h"
 120              		.file 12 "./app/algorithm/inc/lowpass_filter.h"
 121              		.file 13 "./app/peripheral/inc/inlinecurrent.h"
 122              		.file 14 "./app/algorithm/inc/ts_foc.h"
ARM GAS  C:\Users\Dennis\AppData\Local\Temp\cckBP74g.s 			page 4


 123              		.file 15 "./app/peripheral/inc/OLED_Front.h"
 124              		.file 16 "./app/threads/Thread_Motor_Control/Thread_Motor_Control.h"
 125              		.file 17 "./app/peripheral/inc/OLED_IIC_Config.h"
 126              		.file 18 "./app/peripheral/inc/OLED_Function.h"
 127              		.file 19 "./Drivers/STM32F4xx_HAL_Driver/Inc/stm32f4xx_hal.h"
 128              		.file 20 "c:\\software_user\\armgcc\\arm-none-eabi\\include\\stdio.h"
ARM GAS  C:\Users\Dennis\AppData\Local\Temp\cckBP74g.s 			page 5


DEFINED SYMBOLS
                            *ABS*:00000000 Thread_Motor_Control.c
C:\Users\Dennis\AppData\Local\Temp\cckBP74g.s:20     .rodata.Thread_Motor_Control_Entry.str1.4:00000000 $d
C:\Users\Dennis\AppData\Local\Temp\cckBP74g.s:27     .text.Thread_Motor_Control_Entry:00000000 $t
C:\Users\Dennis\AppData\Local\Temp\cckBP74g.s:33     .text.Thread_Motor_Control_Entry:00000000 Thread_Motor_Control_Entry
C:\Users\Dennis\AppData\Local\Temp\cckBP74g.s:89     .text.Thread_Motor_Control_Entry:00000038 $d
C:\Users\Dennis\AppData\Local\Temp\cckBP74g.s:106    .bss.Thread_Motor_Control_parama1:00000000 Thread_Motor_Control_parama1
C:\Users\Dennis\AppData\Local\Temp\cckBP74g.s:100    .bss.Thread_Motor_Control:00000000 Thread_Motor_Control
C:\Users\Dennis\AppData\Local\Temp\cckBP74g.s:97     .bss.Thread_Motor_Control:00000000 $d
C:\Users\Dennis\AppData\Local\Temp\cckBP74g.s:103    .bss.Thread_Motor_Control_parama1:00000000 $d

UNDEFINED SYMBOLS
OLED_Init
OLED_ShowStr
HAL_GetTick
sprintf
_tx_thread_sleep
