ARM GAS  C:\Users\Dennis\AppData\Local\Temp\cc16UdTA.s 			page 1


   1              		.cpu cortex-m4
   2              		.arch armv7e-m
   3              		.fpu fpv4-sp-d16
   4              		.eabi_attribute 27, 1
   5              		.eabi_attribute 28, 1
   6              		.eabi_attribute 20, 1
   7              		.eabi_attribute 21, 1
   8              		.eabi_attribute 23, 3
   9              		.eabi_attribute 24, 1
  10              		.eabi_attribute 25, 1
  11              		.eabi_attribute 26, 1
  12              		.eabi_attribute 30, 1
  13              		.eabi_attribute 34, 1
  14              		.eabi_attribute 18, 4
  15              		.file	"Thread_cmd.c"
  16              		.text
  17              	.Ltext0:
  18              		.cfi_sections	.debug_frame
  19              		.section	.rodata.Get_Cmd.str1.4,"aMS",%progbits,1
  20              		.align	2
  21              	.LC0:
  22 0000 7365745F 		.ascii	"set_angle:\000"
  22      616E676C 
  22      653A00
  23 000b 00       		.align	2
  24              	.LC1:
  25 000c 256C660D 		.ascii	"%lf\015\012\000"
  25      0A00
  26 0012 0000     		.align	2
  27              	.LC2:
  28 0014 E8AEBEE7 		.ascii	"\350\256\276\347\275\256\350\247\222\345\272\246\344"
  28      BDAEE8A7 
  28      92E5BAA6 
  28      E4
  29 0021 B8BA3A25 		.ascii	"\270\272:%lf\015\012\000"
  29      6C660D0A 
  29      00
  30 002a 0000     		.align	2
  31              	.LC3:
  32 002c 7365745F 		.ascii	"set_torque:\000"
  32      746F7271 
  32      75653A00 
  33              		.align	2
  34              	.LC4:
  35 0038 E8AEBEE7 		.ascii	"\350\256\276\347\275\256\345\212\233\347\237\251\344"
  35      BDAEE58A 
  35      9BE79FA9 
  35      E4
  36 0045 B8BA3A25 		.ascii	"\270\272:%lf\015\012\000"
  36      6C660D0A 
  36      00
  37              		.section	.text.Get_Cmd,"ax",%progbits
  38              		.align	1
  39              		.global	Get_Cmd
  40              		.syntax unified
  41              		.thumb
  42              		.thumb_func
ARM GAS  C:\Users\Dennis\AppData\Local\Temp\cc16UdTA.s 			page 2


  44              	Get_Cmd:
  45              	.LVL0:
  46              	.LFB250:
  47              		.file 1 "./app/Threads/Thread_cmd/Thread_cmd.c"
   1:./app/Threads/Thread_cmd/Thread_cmd.c **** /**
   2:./app/Threads/Thread_cmd/Thread_cmd.c ****   ******************************************************************************
   3:./app/Threads/Thread_cmd/Thread_cmd.c ****   * @file           : Thread_template.c
   4:./app/Threads/Thread_cmd/Thread_cmd.c ****   * @brief          : Èôç‰Ωé‰ª£Á†ÅËÄ¶Âêà
   5:./app/Threads/Thread_cmd/Thread_cmd.c ****   ******************************************************************************
   6:./app/Threads/Thread_cmd/Thread_cmd.c ****   * @author			  : Dennis_Re_Yoonjiho
   7:./app/Threads/Thread_cmd/Thread_cmd.c ****   * @attention		:
   8:./app/Threads/Thread_cmd/Thread_cmd.c ****   *	
   9:./app/Threads/Thread_cmd/Thread_cmd.c ****   * 						   	Copyright (c) 2021 Dennis_Re_Yoonjiho
  10:./app/Threads/Thread_cmd/Thread_cmd.c ****   ******************************************************************************
  11:./app/Threads/Thread_cmd/Thread_cmd.c ****   */
  12:./app/Threads/Thread_cmd/Thread_cmd.c **** #include "Thread_cmd.h"
  13:./app/Threads/Thread_cmd/Thread_cmd.c **** 
  14:./app/Threads/Thread_cmd/Thread_cmd.c **** TX_THREAD Thread_Cmd;						//ÂÆû‰æãÂåñÁ∫øÁ®ãÂè•ÊüÑ,Á∫øÁ®ãÁõ∏ÂÖ≥‰ø°ÊÅØ
  15:./app/Threads/Thread_cmd/Thread_cmd.c **** Thread_Cmd_parama Thread_Cmd_parama1;	//ÂÆû‰æãÂåñÂÖ•Âè£ÂáΩÊï∞ÁöÑÂèÇÊï∞
  16:./app/Threads/Thread_cmd/Thread_cmd.c **** 
  17:./app/Threads/Thread_cmd/Thread_cmd.c **** 
  18:./app/Threads/Thread_cmd/Thread_cmd.c **** 
  19:./app/Threads/Thread_cmd/Thread_cmd.c **** struct UART_RECEIVE_IDLE_DataStructure
  20:./app/Threads/Thread_cmd/Thread_cmd.c **** {
  21:./app/Threads/Thread_cmd/Thread_cmd.c **** 	volatile uint8_t rxlen; 
  22:./app/Threads/Thread_cmd/Thread_cmd.c **** 	volatile uint8_t rxok; 
  23:./app/Threads/Thread_cmd/Thread_cmd.c **** 	uint8_t rxbuf[UART_RECEIVE_IDLE_RX_MAXLEN]; 
  24:./app/Threads/Thread_cmd/Thread_cmd.c **** } Uart_Receive_Data ={ 0, 1 };
  25:./app/Threads/Thread_cmd/Thread_cmd.c **** 
  26:./app/Threads/Thread_cmd/Thread_cmd.c **** 
  27:./app/Threads/Thread_cmd/Thread_cmd.c **** int8_t Get_Cmd(UART_HandleTypeDef *huart)
  28:./app/Threads/Thread_cmd/Thread_cmd.c **** {
  48              		.loc 1 28 1 view -0
  49              		.cfi_startproc
  50              		@ args = 0, pretend = 0, frame = 0
  51              		@ frame_needed = 0, uses_anonymous_args = 0
  52              		.loc 1 28 1 is_stmt 0 view .LVU1
  53 0000 F8B5     		push	{r3, r4, r5, r6, r7, lr}
  54              	.LCFI0:
  55              		.cfi_def_cfa_offset 24
  56              		.cfi_offset 3, -24
  57              		.cfi_offset 4, -20
  58              		.cfi_offset 5, -16
  59              		.cfi_offset 6, -12
  60              		.cfi_offset 7, -8
  61              		.cfi_offset 14, -4
  29:./app/Threads/Thread_cmd/Thread_cmd.c **** 
  30:./app/Threads/Thread_cmd/Thread_cmd.c **** 	int8_t nret = 0;
  62              		.loc 1 30 2 is_stmt 1 view .LVU2
  63              	.LVL1:
  31:./app/Threads/Thread_cmd/Thread_cmd.c **** 	if (Uart_Receive_Data.rxok == 0)
  64              		.loc 1 31 2 view .LVU3
  65              		.loc 1 31 23 is_stmt 0 view .LVU4
  66 0002 204B     		ldr	r3, .L7
  67 0004 5B78     		ldrb	r3, [r3, #1]	@ zero_extendqisi2
  68              		.loc 1 31 5 view .LVU5
  69 0006 002B     		cmp	r3, #0
ARM GAS  C:\Users\Dennis\AppData\Local\Temp\cc16UdTA.s 			page 3


  70 0008 39D0     		beq	.L5
  71 000a 0646     		mov	r6, r0
  32:./app/Threads/Thread_cmd/Thread_cmd.c **** 	{
  33:./app/Threads/Thread_cmd/Thread_cmd.c **** 		nret = -1;
  34:./app/Threads/Thread_cmd/Thread_cmd.c **** 	}
  35:./app/Threads/Thread_cmd/Thread_cmd.c **** 	else
  36:./app/Threads/Thread_cmd/Thread_cmd.c **** 	{
  37:./app/Threads/Thread_cmd/Thread_cmd.c **** 		if (nret == 0)
  72              		.loc 1 37 3 is_stmt 1 view .LVU6
  73              	.LBB2:
  38:./app/Threads/Thread_cmd/Thread_cmd.c **** 		{
  39:./app/Threads/Thread_cmd/Thread_cmd.c ****             //Êï∞ÊçÆÊé•Êî∂ÊàêÂäüÔºåÊ∏ÖÊ¥óÊï∞ÊçÆ
  40:./app/Threads/Thread_cmd/Thread_cmd.c ****             char *command = (char *)Uart_Receive_Data.rxbuf; // ÊåáÂêë cmd_data.data ÁöÑËµ∑ÂßãÂú∞Âù
  74              		.loc 1 40 13 view .LVU7
  75              	.LVL2:
  41:./app/Threads/Thread_cmd/Thread_cmd.c ****             char *angle_str;
  76              		.loc 1 41 13 view .LVU8
  42:./app/Threads/Thread_cmd/Thread_cmd.c **** 			      char *torque_str;
  77              		.loc 1 42 10 view .LVU9
  43:./app/Threads/Thread_cmd/Thread_cmd.c **** 
  44:./app/Threads/Thread_cmd/Thread_cmd.c ****             angle_str = strstr(command, "set_angle:"); // ÊâæÂà∞ "set_angle:" ÁöÑ‰ΩçÁΩÆ
  78              		.loc 1 44 13 view .LVU10
  79              		.loc 1 44 25 is_stmt 0 view .LVU11
  80 000c 1E49     		ldr	r1, .L7+4
  81 000e 1F48     		ldr	r0, .L7+8
  82              	.LVL3:
  83              		.loc 1 44 25 view .LVU12
  84 0010 FFF7FEFF 		bl	strstr
  85              	.LVL4:
  45:./app/Threads/Thread_cmd/Thread_cmd.c ****             if (angle_str != NULL) {
  86              		.loc 1 45 13 is_stmt 1 view .LVU13
  87              		.loc 1 45 16 is_stmt 0 view .LVU14
  88 0014 78B1     		cbz	r0, .L3
  89              	.LBB3:
  46:./app/Threads/Thread_cmd/Thread_cmd.c ****                 angle_str += strlen("set_angle:"); // ÊåáÂêëËßíÂ∫¶ÂÄºÁöÑËµ∑Âßã‰ΩçÁΩÆ
  90              		.loc 1 46 17 is_stmt 1 view .LVU15
  91              	.LVL5:
  47:./app/Threads/Thread_cmd/Thread_cmd.c ****                 double angle = atof(angle_str); // Â∞ÜÂ≠óÁ¨¶‰∏≤ËΩ¨Êç¢‰∏∫ÊµÆÁÇπÊï∞
  92              		.loc 1 47 17 view .LVU16
  93              		.loc 1 47 32 is_stmt 0 view .LVU17
  94 0016 0A30     		adds	r0, r0, #10
  95              	.LVL6:
  96              		.loc 1 47 32 view .LVU18
  97 0018 FFF7FEFF 		bl	atof
  98              	.LVL7:
  99              		.loc 1 47 32 view .LVU19
 100 001c 55EC104B 		vmov	r4, r5, d0
  48:./app/Threads/Thread_cmd/Thread_cmd.c ****                 printf("%lf\r\n",angle);
 101              		.loc 1 48 17 is_stmt 1 view .LVU20
 102 0020 10EE102A 		vmov	r2, s0	@ int
 103 0024 2B46     		mov	r3, r5
 104 0026 1A48     		ldr	r0, .L7+12
 105 0028 FFF7FEFF 		bl	printf
 106              	.LVL8:
  49:./app/Threads/Thread_cmd/Thread_cmd.c ****                 printf("ËÆæÁΩÆËßíÂ∫¶‰∏∫:%lf\r\n",angle);
 107              		.loc 1 49 17 view .LVU21
 108 002c 2246     		mov	r2, r4
ARM GAS  C:\Users\Dennis\AppData\Local\Temp\cc16UdTA.s 			page 4


 109 002e 2B46     		mov	r3, r5
 110 0030 1848     		ldr	r0, .L7+16
 111 0032 FFF7FEFF 		bl	printf
 112              	.LVL9:
 113              	.L3:
 114              		.loc 1 49 17 is_stmt 0 view .LVU22
 115              	.LBE3:
  50:./app/Threads/Thread_cmd/Thread_cmd.c ****             }
  51:./app/Threads/Thread_cmd/Thread_cmd.c **** 			      torque_str = strstr(command, "set_torque:"); // ÊâæÂà∞ "set_torque:" ÁöÑ‰ΩçÁΩÆ
 116              		.loc 1 51 10 is_stmt 1 view .LVU23
 117              		.loc 1 51 23 is_stmt 0 view .LVU24
 118 0036 1849     		ldr	r1, .L7+20
 119 0038 1448     		ldr	r0, .L7+8
 120 003a FFF7FEFF 		bl	strstr
 121              	.LVL10:
  52:./app/Threads/Thread_cmd/Thread_cmd.c ****             if (torque_str != NULL) {
 122              		.loc 1 52 13 is_stmt 1 view .LVU25
 123              		.loc 1 52 16 is_stmt 0 view .LVU26
 124 003e 38B1     		cbz	r0, .L4
 125              	.LBB4:
  53:./app/Threads/Thread_cmd/Thread_cmd.c ****                 torque_str += strlen("set_torque:"); // ÊåáÂêëÂäõÁü©ÂÄºÁöÑËµ∑Âßã‰ΩçÁΩÆ
 126              		.loc 1 53 17 is_stmt 1 view .LVU27
 127              	.LVL11:
  54:./app/Threads/Thread_cmd/Thread_cmd.c ****                 // printf("%s\r\n",torque_str);
  55:./app/Threads/Thread_cmd/Thread_cmd.c ****                 double torque = atof(torque_str); // Â∞ÜÂ≠óÁ¨¶‰∏≤ËΩ¨Êç¢‰∏∫ÊµÆÁÇπÊï∞
 128              		.loc 1 55 17 view .LVU28
 129              		.loc 1 55 33 is_stmt 0 view .LVU29
 130 0040 0B30     		adds	r0, r0, #11
 131              	.LVL12:
 132              		.loc 1 55 33 view .LVU30
 133 0042 FFF7FEFF 		bl	atof
 134              	.LVL13:
 135              		.loc 1 55 33 view .LVU31
 136 0046 53EC102B 		vmov	r2, r3, d0
 137              	.LVL14:
  56:./app/Threads/Thread_cmd/Thread_cmd.c ****                 printf("ËÆæÁΩÆÂäõÁü©‰∏∫:%lf\r\n",torque);
 138              		.loc 1 56 17 is_stmt 1 view .LVU32
 139 004a 1448     		ldr	r0, .L7+24
 140 004c FFF7FEFF 		bl	printf
 141              	.LVL15:
 142              	.L4:
 143              		.loc 1 56 17 is_stmt 0 view .LVU33
 144              	.LBE4:
 145              	.LBE2:
  57:./app/Threads/Thread_cmd/Thread_cmd.c ****             }
  58:./app/Threads/Thread_cmd/Thread_cmd.c **** 
  59:./app/Threads/Thread_cmd/Thread_cmd.c **** 
  60:./app/Threads/Thread_cmd/Thread_cmd.c **** 		}
  61:./app/Threads/Thread_cmd/Thread_cmd.c **** 		Uart_Receive_Data.rxok = 0;
 146              		.loc 1 61 3 is_stmt 1 view .LVU34
 147              		.loc 1 61 26 is_stmt 0 view .LVU35
 148 0050 0C4D     		ldr	r5, .L7
 149 0052 0024     		movs	r4, #0
 150 0054 6C70     		strb	r4, [r5, #1]
  62:./app/Threads/Thread_cmd/Thread_cmd.c **** 		__HAL_UART_ENABLE_IT(huart, UART_IT_IDLE);
 151              		.loc 1 62 3 is_stmt 1 view .LVU36
 152 0056 3268     		ldr	r2, [r6]
ARM GAS  C:\Users\Dennis\AppData\Local\Temp\cc16UdTA.s 			page 5


 153 0058 D368     		ldr	r3, [r2, #12]
 154 005a 43F01003 		orr	r3, r3, #16
 155 005e D360     		str	r3, [r2, #12]
  63:./app/Threads/Thread_cmd/Thread_cmd.c **** 		memset(Uart_Receive_Data.rxbuf, 0, UART_RECEIVE_IDLE_RX_MAXLEN);
 156              		.loc 1 63 3 view .LVU37
 157 0060 0235     		adds	r5, r5, #2
 158 0062 4FF48077 		mov	r7, #256
 159 0066 3A46     		mov	r2, r7
 160 0068 2146     		mov	r1, r4
 161 006a 2846     		mov	r0, r5
 162 006c FFF7FEFF 		bl	memset
 163              	.LVL16:
  64:./app/Threads/Thread_cmd/Thread_cmd.c **** 		HAL_UART_Receive_DMA(huart, Uart_Receive_Data.rxbuf, UART_RECEIVE_IDLE_RX_MAXLEN);
 164              		.loc 1 64 3 view .LVU38
 165 0070 3A46     		mov	r2, r7
 166 0072 2946     		mov	r1, r5
 167 0074 3046     		mov	r0, r6
 168 0076 FFF7FEFF 		bl	HAL_UART_Receive_DMA
 169              	.LVL17:
  30:./app/Threads/Thread_cmd/Thread_cmd.c **** 	if (Uart_Receive_Data.rxok == 0)
 170              		.loc 1 30 9 is_stmt 0 view .LVU39
 171 007a 2046     		mov	r0, r4
 172              	.LVL18:
 173              	.L2:
  65:./app/Threads/Thread_cmd/Thread_cmd.c **** 	}
  66:./app/Threads/Thread_cmd/Thread_cmd.c ****     // printf("Get_Cmd_nret: %d\r\n",nret);
  67:./app/Threads/Thread_cmd/Thread_cmd.c **** 	return nret;
 174              		.loc 1 67 2 is_stmt 1 view .LVU40
  68:./app/Threads/Thread_cmd/Thread_cmd.c **** }
 175              		.loc 1 68 1 is_stmt 0 view .LVU41
 176 007c F8BD     		pop	{r3, r4, r5, r6, r7, pc}
 177              	.LVL19:
 178              	.L5:
  33:./app/Threads/Thread_cmd/Thread_cmd.c **** 	}
 179              		.loc 1 33 8 view .LVU42
 180 007e 4FF0FF30 		mov	r0, #-1
 181              	.LVL20:
  33:./app/Threads/Thread_cmd/Thread_cmd.c **** 	}
 182              		.loc 1 33 8 view .LVU43
 183 0082 FBE7     		b	.L2
 184              	.L8:
 185              		.align	2
 186              	.L7:
 187 0084 00000000 		.word	.LANCHOR0
 188 0088 00000000 		.word	.LC0
 189 008c 02000000 		.word	.LANCHOR0+2
 190 0090 0C000000 		.word	.LC1
 191 0094 14000000 		.word	.LC2
 192 0098 2C000000 		.word	.LC3
 193 009c 38000000 		.word	.LC4
 194              		.cfi_endproc
 195              	.LFE250:
 197              		.section	.text.BSP_UART_IDLE_CallBack,"ax",%progbits
 198              		.align	1
 199              		.global	BSP_UART_IDLE_CallBack
 200              		.syntax unified
 201              		.thumb
ARM GAS  C:\Users\Dennis\AppData\Local\Temp\cc16UdTA.s 			page 6


 202              		.thumb_func
 204              	BSP_UART_IDLE_CallBack:
 205              	.LVL21:
 206              	.LFB251:
  69:./app/Threads/Thread_cmd/Thread_cmd.c **** 
  70:./app/Threads/Thread_cmd/Thread_cmd.c **** 
  71:./app/Threads/Thread_cmd/Thread_cmd.c **** void BSP_UART_IDLE_CallBack(UART_HandleTypeDef *huart)
  72:./app/Threads/Thread_cmd/Thread_cmd.c **** {
 207              		.loc 1 72 1 is_stmt 1 view -0
 208              		.cfi_startproc
 209              		@ args = 0, pretend = 0, frame = 8
 210              		@ frame_needed = 0, uses_anonymous_args = 0
  73:./app/Threads/Thread_cmd/Thread_cmd.c **** 	if ((__HAL_UART_GET_FLAG(huart, UART_FLAG_IDLE) != RESET))
 211              		.loc 1 73 2 view .LVU45
 212              		.loc 1 73 7 is_stmt 0 view .LVU46
 213 0000 0368     		ldr	r3, [r0]
 214 0002 1B68     		ldr	r3, [r3]
 215              		.loc 1 73 5 view .LVU47
 216 0004 13F0100F 		tst	r3, #16
 217 0008 00D1     		bne	.L15
 218 000a 7047     		bx	lr
 219              	.L15:
  72:./app/Threads/Thread_cmd/Thread_cmd.c **** 	if ((__HAL_UART_GET_FLAG(huart, UART_FLAG_IDLE) != RESET))
 220              		.loc 1 72 1 view .LVU48
 221 000c 10B5     		push	{r4, lr}
 222              	.LCFI1:
 223              		.cfi_def_cfa_offset 8
 224              		.cfi_offset 4, -8
 225              		.cfi_offset 14, -4
 226 000e 82B0     		sub	sp, sp, #8
 227              	.LCFI2:
 228              		.cfi_def_cfa_offset 16
 229 0010 0446     		mov	r4, r0
  74:./app/Threads/Thread_cmd/Thread_cmd.c **** 	{
  75:./app/Threads/Thread_cmd/Thread_cmd.c **** 		HAL_UART_DMAStop(huart);
 230              		.loc 1 75 3 is_stmt 1 view .LVU49
 231 0012 FFF7FEFF 		bl	HAL_UART_DMAStop
 232              	.LVL22:
  76:./app/Threads/Thread_cmd/Thread_cmd.c **** 		__HAL_UART_CLEAR_IDLEFLAG(huart);
 233              		.loc 1 76 3 view .LVU50
 234              	.LBB5:
 235              		.loc 1 76 3 view .LVU51
 236 0016 0023     		movs	r3, #0
 237 0018 0193     		str	r3, [sp, #4]
 238              		.loc 1 76 3 view .LVU52
 239 001a 2368     		ldr	r3, [r4]
 240 001c 1A68     		ldr	r2, [r3]
 241 001e 0192     		str	r2, [sp, #4]
 242              		.loc 1 76 3 view .LVU53
 243 0020 5B68     		ldr	r3, [r3, #4]
 244 0022 0193     		str	r3, [sp, #4]
 245              		.loc 1 76 3 view .LVU54
 246 0024 019B     		ldr	r3, [sp, #4]
 247              	.LBE5:
 248              		.loc 1 76 3 view .LVU55
  77:./app/Threads/Thread_cmd/Thread_cmd.c **** 		Uart_Receive_Data.rxlen = UART_RECEIVE_IDLE_RX_MAXLEN - __HAL_DMA_GET_COUNTER(huart->hdmarx);
 249              		.loc 1 77 3 view .LVU56
ARM GAS  C:\Users\Dennis\AppData\Local\Temp\cc16UdTA.s 			page 7


 250              		.loc 1 77 59 is_stmt 0 view .LVU57
 251 0026 E36B     		ldr	r3, [r4, #60]
 252 0028 1B68     		ldr	r3, [r3]
 253 002a 5B68     		ldr	r3, [r3, #4]
 254              		.loc 1 77 57 view .LVU58
 255 002c 5B42     		rsbs	r3, r3, #0
 256 002e DBB2     		uxtb	r3, r3
 257              		.loc 1 77 27 view .LVU59
 258 0030 024A     		ldr	r2, .L16
 259 0032 1370     		strb	r3, [r2]
  78:./app/Threads/Thread_cmd/Thread_cmd.c **** 		Uart_Receive_Data.rxok = 1;
 260              		.loc 1 78 3 is_stmt 1 view .LVU60
 261              		.loc 1 78 26 is_stmt 0 view .LVU61
 262 0034 0123     		movs	r3, #1
 263 0036 5370     		strb	r3, [r2, #1]
  79:./app/Threads/Thread_cmd/Thread_cmd.c **** 	}
  80:./app/Threads/Thread_cmd/Thread_cmd.c **** }
 264              		.loc 1 80 1 view .LVU62
 265 0038 02B0     		add	sp, sp, #8
 266              	.LCFI3:
 267              		.cfi_def_cfa_offset 8
 268              		@ sp needed
 269 003a 10BD     		pop	{r4, pc}
 270              	.LVL23:
 271              	.L17:
 272              		.loc 1 80 1 view .LVU63
 273              		.align	2
 274              	.L16:
 275 003c 00000000 		.word	.LANCHOR0
 276              		.cfi_endproc
 277              	.LFE251:
 279              		.section	.text.Thread_Cmd_Entry,"ax",%progbits
 280              		.align	1
 281              		.global	Thread_Cmd_Entry
 282              		.syntax unified
 283              		.thumb
 284              		.thumb_func
 286              	Thread_Cmd_Entry:
 287              	.LFB252:
  81:./app/Threads/Thread_cmd/Thread_cmd.c **** 
  82:./app/Threads/Thread_cmd/Thread_cmd.c **** /*******************************************************************************
  83:./app/Threads/Thread_cmd/Thread_cmd.c **** * Function Name  : Thread_Cmd_Entry
  84:./app/Threads/Thread_cmd/Thread_cmd.c **** * Description    : Thread_Cmd_EntryÁ∫øÁ®ã
  85:./app/Threads/Thread_cmd/Thread_cmd.c **** * Input          : ULONG thread_input
  86:./app/Threads/Thread_cmd/Thread_cmd.c **** * Output         : None
  87:./app/Threads/Thread_cmd/Thread_cmd.c **** * Return         : None
  88:./app/Threads/Thread_cmd/Thread_cmd.c **** * Note			 : Âø´ÈÄüÂàõÂª∫Á∫øÁ®ãdemo
  89:./app/Threads/Thread_cmd/Thread_cmd.c **** *******************************************************************************/
  90:./app/Threads/Thread_cmd/Thread_cmd.c **** void Thread_Cmd_Entry(ULONG thread_input)
  91:./app/Threads/Thread_cmd/Thread_cmd.c **** {
 288              		.loc 1 91 1 is_stmt 1 view -0
 289              		.cfi_startproc
 290              		@ Volatile: function does not return.
 291              		@ args = 0, pretend = 0, frame = 0
 292              		@ frame_needed = 0, uses_anonymous_args = 0
 293              	.LVL24:
 294              		.loc 1 91 1 is_stmt 0 view .LVU65
ARM GAS  C:\Users\Dennis\AppData\Local\Temp\cc16UdTA.s 			page 8


 295 0000 08B5     		push	{r3, lr}
 296              	.LCFI4:
 297              		.cfi_def_cfa_offset 8
 298              		.cfi_offset 3, -8
 299              		.cfi_offset 14, -4
 300              	.LVL25:
 301              	.L19:
  92:./app/Threads/Thread_cmd/Thread_cmd.c **** 	thread_input = (uint8_t )thread_input;
  93:./app/Threads/Thread_cmd/Thread_cmd.c **** 
  94:./app/Threads/Thread_cmd/Thread_cmd.c **** 	while(1)
 302              		.loc 1 94 2 is_stmt 1 view .LVU66
  95:./app/Threads/Thread_cmd/Thread_cmd.c **** 	{
  96:./app/Threads/Thread_cmd/Thread_cmd.c ****     if (Get_Cmd(&DEBUG_UART) == 0)   //Êé•Êî∂Âà∞Êï∞ÊçÆ
 303              		.loc 1 96 5 view .LVU67
 304              		.loc 1 96 9 is_stmt 0 view .LVU68
 305 0002 0348     		ldr	r0, .L21
 306 0004 FFF7FEFF 		bl	Get_Cmd
 307              	.LVL26:
  97:./app/Threads/Thread_cmd/Thread_cmd.c ****     {
  98:./app/Threads/Thread_cmd/Thread_cmd.c ****         //Â§ÑÁêÜÊï∞ÊçÆ
  99:./app/Threads/Thread_cmd/Thread_cmd.c **** 
 100:./app/Threads/Thread_cmd/Thread_cmd.c ****     }
 101:./app/Threads/Thread_cmd/Thread_cmd.c ****     else
 102:./app/Threads/Thread_cmd/Thread_cmd.c ****     {
 103:./app/Threads/Thread_cmd/Thread_cmd.c ****         //Â§ÑÁêÜÊé•Êî∂ÈîôËØØ
 104:./app/Threads/Thread_cmd/Thread_cmd.c ****     }
 308              		.loc 1 104 5 is_stmt 1 view .LVU69
 105:./app/Threads/Thread_cmd/Thread_cmd.c ****     
 106:./app/Threads/Thread_cmd/Thread_cmd.c ****         tx_thread_sleep(2);
 309              		.loc 1 106 9 view .LVU70
 310 0008 0220     		movs	r0, #2
 311 000a FFF7FEFF 		bl	_tx_thread_sleep
 312              	.LVL27:
  94:./app/Threads/Thread_cmd/Thread_cmd.c **** 	{
 313              		.loc 1 94 7 view .LVU71
 314 000e F8E7     		b	.L19
 315              	.L22:
 316              		.align	2
 317              	.L21:
 318 0010 00000000 		.word	huart1
 319              		.cfi_endproc
 320              	.LFE252:
 322              		.global	Uart_Receive_Data
 323              		.global	Thread_Cmd_parama1
 324              		.global	Thread_Cmd
 325              		.section	.bss.Thread_Cmd,"aw",%nobits
 326              		.align	2
 329              	Thread_Cmd:
 330 0000 00000000 		.space	176
 330      00000000 
 330      00000000 
 330      00000000 
 330      00000000 
 331              		.section	.bss.Thread_Cmd_parama1,"aw",%nobits
 332              		.align	2
 335              	Thread_Cmd_parama1:
 336 0000 00000000 		.space	36
ARM GAS  C:\Users\Dennis\AppData\Local\Temp\cc16UdTA.s 			page 9


 336      00000000 
 336      00000000 
 336      00000000 
 336      00000000 
 337              		.section	.data.Uart_Receive_Data,"aw"
 338              		.align	2
 339              		.set	.LANCHOR0,. + 0
 342              	Uart_Receive_Data:
 343 0000 00       		.byte	0
 344 0001 01       		.byte	1
 345 0002 00000000 		.space	256
 345      00000000 
 345      00000000 
 345      00000000 
 345      00000000 
 346              		.text
 347              	.Letext0:
 348              		.file 2 "c:\\software_user\\armgcc\\arm-none-eabi\\include\\machine\\_default_types.h"
 349              		.file 3 "./Middlewares/ST/threadx/ports/cortex_m4/gnu/inc/tx_port.h"
 350              		.file 4 "./Middlewares/ST/threadx/common/inc/tx_api.h"
 351              		.file 5 "c:\\software_user\\armgcc\\arm-none-eabi\\include\\sys\\_stdint.h"
 352              		.file 6 "./Drivers/CMSIS/Device/ST/STM32F4xx/Include/stm32f407xx.h"
 353              		.file 7 "./Drivers/CMSIS/Device/ST/STM32F4xx/Include/stm32f4xx.h"
 354              		.file 8 "./Drivers/STM32F4xx_HAL_Driver/Inc/stm32f4xx_hal_def.h"
 355              		.file 9 "./Drivers/STM32F4xx_HAL_Driver/Inc/stm32f4xx_hal_dma.h"
 356              		.file 10 "./Drivers/STM32F4xx_HAL_Driver/Inc/stm32f4xx_hal_uart.h"
 357              		.file 11 "./app/Threads/Thread_cmd/Thread_cmd.h"
 358              		.file 12 "./Core/Inc/usart.h"
 359              		.file 13 "c:\\software_user\\armgcc\\arm-none-eabi\\include\\stdlib.h"
 360              		.file 14 "c:\\software_user\\armgcc\\arm-none-eabi\\include\\stdio.h"
 361              		.file 15 "c:\\software_user\\armgcc\\arm-none-eabi\\include\\string.h"
 362              		.file 16 "<built-in>"
ARM GAS  C:\Users\Dennis\AppData\Local\Temp\cc16UdTA.s 			page 10


DEFINED SYMBOLS
                            *ABS*:00000000 Thread_cmd.c
C:\Users\Dennis\AppData\Local\Temp\cc16UdTA.s:20     .rodata.Get_Cmd.str1.4:00000000 $d
C:\Users\Dennis\AppData\Local\Temp\cc16UdTA.s:38     .text.Get_Cmd:00000000 $t
C:\Users\Dennis\AppData\Local\Temp\cc16UdTA.s:44     .text.Get_Cmd:00000000 Get_Cmd
C:\Users\Dennis\AppData\Local\Temp\cc16UdTA.s:187    .text.Get_Cmd:00000084 $d
C:\Users\Dennis\AppData\Local\Temp\cc16UdTA.s:198    .text.BSP_UART_IDLE_CallBack:00000000 $t
C:\Users\Dennis\AppData\Local\Temp\cc16UdTA.s:204    .text.BSP_UART_IDLE_CallBack:00000000 BSP_UART_IDLE_CallBack
C:\Users\Dennis\AppData\Local\Temp\cc16UdTA.s:275    .text.BSP_UART_IDLE_CallBack:0000003c $d
C:\Users\Dennis\AppData\Local\Temp\cc16UdTA.s:280    .text.Thread_Cmd_Entry:00000000 $t
C:\Users\Dennis\AppData\Local\Temp\cc16UdTA.s:286    .text.Thread_Cmd_Entry:00000000 Thread_Cmd_Entry
C:\Users\Dennis\AppData\Local\Temp\cc16UdTA.s:318    .text.Thread_Cmd_Entry:00000010 $d
C:\Users\Dennis\AppData\Local\Temp\cc16UdTA.s:342    .data.Uart_Receive_Data:00000000 Uart_Receive_Data
C:\Users\Dennis\AppData\Local\Temp\cc16UdTA.s:335    .bss.Thread_Cmd_parama1:00000000 Thread_Cmd_parama1
C:\Users\Dennis\AppData\Local\Temp\cc16UdTA.s:329    .bss.Thread_Cmd:00000000 Thread_Cmd
C:\Users\Dennis\AppData\Local\Temp\cc16UdTA.s:326    .bss.Thread_Cmd:00000000 $d
C:\Users\Dennis\AppData\Local\Temp\cc16UdTA.s:332    .bss.Thread_Cmd_parama1:00000000 $d
C:\Users\Dennis\AppData\Local\Temp\cc16UdTA.s:338    .data.Uart_Receive_Data:00000000 $d

UNDEFINED SYMBOLS
strstr
atof
printf
memset
HAL_UART_Receive_DMA
HAL_UART_DMAStop
_tx_thread_sleep
huart1
