ARM GAS  C:\Users\Dennis\AppData\Local\Temp\ccve0uxO.s 			page 1


   1              		.cpu cortex-m4
   2              		.arch armv7e-m
   3              		.fpu fpv4-sp-d16
   4              		.eabi_attribute 27, 1
   5              		.eabi_attribute 28, 1
   6              		.eabi_attribute 20, 1
   7              		.eabi_attribute 21, 1
   8              		.eabi_attribute 23, 3
   9              		.eabi_attribute 24, 1
  10              		.eabi_attribute 25, 1
  11              		.eabi_attribute 26, 1
  12              		.eabi_attribute 30, 1
  13              		.eabi_attribute 34, 1
  14              		.eabi_attribute 18, 4
  15              		.file	"Thread_Motor_Control.c"
  16              		.text
  17              	.Ltext0:
  18              		.cfi_sections	.debug_frame
  19              		.global	__aeabi_d2f
  20              		.global	__aeabi_f2d
  21              		.section	.rodata.Thread_Motor_Control_Entry.str1.4,"aMS",%progbits,1
  22              		.align	2
  23              	.LC0:
  24 0000 25662C00 		.ascii	"%f,\000"
  25              		.align	2
  26              	.LC1:
  27 0004 25660D0A 		.ascii	"%f\015\012\000"
  27      00
  28              		.section	.text.Thread_Motor_Control_Entry,"ax",%progbits
  29              		.align	1
  30              		.global	Thread_Motor_Control_Entry
  31              		.syntax unified
  32              		.thumb
  33              		.thumb_func
  35              	Thread_Motor_Control_Entry:
  36              	.LVL0:
  37              	.LFB250:
  38              		.file 1 "./app/threads/Thread_Motor_Control/Thread_Motor_Control.c"
   1:./app/threads/Thread_Motor_Control/Thread_Motor_Control.c **** /**
   2:./app/threads/Thread_Motor_Control/Thread_Motor_Control.c ****   ******************************************************************************
   3:./app/threads/Thread_Motor_Control/Thread_Motor_Control.c ****   * @file           : Thread_template.c
   4:./app/threads/Thread_Motor_Control/Thread_Motor_Control.c ****   * @brief          : 降低代码耦合
   5:./app/threads/Thread_Motor_Control/Thread_Motor_Control.c ****   ******************************************************************************
   6:./app/threads/Thread_Motor_Control/Thread_Motor_Control.c ****   * @author			  : Dennis_Re_Yoonjiho
   7:./app/threads/Thread_Motor_Control/Thread_Motor_Control.c ****   * @attention		:
   8:./app/threads/Thread_Motor_Control/Thread_Motor_Control.c ****   *	
   9:./app/threads/Thread_Motor_Control/Thread_Motor_Control.c ****   * 						   	Copyright (c) 2021 Dennis_Re_Yoonjiho
  10:./app/threads/Thread_Motor_Control/Thread_Motor_Control.c ****   ******************************************************************************
  11:./app/threads/Thread_Motor_Control/Thread_Motor_Control.c ****   */
  12:./app/threads/Thread_Motor_Control/Thread_Motor_Control.c **** 
  13:./app/threads/Thread_Motor_Control/Thread_Motor_Control.c **** 
  14:./app/threads/Thread_Motor_Control/Thread_Motor_Control.c **** #include "Thread_Motor_Control.h"
  15:./app/threads/Thread_Motor_Control/Thread_Motor_Control.c **** 
  16:./app/threads/Thread_Motor_Control/Thread_Motor_Control.c **** 
  17:./app/threads/Thread_Motor_Control/Thread_Motor_Control.c **** TX_THREAD Thread_Motor_Control;						//实例化线程句柄,线程相关信息
  18:./app/threads/Thread_Motor_Control/Thread_Motor_Control.c **** Thread_Motor_Control_parama Thread_Motor_Control_parama1={
  19:./app/threads/Thread_Motor_Control/Thread_Motor_Control.c ****    .Thread_param1_handle = &Thread_Cmd_parama1,
ARM GAS  C:\Users\Dennis\AppData\Local\Temp\ccve0uxO.s 			page 2


  20:./app/threads/Thread_Motor_Control/Thread_Motor_Control.c **** };	//实例化入口函数的参数
  21:./app/threads/Thread_Motor_Control/Thread_Motor_Control.c **** 
  22:./app/threads/Thread_Motor_Control/Thread_Motor_Control.c **** 
  23:./app/threads/Thread_Motor_Control/Thread_Motor_Control.c **** 
  24:./app/threads/Thread_Motor_Control/Thread_Motor_Control.c **** 
  25:./app/threads/Thread_Motor_Control/Thread_Motor_Control.c **** /*******************************************************************************
  26:./app/threads/Thread_Motor_Control/Thread_Motor_Control.c **** * Function Name  : Thread_Motor_Control_Entry
  27:./app/threads/Thread_Motor_Control/Thread_Motor_Control.c **** * Description    : Thread_Motor_Control_Entry线程
  28:./app/threads/Thread_Motor_Control/Thread_Motor_Control.c **** * Input          : ULONG thread_input
  29:./app/threads/Thread_Motor_Control/Thread_Motor_Control.c **** * Output         : None
  30:./app/threads/Thread_Motor_Control/Thread_Motor_Control.c **** * Return         : None
  31:./app/threads/Thread_Motor_Control/Thread_Motor_Control.c **** * Note			 : 快速创建线程demo
  32:./app/threads/Thread_Motor_Control/Thread_Motor_Control.c **** *******************************************************************************/
  33:./app/threads/Thread_Motor_Control/Thread_Motor_Control.c **** void Thread_Motor_Control_Entry(ULONG thread_input)
  34:./app/threads/Thread_Motor_Control/Thread_Motor_Control.c **** {
  39              		.loc 1 34 1 view -0
  40              		.cfi_startproc
  41              		@ args = 0, pretend = 0, frame = 0
  42              		@ frame_needed = 0, uses_anonymous_args = 0
  43              		.loc 1 34 1 is_stmt 0 view .LVU1
  44 0000 70B5     		push	{r4, r5, r6, lr}
  45              	.LCFI0:
  46              		.cfi_def_cfa_offset 16
  47              		.cfi_offset 4, -16
  48              		.cfi_offset 5, -12
  49              		.cfi_offset 6, -8
  50              		.cfi_offset 14, -4
  35:./app/threads/Thread_Motor_Control/Thread_Motor_Control.c ****     Thread_Motor_Control_parama * thread_param = (Thread_Motor_Control_parama *)thread_input;
  51              		.loc 1 35 5 is_stmt 1 view .LVU2
  52              	.LVL1:
  36:./app/threads/Thread_Motor_Control/Thread_Motor_Control.c ****     Motor* motor1 = (Motor*)thread_param->Motor1_handle;
  53              		.loc 1 36 5 view .LVU3
  54              		.loc 1 36 41 is_stmt 0 view .LVU4
  55 0002 4468     		ldr	r4, [r0, #4]
  56              	.LVL2:
  37:./app/threads/Thread_Motor_Control/Thread_Motor_Control.c ****     Thread_Cmd_parama * thread_cmd_param = (Thread_Cmd_parama *)thread_param->Thread_param1_handle;
  57              		.loc 1 37 5 is_stmt 1 view .LVU5
  58              		.loc 1 37 77 is_stmt 0 view .LVU6
  59 0004 0668     		ldr	r6, [r0]
  60              	.LVL3:
  38:./app/threads/Thread_Motor_Control/Thread_Motor_Control.c ****     // 计算电机零角度
  39:./app/threads/Thread_Motor_Control/Thread_Motor_Control.c ****     aligns_Motor_Zero_Angle(motor1);
  61              		.loc 1 39 5 is_stmt 1 view .LVU7
  62 0006 2046     		mov	r0, r4
  63              	.LVL4:
  64              		.loc 1 39 5 is_stmt 0 view .LVU8
  65 0008 FFF7FEFF 		bl	aligns_Motor_Zero_Angle
  66              	.LVL5:
  40:./app/threads/Thread_Motor_Control/Thread_Motor_Control.c ****     int count = 0;
  67              		.loc 1 40 5 is_stmt 1 view .LVU9
  68              		.loc 1 40 9 is_stmt 0 view .LVU10
  69 000c 0025     		movs	r5, #0
  70 000e 27E0     		b	.L3
  71              	.LVL6:
  72              	.L6:
  41:./app/threads/Thread_Motor_Control/Thread_Motor_Control.c **** 
  42:./app/threads/Thread_Motor_Control/Thread_Motor_Control.c ****     while(1)
ARM GAS  C:\Users\Dennis\AppData\Local\Temp\ccve0uxO.s 			page 3


  43:./app/threads/Thread_Motor_Control/Thread_Motor_Control.c ****     {
  44:./app/threads/Thread_Motor_Control/Thread_Motor_Control.c ****       Read_AS5600_Angle(motor1->As5600_Sensor);
  45:./app/threads/Thread_Motor_Control/Thread_Motor_Control.c ****       // Current_Update(motor1->Inlinecurrent);
  46:./app/threads/Thread_Motor_Control/Thread_Motor_Control.c ****       // 位置闭环
  47:./app/threads/Thread_Motor_Control/Thread_Motor_Control.c ****       // setTorque(motor1,.133*(thread_cmd_param->Cmd_Param_last-motor1->DIR*Get_AS5600_Angle(motor
  48:./app/threads/Thread_Motor_Control/Thread_Motor_Control.c ****       //力矩闭环
  49:./app/threads/Thread_Motor_Control/Thread_Motor_Control.c ****       // setTorque(motor1, thread_cmd_param->Cmd_Param_last, _electricalAngle(motor1));   
  50:./app/threads/Thread_Motor_Control/Thread_Motor_Control.c ****       // 电压速度环
  51:./app/threads/Thread_Motor_Control/Thread_Motor_Control.c ****       Set_Velocity(motor1, thread_cmd_param->Cmd_Param_last);
  52:./app/threads/Thread_Motor_Control/Thread_Motor_Control.c ****       // 电压力矩角度环
  53:./app/threads/Thread_Motor_Control/Thread_Motor_Control.c ****       // Set_Force_Angle(motor1, thread_cmd_param->Cmd_Param_last);
  54:./app/threads/Thread_Motor_Control/Thread_Motor_Control.c ****       // 电压角度速度环
  55:./app/threads/Thread_Motor_Control/Thread_Motor_Control.c ****       // Set_Velocity_Angle(motor1, thread_cmd_param->Cmd_Param_last);
  56:./app/threads/Thread_Motor_Control/Thread_Motor_Control.c ****       if(count++>10)
  57:./app/threads/Thread_Motor_Control/Thread_Motor_Control.c ****       {
  58:./app/threads/Thread_Motor_Control/Thread_Motor_Control.c ****         count = 0;
  73              		.loc 1 58 9 is_stmt 1 view .LVU11
  59:./app/threads/Thread_Motor_Control/Thread_Motor_Control.c ****         printf("%f,", Get_AS5600_Angle(motor1->As5600_Sensor));
  74              		.loc 1 59 9 view .LVU12
  75              		.loc 1 59 23 is_stmt 0 view .LVU13
  76 0010 A06A     		ldr	r0, [r4, #40]
  77 0012 FFF7FEFF 		bl	Get_AS5600_Angle
  78              	.LVL7:
  79 0016 10EE100A 		vmov	r0, s0
  80              		.loc 1 59 9 view .LVU14
  81 001a FFF7FEFF 		bl	__aeabi_f2d
  82              	.LVL8:
  83 001e 0246     		mov	r2, r0
  84 0020 0B46     		mov	r3, r1
  85 0022 184D     		ldr	r5, .L7
  86 0024 2846     		mov	r0, r5
  87 0026 FFF7FEFF 		bl	printf
  88              	.LVL9:
  60:./app/threads/Thread_Motor_Control/Thread_Motor_Control.c ****         printf("%f,", motor1->As5600_Sensor->Angle);
  89              		.loc 1 60 9 is_stmt 1 view .LVU15
  90              		.loc 1 60 29 is_stmt 0 view .LVU16
  91 002a A36A     		ldr	r3, [r4, #40]
  92              		.loc 1 60 9 view .LVU17
  93 002c D868     		ldr	r0, [r3, #12]	@ float
  94 002e FFF7FEFF 		bl	__aeabi_f2d
  95              	.LVL10:
  96 0032 0246     		mov	r2, r0
  97 0034 0B46     		mov	r3, r1
  98 0036 2846     		mov	r0, r5
  99 0038 FFF7FEFF 		bl	printf
 100              	.LVL11:
  61:./app/threads/Thread_Motor_Control/Thread_Motor_Control.c ****         printf("%f,", motor1->As5600_Sensor->Velocity);
 101              		.loc 1 61 9 is_stmt 1 view .LVU18
 102              		.loc 1 61 29 is_stmt 0 view .LVU19
 103 003c A36A     		ldr	r3, [r4, #40]
 104              		.loc 1 61 9 view .LVU20
 105 003e 5868     		ldr	r0, [r3, #4]	@ float
 106 0040 FFF7FEFF 		bl	__aeabi_f2d
 107              	.LVL12:
 108 0044 0246     		mov	r2, r0
 109 0046 0B46     		mov	r3, r1
 110 0048 2846     		mov	r0, r5
ARM GAS  C:\Users\Dennis\AppData\Local\Temp\ccve0uxO.s 			page 4


 111 004a FFF7FEFF 		bl	printf
 112              	.LVL13:
  62:./app/threads/Thread_Motor_Control/Thread_Motor_Control.c ****         printf("%f\r\n",thread_cmd_param->Cmd_Param_last);
 113              		.loc 1 62 9 is_stmt 1 view .LVU21
 114 004e D6E90823 		ldrd	r2, [r6, #32]
 115 0052 0D48     		ldr	r0, .L7+4
 116 0054 FFF7FEFF 		bl	printf
 117              	.LVL14:
  58:./app/threads/Thread_Motor_Control/Thread_Motor_Control.c ****         printf("%f,", Get_AS5600_Angle(motor1->As5600_Sensor));
 118              		.loc 1 58 15 is_stmt 0 view .LVU22
 119 0058 0025     		movs	r5, #0
 120              	.LVL15:
 121              	.L2:
  63:./app/threads/Thread_Motor_Control/Thread_Motor_Control.c ****         // printf("%f,%f,%f\r\n",motor1->Inlinecurrent->I_a, motor1->Inlinecurrent->I_b, motor1->In
  64:./app/threads/Thread_Motor_Control/Thread_Motor_Control.c ****       }
  65:./app/threads/Thread_Motor_Control/Thread_Motor_Control.c ****       // printf("Motor1 Angle: %f\n", motor1->As5600_Sensor->Angle);
  66:./app/threads/Thread_Motor_Control/Thread_Motor_Control.c ****       tx_thread_sleep(1);
 122              		.loc 1 66 7 is_stmt 1 view .LVU23
 123 005a 0120     		movs	r0, #1
 124 005c FFF7FEFF 		bl	_tx_thread_sleep
 125              	.LVL16:
  42:./app/threads/Thread_Motor_Control/Thread_Motor_Control.c ****     {
 126              		.loc 1 42 10 view .LVU24
 127              	.L3:
  42:./app/threads/Thread_Motor_Control/Thread_Motor_Control.c ****     {
 128              		.loc 1 42 5 view .LVU25
  44:./app/threads/Thread_Motor_Control/Thread_Motor_Control.c ****       // Current_Update(motor1->Inlinecurrent);
 129              		.loc 1 44 7 view .LVU26
 130 0060 A06A     		ldr	r0, [r4, #40]
 131 0062 FFF7FEFF 		bl	Read_AS5600_Angle
 132              	.LVL17:
  51:./app/threads/Thread_Motor_Control/Thread_Motor_Control.c ****       // 电压力矩角度环
 133              		.loc 1 51 7 view .LVU27
 134 0066 D6E90801 		ldrd	r0, [r6, #32]
 135 006a FFF7FEFF 		bl	__aeabi_d2f
 136              	.LVL18:
 137 006e 00EE100A 		vmov	s0, r0
 138 0072 2046     		mov	r0, r4
 139 0074 FFF7FEFF 		bl	Set_Velocity
 140              	.LVL19:
  56:./app/threads/Thread_Motor_Control/Thread_Motor_Control.c ****       {
 141              		.loc 1 56 7 view .LVU28
  56:./app/threads/Thread_Motor_Control/Thread_Motor_Control.c ****       {
 142              		.loc 1 56 15 is_stmt 0 view .LVU29
 143 0078 6B1C     		adds	r3, r5, #1
 144              	.LVL20:
  56:./app/threads/Thread_Motor_Control/Thread_Motor_Control.c ****       {
 145              		.loc 1 56 9 view .LVU30
 146 007a 0A2D     		cmp	r5, #10
 147 007c C8DC     		bgt	.L6
  56:./app/threads/Thread_Motor_Control/Thread_Motor_Control.c ****       {
 148              		.loc 1 56 15 view .LVU31
 149 007e 1D46     		mov	r5, r3
 150 0080 EBE7     		b	.L2
 151              	.L8:
 152 0082 00BF     		.align	2
 153              	.L7:
ARM GAS  C:\Users\Dennis\AppData\Local\Temp\ccve0uxO.s 			page 5


 154 0084 00000000 		.word	.LC0
 155 0088 04000000 		.word	.LC1
 156              		.cfi_endproc
 157              	.LFE250:
 159              		.global	Thread_Motor_Control_parama1
 160              		.global	Thread_Motor_Control
 161              		.section	.bss.Thread_Motor_Control,"aw",%nobits
 162              		.align	2
 165              	Thread_Motor_Control:
 166 0000 00000000 		.space	176
 166      00000000 
 166      00000000 
 166      00000000 
 166      00000000 
 167              		.section	.data.Thread_Motor_Control_parama1,"aw"
 168              		.align	2
 171              	Thread_Motor_Control_parama1:
 172 0000 00000000 		.word	Thread_Cmd_parama1
 173 0004 00000000 		.space	4
 174              		.text
 175              	.Letext0:
 176              		.file 2 "c:\\software_user\\armgcc\\arm-none-eabi\\include\\machine\\_default_types.h"
 177              		.file 3 "./Middlewares/ST/threadx/ports/cortex_m4/gnu/inc/tx_port.h"
 178              		.file 4 "./Middlewares/ST/threadx/common/inc/tx_api.h"
 179              		.file 5 "c:\\software_user\\armgcc\\arm-none-eabi\\include\\sys\\_stdint.h"
 180              		.file 6 "./Drivers/CMSIS/Device/ST/STM32F4xx/Include/stm32f407xx.h"
 181              		.file 7 "./Drivers/STM32F4xx_HAL_Driver/Inc/stm32f4xx_hal_def.h"
 182              		.file 8 "./Drivers/STM32F4xx_HAL_Driver/Inc/stm32f4xx_hal_dma.h"
 183              		.file 9 "./Drivers/STM32F4xx_HAL_Driver/Inc/stm32f4xx_hal_i2c.h"
 184              		.file 10 "./app/peripheral/inc/as5600.h"
 185              		.file 11 "./app/algorithm/inc/pid.h"
 186              		.file 12 "./app/algorithm/inc/lowpass_filter.h"
 187              		.file 13 "./app/peripheral/inc/inlinecurrent.h"
 188              		.file 14 "./app/algorithm/inc/ts_foc.h"
 189              		.file 15 "./app/Threads/Thread_cmd/Thread_cmd.h"
 190              		.file 16 "./app/threads/Thread_Motor_Control/Thread_Motor_Control.h"
 191              		.file 17 "c:\\software_user\\armgcc\\arm-none-eabi\\include\\stdio.h"
ARM GAS  C:\Users\Dennis\AppData\Local\Temp\ccve0uxO.s 			page 6


DEFINED SYMBOLS
                            *ABS*:00000000 Thread_Motor_Control.c
C:\Users\Dennis\AppData\Local\Temp\ccve0uxO.s:22     .rodata.Thread_Motor_Control_Entry.str1.4:00000000 $d
C:\Users\Dennis\AppData\Local\Temp\ccve0uxO.s:29     .text.Thread_Motor_Control_Entry:00000000 $t
C:\Users\Dennis\AppData\Local\Temp\ccve0uxO.s:35     .text.Thread_Motor_Control_Entry:00000000 Thread_Motor_Control_Entry
C:\Users\Dennis\AppData\Local\Temp\ccve0uxO.s:154    .text.Thread_Motor_Control_Entry:00000084 $d
C:\Users\Dennis\AppData\Local\Temp\ccve0uxO.s:171    .data.Thread_Motor_Control_parama1:00000000 Thread_Motor_Control_parama1
C:\Users\Dennis\AppData\Local\Temp\ccve0uxO.s:165    .bss.Thread_Motor_Control:00000000 Thread_Motor_Control
C:\Users\Dennis\AppData\Local\Temp\ccve0uxO.s:162    .bss.Thread_Motor_Control:00000000 $d
C:\Users\Dennis\AppData\Local\Temp\ccve0uxO.s:168    .data.Thread_Motor_Control_parama1:00000000 $d

UNDEFINED SYMBOLS
__aeabi_d2f
__aeabi_f2d
aligns_Motor_Zero_Angle
Get_AS5600_Angle
printf
_tx_thread_sleep
Read_AS5600_Angle
Set_Velocity
Thread_Cmd_parama1
