ARM GAS  /tmp/ccgNlioB.s 			page 1


   1              		.cpu cortex-m4
   2              		.arch armv7e-m
   3              		.fpu fpv4-sp-d16
   4              		.eabi_attribute 27, 1
   5              		.eabi_attribute 28, 1
   6              		.eabi_attribute 20, 1
   7              		.eabi_attribute 21, 1
   8              		.eabi_attribute 23, 3
   9              		.eabi_attribute 24, 1
  10              		.eabi_attribute 25, 1
  11              		.eabi_attribute 26, 1
  12              		.eabi_attribute 30, 1
  13              		.eabi_attribute 34, 1
  14              		.eabi_attribute 18, 4
  15              		.file	"tx_event_flags_set.c"
  16              		.text
  17              	.Ltext0:
  18              		.cfi_sections	.debug_frame
  19              		.file 1 "./Middlewares/ST/threadx/common/src/tx_event_flags_set.c"
  20              		.section	.text._tx_event_flags_set,"ax",%progbits
  21              		.align	1
  22              		.global	_tx_event_flags_set
  23              		.syntax unified
  24              		.thumb
  25              		.thumb_func
  27              	_tx_event_flags_set:
  28              	.LVL0:
  29              	.LFB8:
   1:./Middlewares/ST/threadx/common/src/tx_event_flags_set.c **** /**************************************************************************/
   2:./Middlewares/ST/threadx/common/src/tx_event_flags_set.c **** /*                                                                        */
   3:./Middlewares/ST/threadx/common/src/tx_event_flags_set.c **** /*       Copyright (c) Microsoft Corporation. All rights reserved.        */
   4:./Middlewares/ST/threadx/common/src/tx_event_flags_set.c **** /*                                                                        */
   5:./Middlewares/ST/threadx/common/src/tx_event_flags_set.c **** /*       This software is licensed under the Microsoft Software License   */
   6:./Middlewares/ST/threadx/common/src/tx_event_flags_set.c **** /*       Terms for Microsoft Azure RTOS. Full text of the license can be  */
   7:./Middlewares/ST/threadx/common/src/tx_event_flags_set.c **** /*       found in the LICENSE file at https://aka.ms/AzureRTOS_EULA       */
   8:./Middlewares/ST/threadx/common/src/tx_event_flags_set.c **** /*       and in the root directory of this software.                      */
   9:./Middlewares/ST/threadx/common/src/tx_event_flags_set.c **** /*                                                                        */
  10:./Middlewares/ST/threadx/common/src/tx_event_flags_set.c **** /**************************************************************************/
  11:./Middlewares/ST/threadx/common/src/tx_event_flags_set.c **** 
  12:./Middlewares/ST/threadx/common/src/tx_event_flags_set.c **** 
  13:./Middlewares/ST/threadx/common/src/tx_event_flags_set.c **** /**************************************************************************/
  14:./Middlewares/ST/threadx/common/src/tx_event_flags_set.c **** /**************************************************************************/
  15:./Middlewares/ST/threadx/common/src/tx_event_flags_set.c **** /**                                                                       */
  16:./Middlewares/ST/threadx/common/src/tx_event_flags_set.c **** /** ThreadX Component                                                     */
  17:./Middlewares/ST/threadx/common/src/tx_event_flags_set.c **** /**                                                                       */
  18:./Middlewares/ST/threadx/common/src/tx_event_flags_set.c **** /**   Event Flags                                                         */
  19:./Middlewares/ST/threadx/common/src/tx_event_flags_set.c **** /**                                                                       */
  20:./Middlewares/ST/threadx/common/src/tx_event_flags_set.c **** /**************************************************************************/
  21:./Middlewares/ST/threadx/common/src/tx_event_flags_set.c **** /**************************************************************************/
  22:./Middlewares/ST/threadx/common/src/tx_event_flags_set.c **** 
  23:./Middlewares/ST/threadx/common/src/tx_event_flags_set.c **** #define TX_SOURCE_CODE
  24:./Middlewares/ST/threadx/common/src/tx_event_flags_set.c **** 
  25:./Middlewares/ST/threadx/common/src/tx_event_flags_set.c **** 
  26:./Middlewares/ST/threadx/common/src/tx_event_flags_set.c **** /* Include necessary system files.  */
  27:./Middlewares/ST/threadx/common/src/tx_event_flags_set.c **** 
  28:./Middlewares/ST/threadx/common/src/tx_event_flags_set.c **** #include "tx_api.h"
  29:./Middlewares/ST/threadx/common/src/tx_event_flags_set.c **** #include "tx_trace.h"
ARM GAS  /tmp/ccgNlioB.s 			page 2


  30:./Middlewares/ST/threadx/common/src/tx_event_flags_set.c **** #include "tx_thread.h"
  31:./Middlewares/ST/threadx/common/src/tx_event_flags_set.c **** #include "tx_event_flags.h"
  32:./Middlewares/ST/threadx/common/src/tx_event_flags_set.c **** 
  33:./Middlewares/ST/threadx/common/src/tx_event_flags_set.c **** 
  34:./Middlewares/ST/threadx/common/src/tx_event_flags_set.c **** /**************************************************************************/
  35:./Middlewares/ST/threadx/common/src/tx_event_flags_set.c **** /*                                                                        */
  36:./Middlewares/ST/threadx/common/src/tx_event_flags_set.c **** /*  FUNCTION                                               RELEASE        */
  37:./Middlewares/ST/threadx/common/src/tx_event_flags_set.c **** /*                                                                        */
  38:./Middlewares/ST/threadx/common/src/tx_event_flags_set.c **** /*    _tx_event_flags_set                                 PORTABLE C      */
  39:./Middlewares/ST/threadx/common/src/tx_event_flags_set.c **** /*                                                           6.1          */
  40:./Middlewares/ST/threadx/common/src/tx_event_flags_set.c **** /*  AUTHOR                                                                */
  41:./Middlewares/ST/threadx/common/src/tx_event_flags_set.c **** /*                                                                        */
  42:./Middlewares/ST/threadx/common/src/tx_event_flags_set.c **** /*    William E. Lamie, Microsoft Corporation                             */
  43:./Middlewares/ST/threadx/common/src/tx_event_flags_set.c **** /*                                                                        */
  44:./Middlewares/ST/threadx/common/src/tx_event_flags_set.c **** /*  DESCRIPTION                                                           */
  45:./Middlewares/ST/threadx/common/src/tx_event_flags_set.c **** /*                                                                        */
  46:./Middlewares/ST/threadx/common/src/tx_event_flags_set.c **** /*    This function sets the specified flags in the event group based on  */
  47:./Middlewares/ST/threadx/common/src/tx_event_flags_set.c **** /*    the set option specified.  All threads suspended on the group whose */
  48:./Middlewares/ST/threadx/common/src/tx_event_flags_set.c **** /*    get request can now be satisfied are resumed.                       */
  49:./Middlewares/ST/threadx/common/src/tx_event_flags_set.c **** /*                                                                        */
  50:./Middlewares/ST/threadx/common/src/tx_event_flags_set.c **** /*  INPUT                                                                 */
  51:./Middlewares/ST/threadx/common/src/tx_event_flags_set.c **** /*                                                                        */
  52:./Middlewares/ST/threadx/common/src/tx_event_flags_set.c **** /*    group_ptr                         Pointer to group control block    */
  53:./Middlewares/ST/threadx/common/src/tx_event_flags_set.c **** /*    flags_to_set                      Event flags to set                */
  54:./Middlewares/ST/threadx/common/src/tx_event_flags_set.c **** /*    set_option                        Specified either AND or OR        */
  55:./Middlewares/ST/threadx/common/src/tx_event_flags_set.c **** /*                                        operation on the event flags    */
  56:./Middlewares/ST/threadx/common/src/tx_event_flags_set.c **** /*                                                                        */
  57:./Middlewares/ST/threadx/common/src/tx_event_flags_set.c **** /*  OUTPUT                                                                */
  58:./Middlewares/ST/threadx/common/src/tx_event_flags_set.c **** /*                                                                        */
  59:./Middlewares/ST/threadx/common/src/tx_event_flags_set.c **** /*    TX_SUCCESS                        Always returns success            */
  60:./Middlewares/ST/threadx/common/src/tx_event_flags_set.c **** /*                                                                        */
  61:./Middlewares/ST/threadx/common/src/tx_event_flags_set.c **** /*  CALLS                                                                 */
  62:./Middlewares/ST/threadx/common/src/tx_event_flags_set.c **** /*                                                                        */
  63:./Middlewares/ST/threadx/common/src/tx_event_flags_set.c **** /*    _tx_thread_system_preempt_check   Check for preemption              */
  64:./Middlewares/ST/threadx/common/src/tx_event_flags_set.c **** /*    _tx_thread_system_resume          Resume thread service             */
  65:./Middlewares/ST/threadx/common/src/tx_event_flags_set.c **** /*    _tx_thread_system_ni_resume       Non-interruptable resume thread   */
  66:./Middlewares/ST/threadx/common/src/tx_event_flags_set.c **** /*                                                                        */
  67:./Middlewares/ST/threadx/common/src/tx_event_flags_set.c **** /*  CALLED BY                                                             */
  68:./Middlewares/ST/threadx/common/src/tx_event_flags_set.c **** /*                                                                        */
  69:./Middlewares/ST/threadx/common/src/tx_event_flags_set.c **** /*    Application Code                                                    */
  70:./Middlewares/ST/threadx/common/src/tx_event_flags_set.c **** /*                                                                        */
  71:./Middlewares/ST/threadx/common/src/tx_event_flags_set.c **** /*  RELEASE HISTORY                                                       */
  72:./Middlewares/ST/threadx/common/src/tx_event_flags_set.c **** /*                                                                        */
  73:./Middlewares/ST/threadx/common/src/tx_event_flags_set.c **** /*    DATE              NAME                      DESCRIPTION             */
  74:./Middlewares/ST/threadx/common/src/tx_event_flags_set.c **** /*                                                                        */
  75:./Middlewares/ST/threadx/common/src/tx_event_flags_set.c **** /*  05-19-2020     William E. Lamie         Initial Version 6.0           */
  76:./Middlewares/ST/threadx/common/src/tx_event_flags_set.c **** /*  09-30-2020     Yuxin Zhou               Modified comment(s),          */
  77:./Middlewares/ST/threadx/common/src/tx_event_flags_set.c **** /*                                            resulting in version 6.1    */
  78:./Middlewares/ST/threadx/common/src/tx_event_flags_set.c **** /*                                                                        */
  79:./Middlewares/ST/threadx/common/src/tx_event_flags_set.c **** /**************************************************************************/
  80:./Middlewares/ST/threadx/common/src/tx_event_flags_set.c **** UINT  _tx_event_flags_set(TX_EVENT_FLAGS_GROUP *group_ptr, ULONG flags_to_set, UINT set_option)
  81:./Middlewares/ST/threadx/common/src/tx_event_flags_set.c **** {
  30              		.loc 1 81 1 view -0
  31              		.cfi_startproc
  32              		@ args = 0, pretend = 0, frame = 8
  33              		@ frame_needed = 0, uses_anonymous_args = 0
  34              		.loc 1 81 1 is_stmt 0 view .LVU1
ARM GAS  /tmp/ccgNlioB.s 			page 3


  35 0000 2DE9F04F 		push	{r4, r5, r6, r7, r8, r9, r10, fp, lr}
  36              	.LCFI0:
  37              		.cfi_def_cfa_offset 36
  38              		.cfi_offset 4, -36
  39              		.cfi_offset 5, -32
  40              		.cfi_offset 6, -28
  41              		.cfi_offset 7, -24
  42              		.cfi_offset 8, -20
  43              		.cfi_offset 9, -16
  44              		.cfi_offset 10, -12
  45              		.cfi_offset 11, -8
  46              		.cfi_offset 14, -4
  47 0004 83B0     		sub	sp, sp, #12
  48              	.LCFI1:
  49              		.cfi_def_cfa_offset 48
  50 0006 8446     		mov	ip, r0
  82:./Middlewares/ST/threadx/common/src/tx_event_flags_set.c **** 
  83:./Middlewares/ST/threadx/common/src/tx_event_flags_set.c **** TX_INTERRUPT_SAVE_AREA
  51              		.loc 1 83 1 is_stmt 1 view .LVU2
  84:./Middlewares/ST/threadx/common/src/tx_event_flags_set.c **** 
  85:./Middlewares/ST/threadx/common/src/tx_event_flags_set.c **** TX_THREAD       *thread_ptr;
  52              		.loc 1 85 1 view .LVU3
  86:./Middlewares/ST/threadx/common/src/tx_event_flags_set.c **** TX_THREAD       *next_thread_ptr;
  53              		.loc 1 86 1 view .LVU4
  87:./Middlewares/ST/threadx/common/src/tx_event_flags_set.c **** TX_THREAD       *next_thread;
  54              		.loc 1 87 1 view .LVU5
  88:./Middlewares/ST/threadx/common/src/tx_event_flags_set.c **** TX_THREAD       *previous_thread;
  55              		.loc 1 88 1 view .LVU6
  89:./Middlewares/ST/threadx/common/src/tx_event_flags_set.c **** TX_THREAD       *satisfied_list;
  56              		.loc 1 89 1 view .LVU7
  90:./Middlewares/ST/threadx/common/src/tx_event_flags_set.c **** TX_THREAD       *last_satisfied;
  57              		.loc 1 90 1 view .LVU8
  91:./Middlewares/ST/threadx/common/src/tx_event_flags_set.c **** TX_THREAD       *suspended_list;
  58              		.loc 1 91 1 view .LVU9
  92:./Middlewares/ST/threadx/common/src/tx_event_flags_set.c **** UINT            suspended_count;
  59              		.loc 1 92 1 view .LVU10
  93:./Middlewares/ST/threadx/common/src/tx_event_flags_set.c **** ULONG           current_event_flags;
  60              		.loc 1 93 1 view .LVU11
  94:./Middlewares/ST/threadx/common/src/tx_event_flags_set.c **** ULONG           requested_flags;
  61              		.loc 1 94 1 view .LVU12
  95:./Middlewares/ST/threadx/common/src/tx_event_flags_set.c **** ULONG           flags_satisfied;
  62              		.loc 1 95 1 view .LVU13
  96:./Middlewares/ST/threadx/common/src/tx_event_flags_set.c **** ULONG           *suspend_info_ptr;
  63              		.loc 1 96 1 view .LVU14
  97:./Middlewares/ST/threadx/common/src/tx_event_flags_set.c **** UINT            and_request;
  64              		.loc 1 97 1 view .LVU15
  98:./Middlewares/ST/threadx/common/src/tx_event_flags_set.c **** UINT            get_option;
  65              		.loc 1 98 1 view .LVU16
  99:./Middlewares/ST/threadx/common/src/tx_event_flags_set.c **** UINT            clear_request;
  66              		.loc 1 99 1 view .LVU17
 100:./Middlewares/ST/threadx/common/src/tx_event_flags_set.c **** UINT            preempt_check;
  67              		.loc 1 100 1 view .LVU18
 101:./Middlewares/ST/threadx/common/src/tx_event_flags_set.c **** #ifndef TX_NOT_INTERRUPTABLE
 102:./Middlewares/ST/threadx/common/src/tx_event_flags_set.c **** UINT            interrupted_set_request;
  68              		.loc 1 102 1 view .LVU19
 103:./Middlewares/ST/threadx/common/src/tx_event_flags_set.c **** #endif
 104:./Middlewares/ST/threadx/common/src/tx_event_flags_set.c **** #ifndef TX_DISABLE_NOTIFY_CALLBACKS
ARM GAS  /tmp/ccgNlioB.s 			page 4


 105:./Middlewares/ST/threadx/common/src/tx_event_flags_set.c **** VOID            (*events_set_notify)(struct TX_EVENT_FLAGS_GROUP_STRUCT *notify_group_ptr);
 106:./Middlewares/ST/threadx/common/src/tx_event_flags_set.c **** #endif
 107:./Middlewares/ST/threadx/common/src/tx_event_flags_set.c **** 
 108:./Middlewares/ST/threadx/common/src/tx_event_flags_set.c **** 
 109:./Middlewares/ST/threadx/common/src/tx_event_flags_set.c ****     /* Disable interrupts to remove the semaphore from the created list.  */
 110:./Middlewares/ST/threadx/common/src/tx_event_flags_set.c ****     TX_DISABLE
  69              		.loc 1 110 5 view .LVU20
  70              	.LBB36:
  71              	.LBI36:
  72              		.file 2 "./Middlewares/ST/threadx/ports/cortex_m4/gnu/inc/tx_port.h"
   1:./Middlewares/ST/threadx/ports/cortex_m4/gnu/inc/tx_port.h **** /**************************************************************************/
   2:./Middlewares/ST/threadx/ports/cortex_m4/gnu/inc/tx_port.h **** /*                                                                        */
   3:./Middlewares/ST/threadx/ports/cortex_m4/gnu/inc/tx_port.h **** /*       Copyright (c) Microsoft Corporation. All rights reserved.        */
   4:./Middlewares/ST/threadx/ports/cortex_m4/gnu/inc/tx_port.h **** /*                                                                        */
   5:./Middlewares/ST/threadx/ports/cortex_m4/gnu/inc/tx_port.h **** /*       This software is licensed under the Microsoft Software License   */
   6:./Middlewares/ST/threadx/ports/cortex_m4/gnu/inc/tx_port.h **** /*       Terms for Microsoft Azure RTOS. Full text of the license can be  */
   7:./Middlewares/ST/threadx/ports/cortex_m4/gnu/inc/tx_port.h **** /*       found in the LICENSE file at https://aka.ms/AzureRTOS_EULA       */
   8:./Middlewares/ST/threadx/ports/cortex_m4/gnu/inc/tx_port.h **** /*       and in the root directory of this software.                      */
   9:./Middlewares/ST/threadx/ports/cortex_m4/gnu/inc/tx_port.h **** /*                                                                        */
  10:./Middlewares/ST/threadx/ports/cortex_m4/gnu/inc/tx_port.h **** /**************************************************************************/
  11:./Middlewares/ST/threadx/ports/cortex_m4/gnu/inc/tx_port.h **** 
  12:./Middlewares/ST/threadx/ports/cortex_m4/gnu/inc/tx_port.h **** 
  13:./Middlewares/ST/threadx/ports/cortex_m4/gnu/inc/tx_port.h **** /**************************************************************************/
  14:./Middlewares/ST/threadx/ports/cortex_m4/gnu/inc/tx_port.h **** /**************************************************************************/
  15:./Middlewares/ST/threadx/ports/cortex_m4/gnu/inc/tx_port.h **** /**                                                                       */
  16:./Middlewares/ST/threadx/ports/cortex_m4/gnu/inc/tx_port.h **** /** ThreadX Component                                                     */
  17:./Middlewares/ST/threadx/ports/cortex_m4/gnu/inc/tx_port.h **** /**                                                                       */
  18:./Middlewares/ST/threadx/ports/cortex_m4/gnu/inc/tx_port.h **** /**   Port Specific                                                       */
  19:./Middlewares/ST/threadx/ports/cortex_m4/gnu/inc/tx_port.h **** /**                                                                       */
  20:./Middlewares/ST/threadx/ports/cortex_m4/gnu/inc/tx_port.h **** /**************************************************************************/
  21:./Middlewares/ST/threadx/ports/cortex_m4/gnu/inc/tx_port.h **** /**************************************************************************/
  22:./Middlewares/ST/threadx/ports/cortex_m4/gnu/inc/tx_port.h **** 
  23:./Middlewares/ST/threadx/ports/cortex_m4/gnu/inc/tx_port.h **** 
  24:./Middlewares/ST/threadx/ports/cortex_m4/gnu/inc/tx_port.h **** /**************************************************************************/
  25:./Middlewares/ST/threadx/ports/cortex_m4/gnu/inc/tx_port.h **** /*                                                                        */
  26:./Middlewares/ST/threadx/ports/cortex_m4/gnu/inc/tx_port.h **** /*  PORT SPECIFIC C INFORMATION                            RELEASE        */
  27:./Middlewares/ST/threadx/ports/cortex_m4/gnu/inc/tx_port.h **** /*                                                                        */
  28:./Middlewares/ST/threadx/ports/cortex_m4/gnu/inc/tx_port.h **** /*    tx_port.h                                         Cortex-M4/GNU     */
  29:./Middlewares/ST/threadx/ports/cortex_m4/gnu/inc/tx_port.h **** /*                                                           6.1.10       */
  30:./Middlewares/ST/threadx/ports/cortex_m4/gnu/inc/tx_port.h **** /*                                                                        */
  31:./Middlewares/ST/threadx/ports/cortex_m4/gnu/inc/tx_port.h **** /*  AUTHOR                                                                */
  32:./Middlewares/ST/threadx/ports/cortex_m4/gnu/inc/tx_port.h **** /*                                                                        */
  33:./Middlewares/ST/threadx/ports/cortex_m4/gnu/inc/tx_port.h **** /*    Scott Larson, Microsoft Corporation                                 */
  34:./Middlewares/ST/threadx/ports/cortex_m4/gnu/inc/tx_port.h **** /*                                                                        */
  35:./Middlewares/ST/threadx/ports/cortex_m4/gnu/inc/tx_port.h **** /*  DESCRIPTION                                                           */
  36:./Middlewares/ST/threadx/ports/cortex_m4/gnu/inc/tx_port.h **** /*                                                                        */
  37:./Middlewares/ST/threadx/ports/cortex_m4/gnu/inc/tx_port.h **** /*    This file contains data type definitions that make the ThreadX      */
  38:./Middlewares/ST/threadx/ports/cortex_m4/gnu/inc/tx_port.h **** /*    real-time kernel function identically on a variety of different     */
  39:./Middlewares/ST/threadx/ports/cortex_m4/gnu/inc/tx_port.h **** /*    processor architectures.  For example, the size or number of bits   */
  40:./Middlewares/ST/threadx/ports/cortex_m4/gnu/inc/tx_port.h **** /*    in an "int" data type vary between microprocessor architectures and */
  41:./Middlewares/ST/threadx/ports/cortex_m4/gnu/inc/tx_port.h **** /*    even C compilers for the same microprocessor.  ThreadX does not     */
  42:./Middlewares/ST/threadx/ports/cortex_m4/gnu/inc/tx_port.h **** /*    directly use native C data types.  Instead, ThreadX creates its     */
  43:./Middlewares/ST/threadx/ports/cortex_m4/gnu/inc/tx_port.h **** /*    own special types that can be mapped to actual data types by this   */
  44:./Middlewares/ST/threadx/ports/cortex_m4/gnu/inc/tx_port.h **** /*    file to guarantee consistency in the interface and functionality.   */
  45:./Middlewares/ST/threadx/ports/cortex_m4/gnu/inc/tx_port.h **** /*                                                                        */
  46:./Middlewares/ST/threadx/ports/cortex_m4/gnu/inc/tx_port.h **** /*    This file replaces the previous Cortex-M3/M4/M7 files. It unifies   */
  47:./Middlewares/ST/threadx/ports/cortex_m4/gnu/inc/tx_port.h **** /*    the ARMv7-M architecture and compilers into one common file.        */
ARM GAS  /tmp/ccgNlioB.s 			page 5


  48:./Middlewares/ST/threadx/ports/cortex_m4/gnu/inc/tx_port.h **** /*                                                                        */
  49:./Middlewares/ST/threadx/ports/cortex_m4/gnu/inc/tx_port.h **** /*  RELEASE HISTORY                                                       */
  50:./Middlewares/ST/threadx/ports/cortex_m4/gnu/inc/tx_port.h **** /*                                                                        */
  51:./Middlewares/ST/threadx/ports/cortex_m4/gnu/inc/tx_port.h **** /*    DATE              NAME                      DESCRIPTION             */
  52:./Middlewares/ST/threadx/ports/cortex_m4/gnu/inc/tx_port.h **** /*                                                                        */
  53:./Middlewares/ST/threadx/ports/cortex_m4/gnu/inc/tx_port.h **** /*  06-02-2021      Scott Larson            Initial Version 6.1.7         */
  54:./Middlewares/ST/threadx/ports/cortex_m4/gnu/inc/tx_port.h **** /*  01-31-2022      Scott Larson            Modified comments, updated    */
  55:./Middlewares/ST/threadx/ports/cortex_m4/gnu/inc/tx_port.h **** /*                                            typedef to fix misra        */
  56:./Middlewares/ST/threadx/ports/cortex_m4/gnu/inc/tx_port.h **** /*                                            violation,                  */
  57:./Middlewares/ST/threadx/ports/cortex_m4/gnu/inc/tx_port.h **** /*                                            fixed predefined macro,     */
  58:./Middlewares/ST/threadx/ports/cortex_m4/gnu/inc/tx_port.h **** /*                                            resulting in version 6.1.10 */
  59:./Middlewares/ST/threadx/ports/cortex_m4/gnu/inc/tx_port.h **** /*                                                                        */
  60:./Middlewares/ST/threadx/ports/cortex_m4/gnu/inc/tx_port.h **** /**************************************************************************/
  61:./Middlewares/ST/threadx/ports/cortex_m4/gnu/inc/tx_port.h **** 
  62:./Middlewares/ST/threadx/ports/cortex_m4/gnu/inc/tx_port.h **** #ifndef TX_PORT_H
  63:./Middlewares/ST/threadx/ports/cortex_m4/gnu/inc/tx_port.h **** #define TX_PORT_H
  64:./Middlewares/ST/threadx/ports/cortex_m4/gnu/inc/tx_port.h **** 
  65:./Middlewares/ST/threadx/ports/cortex_m4/gnu/inc/tx_port.h **** 
  66:./Middlewares/ST/threadx/ports/cortex_m4/gnu/inc/tx_port.h **** /* Determine if the optional ThreadX user define file should be used.  */
  67:./Middlewares/ST/threadx/ports/cortex_m4/gnu/inc/tx_port.h **** 
  68:./Middlewares/ST/threadx/ports/cortex_m4/gnu/inc/tx_port.h **** #ifdef TX_INCLUDE_USER_DEFINE_FILE
  69:./Middlewares/ST/threadx/ports/cortex_m4/gnu/inc/tx_port.h **** 
  70:./Middlewares/ST/threadx/ports/cortex_m4/gnu/inc/tx_port.h **** /* Yes, include the user defines in tx_user.h. The defines in this file may
  71:./Middlewares/ST/threadx/ports/cortex_m4/gnu/inc/tx_port.h ****    alternately be defined on the command line.  */
  72:./Middlewares/ST/threadx/ports/cortex_m4/gnu/inc/tx_port.h **** 
  73:./Middlewares/ST/threadx/ports/cortex_m4/gnu/inc/tx_port.h **** #include "tx_user.h"
  74:./Middlewares/ST/threadx/ports/cortex_m4/gnu/inc/tx_port.h **** #endif
  75:./Middlewares/ST/threadx/ports/cortex_m4/gnu/inc/tx_port.h **** 
  76:./Middlewares/ST/threadx/ports/cortex_m4/gnu/inc/tx_port.h **** 
  77:./Middlewares/ST/threadx/ports/cortex_m4/gnu/inc/tx_port.h **** /* Define compiler library include files.  */
  78:./Middlewares/ST/threadx/ports/cortex_m4/gnu/inc/tx_port.h **** 
  79:./Middlewares/ST/threadx/ports/cortex_m4/gnu/inc/tx_port.h **** #include <stdlib.h>
  80:./Middlewares/ST/threadx/ports/cortex_m4/gnu/inc/tx_port.h **** #include <string.h>
  81:./Middlewares/ST/threadx/ports/cortex_m4/gnu/inc/tx_port.h **** 
  82:./Middlewares/ST/threadx/ports/cortex_m4/gnu/inc/tx_port.h **** #ifdef __ICCARM__
  83:./Middlewares/ST/threadx/ports/cortex_m4/gnu/inc/tx_port.h **** #include <intrinsics.h>                     /* IAR Intrinsics */
  84:./Middlewares/ST/threadx/ports/cortex_m4/gnu/inc/tx_port.h **** #define __asm__ __asm                       /* Define to make all inline asm look similar */
  85:./Middlewares/ST/threadx/ports/cortex_m4/gnu/inc/tx_port.h **** #ifdef  TX_ENABLE_IAR_LIBRARY_SUPPORT
  86:./Middlewares/ST/threadx/ports/cortex_m4/gnu/inc/tx_port.h **** #include <yvals.h>
  87:./Middlewares/ST/threadx/ports/cortex_m4/gnu/inc/tx_port.h **** #endif
  88:./Middlewares/ST/threadx/ports/cortex_m4/gnu/inc/tx_port.h **** #endif /* __ICCARM__ */
  89:./Middlewares/ST/threadx/ports/cortex_m4/gnu/inc/tx_port.h **** 
  90:./Middlewares/ST/threadx/ports/cortex_m4/gnu/inc/tx_port.h **** #ifdef __ghs__
  91:./Middlewares/ST/threadx/ports/cortex_m4/gnu/inc/tx_port.h **** #include <arm_ghs.h>
  92:./Middlewares/ST/threadx/ports/cortex_m4/gnu/inc/tx_port.h **** #include "tx_ghs.h"
  93:./Middlewares/ST/threadx/ports/cortex_m4/gnu/inc/tx_port.h **** #endif  /* __ghs__ */
  94:./Middlewares/ST/threadx/ports/cortex_m4/gnu/inc/tx_port.h **** 
  95:./Middlewares/ST/threadx/ports/cortex_m4/gnu/inc/tx_port.h **** 
  96:./Middlewares/ST/threadx/ports/cortex_m4/gnu/inc/tx_port.h **** #if !defined(__GNUC__) && !defined(__CC_ARM)
  97:./Middlewares/ST/threadx/ports/cortex_m4/gnu/inc/tx_port.h **** #define __get_control_value __get_CONTROL
  98:./Middlewares/ST/threadx/ports/cortex_m4/gnu/inc/tx_port.h **** #define __set_control_value __set_CONTROL
  99:./Middlewares/ST/threadx/ports/cortex_m4/gnu/inc/tx_port.h **** #endif
 100:./Middlewares/ST/threadx/ports/cortex_m4/gnu/inc/tx_port.h **** 
 101:./Middlewares/ST/threadx/ports/cortex_m4/gnu/inc/tx_port.h **** #ifndef __GNUC__
 102:./Middlewares/ST/threadx/ports/cortex_m4/gnu/inc/tx_port.h **** #define __get_ipsr_value __get_IPSR
 103:./Middlewares/ST/threadx/ports/cortex_m4/gnu/inc/tx_port.h **** #endif
 104:./Middlewares/ST/threadx/ports/cortex_m4/gnu/inc/tx_port.h **** 
ARM GAS  /tmp/ccgNlioB.s 			page 6


 105:./Middlewares/ST/threadx/ports/cortex_m4/gnu/inc/tx_port.h **** /* Define ThreadX basic types for this port.  */
 106:./Middlewares/ST/threadx/ports/cortex_m4/gnu/inc/tx_port.h **** 
 107:./Middlewares/ST/threadx/ports/cortex_m4/gnu/inc/tx_port.h **** #define VOID                                    void
 108:./Middlewares/ST/threadx/ports/cortex_m4/gnu/inc/tx_port.h **** typedef char                                    CHAR;
 109:./Middlewares/ST/threadx/ports/cortex_m4/gnu/inc/tx_port.h **** typedef unsigned char                           UCHAR;
 110:./Middlewares/ST/threadx/ports/cortex_m4/gnu/inc/tx_port.h **** typedef int                                     INT;
 111:./Middlewares/ST/threadx/ports/cortex_m4/gnu/inc/tx_port.h **** typedef unsigned int                            UINT;
 112:./Middlewares/ST/threadx/ports/cortex_m4/gnu/inc/tx_port.h **** typedef long                                    LONG;
 113:./Middlewares/ST/threadx/ports/cortex_m4/gnu/inc/tx_port.h **** typedef unsigned long                           ULONG;
 114:./Middlewares/ST/threadx/ports/cortex_m4/gnu/inc/tx_port.h **** typedef unsigned long long                      ULONG64;
 115:./Middlewares/ST/threadx/ports/cortex_m4/gnu/inc/tx_port.h **** typedef short                                   SHORT;
 116:./Middlewares/ST/threadx/ports/cortex_m4/gnu/inc/tx_port.h **** typedef unsigned short                          USHORT;
 117:./Middlewares/ST/threadx/ports/cortex_m4/gnu/inc/tx_port.h **** #define ULONG64_DEFINED
 118:./Middlewares/ST/threadx/ports/cortex_m4/gnu/inc/tx_port.h **** 
 119:./Middlewares/ST/threadx/ports/cortex_m4/gnu/inc/tx_port.h **** /* Define the priority levels for ThreadX.  Legal values range
 120:./Middlewares/ST/threadx/ports/cortex_m4/gnu/inc/tx_port.h ****    from 32 to 1024 and MUST be evenly divisible by 32.  */
 121:./Middlewares/ST/threadx/ports/cortex_m4/gnu/inc/tx_port.h **** 
 122:./Middlewares/ST/threadx/ports/cortex_m4/gnu/inc/tx_port.h **** #ifndef TX_MAX_PRIORITIES
 123:./Middlewares/ST/threadx/ports/cortex_m4/gnu/inc/tx_port.h **** #define TX_MAX_PRIORITIES                       32
 124:./Middlewares/ST/threadx/ports/cortex_m4/gnu/inc/tx_port.h **** #endif
 125:./Middlewares/ST/threadx/ports/cortex_m4/gnu/inc/tx_port.h **** 
 126:./Middlewares/ST/threadx/ports/cortex_m4/gnu/inc/tx_port.h **** 
 127:./Middlewares/ST/threadx/ports/cortex_m4/gnu/inc/tx_port.h **** /* Define the minimum stack for a ThreadX thread on this processor. If the size supplied during
 128:./Middlewares/ST/threadx/ports/cortex_m4/gnu/inc/tx_port.h ****    thread creation is less than this value, the thread create call will return an error.  */
 129:./Middlewares/ST/threadx/ports/cortex_m4/gnu/inc/tx_port.h **** 
 130:./Middlewares/ST/threadx/ports/cortex_m4/gnu/inc/tx_port.h **** #ifndef TX_MINIMUM_STACK
 131:./Middlewares/ST/threadx/ports/cortex_m4/gnu/inc/tx_port.h **** #define TX_MINIMUM_STACK                        200         /* Minimum stack size for this port  */
 132:./Middlewares/ST/threadx/ports/cortex_m4/gnu/inc/tx_port.h **** #endif
 133:./Middlewares/ST/threadx/ports/cortex_m4/gnu/inc/tx_port.h **** 
 134:./Middlewares/ST/threadx/ports/cortex_m4/gnu/inc/tx_port.h **** 
 135:./Middlewares/ST/threadx/ports/cortex_m4/gnu/inc/tx_port.h **** /* Define the system timer thread's default stack size and priority.  These are only applicable
 136:./Middlewares/ST/threadx/ports/cortex_m4/gnu/inc/tx_port.h ****    if TX_TIMER_PROCESS_IN_ISR is not defined.  */
 137:./Middlewares/ST/threadx/ports/cortex_m4/gnu/inc/tx_port.h **** 
 138:./Middlewares/ST/threadx/ports/cortex_m4/gnu/inc/tx_port.h **** #ifndef TX_TIMER_THREAD_STACK_SIZE
 139:./Middlewares/ST/threadx/ports/cortex_m4/gnu/inc/tx_port.h **** #define TX_TIMER_THREAD_STACK_SIZE              1024        /* Default timer thread stack size  */
 140:./Middlewares/ST/threadx/ports/cortex_m4/gnu/inc/tx_port.h **** #endif
 141:./Middlewares/ST/threadx/ports/cortex_m4/gnu/inc/tx_port.h **** 
 142:./Middlewares/ST/threadx/ports/cortex_m4/gnu/inc/tx_port.h **** #ifndef TX_TIMER_THREAD_PRIORITY
 143:./Middlewares/ST/threadx/ports/cortex_m4/gnu/inc/tx_port.h **** #define TX_TIMER_THREAD_PRIORITY                0           /* Default timer thread priority    */
 144:./Middlewares/ST/threadx/ports/cortex_m4/gnu/inc/tx_port.h **** #endif
 145:./Middlewares/ST/threadx/ports/cortex_m4/gnu/inc/tx_port.h **** 
 146:./Middlewares/ST/threadx/ports/cortex_m4/gnu/inc/tx_port.h **** 
 147:./Middlewares/ST/threadx/ports/cortex_m4/gnu/inc/tx_port.h **** /* Define various constants for the ThreadX Cortex-M port.  */
 148:./Middlewares/ST/threadx/ports/cortex_m4/gnu/inc/tx_port.h **** 
 149:./Middlewares/ST/threadx/ports/cortex_m4/gnu/inc/tx_port.h **** #define TX_INT_DISABLE                          1           /* Disable interrupts               */
 150:./Middlewares/ST/threadx/ports/cortex_m4/gnu/inc/tx_port.h **** #define TX_INT_ENABLE                           0           /* Enable interrupts                */
 151:./Middlewares/ST/threadx/ports/cortex_m4/gnu/inc/tx_port.h **** 
 152:./Middlewares/ST/threadx/ports/cortex_m4/gnu/inc/tx_port.h **** 
 153:./Middlewares/ST/threadx/ports/cortex_m4/gnu/inc/tx_port.h **** /* Define the clock source for trace event entry time stamp. The following two item are port specif
 154:./Middlewares/ST/threadx/ports/cortex_m4/gnu/inc/tx_port.h ****    For example, if the time source is at the address 0x0a800024 and is 16-bits in size, the clock
 155:./Middlewares/ST/threadx/ports/cortex_m4/gnu/inc/tx_port.h ****    source constants would be:
 156:./Middlewares/ST/threadx/ports/cortex_m4/gnu/inc/tx_port.h **** 
 157:./Middlewares/ST/threadx/ports/cortex_m4/gnu/inc/tx_port.h **** #define TX_TRACE_TIME_SOURCE                    *((ULONG *) 0x0a800024)
 158:./Middlewares/ST/threadx/ports/cortex_m4/gnu/inc/tx_port.h **** #define TX_TRACE_TIME_MASK                      0x0000FFFFUL
 159:./Middlewares/ST/threadx/ports/cortex_m4/gnu/inc/tx_port.h **** 
 160:./Middlewares/ST/threadx/ports/cortex_m4/gnu/inc/tx_port.h **** */
 161:./Middlewares/ST/threadx/ports/cortex_m4/gnu/inc/tx_port.h **** 
ARM GAS  /tmp/ccgNlioB.s 			page 7


 162:./Middlewares/ST/threadx/ports/cortex_m4/gnu/inc/tx_port.h **** #ifndef TX_MISRA_ENABLE
 163:./Middlewares/ST/threadx/ports/cortex_m4/gnu/inc/tx_port.h **** #ifndef TX_TRACE_TIME_SOURCE
 164:./Middlewares/ST/threadx/ports/cortex_m4/gnu/inc/tx_port.h **** #define TX_TRACE_TIME_SOURCE                    *((ULONG *) 0xE0001004)
 165:./Middlewares/ST/threadx/ports/cortex_m4/gnu/inc/tx_port.h **** #endif
 166:./Middlewares/ST/threadx/ports/cortex_m4/gnu/inc/tx_port.h **** #else
 167:./Middlewares/ST/threadx/ports/cortex_m4/gnu/inc/tx_port.h **** ULONG   _tx_misra_time_stamp_get(VOID);
 168:./Middlewares/ST/threadx/ports/cortex_m4/gnu/inc/tx_port.h **** #define TX_TRACE_TIME_SOURCE                    _tx_misra_time_stamp_get()
 169:./Middlewares/ST/threadx/ports/cortex_m4/gnu/inc/tx_port.h **** #endif
 170:./Middlewares/ST/threadx/ports/cortex_m4/gnu/inc/tx_port.h **** 
 171:./Middlewares/ST/threadx/ports/cortex_m4/gnu/inc/tx_port.h **** #ifndef TX_TRACE_TIME_MASK
 172:./Middlewares/ST/threadx/ports/cortex_m4/gnu/inc/tx_port.h **** #define TX_TRACE_TIME_MASK                      0xFFFFFFFFUL
 173:./Middlewares/ST/threadx/ports/cortex_m4/gnu/inc/tx_port.h **** #endif
 174:./Middlewares/ST/threadx/ports/cortex_m4/gnu/inc/tx_port.h **** 
 175:./Middlewares/ST/threadx/ports/cortex_m4/gnu/inc/tx_port.h **** #ifdef __ghs__
 176:./Middlewares/ST/threadx/ports/cortex_m4/gnu/inc/tx_port.h **** /* Define constants for Green Hills EventAnalyzer.  */
 177:./Middlewares/ST/threadx/ports/cortex_m4/gnu/inc/tx_port.h **** 
 178:./Middlewares/ST/threadx/ports/cortex_m4/gnu/inc/tx_port.h **** /* Define the number of ticks per second. This informs the EventAnalyzer what the timestamps
 179:./Middlewares/ST/threadx/ports/cortex_m4/gnu/inc/tx_port.h ****    represent.  By default, this is set to 1,000,000 i.e., one tick every microsecond. */
 180:./Middlewares/ST/threadx/ports/cortex_m4/gnu/inc/tx_port.h **** 
 181:./Middlewares/ST/threadx/ports/cortex_m4/gnu/inc/tx_port.h **** #define TX_EL_TICKS_PER_SECOND                  1000000
 182:./Middlewares/ST/threadx/ports/cortex_m4/gnu/inc/tx_port.h **** 
 183:./Middlewares/ST/threadx/ports/cortex_m4/gnu/inc/tx_port.h **** /* Define the method of how to get the upper and lower 32-bits of the time stamp. By default, simpl
 184:./Middlewares/ST/threadx/ports/cortex_m4/gnu/inc/tx_port.h ****    simulate the time-stamp source with a counter.  */
 185:./Middlewares/ST/threadx/ports/cortex_m4/gnu/inc/tx_port.h **** 
 186:./Middlewares/ST/threadx/ports/cortex_m4/gnu/inc/tx_port.h **** #define read_tbu()                              _tx_el_time_base_upper
 187:./Middlewares/ST/threadx/ports/cortex_m4/gnu/inc/tx_port.h **** #define read_tbl()                              ++_tx_el_time_base_lower
 188:./Middlewares/ST/threadx/ports/cortex_m4/gnu/inc/tx_port.h **** #endif  /* __ghs__ */
 189:./Middlewares/ST/threadx/ports/cortex_m4/gnu/inc/tx_port.h **** 
 190:./Middlewares/ST/threadx/ports/cortex_m4/gnu/inc/tx_port.h **** /* Define the port specific options for the _tx_build_options variable. This variable indicates
 191:./Middlewares/ST/threadx/ports/cortex_m4/gnu/inc/tx_port.h ****    how the ThreadX library was built.  */
 192:./Middlewares/ST/threadx/ports/cortex_m4/gnu/inc/tx_port.h **** 
 193:./Middlewares/ST/threadx/ports/cortex_m4/gnu/inc/tx_port.h **** #define TX_PORT_SPECIFIC_BUILD_OPTIONS          (0)
 194:./Middlewares/ST/threadx/ports/cortex_m4/gnu/inc/tx_port.h **** 
 195:./Middlewares/ST/threadx/ports/cortex_m4/gnu/inc/tx_port.h **** 
 196:./Middlewares/ST/threadx/ports/cortex_m4/gnu/inc/tx_port.h **** /* Define the in-line initialization constant so that modules with in-line
 197:./Middlewares/ST/threadx/ports/cortex_m4/gnu/inc/tx_port.h ****    initialization capabilities can prevent their initialization from being
 198:./Middlewares/ST/threadx/ports/cortex_m4/gnu/inc/tx_port.h ****    a function call.  */
 199:./Middlewares/ST/threadx/ports/cortex_m4/gnu/inc/tx_port.h **** 
 200:./Middlewares/ST/threadx/ports/cortex_m4/gnu/inc/tx_port.h **** #ifdef TX_MISRA_ENABLE
 201:./Middlewares/ST/threadx/ports/cortex_m4/gnu/inc/tx_port.h **** #define TX_DISABLE_INLINE
 202:./Middlewares/ST/threadx/ports/cortex_m4/gnu/inc/tx_port.h **** #else
 203:./Middlewares/ST/threadx/ports/cortex_m4/gnu/inc/tx_port.h **** #define TX_INLINE_INITIALIZATION
 204:./Middlewares/ST/threadx/ports/cortex_m4/gnu/inc/tx_port.h **** #endif
 205:./Middlewares/ST/threadx/ports/cortex_m4/gnu/inc/tx_port.h **** 
 206:./Middlewares/ST/threadx/ports/cortex_m4/gnu/inc/tx_port.h **** 
 207:./Middlewares/ST/threadx/ports/cortex_m4/gnu/inc/tx_port.h **** /* Determine whether or not stack checking is enabled. By default, ThreadX stack checking is
 208:./Middlewares/ST/threadx/ports/cortex_m4/gnu/inc/tx_port.h ****    disabled. When the following is defined, ThreadX thread stack checking is enabled.  If stack
 209:./Middlewares/ST/threadx/ports/cortex_m4/gnu/inc/tx_port.h ****    checking is enabled (TX_ENABLE_STACK_CHECKING is defined), the TX_DISABLE_STACK_FILLING
 210:./Middlewares/ST/threadx/ports/cortex_m4/gnu/inc/tx_port.h ****    define is negated, thereby forcing the stack fill which is necessary for the stack checking
 211:./Middlewares/ST/threadx/ports/cortex_m4/gnu/inc/tx_port.h ****    logic.  */
 212:./Middlewares/ST/threadx/ports/cortex_m4/gnu/inc/tx_port.h **** 
 213:./Middlewares/ST/threadx/ports/cortex_m4/gnu/inc/tx_port.h **** #ifndef TX_MISRA_ENABLE
 214:./Middlewares/ST/threadx/ports/cortex_m4/gnu/inc/tx_port.h **** #ifdef TX_ENABLE_STACK_CHECKING
 215:./Middlewares/ST/threadx/ports/cortex_m4/gnu/inc/tx_port.h **** #undef TX_DISABLE_STACK_FILLING
 216:./Middlewares/ST/threadx/ports/cortex_m4/gnu/inc/tx_port.h **** #endif
 217:./Middlewares/ST/threadx/ports/cortex_m4/gnu/inc/tx_port.h **** #endif
 218:./Middlewares/ST/threadx/ports/cortex_m4/gnu/inc/tx_port.h **** 
ARM GAS  /tmp/ccgNlioB.s 			page 8


 219:./Middlewares/ST/threadx/ports/cortex_m4/gnu/inc/tx_port.h **** 
 220:./Middlewares/ST/threadx/ports/cortex_m4/gnu/inc/tx_port.h **** /* Define the TX_THREAD control block extensions for this port. The main reason
 221:./Middlewares/ST/threadx/ports/cortex_m4/gnu/inc/tx_port.h ****    for the multiple macros is so that backward compatibility can be maintained with
 222:./Middlewares/ST/threadx/ports/cortex_m4/gnu/inc/tx_port.h ****    existing ThreadX kernel awareness modules.  */
 223:./Middlewares/ST/threadx/ports/cortex_m4/gnu/inc/tx_port.h **** 
 224:./Middlewares/ST/threadx/ports/cortex_m4/gnu/inc/tx_port.h **** #define TX_THREAD_EXTENSION_0
 225:./Middlewares/ST/threadx/ports/cortex_m4/gnu/inc/tx_port.h **** #define TX_THREAD_EXTENSION_1
 226:./Middlewares/ST/threadx/ports/cortex_m4/gnu/inc/tx_port.h **** #ifdef  TX_ENABLE_IAR_LIBRARY_SUPPORT
 227:./Middlewares/ST/threadx/ports/cortex_m4/gnu/inc/tx_port.h **** #define TX_THREAD_EXTENSION_2           VOID    *tx_thread_iar_tls_pointer;
 228:./Middlewares/ST/threadx/ports/cortex_m4/gnu/inc/tx_port.h **** #elif defined(__ghs__)
 229:./Middlewares/ST/threadx/ports/cortex_m4/gnu/inc/tx_port.h **** #define TX_THREAD_EXTENSION_2           VOID *  tx_thread_eh_globals;                           \
 230:./Middlewares/ST/threadx/ports/cortex_m4/gnu/inc/tx_port.h ****                                         int     Errno;             /* errno.  */                \
 231:./Middlewares/ST/threadx/ports/cortex_m4/gnu/inc/tx_port.h ****                                         char *  strtok_saved_pos;  /* strtok() position.  */
 232:./Middlewares/ST/threadx/ports/cortex_m4/gnu/inc/tx_port.h **** #else
 233:./Middlewares/ST/threadx/ports/cortex_m4/gnu/inc/tx_port.h **** #define TX_THREAD_EXTENSION_2
 234:./Middlewares/ST/threadx/ports/cortex_m4/gnu/inc/tx_port.h **** #endif
 235:./Middlewares/ST/threadx/ports/cortex_m4/gnu/inc/tx_port.h **** 
 236:./Middlewares/ST/threadx/ports/cortex_m4/gnu/inc/tx_port.h **** 
 237:./Middlewares/ST/threadx/ports/cortex_m4/gnu/inc/tx_port.h **** #define TX_THREAD_EXTENSION_3
 238:./Middlewares/ST/threadx/ports/cortex_m4/gnu/inc/tx_port.h **** 
 239:./Middlewares/ST/threadx/ports/cortex_m4/gnu/inc/tx_port.h **** 
 240:./Middlewares/ST/threadx/ports/cortex_m4/gnu/inc/tx_port.h **** 
 241:./Middlewares/ST/threadx/ports/cortex_m4/gnu/inc/tx_port.h **** /* Define the port extensions of the remaining ThreadX objects.  */
 242:./Middlewares/ST/threadx/ports/cortex_m4/gnu/inc/tx_port.h **** 
 243:./Middlewares/ST/threadx/ports/cortex_m4/gnu/inc/tx_port.h **** #define TX_BLOCK_POOL_EXTENSION
 244:./Middlewares/ST/threadx/ports/cortex_m4/gnu/inc/tx_port.h **** #define TX_BYTE_POOL_EXTENSION
 245:./Middlewares/ST/threadx/ports/cortex_m4/gnu/inc/tx_port.h **** #define TX_EVENT_FLAGS_GROUP_EXTENSION
 246:./Middlewares/ST/threadx/ports/cortex_m4/gnu/inc/tx_port.h **** #define TX_MUTEX_EXTENSION
 247:./Middlewares/ST/threadx/ports/cortex_m4/gnu/inc/tx_port.h **** #define TX_QUEUE_EXTENSION
 248:./Middlewares/ST/threadx/ports/cortex_m4/gnu/inc/tx_port.h **** #define TX_SEMAPHORE_EXTENSION
 249:./Middlewares/ST/threadx/ports/cortex_m4/gnu/inc/tx_port.h **** #define TX_TIMER_EXTENSION
 250:./Middlewares/ST/threadx/ports/cortex_m4/gnu/inc/tx_port.h **** 
 251:./Middlewares/ST/threadx/ports/cortex_m4/gnu/inc/tx_port.h **** 
 252:./Middlewares/ST/threadx/ports/cortex_m4/gnu/inc/tx_port.h **** /* Define the user extension field of the thread control block.  Nothing
 253:./Middlewares/ST/threadx/ports/cortex_m4/gnu/inc/tx_port.h ****    additional is needed for this port so it is defined as white space.  */
 254:./Middlewares/ST/threadx/ports/cortex_m4/gnu/inc/tx_port.h **** 
 255:./Middlewares/ST/threadx/ports/cortex_m4/gnu/inc/tx_port.h **** #ifndef TX_THREAD_USER_EXTENSION
 256:./Middlewares/ST/threadx/ports/cortex_m4/gnu/inc/tx_port.h **** #define TX_THREAD_USER_EXTENSION
 257:./Middlewares/ST/threadx/ports/cortex_m4/gnu/inc/tx_port.h **** #endif
 258:./Middlewares/ST/threadx/ports/cortex_m4/gnu/inc/tx_port.h **** 
 259:./Middlewares/ST/threadx/ports/cortex_m4/gnu/inc/tx_port.h **** 
 260:./Middlewares/ST/threadx/ports/cortex_m4/gnu/inc/tx_port.h **** /* Define the macros for processing extensions in tx_thread_create, tx_thread_delete,
 261:./Middlewares/ST/threadx/ports/cortex_m4/gnu/inc/tx_port.h ****    tx_thread_shell_entry, and tx_thread_terminate.  */
 262:./Middlewares/ST/threadx/ports/cortex_m4/gnu/inc/tx_port.h **** 
 263:./Middlewares/ST/threadx/ports/cortex_m4/gnu/inc/tx_port.h **** 
 264:./Middlewares/ST/threadx/ports/cortex_m4/gnu/inc/tx_port.h **** #ifdef  TX_ENABLE_IAR_LIBRARY_SUPPORT
 265:./Middlewares/ST/threadx/ports/cortex_m4/gnu/inc/tx_port.h **** #if (__VER__ < 8000000)
 266:./Middlewares/ST/threadx/ports/cortex_m4/gnu/inc/tx_port.h **** #define TX_THREAD_CREATE_EXTENSION(thread_ptr)                      thread_ptr -> tx_thread_iar_tls
 267:./Middlewares/ST/threadx/ports/cortex_m4/gnu/inc/tx_port.h **** #define TX_THREAD_DELETE_EXTENSION(thread_ptr)                      __iar_dlib_perthread_deallocate
 268:./Middlewares/ST/threadx/ports/cortex_m4/gnu/inc/tx_port.h ****                                                                     thread_ptr -> tx_thread_iar_tls
 269:./Middlewares/ST/threadx/ports/cortex_m4/gnu/inc/tx_port.h **** #define TX_PORT_SPECIFIC_PRE_SCHEDULER_INITIALIZATION               __iar_dlib_perthread_access(0);
 270:./Middlewares/ST/threadx/ports/cortex_m4/gnu/inc/tx_port.h **** #else
 271:./Middlewares/ST/threadx/ports/cortex_m4/gnu/inc/tx_port.h **** void    *_tx_iar_create_per_thread_tls_area(void);
 272:./Middlewares/ST/threadx/ports/cortex_m4/gnu/inc/tx_port.h **** void    _tx_iar_destroy_per_thread_tls_area(void *tls_ptr);
 273:./Middlewares/ST/threadx/ports/cortex_m4/gnu/inc/tx_port.h **** void    __iar_Initlocks(void);
 274:./Middlewares/ST/threadx/ports/cortex_m4/gnu/inc/tx_port.h **** 
 275:./Middlewares/ST/threadx/ports/cortex_m4/gnu/inc/tx_port.h **** #define TX_THREAD_CREATE_EXTENSION(thread_ptr)                      thread_ptr -> tx_thread_iar_tls
ARM GAS  /tmp/ccgNlioB.s 			page 9


 276:./Middlewares/ST/threadx/ports/cortex_m4/gnu/inc/tx_port.h **** #define TX_THREAD_DELETE_EXTENSION(thread_ptr)                      do {_tx_iar_destroy_per_thread_
 277:./Middlewares/ST/threadx/ports/cortex_m4/gnu/inc/tx_port.h ****                                                                         thread_ptr -> tx_thread_iar
 278:./Middlewares/ST/threadx/ports/cortex_m4/gnu/inc/tx_port.h **** #define TX_PORT_SPECIFIC_PRE_SCHEDULER_INITIALIZATION               do {__iar_Initlocks();} while(0
 279:./Middlewares/ST/threadx/ports/cortex_m4/gnu/inc/tx_port.h **** #endif
 280:./Middlewares/ST/threadx/ports/cortex_m4/gnu/inc/tx_port.h **** #else
 281:./Middlewares/ST/threadx/ports/cortex_m4/gnu/inc/tx_port.h **** #define TX_THREAD_CREATE_EXTENSION(thread_ptr)
 282:./Middlewares/ST/threadx/ports/cortex_m4/gnu/inc/tx_port.h **** #define TX_THREAD_DELETE_EXTENSION(thread_ptr)
 283:./Middlewares/ST/threadx/ports/cortex_m4/gnu/inc/tx_port.h **** #endif
 284:./Middlewares/ST/threadx/ports/cortex_m4/gnu/inc/tx_port.h **** 
 285:./Middlewares/ST/threadx/ports/cortex_m4/gnu/inc/tx_port.h **** #if defined(__ARMVFP__) || defined(__ARM_PCS_VFP) || defined(__ARM_FP) || defined(__TARGET_FPU_VFP)
 286:./Middlewares/ST/threadx/ports/cortex_m4/gnu/inc/tx_port.h **** 
 287:./Middlewares/ST/threadx/ports/cortex_m4/gnu/inc/tx_port.h **** #ifdef TX_MISRA_ENABLE
 288:./Middlewares/ST/threadx/ports/cortex_m4/gnu/inc/tx_port.h **** 
 289:./Middlewares/ST/threadx/ports/cortex_m4/gnu/inc/tx_port.h **** ULONG  _tx_misra_control_get(void);
 290:./Middlewares/ST/threadx/ports/cortex_m4/gnu/inc/tx_port.h **** void   _tx_misra_control_set(ULONG value);
 291:./Middlewares/ST/threadx/ports/cortex_m4/gnu/inc/tx_port.h **** ULONG  _tx_misra_fpccr_get(void);
 292:./Middlewares/ST/threadx/ports/cortex_m4/gnu/inc/tx_port.h **** void   _tx_misra_vfp_touch(void);
 293:./Middlewares/ST/threadx/ports/cortex_m4/gnu/inc/tx_port.h **** 
 294:./Middlewares/ST/threadx/ports/cortex_m4/gnu/inc/tx_port.h **** #else   /* TX_MISRA_ENABLE not defined */
 295:./Middlewares/ST/threadx/ports/cortex_m4/gnu/inc/tx_port.h **** 
 296:./Middlewares/ST/threadx/ports/cortex_m4/gnu/inc/tx_port.h **** /* Define some helper functions (these are intrinsics in some compilers). */
 297:./Middlewares/ST/threadx/ports/cortex_m4/gnu/inc/tx_port.h **** #ifdef __GNUC__ /* GCC and ARM Compiler 6 */
 298:./Middlewares/ST/threadx/ports/cortex_m4/gnu/inc/tx_port.h **** 
 299:./Middlewares/ST/threadx/ports/cortex_m4/gnu/inc/tx_port.h **** __attribute__( ( always_inline ) ) static inline ULONG __get_control_value(void)
 300:./Middlewares/ST/threadx/ports/cortex_m4/gnu/inc/tx_port.h **** {
 301:./Middlewares/ST/threadx/ports/cortex_m4/gnu/inc/tx_port.h **** ULONG  control_value;
 302:./Middlewares/ST/threadx/ports/cortex_m4/gnu/inc/tx_port.h **** 
 303:./Middlewares/ST/threadx/ports/cortex_m4/gnu/inc/tx_port.h ****     __asm__ volatile (" MRS  %0,CONTROL ": "=r" (control_value) );
 304:./Middlewares/ST/threadx/ports/cortex_m4/gnu/inc/tx_port.h ****     return(control_value);
 305:./Middlewares/ST/threadx/ports/cortex_m4/gnu/inc/tx_port.h **** }
 306:./Middlewares/ST/threadx/ports/cortex_m4/gnu/inc/tx_port.h **** 
 307:./Middlewares/ST/threadx/ports/cortex_m4/gnu/inc/tx_port.h **** __attribute__( ( always_inline ) ) static inline void __set_control_value(ULONG control_value)
 308:./Middlewares/ST/threadx/ports/cortex_m4/gnu/inc/tx_port.h **** {
 309:./Middlewares/ST/threadx/ports/cortex_m4/gnu/inc/tx_port.h ****     __asm__ volatile (" MSR  CONTROL,%0": : "r" (control_value): "memory" );
 310:./Middlewares/ST/threadx/ports/cortex_m4/gnu/inc/tx_port.h **** }
 311:./Middlewares/ST/threadx/ports/cortex_m4/gnu/inc/tx_port.h **** 
 312:./Middlewares/ST/threadx/ports/cortex_m4/gnu/inc/tx_port.h **** #define TX_VFP_TOUCH()  __asm__ volatile ("VMOV.F32 s0, s0");
 313:./Middlewares/ST/threadx/ports/cortex_m4/gnu/inc/tx_port.h **** 
 314:./Middlewares/ST/threadx/ports/cortex_m4/gnu/inc/tx_port.h **** #elif defined(__CC_ARM) /* ARM Compiler 5 */
 315:./Middlewares/ST/threadx/ports/cortex_m4/gnu/inc/tx_port.h **** 
 316:./Middlewares/ST/threadx/ports/cortex_m4/gnu/inc/tx_port.h **** __attribute__( ( always_inline ) ) ULONG __get_control_value(void)
 317:./Middlewares/ST/threadx/ports/cortex_m4/gnu/inc/tx_port.h **** {
 318:./Middlewares/ST/threadx/ports/cortex_m4/gnu/inc/tx_port.h **** ULONG  control_value;
 319:./Middlewares/ST/threadx/ports/cortex_m4/gnu/inc/tx_port.h **** 
 320:./Middlewares/ST/threadx/ports/cortex_m4/gnu/inc/tx_port.h ****     __asm volatile ("MRS control_value,CONTROL");
 321:./Middlewares/ST/threadx/ports/cortex_m4/gnu/inc/tx_port.h ****     return(control_value);
 322:./Middlewares/ST/threadx/ports/cortex_m4/gnu/inc/tx_port.h **** }
 323:./Middlewares/ST/threadx/ports/cortex_m4/gnu/inc/tx_port.h **** 
 324:./Middlewares/ST/threadx/ports/cortex_m4/gnu/inc/tx_port.h **** __attribute__( ( always_inline ) ) void __set_control_value(ULONG control_value)
 325:./Middlewares/ST/threadx/ports/cortex_m4/gnu/inc/tx_port.h **** {
 326:./Middlewares/ST/threadx/ports/cortex_m4/gnu/inc/tx_port.h ****     __asm__ volatile ("MSR CONTROL,control_value");
 327:./Middlewares/ST/threadx/ports/cortex_m4/gnu/inc/tx_port.h **** }
 328:./Middlewares/ST/threadx/ports/cortex_m4/gnu/inc/tx_port.h **** /* Can't access VFP registers with inline asm, so define this in tx_thread_schedule.  */
 329:./Middlewares/ST/threadx/ports/cortex_m4/gnu/inc/tx_port.h **** void _tx_vfp_access(void);
 330:./Middlewares/ST/threadx/ports/cortex_m4/gnu/inc/tx_port.h **** #define TX_VFP_TOUCH()  _tx_vfp_access();
 331:./Middlewares/ST/threadx/ports/cortex_m4/gnu/inc/tx_port.h **** 
 332:./Middlewares/ST/threadx/ports/cortex_m4/gnu/inc/tx_port.h **** #elif defined(__ICCARM__)  /* IAR */
ARM GAS  /tmp/ccgNlioB.s 			page 10


 333:./Middlewares/ST/threadx/ports/cortex_m4/gnu/inc/tx_port.h **** #define TX_VFP_TOUCH()  __asm__ volatile ("VMOV.F32 s0, s0");
 334:./Middlewares/ST/threadx/ports/cortex_m4/gnu/inc/tx_port.h **** #endif  /* Helper functions for different compilers */
 335:./Middlewares/ST/threadx/ports/cortex_m4/gnu/inc/tx_port.h **** 
 336:./Middlewares/ST/threadx/ports/cortex_m4/gnu/inc/tx_port.h **** #endif  /* TX_MISRA_ENABLE */
 337:./Middlewares/ST/threadx/ports/cortex_m4/gnu/inc/tx_port.h **** 
 338:./Middlewares/ST/threadx/ports/cortex_m4/gnu/inc/tx_port.h **** 
 339:./Middlewares/ST/threadx/ports/cortex_m4/gnu/inc/tx_port.h **** /* A completed thread falls into _thread_shell_entry and we can simply deactivate the FPU via CONTR
 340:./Middlewares/ST/threadx/ports/cortex_m4/gnu/inc/tx_port.h ****    in order to ensure no lazy stacking will occur. */
 341:./Middlewares/ST/threadx/ports/cortex_m4/gnu/inc/tx_port.h **** 
 342:./Middlewares/ST/threadx/ports/cortex_m4/gnu/inc/tx_port.h **** #ifndef TX_MISRA_ENABLE
 343:./Middlewares/ST/threadx/ports/cortex_m4/gnu/inc/tx_port.h **** 
 344:./Middlewares/ST/threadx/ports/cortex_m4/gnu/inc/tx_port.h **** #define TX_THREAD_COMPLETED_EXTENSION(thread_ptr)   {                                              
 345:./Middlewares/ST/threadx/ports/cortex_m4/gnu/inc/tx_port.h ****                                                     ULONG  _tx_vfp_state;                          
 346:./Middlewares/ST/threadx/ports/cortex_m4/gnu/inc/tx_port.h ****                                                         _tx_vfp_state =  __get_control_value();    
 347:./Middlewares/ST/threadx/ports/cortex_m4/gnu/inc/tx_port.h ****                                                         _tx_vfp_state =  _tx_vfp_state & ~((ULONG) 
 348:./Middlewares/ST/threadx/ports/cortex_m4/gnu/inc/tx_port.h ****                                                         __set_control_value(_tx_vfp_state);        
 349:./Middlewares/ST/threadx/ports/cortex_m4/gnu/inc/tx_port.h ****                                                     }
 350:./Middlewares/ST/threadx/ports/cortex_m4/gnu/inc/tx_port.h **** #else
 351:./Middlewares/ST/threadx/ports/cortex_m4/gnu/inc/tx_port.h **** 
 352:./Middlewares/ST/threadx/ports/cortex_m4/gnu/inc/tx_port.h **** #define TX_THREAD_COMPLETED_EXTENSION(thread_ptr)   {                                              
 353:./Middlewares/ST/threadx/ports/cortex_m4/gnu/inc/tx_port.h ****                                                     ULONG  _tx_vfp_state;                          
 354:./Middlewares/ST/threadx/ports/cortex_m4/gnu/inc/tx_port.h ****                                                         _tx_vfp_state =  _tx_misra_control_get();  
 355:./Middlewares/ST/threadx/ports/cortex_m4/gnu/inc/tx_port.h ****                                                         _tx_vfp_state =  _tx_vfp_state & ~((ULONG) 
 356:./Middlewares/ST/threadx/ports/cortex_m4/gnu/inc/tx_port.h ****                                                         _tx_misra_control_set(_tx_vfp_state);      
 357:./Middlewares/ST/threadx/ports/cortex_m4/gnu/inc/tx_port.h ****                                                     }
 358:./Middlewares/ST/threadx/ports/cortex_m4/gnu/inc/tx_port.h **** 
 359:./Middlewares/ST/threadx/ports/cortex_m4/gnu/inc/tx_port.h **** #endif
 360:./Middlewares/ST/threadx/ports/cortex_m4/gnu/inc/tx_port.h **** 
 361:./Middlewares/ST/threadx/ports/cortex_m4/gnu/inc/tx_port.h **** /* A thread can be terminated by another thread, so we first check if it's self-terminating and not
 362:./Middlewares/ST/threadx/ports/cortex_m4/gnu/inc/tx_port.h ****    If so, deactivate the FPU via CONTROL.FPCA. Otherwise we are in an interrupt or another thread i
 363:./Middlewares/ST/threadx/ports/cortex_m4/gnu/inc/tx_port.h ****    this one, so if the FPCCR.LSPACT bit is set, we need to save the CONTROL.FPCA state, touch the F
 364:./Middlewares/ST/threadx/ports/cortex_m4/gnu/inc/tx_port.h ****    the lazy FPU save, then restore the CONTROL.FPCA state. */
 365:./Middlewares/ST/threadx/ports/cortex_m4/gnu/inc/tx_port.h **** 
 366:./Middlewares/ST/threadx/ports/cortex_m4/gnu/inc/tx_port.h **** #ifndef TX_MISRA_ENABLE
 367:./Middlewares/ST/threadx/ports/cortex_m4/gnu/inc/tx_port.h **** 
 368:./Middlewares/ST/threadx/ports/cortex_m4/gnu/inc/tx_port.h **** #define TX_THREAD_TERMINATED_EXTENSION(thread_ptr)  {                                              
 369:./Middlewares/ST/threadx/ports/cortex_m4/gnu/inc/tx_port.h ****                                                     ULONG  _tx_system_state;                       
 370:./Middlewares/ST/threadx/ports/cortex_m4/gnu/inc/tx_port.h ****                                                         _tx_system_state =  TX_THREAD_GET_SYSTEM_ST
 371:./Middlewares/ST/threadx/ports/cortex_m4/gnu/inc/tx_port.h ****                                                         if ((_tx_system_state == ((ULONG) 0)) && ((
 372:./Middlewares/ST/threadx/ports/cortex_m4/gnu/inc/tx_port.h ****                                                         {                                          
 373:./Middlewares/ST/threadx/ports/cortex_m4/gnu/inc/tx_port.h ****                                                         ULONG  _tx_vfp_state;                      
 374:./Middlewares/ST/threadx/ports/cortex_m4/gnu/inc/tx_port.h ****                                                             _tx_vfp_state =  __get_control_value();
 375:./Middlewares/ST/threadx/ports/cortex_m4/gnu/inc/tx_port.h ****                                                             _tx_vfp_state =  _tx_vfp_state & ~((ULO
 376:./Middlewares/ST/threadx/ports/cortex_m4/gnu/inc/tx_port.h ****                                                             __set_control_value(_tx_vfp_state);    
 377:./Middlewares/ST/threadx/ports/cortex_m4/gnu/inc/tx_port.h ****                                                         }                                          
 378:./Middlewares/ST/threadx/ports/cortex_m4/gnu/inc/tx_port.h ****                                                         else                                       
 379:./Middlewares/ST/threadx/ports/cortex_m4/gnu/inc/tx_port.h ****                                                         {                                          
 380:./Middlewares/ST/threadx/ports/cortex_m4/gnu/inc/tx_port.h ****                                                         ULONG  _tx_fpccr;                          
 381:./Middlewares/ST/threadx/ports/cortex_m4/gnu/inc/tx_port.h ****                                                             _tx_fpccr =  *((ULONG *) 0xE000EF34);  
 382:./Middlewares/ST/threadx/ports/cortex_m4/gnu/inc/tx_port.h ****                                                             _tx_fpccr =  _tx_fpccr & ((ULONG) 0x01)
 383:./Middlewares/ST/threadx/ports/cortex_m4/gnu/inc/tx_port.h ****                                                             if (_tx_fpccr == ((ULONG) 0x01))       
 384:./Middlewares/ST/threadx/ports/cortex_m4/gnu/inc/tx_port.h ****                                                             {                                      
 385:./Middlewares/ST/threadx/ports/cortex_m4/gnu/inc/tx_port.h ****                                                             ULONG _tx_vfp_state;                   
 386:./Middlewares/ST/threadx/ports/cortex_m4/gnu/inc/tx_port.h ****                                                                 _tx_vfp_state = __get_control_value
 387:./Middlewares/ST/threadx/ports/cortex_m4/gnu/inc/tx_port.h ****                                                                 _tx_vfp_state =  _tx_vfp_state & ((
 388:./Middlewares/ST/threadx/ports/cortex_m4/gnu/inc/tx_port.h ****                                                                 TX_VFP_TOUCH();                    
 389:./Middlewares/ST/threadx/ports/cortex_m4/gnu/inc/tx_port.h ****                                                                 if (_tx_vfp_state == ((ULONG) 0))  
ARM GAS  /tmp/ccgNlioB.s 			page 11


 390:./Middlewares/ST/threadx/ports/cortex_m4/gnu/inc/tx_port.h ****                                                                 {                                  
 391:./Middlewares/ST/threadx/ports/cortex_m4/gnu/inc/tx_port.h ****                                                                     _tx_vfp_state =  __get_control_
 392:./Middlewares/ST/threadx/ports/cortex_m4/gnu/inc/tx_port.h ****                                                                     _tx_vfp_state =  _tx_vfp_state 
 393:./Middlewares/ST/threadx/ports/cortex_m4/gnu/inc/tx_port.h ****                                                                     __set_control_value(_tx_vfp_sta
 394:./Middlewares/ST/threadx/ports/cortex_m4/gnu/inc/tx_port.h ****                                                                 }                                  
 395:./Middlewares/ST/threadx/ports/cortex_m4/gnu/inc/tx_port.h ****                                                             }                                      
 396:./Middlewares/ST/threadx/ports/cortex_m4/gnu/inc/tx_port.h ****                                                         }                                          
 397:./Middlewares/ST/threadx/ports/cortex_m4/gnu/inc/tx_port.h ****                                                     }
 398:./Middlewares/ST/threadx/ports/cortex_m4/gnu/inc/tx_port.h **** #else
 399:./Middlewares/ST/threadx/ports/cortex_m4/gnu/inc/tx_port.h **** 
 400:./Middlewares/ST/threadx/ports/cortex_m4/gnu/inc/tx_port.h **** #define TX_THREAD_TERMINATED_EXTENSION(thread_ptr)  {                                              
 401:./Middlewares/ST/threadx/ports/cortex_m4/gnu/inc/tx_port.h ****                                                     ULONG  _tx_system_state;                       
 402:./Middlewares/ST/threadx/ports/cortex_m4/gnu/inc/tx_port.h ****                                                         _tx_system_state =  TX_THREAD_GET_SYSTEM_ST
 403:./Middlewares/ST/threadx/ports/cortex_m4/gnu/inc/tx_port.h ****                                                         if ((_tx_system_state == ((ULONG) 0)) && ((
 404:./Middlewares/ST/threadx/ports/cortex_m4/gnu/inc/tx_port.h ****                                                         {                                          
 405:./Middlewares/ST/threadx/ports/cortex_m4/gnu/inc/tx_port.h ****                                                         ULONG  _tx_vfp_state;                      
 406:./Middlewares/ST/threadx/ports/cortex_m4/gnu/inc/tx_port.h ****                                                             _tx_vfp_state =  _tx_misra_control_get(
 407:./Middlewares/ST/threadx/ports/cortex_m4/gnu/inc/tx_port.h ****                                                             _tx_vfp_state =  _tx_vfp_state & ~((ULO
 408:./Middlewares/ST/threadx/ports/cortex_m4/gnu/inc/tx_port.h ****                                                             _tx_misra_control_set(_tx_vfp_state);  
 409:./Middlewares/ST/threadx/ports/cortex_m4/gnu/inc/tx_port.h ****                                                         }                                          
 410:./Middlewares/ST/threadx/ports/cortex_m4/gnu/inc/tx_port.h ****                                                         else                                       
 411:./Middlewares/ST/threadx/ports/cortex_m4/gnu/inc/tx_port.h ****                                                         {                                          
 412:./Middlewares/ST/threadx/ports/cortex_m4/gnu/inc/tx_port.h ****                                                         ULONG  _tx_fpccr;                          
 413:./Middlewares/ST/threadx/ports/cortex_m4/gnu/inc/tx_port.h ****                                                             _tx_fpccr =  _tx_misra_fpccr_get();    
 414:./Middlewares/ST/threadx/ports/cortex_m4/gnu/inc/tx_port.h ****                                                             _tx_fpccr =  _tx_fpccr & ((ULONG) 0x01)
 415:./Middlewares/ST/threadx/ports/cortex_m4/gnu/inc/tx_port.h ****                                                             if (_tx_fpccr == ((ULONG) 0x01))       
 416:./Middlewares/ST/threadx/ports/cortex_m4/gnu/inc/tx_port.h ****                                                             {                                      
 417:./Middlewares/ST/threadx/ports/cortex_m4/gnu/inc/tx_port.h ****                                                             ULONG _tx_vfp_state;                   
 418:./Middlewares/ST/threadx/ports/cortex_m4/gnu/inc/tx_port.h ****                                                                 _tx_vfp_state = _tx_misra_control_g
 419:./Middlewares/ST/threadx/ports/cortex_m4/gnu/inc/tx_port.h ****                                                                 _tx_vfp_state =  _tx_vfp_state & ((
 420:./Middlewares/ST/threadx/ports/cortex_m4/gnu/inc/tx_port.h ****                                                                 _tx_misra_vfp_touch();             
 421:./Middlewares/ST/threadx/ports/cortex_m4/gnu/inc/tx_port.h ****                                                                 if (_tx_vfp_state == ((ULONG) 0))  
 422:./Middlewares/ST/threadx/ports/cortex_m4/gnu/inc/tx_port.h ****                                                                 {                                  
 423:./Middlewares/ST/threadx/ports/cortex_m4/gnu/inc/tx_port.h ****                                                                     _tx_vfp_state =  _tx_misra_cont
 424:./Middlewares/ST/threadx/ports/cortex_m4/gnu/inc/tx_port.h ****                                                                     _tx_vfp_state =  _tx_vfp_state 
 425:./Middlewares/ST/threadx/ports/cortex_m4/gnu/inc/tx_port.h ****                                                                     _tx_misra_control_set(_tx_vfp_s
 426:./Middlewares/ST/threadx/ports/cortex_m4/gnu/inc/tx_port.h ****                                                                 }                                  
 427:./Middlewares/ST/threadx/ports/cortex_m4/gnu/inc/tx_port.h ****                                                             }                                      
 428:./Middlewares/ST/threadx/ports/cortex_m4/gnu/inc/tx_port.h ****                                                         }                                          
 429:./Middlewares/ST/threadx/ports/cortex_m4/gnu/inc/tx_port.h ****                                                     }
 430:./Middlewares/ST/threadx/ports/cortex_m4/gnu/inc/tx_port.h **** #endif
 431:./Middlewares/ST/threadx/ports/cortex_m4/gnu/inc/tx_port.h **** 
 432:./Middlewares/ST/threadx/ports/cortex_m4/gnu/inc/tx_port.h **** #else   /* No VFP in use */
 433:./Middlewares/ST/threadx/ports/cortex_m4/gnu/inc/tx_port.h **** 
 434:./Middlewares/ST/threadx/ports/cortex_m4/gnu/inc/tx_port.h **** #define TX_THREAD_COMPLETED_EXTENSION(thread_ptr)
 435:./Middlewares/ST/threadx/ports/cortex_m4/gnu/inc/tx_port.h **** #define TX_THREAD_TERMINATED_EXTENSION(thread_ptr)
 436:./Middlewares/ST/threadx/ports/cortex_m4/gnu/inc/tx_port.h **** 
 437:./Middlewares/ST/threadx/ports/cortex_m4/gnu/inc/tx_port.h **** #endif  /* defined(__ARMVFP__) || defined(__ARM_PCS_VFP) || defined(__ARM_FP) || defined(__TARGET_F
 438:./Middlewares/ST/threadx/ports/cortex_m4/gnu/inc/tx_port.h **** 
 439:./Middlewares/ST/threadx/ports/cortex_m4/gnu/inc/tx_port.h **** 
 440:./Middlewares/ST/threadx/ports/cortex_m4/gnu/inc/tx_port.h **** /* Define the ThreadX object creation extensions for the remaining objects.  */
 441:./Middlewares/ST/threadx/ports/cortex_m4/gnu/inc/tx_port.h **** 
 442:./Middlewares/ST/threadx/ports/cortex_m4/gnu/inc/tx_port.h **** #define TX_BLOCK_POOL_CREATE_EXTENSION(pool_ptr)
 443:./Middlewares/ST/threadx/ports/cortex_m4/gnu/inc/tx_port.h **** #define TX_BYTE_POOL_CREATE_EXTENSION(pool_ptr)
 444:./Middlewares/ST/threadx/ports/cortex_m4/gnu/inc/tx_port.h **** #define TX_EVENT_FLAGS_GROUP_CREATE_EXTENSION(group_ptr)
 445:./Middlewares/ST/threadx/ports/cortex_m4/gnu/inc/tx_port.h **** #define TX_MUTEX_CREATE_EXTENSION(mutex_ptr)
 446:./Middlewares/ST/threadx/ports/cortex_m4/gnu/inc/tx_port.h **** #define TX_QUEUE_CREATE_EXTENSION(queue_ptr)
ARM GAS  /tmp/ccgNlioB.s 			page 12


 447:./Middlewares/ST/threadx/ports/cortex_m4/gnu/inc/tx_port.h **** #define TX_SEMAPHORE_CREATE_EXTENSION(semaphore_ptr)
 448:./Middlewares/ST/threadx/ports/cortex_m4/gnu/inc/tx_port.h **** #define TX_TIMER_CREATE_EXTENSION(timer_ptr)
 449:./Middlewares/ST/threadx/ports/cortex_m4/gnu/inc/tx_port.h **** 
 450:./Middlewares/ST/threadx/ports/cortex_m4/gnu/inc/tx_port.h **** 
 451:./Middlewares/ST/threadx/ports/cortex_m4/gnu/inc/tx_port.h **** /* Define the ThreadX object deletion extensions for the remaining objects.  */
 452:./Middlewares/ST/threadx/ports/cortex_m4/gnu/inc/tx_port.h **** 
 453:./Middlewares/ST/threadx/ports/cortex_m4/gnu/inc/tx_port.h **** #define TX_BLOCK_POOL_DELETE_EXTENSION(pool_ptr)
 454:./Middlewares/ST/threadx/ports/cortex_m4/gnu/inc/tx_port.h **** #define TX_BYTE_POOL_DELETE_EXTENSION(pool_ptr)
 455:./Middlewares/ST/threadx/ports/cortex_m4/gnu/inc/tx_port.h **** #define TX_EVENT_FLAGS_GROUP_DELETE_EXTENSION(group_ptr)
 456:./Middlewares/ST/threadx/ports/cortex_m4/gnu/inc/tx_port.h **** #define TX_MUTEX_DELETE_EXTENSION(mutex_ptr)
 457:./Middlewares/ST/threadx/ports/cortex_m4/gnu/inc/tx_port.h **** #define TX_QUEUE_DELETE_EXTENSION(queue_ptr)
 458:./Middlewares/ST/threadx/ports/cortex_m4/gnu/inc/tx_port.h **** #define TX_SEMAPHORE_DELETE_EXTENSION(semaphore_ptr)
 459:./Middlewares/ST/threadx/ports/cortex_m4/gnu/inc/tx_port.h **** #define TX_TIMER_DELETE_EXTENSION(timer_ptr)
 460:./Middlewares/ST/threadx/ports/cortex_m4/gnu/inc/tx_port.h **** 
 461:./Middlewares/ST/threadx/ports/cortex_m4/gnu/inc/tx_port.h **** 
 462:./Middlewares/ST/threadx/ports/cortex_m4/gnu/inc/tx_port.h **** /* Define the get system state macro.  */
 463:./Middlewares/ST/threadx/ports/cortex_m4/gnu/inc/tx_port.h **** 
 464:./Middlewares/ST/threadx/ports/cortex_m4/gnu/inc/tx_port.h **** #ifndef TX_THREAD_GET_SYSTEM_STATE
 465:./Middlewares/ST/threadx/ports/cortex_m4/gnu/inc/tx_port.h **** #ifndef TX_MISRA_ENABLE
 466:./Middlewares/ST/threadx/ports/cortex_m4/gnu/inc/tx_port.h **** 
 467:./Middlewares/ST/threadx/ports/cortex_m4/gnu/inc/tx_port.h **** #ifdef __CC_ARM /* ARM Compiler 5 */
 468:./Middlewares/ST/threadx/ports/cortex_m4/gnu/inc/tx_port.h **** 
 469:./Middlewares/ST/threadx/ports/cortex_m4/gnu/inc/tx_port.h **** register unsigned int _ipsr __asm("ipsr");
 470:./Middlewares/ST/threadx/ports/cortex_m4/gnu/inc/tx_port.h **** #define TX_THREAD_GET_SYSTEM_STATE()        (_tx_thread_system_state | _ipsr)
 471:./Middlewares/ST/threadx/ports/cortex_m4/gnu/inc/tx_port.h **** 
 472:./Middlewares/ST/threadx/ports/cortex_m4/gnu/inc/tx_port.h **** #elif defined(__GNUC__) /* GCC and ARM Compiler 6 */
 473:./Middlewares/ST/threadx/ports/cortex_m4/gnu/inc/tx_port.h **** 
 474:./Middlewares/ST/threadx/ports/cortex_m4/gnu/inc/tx_port.h **** __attribute__( ( always_inline ) ) static inline unsigned int __get_ipsr_value(void)
 475:./Middlewares/ST/threadx/ports/cortex_m4/gnu/inc/tx_port.h **** {
 476:./Middlewares/ST/threadx/ports/cortex_m4/gnu/inc/tx_port.h **** unsigned int  ipsr_value;
 477:./Middlewares/ST/threadx/ports/cortex_m4/gnu/inc/tx_port.h ****     __asm__ volatile (" MRS  %0,IPSR ": "=r" (ipsr_value) );
 478:./Middlewares/ST/threadx/ports/cortex_m4/gnu/inc/tx_port.h ****     return(ipsr_value);
 479:./Middlewares/ST/threadx/ports/cortex_m4/gnu/inc/tx_port.h **** }
 480:./Middlewares/ST/threadx/ports/cortex_m4/gnu/inc/tx_port.h **** 
 481:./Middlewares/ST/threadx/ports/cortex_m4/gnu/inc/tx_port.h **** #define TX_THREAD_GET_SYSTEM_STATE()        (_tx_thread_system_state | __get_ipsr_value())
 482:./Middlewares/ST/threadx/ports/cortex_m4/gnu/inc/tx_port.h **** 
 483:./Middlewares/ST/threadx/ports/cortex_m4/gnu/inc/tx_port.h **** #elif defined(__ICCARM__)   /* IAR */
 484:./Middlewares/ST/threadx/ports/cortex_m4/gnu/inc/tx_port.h **** 
 485:./Middlewares/ST/threadx/ports/cortex_m4/gnu/inc/tx_port.h **** #define TX_THREAD_GET_SYSTEM_STATE()        (_tx_thread_system_state | __get_IPSR())
 486:./Middlewares/ST/threadx/ports/cortex_m4/gnu/inc/tx_port.h **** 
 487:./Middlewares/ST/threadx/ports/cortex_m4/gnu/inc/tx_port.h **** #endif  /* TX_THREAD_GET_SYSTEM_STATE for different compilers */
 488:./Middlewares/ST/threadx/ports/cortex_m4/gnu/inc/tx_port.h **** 
 489:./Middlewares/ST/threadx/ports/cortex_m4/gnu/inc/tx_port.h **** #else   /* TX_MISRA_ENABLE is defined, use MISRA function. */
 490:./Middlewares/ST/threadx/ports/cortex_m4/gnu/inc/tx_port.h **** ULONG   _tx_misra_ipsr_get(VOID);
 491:./Middlewares/ST/threadx/ports/cortex_m4/gnu/inc/tx_port.h **** #define TX_THREAD_GET_SYSTEM_STATE()        (_tx_thread_system_state | _tx_misra_ipsr_get())
 492:./Middlewares/ST/threadx/ports/cortex_m4/gnu/inc/tx_port.h **** #endif  /* TX_MISRA_ENABLE */
 493:./Middlewares/ST/threadx/ports/cortex_m4/gnu/inc/tx_port.h **** #endif  /* TX_THREAD_GET_SYSTEM_STATE */
 494:./Middlewares/ST/threadx/ports/cortex_m4/gnu/inc/tx_port.h **** 
 495:./Middlewares/ST/threadx/ports/cortex_m4/gnu/inc/tx_port.h **** 
 496:./Middlewares/ST/threadx/ports/cortex_m4/gnu/inc/tx_port.h **** /* Define the check for whether or not to call the _tx_thread_system_return function.  A non-zero v
 497:./Middlewares/ST/threadx/ports/cortex_m4/gnu/inc/tx_port.h ****    indicates that _tx_thread_system_return should not be called. This overrides the definition in t
 498:./Middlewares/ST/threadx/ports/cortex_m4/gnu/inc/tx_port.h ****    for Cortex-M since so we don't waste time checking the _tx_thread_system_state variable that is 
 499:./Middlewares/ST/threadx/ports/cortex_m4/gnu/inc/tx_port.h ****    zero after initialization for Cortex-M ports. */
 500:./Middlewares/ST/threadx/ports/cortex_m4/gnu/inc/tx_port.h **** 
 501:./Middlewares/ST/threadx/ports/cortex_m4/gnu/inc/tx_port.h **** #ifndef TX_THREAD_SYSTEM_RETURN_CHECK
 502:./Middlewares/ST/threadx/ports/cortex_m4/gnu/inc/tx_port.h **** #define TX_THREAD_SYSTEM_RETURN_CHECK(c)    (c) = ((ULONG) _tx_thread_preempt_disable);
 503:./Middlewares/ST/threadx/ports/cortex_m4/gnu/inc/tx_port.h **** #endif
ARM GAS  /tmp/ccgNlioB.s 			page 13


 504:./Middlewares/ST/threadx/ports/cortex_m4/gnu/inc/tx_port.h **** 
 505:./Middlewares/ST/threadx/ports/cortex_m4/gnu/inc/tx_port.h **** /* Define the macro to ensure _tx_thread_preempt_disable is set early in initialization in order to
 506:./Middlewares/ST/threadx/ports/cortex_m4/gnu/inc/tx_port.h ****    prevent early scheduling on Cortex-M parts.  */
 507:./Middlewares/ST/threadx/ports/cortex_m4/gnu/inc/tx_port.h **** 
 508:./Middlewares/ST/threadx/ports/cortex_m4/gnu/inc/tx_port.h **** #define TX_PORT_SPECIFIC_POST_INITIALIZATION    _tx_thread_preempt_disable++;
 509:./Middlewares/ST/threadx/ports/cortex_m4/gnu/inc/tx_port.h **** 
 510:./Middlewares/ST/threadx/ports/cortex_m4/gnu/inc/tx_port.h **** 
 511:./Middlewares/ST/threadx/ports/cortex_m4/gnu/inc/tx_port.h **** 
 512:./Middlewares/ST/threadx/ports/cortex_m4/gnu/inc/tx_port.h **** 
 513:./Middlewares/ST/threadx/ports/cortex_m4/gnu/inc/tx_port.h **** #ifndef TX_DISABLE_INLINE
 514:./Middlewares/ST/threadx/ports/cortex_m4/gnu/inc/tx_port.h **** 
 515:./Middlewares/ST/threadx/ports/cortex_m4/gnu/inc/tx_port.h **** /* Define the TX_LOWEST_SET_BIT_CALCULATE macro for each compiler. */
 516:./Middlewares/ST/threadx/ports/cortex_m4/gnu/inc/tx_port.h **** #ifdef __ICCARM__       /* IAR Compiler */
 517:./Middlewares/ST/threadx/ports/cortex_m4/gnu/inc/tx_port.h **** #define TX_LOWEST_SET_BIT_CALCULATE(m, b)       (b) = (UINT) __CLZ(__RBIT((m)));
 518:./Middlewares/ST/threadx/ports/cortex_m4/gnu/inc/tx_port.h **** #elif defined(__CC_ARM) /* AC5 Compiler */
 519:./Middlewares/ST/threadx/ports/cortex_m4/gnu/inc/tx_port.h **** #define TX_LOWEST_SET_BIT_CALCULATE(m, b)       (b) = (UINT) __clz(__rbit((m)));
 520:./Middlewares/ST/threadx/ports/cortex_m4/gnu/inc/tx_port.h **** #elif defined(__GNUC__) /* GCC and AC6 Compiler */
 521:./Middlewares/ST/threadx/ports/cortex_m4/gnu/inc/tx_port.h **** #define TX_LOWEST_SET_BIT_CALCULATE(m, b)       __asm__ volatile (" RBIT %0,%1 ": "=r" (m) : "r" (m
 522:./Middlewares/ST/threadx/ports/cortex_m4/gnu/inc/tx_port.h ****                                                 __asm__ volatile (" CLZ  %0,%1 ": "=r" (b) : "r" (m
 523:./Middlewares/ST/threadx/ports/cortex_m4/gnu/inc/tx_port.h **** #endif
 524:./Middlewares/ST/threadx/ports/cortex_m4/gnu/inc/tx_port.h **** 
 525:./Middlewares/ST/threadx/ports/cortex_m4/gnu/inc/tx_port.h **** 
 526:./Middlewares/ST/threadx/ports/cortex_m4/gnu/inc/tx_port.h **** 
 527:./Middlewares/ST/threadx/ports/cortex_m4/gnu/inc/tx_port.h **** /* Define the interrupt disable/restore macros for each compiler. */
 528:./Middlewares/ST/threadx/ports/cortex_m4/gnu/inc/tx_port.h **** 
 529:./Middlewares/ST/threadx/ports/cortex_m4/gnu/inc/tx_port.h **** #if defined(__GNUC__) || defined(__ICCARM__)
 530:./Middlewares/ST/threadx/ports/cortex_m4/gnu/inc/tx_port.h **** 
 531:./Middlewares/ST/threadx/ports/cortex_m4/gnu/inc/tx_port.h **** /*** GCC/AC6 and IAR ***/
 532:./Middlewares/ST/threadx/ports/cortex_m4/gnu/inc/tx_port.h **** 
 533:./Middlewares/ST/threadx/ports/cortex_m4/gnu/inc/tx_port.h **** __attribute__( ( always_inline ) ) static inline unsigned int __get_interrupt_posture(void)
 534:./Middlewares/ST/threadx/ports/cortex_m4/gnu/inc/tx_port.h **** {
 535:./Middlewares/ST/threadx/ports/cortex_m4/gnu/inc/tx_port.h **** unsigned int posture;
 536:./Middlewares/ST/threadx/ports/cortex_m4/gnu/inc/tx_port.h **** #ifdef TX_PORT_USE_BASEPRI
 537:./Middlewares/ST/threadx/ports/cortex_m4/gnu/inc/tx_port.h ****     __asm__ volatile ("MRS  %0, BASEPRI ": "=r" (posture));
 538:./Middlewares/ST/threadx/ports/cortex_m4/gnu/inc/tx_port.h **** #else
 539:./Middlewares/ST/threadx/ports/cortex_m4/gnu/inc/tx_port.h ****     __asm__ volatile ("MRS  %0, PRIMASK ": "=r" (posture));
 540:./Middlewares/ST/threadx/ports/cortex_m4/gnu/inc/tx_port.h **** #endif
 541:./Middlewares/ST/threadx/ports/cortex_m4/gnu/inc/tx_port.h ****     return(posture);
 542:./Middlewares/ST/threadx/ports/cortex_m4/gnu/inc/tx_port.h **** }
 543:./Middlewares/ST/threadx/ports/cortex_m4/gnu/inc/tx_port.h **** 
 544:./Middlewares/ST/threadx/ports/cortex_m4/gnu/inc/tx_port.h **** #ifdef TX_PORT_USE_BASEPRI
 545:./Middlewares/ST/threadx/ports/cortex_m4/gnu/inc/tx_port.h **** __attribute__( ( always_inline ) ) static inline void __set_basepri_value(unsigned int basepri_valu
 546:./Middlewares/ST/threadx/ports/cortex_m4/gnu/inc/tx_port.h **** {
 547:./Middlewares/ST/threadx/ports/cortex_m4/gnu/inc/tx_port.h ****     __asm__ volatile ("MSR  BASEPRI,%0 ": : "r" (basepri_value));
 548:./Middlewares/ST/threadx/ports/cortex_m4/gnu/inc/tx_port.h **** }
 549:./Middlewares/ST/threadx/ports/cortex_m4/gnu/inc/tx_port.h **** #else
 550:./Middlewares/ST/threadx/ports/cortex_m4/gnu/inc/tx_port.h **** __attribute__( ( always_inline ) ) static inline void __enable_interrupts(void)
 551:./Middlewares/ST/threadx/ports/cortex_m4/gnu/inc/tx_port.h **** {
 552:./Middlewares/ST/threadx/ports/cortex_m4/gnu/inc/tx_port.h ****     __asm__ volatile ("CPSIE  i": : : "memory");
 553:./Middlewares/ST/threadx/ports/cortex_m4/gnu/inc/tx_port.h **** }
 554:./Middlewares/ST/threadx/ports/cortex_m4/gnu/inc/tx_port.h **** #endif
 555:./Middlewares/ST/threadx/ports/cortex_m4/gnu/inc/tx_port.h **** 
 556:./Middlewares/ST/threadx/ports/cortex_m4/gnu/inc/tx_port.h **** __attribute__( ( always_inline ) ) static inline void __restore_interrupt(unsigned int int_posture)
 557:./Middlewares/ST/threadx/ports/cortex_m4/gnu/inc/tx_port.h **** {
 558:./Middlewares/ST/threadx/ports/cortex_m4/gnu/inc/tx_port.h **** #ifdef TX_PORT_USE_BASEPRI
 559:./Middlewares/ST/threadx/ports/cortex_m4/gnu/inc/tx_port.h ****     __set_basepri_value(int_posture);
 560:./Middlewares/ST/threadx/ports/cortex_m4/gnu/inc/tx_port.h ****     //__asm__ volatile ("MSR  BASEPRI,%0": : "r" (int_posture): "memory");
ARM GAS  /tmp/ccgNlioB.s 			page 14


 561:./Middlewares/ST/threadx/ports/cortex_m4/gnu/inc/tx_port.h **** #else
 562:./Middlewares/ST/threadx/ports/cortex_m4/gnu/inc/tx_port.h ****     __asm__ volatile ("MSR  PRIMASK,%0": : "r" (int_posture): "memory");
 563:./Middlewares/ST/threadx/ports/cortex_m4/gnu/inc/tx_port.h **** #endif
 564:./Middlewares/ST/threadx/ports/cortex_m4/gnu/inc/tx_port.h **** }
 565:./Middlewares/ST/threadx/ports/cortex_m4/gnu/inc/tx_port.h **** 
 566:./Middlewares/ST/threadx/ports/cortex_m4/gnu/inc/tx_port.h **** __attribute__( ( always_inline ) ) static inline unsigned int __disable_interrupts(void)
  73              		.loc 2 566 63 view .LVU21
  74              	.LBB37:
 567:./Middlewares/ST/threadx/ports/cortex_m4/gnu/inc/tx_port.h **** {
 568:./Middlewares/ST/threadx/ports/cortex_m4/gnu/inc/tx_port.h **** unsigned int int_posture;
  75              		.loc 2 568 1 view .LVU22
 569:./Middlewares/ST/threadx/ports/cortex_m4/gnu/inc/tx_port.h **** 
 570:./Middlewares/ST/threadx/ports/cortex_m4/gnu/inc/tx_port.h ****     int_posture = __get_interrupt_posture();
  76              		.loc 2 570 5 view .LVU23
  77              	.LBB38:
  78              	.LBI38:
 533:./Middlewares/ST/threadx/ports/cortex_m4/gnu/inc/tx_port.h **** {
  79              		.loc 2 533 63 view .LVU24
  80              	.LBB39:
 535:./Middlewares/ST/threadx/ports/cortex_m4/gnu/inc/tx_port.h **** #ifdef TX_PORT_USE_BASEPRI
  81              		.loc 2 535 1 view .LVU25
 539:./Middlewares/ST/threadx/ports/cortex_m4/gnu/inc/tx_port.h **** #endif
  82              		.loc 2 539 5 view .LVU26
  83              		.syntax unified
  84              	@ 539 "./Middlewares/ST/threadx/ports/cortex_m4/gnu/inc/tx_port.h" 1
  85 0008 EFF3108E 		MRS  lr, PRIMASK 
  86              	@ 0 "" 2
  87              	.LVL1:
 541:./Middlewares/ST/threadx/ports/cortex_m4/gnu/inc/tx_port.h **** }
  88              		.loc 2 541 5 view .LVU27
 541:./Middlewares/ST/threadx/ports/cortex_m4/gnu/inc/tx_port.h **** }
  89              		.loc 2 541 5 is_stmt 0 view .LVU28
  90              		.thumb
  91              		.syntax unified
  92              	.LBE39:
  93              	.LBE38:
 571:./Middlewares/ST/threadx/ports/cortex_m4/gnu/inc/tx_port.h **** 
 572:./Middlewares/ST/threadx/ports/cortex_m4/gnu/inc/tx_port.h **** #ifdef TX_PORT_USE_BASEPRI
 573:./Middlewares/ST/threadx/ports/cortex_m4/gnu/inc/tx_port.h ****     __set_basepri_value(TX_PORT_BASEPRI);
 574:./Middlewares/ST/threadx/ports/cortex_m4/gnu/inc/tx_port.h **** #else
 575:./Middlewares/ST/threadx/ports/cortex_m4/gnu/inc/tx_port.h ****     __asm__ volatile ("CPSID i" : : : "memory");
  94              		.loc 2 575 5 is_stmt 1 view .LVU29
  95              		.syntax unified
  96              	@ 575 "./Middlewares/ST/threadx/ports/cortex_m4/gnu/inc/tx_port.h" 1
  97 000c 72B6     		CPSID i
  98              	@ 0 "" 2
 576:./Middlewares/ST/threadx/ports/cortex_m4/gnu/inc/tx_port.h **** #endif
 577:./Middlewares/ST/threadx/ports/cortex_m4/gnu/inc/tx_port.h ****     return(int_posture);
  99              		.loc 2 577 5 view .LVU30
 100              	.LVL2:
 101              		.loc 2 577 5 is_stmt 0 view .LVU31
 102              		.thumb
 103              		.syntax unified
 104              	.LBE37:
 105              	.LBE36:
 111:./Middlewares/ST/threadx/common/src/tx_event_flags_set.c **** 
 112:./Middlewares/ST/threadx/common/src/tx_event_flags_set.c **** #ifdef TX_EVENT_FLAGS_ENABLE_PERFORMANCE_INFO
ARM GAS  /tmp/ccgNlioB.s 			page 15


 113:./Middlewares/ST/threadx/common/src/tx_event_flags_set.c **** 
 114:./Middlewares/ST/threadx/common/src/tx_event_flags_set.c ****     /* Increment the total event flags set counter.  */
 115:./Middlewares/ST/threadx/common/src/tx_event_flags_set.c ****     _tx_event_flags_performance_set_count++;
 116:./Middlewares/ST/threadx/common/src/tx_event_flags_set.c **** 
 117:./Middlewares/ST/threadx/common/src/tx_event_flags_set.c ****     /* Increment the number of event flags sets on this semaphore.  */
 118:./Middlewares/ST/threadx/common/src/tx_event_flags_set.c ****     group_ptr -> tx_event_flags_group_performance_set_count++;
 119:./Middlewares/ST/threadx/common/src/tx_event_flags_set.c **** #endif
 120:./Middlewares/ST/threadx/common/src/tx_event_flags_set.c **** 
 121:./Middlewares/ST/threadx/common/src/tx_event_flags_set.c ****     /* If trace is enabled, insert this event into the trace buffer.  */
 122:./Middlewares/ST/threadx/common/src/tx_event_flags_set.c ****     TX_TRACE_IN_LINE_INSERT(TX_TRACE_EVENT_FLAGS_SET, group_ptr, flags_to_set, set_option, group_pt
 123:./Middlewares/ST/threadx/common/src/tx_event_flags_set.c **** 
 124:./Middlewares/ST/threadx/common/src/tx_event_flags_set.c ****     /* Log this kernel call.  */
 125:./Middlewares/ST/threadx/common/src/tx_event_flags_set.c ****     TX_EL_EVENT_FLAGS_SET_INSERT
 126:./Middlewares/ST/threadx/common/src/tx_event_flags_set.c **** 
 127:./Middlewares/ST/threadx/common/src/tx_event_flags_set.c ****     /* Determine how to set this group's event flags.  */
 128:./Middlewares/ST/threadx/common/src/tx_event_flags_set.c ****     if ((set_option & TX_EVENT_FLAGS_AND_MASK) == TX_AND)
 106              		.loc 1 128 5 is_stmt 1 view .LVU32
 107              		.loc 1 128 8 is_stmt 0 view .LVU33
 108 000e 12F00203 		ands	r3, r2, #2
 109 0012 0193     		str	r3, [sp, #4]
 110 0014 13D0     		beq	.L2
 129:./Middlewares/ST/threadx/common/src/tx_event_flags_set.c ****     {
 130:./Middlewares/ST/threadx/common/src/tx_event_flags_set.c **** 
 131:./Middlewares/ST/threadx/common/src/tx_event_flags_set.c **** #ifndef TX_NOT_INTERRUPTABLE
 132:./Middlewares/ST/threadx/common/src/tx_event_flags_set.c **** 
 133:./Middlewares/ST/threadx/common/src/tx_event_flags_set.c ****         /* Set interrupted set request flag to false.  */
 134:./Middlewares/ST/threadx/common/src/tx_event_flags_set.c ****         interrupted_set_request =  TX_FALSE;
 111              		.loc 1 134 9 is_stmt 1 view .LVU34
 112              	.LVL3:
 135:./Middlewares/ST/threadx/common/src/tx_event_flags_set.c **** 
 136:./Middlewares/ST/threadx/common/src/tx_event_flags_set.c ****         /* Determine if the suspension list is being processed by an interrupted
 137:./Middlewares/ST/threadx/common/src/tx_event_flags_set.c ****            set request.  */
 138:./Middlewares/ST/threadx/common/src/tx_event_flags_set.c ****         if (group_ptr -> tx_event_flags_group_suspended_count != TX_NO_SUSPENSIONS)
 113              		.loc 1 138 9 view .LVU35
 114              		.loc 1 138 23 is_stmt 0 view .LVU36
 115 0016 4369     		ldr	r3, [r0, #20]
 116              		.loc 1 138 12 view .LVU37
 117 0018 0BB1     		cbz	r3, .L3
 139:./Middlewares/ST/threadx/common/src/tx_event_flags_set.c ****         {
 140:./Middlewares/ST/threadx/common/src/tx_event_flags_set.c **** 
 141:./Middlewares/ST/threadx/common/src/tx_event_flags_set.c ****             if (group_ptr -> tx_event_flags_group_suspension_list == TX_NULL)
 118              		.loc 1 141 13 is_stmt 1 view .LVU38
 119              		.loc 1 141 27 is_stmt 0 view .LVU39
 120 001a 0369     		ldr	r3, [r0, #16]
 121              		.loc 1 141 16 view .LVU40
 122 001c 53B1     		cbz	r3, .L32
 123              	.L3:
 124              	.LVL4:
 142:./Middlewares/ST/threadx/common/src/tx_event_flags_set.c ****             {
 143:./Middlewares/ST/threadx/common/src/tx_event_flags_set.c **** 
 144:./Middlewares/ST/threadx/common/src/tx_event_flags_set.c ****                 /* Set the interrupted set request flag.  */
 145:./Middlewares/ST/threadx/common/src/tx_event_flags_set.c ****                 interrupted_set_request =  TX_TRUE;
 146:./Middlewares/ST/threadx/common/src/tx_event_flags_set.c ****             }
 147:./Middlewares/ST/threadx/common/src/tx_event_flags_set.c ****         }
 148:./Middlewares/ST/threadx/common/src/tx_event_flags_set.c **** 
 149:./Middlewares/ST/threadx/common/src/tx_event_flags_set.c ****         /* Was a set request interrupted?  */
 150:./Middlewares/ST/threadx/common/src/tx_event_flags_set.c ****         if (interrupted_set_request == TX_TRUE)
ARM GAS  /tmp/ccgNlioB.s 			page 16


 151:./Middlewares/ST/threadx/common/src/tx_event_flags_set.c ****         {
 152:./Middlewares/ST/threadx/common/src/tx_event_flags_set.c **** 
 153:./Middlewares/ST/threadx/common/src/tx_event_flags_set.c ****             /* A previous set operation was interrupted, we need to defer the
 154:./Middlewares/ST/threadx/common/src/tx_event_flags_set.c ****                event clearing until the set operation is complete.  */
 155:./Middlewares/ST/threadx/common/src/tx_event_flags_set.c **** 
 156:./Middlewares/ST/threadx/common/src/tx_event_flags_set.c ****             /* Remember the events to clear.  */
 157:./Middlewares/ST/threadx/common/src/tx_event_flags_set.c ****             group_ptr -> tx_event_flags_group_delayed_clear =
 158:./Middlewares/ST/threadx/common/src/tx_event_flags_set.c ****                                         group_ptr -> tx_event_flags_group_delayed_clear | ~flags_to
 159:./Middlewares/ST/threadx/common/src/tx_event_flags_set.c ****         }
 160:./Middlewares/ST/threadx/common/src/tx_event_flags_set.c ****         else
 161:./Middlewares/ST/threadx/common/src/tx_event_flags_set.c ****         {
 162:./Middlewares/ST/threadx/common/src/tx_event_flags_set.c **** #endif
 163:./Middlewares/ST/threadx/common/src/tx_event_flags_set.c **** 
 164:./Middlewares/ST/threadx/common/src/tx_event_flags_set.c ****             /* Previous set operation was not interrupted, simply clear the
 165:./Middlewares/ST/threadx/common/src/tx_event_flags_set.c ****                specified flags by "ANDing" the flags into the current events
 166:./Middlewares/ST/threadx/common/src/tx_event_flags_set.c ****                of the group.  */
 167:./Middlewares/ST/threadx/common/src/tx_event_flags_set.c ****             group_ptr -> tx_event_flags_group_current =
 125              		.loc 1 167 13 is_stmt 1 view .LVU41
 168:./Middlewares/ST/threadx/common/src/tx_event_flags_set.c ****                 group_ptr -> tx_event_flags_group_current & flags_to_set;
 126              		.loc 1 168 27 is_stmt 0 view .LVU42
 127 001e DCF80830 		ldr	r3, [ip, #8]
 128              		.loc 1 168 59 view .LVU43
 129 0022 0B40     		ands	r3, r3, r1
 167:./Middlewares/ST/threadx/common/src/tx_event_flags_set.c ****                 group_ptr -> tx_event_flags_group_current & flags_to_set;
 130              		.loc 1 167 55 view .LVU44
 131 0024 CCF80830 		str	r3, [ip, #8]
 132              	.L4:
 169:./Middlewares/ST/threadx/common/src/tx_event_flags_set.c **** 
 170:./Middlewares/ST/threadx/common/src/tx_event_flags_set.c **** #ifndef TX_NOT_INTERRUPTABLE
 171:./Middlewares/ST/threadx/common/src/tx_event_flags_set.c **** 
 172:./Middlewares/ST/threadx/common/src/tx_event_flags_set.c ****         }
 173:./Middlewares/ST/threadx/common/src/tx_event_flags_set.c **** #endif
 174:./Middlewares/ST/threadx/common/src/tx_event_flags_set.c **** 
 175:./Middlewares/ST/threadx/common/src/tx_event_flags_set.c ****         /* Restore interrupts.  */
 176:./Middlewares/ST/threadx/common/src/tx_event_flags_set.c ****         TX_RESTORE
 133              		.loc 1 176 9 is_stmt 1 view .LVU45
 134              	.LVL5:
 135              	.LBB40:
 136              	.LBI40:
 556:./Middlewares/ST/threadx/ports/cortex_m4/gnu/inc/tx_port.h **** {
 137              		.loc 2 556 55 view .LVU46
 138              	.LBB41:
 562:./Middlewares/ST/threadx/ports/cortex_m4/gnu/inc/tx_port.h **** #endif
 139              		.loc 2 562 5 view .LVU47
 140              		.syntax unified
 141              	@ 562 "./Middlewares/ST/threadx/ports/cortex_m4/gnu/inc/tx_port.h" 1
 142 0028 8EF31088 		MSR  PRIMASK,lr
 143              	@ 0 "" 2
 144              	.LVL6:
 145              		.thumb
 146              		.syntax unified
 147              	.L5:
 562:./Middlewares/ST/threadx/ports/cortex_m4/gnu/inc/tx_port.h **** #endif
 148              		.loc 2 562 5 is_stmt 0 view .LVU48
 149              	.LBE41:
 150              	.LBE40:
 177:./Middlewares/ST/threadx/common/src/tx_event_flags_set.c ****     }
ARM GAS  /tmp/ccgNlioB.s 			page 17


 178:./Middlewares/ST/threadx/common/src/tx_event_flags_set.c ****     else
 179:./Middlewares/ST/threadx/common/src/tx_event_flags_set.c ****     {
 180:./Middlewares/ST/threadx/common/src/tx_event_flags_set.c **** 
 181:./Middlewares/ST/threadx/common/src/tx_event_flags_set.c **** #ifndef TX_DISABLE_NOTIFY_CALLBACKS
 182:./Middlewares/ST/threadx/common/src/tx_event_flags_set.c **** 
 183:./Middlewares/ST/threadx/common/src/tx_event_flags_set.c ****         /* Pickup the notify callback routine for this event flag group.  */
 184:./Middlewares/ST/threadx/common/src/tx_event_flags_set.c ****         events_set_notify =  group_ptr -> tx_event_flags_group_set_notify;
 185:./Middlewares/ST/threadx/common/src/tx_event_flags_set.c **** #endif
 186:./Middlewares/ST/threadx/common/src/tx_event_flags_set.c **** 
 187:./Middlewares/ST/threadx/common/src/tx_event_flags_set.c ****         /* "OR" the flags into the current events of the group.  */
 188:./Middlewares/ST/threadx/common/src/tx_event_flags_set.c ****         group_ptr -> tx_event_flags_group_current =
 189:./Middlewares/ST/threadx/common/src/tx_event_flags_set.c ****             group_ptr -> tx_event_flags_group_current | flags_to_set;
 190:./Middlewares/ST/threadx/common/src/tx_event_flags_set.c **** 
 191:./Middlewares/ST/threadx/common/src/tx_event_flags_set.c **** #ifndef TX_NOT_INTERRUPTABLE
 192:./Middlewares/ST/threadx/common/src/tx_event_flags_set.c **** 
 193:./Middlewares/ST/threadx/common/src/tx_event_flags_set.c ****         /* Determine if there are any delayed flags to clear.  */
 194:./Middlewares/ST/threadx/common/src/tx_event_flags_set.c ****         if (group_ptr -> tx_event_flags_group_delayed_clear != ((ULONG) 0))
 195:./Middlewares/ST/threadx/common/src/tx_event_flags_set.c ****         {
 196:./Middlewares/ST/threadx/common/src/tx_event_flags_set.c **** 
 197:./Middlewares/ST/threadx/common/src/tx_event_flags_set.c ****             /* Yes, we need to neutralize the delayed clearing as well.  */
 198:./Middlewares/ST/threadx/common/src/tx_event_flags_set.c ****             group_ptr -> tx_event_flags_group_delayed_clear =
 199:./Middlewares/ST/threadx/common/src/tx_event_flags_set.c ****                                         group_ptr -> tx_event_flags_group_delayed_clear & ~flags_to
 200:./Middlewares/ST/threadx/common/src/tx_event_flags_set.c ****         }
 201:./Middlewares/ST/threadx/common/src/tx_event_flags_set.c **** #endif
 202:./Middlewares/ST/threadx/common/src/tx_event_flags_set.c **** 
 203:./Middlewares/ST/threadx/common/src/tx_event_flags_set.c ****         /* Clear the preempt check flag.  */
 204:./Middlewares/ST/threadx/common/src/tx_event_flags_set.c ****         preempt_check =  TX_FALSE;
 205:./Middlewares/ST/threadx/common/src/tx_event_flags_set.c **** 
 206:./Middlewares/ST/threadx/common/src/tx_event_flags_set.c ****         /* Pickup the thread suspended count.  */
 207:./Middlewares/ST/threadx/common/src/tx_event_flags_set.c ****         suspended_count =  group_ptr -> tx_event_flags_group_suspended_count;
 208:./Middlewares/ST/threadx/common/src/tx_event_flags_set.c **** 
 209:./Middlewares/ST/threadx/common/src/tx_event_flags_set.c ****         /* Determine if there are any threads suspended on the event flag group.  */
 210:./Middlewares/ST/threadx/common/src/tx_event_flags_set.c ****         if (group_ptr -> tx_event_flags_group_suspension_list != TX_NULL)
 211:./Middlewares/ST/threadx/common/src/tx_event_flags_set.c ****         {
 212:./Middlewares/ST/threadx/common/src/tx_event_flags_set.c **** 
 213:./Middlewares/ST/threadx/common/src/tx_event_flags_set.c ****             /* Determine if there is just a single thread waiting on the event
 214:./Middlewares/ST/threadx/common/src/tx_event_flags_set.c ****                flag group.  */
 215:./Middlewares/ST/threadx/common/src/tx_event_flags_set.c ****             if (suspended_count == ((UINT) 1))
 216:./Middlewares/ST/threadx/common/src/tx_event_flags_set.c ****             {
 217:./Middlewares/ST/threadx/common/src/tx_event_flags_set.c **** 
 218:./Middlewares/ST/threadx/common/src/tx_event_flags_set.c ****                 /* Single thread waiting for event flags.  Bypass the multiple thread
 219:./Middlewares/ST/threadx/common/src/tx_event_flags_set.c ****                    logic.  */
 220:./Middlewares/ST/threadx/common/src/tx_event_flags_set.c **** 
 221:./Middlewares/ST/threadx/common/src/tx_event_flags_set.c ****                 /* Setup thread pointer.  */
 222:./Middlewares/ST/threadx/common/src/tx_event_flags_set.c ****                 thread_ptr =  group_ptr -> tx_event_flags_group_suspension_list;
 223:./Middlewares/ST/threadx/common/src/tx_event_flags_set.c **** 
 224:./Middlewares/ST/threadx/common/src/tx_event_flags_set.c ****                 /* Pickup the current event flags.  */
 225:./Middlewares/ST/threadx/common/src/tx_event_flags_set.c ****                 current_event_flags =  group_ptr -> tx_event_flags_group_current;
 226:./Middlewares/ST/threadx/common/src/tx_event_flags_set.c **** 
 227:./Middlewares/ST/threadx/common/src/tx_event_flags_set.c ****                 /* Pickup the suspend information.  */
 228:./Middlewares/ST/threadx/common/src/tx_event_flags_set.c ****                 requested_flags =  thread_ptr -> tx_thread_suspend_info;
 229:./Middlewares/ST/threadx/common/src/tx_event_flags_set.c **** 
 230:./Middlewares/ST/threadx/common/src/tx_event_flags_set.c ****                 /* Pickup the suspend option.  */
 231:./Middlewares/ST/threadx/common/src/tx_event_flags_set.c ****                 get_option =  thread_ptr -> tx_thread_suspend_option;
 232:./Middlewares/ST/threadx/common/src/tx_event_flags_set.c **** 
 233:./Middlewares/ST/threadx/common/src/tx_event_flags_set.c ****                 /* Isolate the AND selection.  */
 234:./Middlewares/ST/threadx/common/src/tx_event_flags_set.c ****                 and_request =  (get_option & TX_AND);
ARM GAS  /tmp/ccgNlioB.s 			page 18


 235:./Middlewares/ST/threadx/common/src/tx_event_flags_set.c **** 
 236:./Middlewares/ST/threadx/common/src/tx_event_flags_set.c ****                 /* Check for AND condition. All flags must be present to satisfy request.  */
 237:./Middlewares/ST/threadx/common/src/tx_event_flags_set.c ****                 if (and_request == TX_AND)
 238:./Middlewares/ST/threadx/common/src/tx_event_flags_set.c ****                 {
 239:./Middlewares/ST/threadx/common/src/tx_event_flags_set.c **** 
 240:./Middlewares/ST/threadx/common/src/tx_event_flags_set.c ****                     /* AND request is present.  */
 241:./Middlewares/ST/threadx/common/src/tx_event_flags_set.c **** 
 242:./Middlewares/ST/threadx/common/src/tx_event_flags_set.c ****                     /* Calculate the flags present.  */
 243:./Middlewares/ST/threadx/common/src/tx_event_flags_set.c ****                     flags_satisfied =  (current_event_flags & requested_flags);
 244:./Middlewares/ST/threadx/common/src/tx_event_flags_set.c **** 
 245:./Middlewares/ST/threadx/common/src/tx_event_flags_set.c ****                     /* Determine if they satisfy the AND request.  */
 246:./Middlewares/ST/threadx/common/src/tx_event_flags_set.c ****                     if (flags_satisfied != requested_flags)
 247:./Middlewares/ST/threadx/common/src/tx_event_flags_set.c ****                     {
 248:./Middlewares/ST/threadx/common/src/tx_event_flags_set.c **** 
 249:./Middlewares/ST/threadx/common/src/tx_event_flags_set.c ****                         /* No, not all the requested flags are present. Clear the flags present var
 250:./Middlewares/ST/threadx/common/src/tx_event_flags_set.c ****                         flags_satisfied =  ((ULONG) 0);
 251:./Middlewares/ST/threadx/common/src/tx_event_flags_set.c ****                     }
 252:./Middlewares/ST/threadx/common/src/tx_event_flags_set.c ****                 }
 253:./Middlewares/ST/threadx/common/src/tx_event_flags_set.c ****                 else
 254:./Middlewares/ST/threadx/common/src/tx_event_flags_set.c ****                 {
 255:./Middlewares/ST/threadx/common/src/tx_event_flags_set.c **** 
 256:./Middlewares/ST/threadx/common/src/tx_event_flags_set.c ****                     /* OR request is present. Simply or the requested flags and the current flags. 
 257:./Middlewares/ST/threadx/common/src/tx_event_flags_set.c ****                     flags_satisfied =  (current_event_flags & requested_flags);
 258:./Middlewares/ST/threadx/common/src/tx_event_flags_set.c ****                 }
 259:./Middlewares/ST/threadx/common/src/tx_event_flags_set.c **** 
 260:./Middlewares/ST/threadx/common/src/tx_event_flags_set.c ****                 /* Determine if the request is satisfied.  */
 261:./Middlewares/ST/threadx/common/src/tx_event_flags_set.c ****                 if (flags_satisfied != ((ULONG) 0))
 262:./Middlewares/ST/threadx/common/src/tx_event_flags_set.c ****                 {
 263:./Middlewares/ST/threadx/common/src/tx_event_flags_set.c **** 
 264:./Middlewares/ST/threadx/common/src/tx_event_flags_set.c ****                     /* Yes, resume the thread and apply any event flag
 265:./Middlewares/ST/threadx/common/src/tx_event_flags_set.c ****                        clearing.  */
 266:./Middlewares/ST/threadx/common/src/tx_event_flags_set.c **** 
 267:./Middlewares/ST/threadx/common/src/tx_event_flags_set.c ****                     /* Set the preempt check flag.  */
 268:./Middlewares/ST/threadx/common/src/tx_event_flags_set.c ****                     preempt_check =  TX_TRUE;
 269:./Middlewares/ST/threadx/common/src/tx_event_flags_set.c **** 
 270:./Middlewares/ST/threadx/common/src/tx_event_flags_set.c ****                     /* Return the actual event flags that satisfied the request.  */
 271:./Middlewares/ST/threadx/common/src/tx_event_flags_set.c ****                     suspend_info_ptr =   TX_VOID_TO_ULONG_POINTER_CONVERT(thread_ptr -> tx_thread_a
 272:./Middlewares/ST/threadx/common/src/tx_event_flags_set.c ****                     *suspend_info_ptr =  current_event_flags;
 273:./Middlewares/ST/threadx/common/src/tx_event_flags_set.c **** 
 274:./Middlewares/ST/threadx/common/src/tx_event_flags_set.c ****                     /* Pickup the clear bit.  */
 275:./Middlewares/ST/threadx/common/src/tx_event_flags_set.c ****                     clear_request =  (get_option & TX_EVENT_FLAGS_CLEAR_MASK);
 276:./Middlewares/ST/threadx/common/src/tx_event_flags_set.c **** 
 277:./Middlewares/ST/threadx/common/src/tx_event_flags_set.c ****                     /* Determine whether or not clearing needs to take place.  */
 278:./Middlewares/ST/threadx/common/src/tx_event_flags_set.c ****                     if (clear_request == TX_TRUE)
 279:./Middlewares/ST/threadx/common/src/tx_event_flags_set.c ****                     {
 280:./Middlewares/ST/threadx/common/src/tx_event_flags_set.c **** 
 281:./Middlewares/ST/threadx/common/src/tx_event_flags_set.c ****                         /* Yes, clear the flags that satisfied this request.  */
 282:./Middlewares/ST/threadx/common/src/tx_event_flags_set.c ****                         group_ptr -> tx_event_flags_group_current =  group_ptr -> tx_event_flags_gr
 283:./Middlewares/ST/threadx/common/src/tx_event_flags_set.c ****                     }
 284:./Middlewares/ST/threadx/common/src/tx_event_flags_set.c **** 
 285:./Middlewares/ST/threadx/common/src/tx_event_flags_set.c ****                     /* Clear the suspension information in the event flag group.  */
 286:./Middlewares/ST/threadx/common/src/tx_event_flags_set.c ****                     group_ptr -> tx_event_flags_group_suspension_list =  TX_NULL;
 287:./Middlewares/ST/threadx/common/src/tx_event_flags_set.c ****                     group_ptr -> tx_event_flags_group_suspended_count =  TX_NO_SUSPENSIONS;
 288:./Middlewares/ST/threadx/common/src/tx_event_flags_set.c **** 
 289:./Middlewares/ST/threadx/common/src/tx_event_flags_set.c ****                     /* Clear cleanup routine to avoid timeout.  */
 290:./Middlewares/ST/threadx/common/src/tx_event_flags_set.c ****                     thread_ptr -> tx_thread_suspend_cleanup =  TX_NULL;
 291:./Middlewares/ST/threadx/common/src/tx_event_flags_set.c **** 
ARM GAS  /tmp/ccgNlioB.s 			page 19


 292:./Middlewares/ST/threadx/common/src/tx_event_flags_set.c ****                     /* Put return status into the thread control block.  */
 293:./Middlewares/ST/threadx/common/src/tx_event_flags_set.c ****                     thread_ptr -> tx_thread_suspend_status =  TX_SUCCESS;
 294:./Middlewares/ST/threadx/common/src/tx_event_flags_set.c **** 
 295:./Middlewares/ST/threadx/common/src/tx_event_flags_set.c **** #ifdef TX_NOT_INTERRUPTABLE
 296:./Middlewares/ST/threadx/common/src/tx_event_flags_set.c **** 
 297:./Middlewares/ST/threadx/common/src/tx_event_flags_set.c ****                     /* Resume the thread!  */
 298:./Middlewares/ST/threadx/common/src/tx_event_flags_set.c ****                     _tx_thread_system_ni_resume(thread_ptr);
 299:./Middlewares/ST/threadx/common/src/tx_event_flags_set.c **** #else
 300:./Middlewares/ST/threadx/common/src/tx_event_flags_set.c **** 
 301:./Middlewares/ST/threadx/common/src/tx_event_flags_set.c ****                     /* Temporarily disable preemption.  */
 302:./Middlewares/ST/threadx/common/src/tx_event_flags_set.c ****                     _tx_thread_preempt_disable++;
 303:./Middlewares/ST/threadx/common/src/tx_event_flags_set.c **** 
 304:./Middlewares/ST/threadx/common/src/tx_event_flags_set.c ****                     /* Restore interrupts.  */
 305:./Middlewares/ST/threadx/common/src/tx_event_flags_set.c ****                     TX_RESTORE
 306:./Middlewares/ST/threadx/common/src/tx_event_flags_set.c **** 
 307:./Middlewares/ST/threadx/common/src/tx_event_flags_set.c ****                     /* Resume thread.  */
 308:./Middlewares/ST/threadx/common/src/tx_event_flags_set.c ****                     _tx_thread_system_resume(thread_ptr);
 309:./Middlewares/ST/threadx/common/src/tx_event_flags_set.c **** 
 310:./Middlewares/ST/threadx/common/src/tx_event_flags_set.c ****                     /* Disable interrupts to remove the semaphore from the created list.  */
 311:./Middlewares/ST/threadx/common/src/tx_event_flags_set.c ****                     TX_DISABLE
 312:./Middlewares/ST/threadx/common/src/tx_event_flags_set.c **** #endif
 313:./Middlewares/ST/threadx/common/src/tx_event_flags_set.c ****                 }
 314:./Middlewares/ST/threadx/common/src/tx_event_flags_set.c ****             }
 315:./Middlewares/ST/threadx/common/src/tx_event_flags_set.c ****             else
 316:./Middlewares/ST/threadx/common/src/tx_event_flags_set.c ****             {
 317:./Middlewares/ST/threadx/common/src/tx_event_flags_set.c **** 
 318:./Middlewares/ST/threadx/common/src/tx_event_flags_set.c ****                 /* Otherwise, the event flag requests of multiple threads must be
 319:./Middlewares/ST/threadx/common/src/tx_event_flags_set.c ****                    examined.  */
 320:./Middlewares/ST/threadx/common/src/tx_event_flags_set.c **** 
 321:./Middlewares/ST/threadx/common/src/tx_event_flags_set.c ****                 /* Setup thread pointer, keep a local copy of the head pointer.  */
 322:./Middlewares/ST/threadx/common/src/tx_event_flags_set.c ****                 suspended_list =  group_ptr -> tx_event_flags_group_suspension_list;
 323:./Middlewares/ST/threadx/common/src/tx_event_flags_set.c ****                 thread_ptr =      suspended_list;
 324:./Middlewares/ST/threadx/common/src/tx_event_flags_set.c **** 
 325:./Middlewares/ST/threadx/common/src/tx_event_flags_set.c ****                 /* Clear the suspended list head pointer to thwart manipulation of
 326:./Middlewares/ST/threadx/common/src/tx_event_flags_set.c ****                    the list in ISR's while we are processing here.  */
 327:./Middlewares/ST/threadx/common/src/tx_event_flags_set.c ****                 group_ptr -> tx_event_flags_group_suspension_list =  TX_NULL;
 328:./Middlewares/ST/threadx/common/src/tx_event_flags_set.c **** 
 329:./Middlewares/ST/threadx/common/src/tx_event_flags_set.c ****                 /* Setup the satisfied thread pointers.  */
 330:./Middlewares/ST/threadx/common/src/tx_event_flags_set.c ****                 satisfied_list =  TX_NULL;
 331:./Middlewares/ST/threadx/common/src/tx_event_flags_set.c ****                 last_satisfied =  TX_NULL;
 332:./Middlewares/ST/threadx/common/src/tx_event_flags_set.c **** 
 333:./Middlewares/ST/threadx/common/src/tx_event_flags_set.c ****                 /* Pickup the current event flags.  */
 334:./Middlewares/ST/threadx/common/src/tx_event_flags_set.c ****                 current_event_flags =  group_ptr -> tx_event_flags_group_current;
 335:./Middlewares/ST/threadx/common/src/tx_event_flags_set.c **** 
 336:./Middlewares/ST/threadx/common/src/tx_event_flags_set.c ****                 /* Disable preemption while we process the suspended list.  */
 337:./Middlewares/ST/threadx/common/src/tx_event_flags_set.c ****                 _tx_thread_preempt_disable++;
 338:./Middlewares/ST/threadx/common/src/tx_event_flags_set.c **** 
 339:./Middlewares/ST/threadx/common/src/tx_event_flags_set.c ****                 /* Loop to examine all of the suspended threads. */
 340:./Middlewares/ST/threadx/common/src/tx_event_flags_set.c ****                 do
 341:./Middlewares/ST/threadx/common/src/tx_event_flags_set.c ****                 {
 342:./Middlewares/ST/threadx/common/src/tx_event_flags_set.c **** 
 343:./Middlewares/ST/threadx/common/src/tx_event_flags_set.c **** #ifndef TX_NOT_INTERRUPTABLE
 344:./Middlewares/ST/threadx/common/src/tx_event_flags_set.c **** 
 345:./Middlewares/ST/threadx/common/src/tx_event_flags_set.c ****                     /* Restore interrupts temporarily.  */
 346:./Middlewares/ST/threadx/common/src/tx_event_flags_set.c ****                     TX_RESTORE
 347:./Middlewares/ST/threadx/common/src/tx_event_flags_set.c **** 
 348:./Middlewares/ST/threadx/common/src/tx_event_flags_set.c ****                     /* Disable interrupts again.  */
ARM GAS  /tmp/ccgNlioB.s 			page 20


 349:./Middlewares/ST/threadx/common/src/tx_event_flags_set.c ****                     TX_DISABLE
 350:./Middlewares/ST/threadx/common/src/tx_event_flags_set.c **** #endif
 351:./Middlewares/ST/threadx/common/src/tx_event_flags_set.c **** 
 352:./Middlewares/ST/threadx/common/src/tx_event_flags_set.c ****                     /* Determine if we need to reset the search.  */
 353:./Middlewares/ST/threadx/common/src/tx_event_flags_set.c ****                     if (group_ptr -> tx_event_flags_group_reset_search != TX_FALSE)
 354:./Middlewares/ST/threadx/common/src/tx_event_flags_set.c ****                     {
 355:./Middlewares/ST/threadx/common/src/tx_event_flags_set.c **** 
 356:./Middlewares/ST/threadx/common/src/tx_event_flags_set.c ****                         /* Clear the reset search flag.  */
 357:./Middlewares/ST/threadx/common/src/tx_event_flags_set.c ****                         group_ptr -> tx_event_flags_group_reset_search =  TX_FALSE;
 358:./Middlewares/ST/threadx/common/src/tx_event_flags_set.c **** 
 359:./Middlewares/ST/threadx/common/src/tx_event_flags_set.c ****                         /* Move the thread pointer to the beginning of the search list.  */
 360:./Middlewares/ST/threadx/common/src/tx_event_flags_set.c ****                         thread_ptr =  suspended_list;
 361:./Middlewares/ST/threadx/common/src/tx_event_flags_set.c **** 
 362:./Middlewares/ST/threadx/common/src/tx_event_flags_set.c ****                         /* Reset the suspended count.  */
 363:./Middlewares/ST/threadx/common/src/tx_event_flags_set.c ****                         suspended_count =  group_ptr -> tx_event_flags_group_suspended_count;
 364:./Middlewares/ST/threadx/common/src/tx_event_flags_set.c **** 
 365:./Middlewares/ST/threadx/common/src/tx_event_flags_set.c ****                         /* Update the current events with any new ones that might
 366:./Middlewares/ST/threadx/common/src/tx_event_flags_set.c ****                            have been set in a nested set events call from an ISR.  */
 367:./Middlewares/ST/threadx/common/src/tx_event_flags_set.c ****                         current_event_flags =  current_event_flags | group_ptr -> tx_event_flags_gr
 368:./Middlewares/ST/threadx/common/src/tx_event_flags_set.c ****                     }
 369:./Middlewares/ST/threadx/common/src/tx_event_flags_set.c **** 
 370:./Middlewares/ST/threadx/common/src/tx_event_flags_set.c ****                     /* Save next thread pointer.  */
 371:./Middlewares/ST/threadx/common/src/tx_event_flags_set.c ****                     next_thread_ptr =  thread_ptr -> tx_thread_suspended_next;
 372:./Middlewares/ST/threadx/common/src/tx_event_flags_set.c **** 
 373:./Middlewares/ST/threadx/common/src/tx_event_flags_set.c ****                     /* Pickup the suspend information.  */
 374:./Middlewares/ST/threadx/common/src/tx_event_flags_set.c ****                     requested_flags =  thread_ptr -> tx_thread_suspend_info;
 375:./Middlewares/ST/threadx/common/src/tx_event_flags_set.c **** 
 376:./Middlewares/ST/threadx/common/src/tx_event_flags_set.c ****                     /* Pickup this thread's suspension get option.  */
 377:./Middlewares/ST/threadx/common/src/tx_event_flags_set.c ****                     get_option =  thread_ptr -> tx_thread_suspend_option;
 378:./Middlewares/ST/threadx/common/src/tx_event_flags_set.c **** 
 379:./Middlewares/ST/threadx/common/src/tx_event_flags_set.c ****                     /* Isolate the AND selection.  */
 380:./Middlewares/ST/threadx/common/src/tx_event_flags_set.c ****                     and_request =  (get_option & TX_AND);
 381:./Middlewares/ST/threadx/common/src/tx_event_flags_set.c **** 
 382:./Middlewares/ST/threadx/common/src/tx_event_flags_set.c ****                     /* Check for AND condition. All flags must be present to satisfy request.  */
 383:./Middlewares/ST/threadx/common/src/tx_event_flags_set.c ****                     if (and_request == TX_AND)
 384:./Middlewares/ST/threadx/common/src/tx_event_flags_set.c ****                     {
 385:./Middlewares/ST/threadx/common/src/tx_event_flags_set.c **** 
 386:./Middlewares/ST/threadx/common/src/tx_event_flags_set.c ****                         /* AND request is present.  */
 387:./Middlewares/ST/threadx/common/src/tx_event_flags_set.c **** 
 388:./Middlewares/ST/threadx/common/src/tx_event_flags_set.c ****                         /* Calculate the flags present.  */
 389:./Middlewares/ST/threadx/common/src/tx_event_flags_set.c ****                         flags_satisfied =  (current_event_flags & requested_flags);
 390:./Middlewares/ST/threadx/common/src/tx_event_flags_set.c **** 
 391:./Middlewares/ST/threadx/common/src/tx_event_flags_set.c ****                         /* Determine if they satisfy the AND request.  */
 392:./Middlewares/ST/threadx/common/src/tx_event_flags_set.c ****                         if (flags_satisfied != requested_flags)
 393:./Middlewares/ST/threadx/common/src/tx_event_flags_set.c ****                         {
 394:./Middlewares/ST/threadx/common/src/tx_event_flags_set.c **** 
 395:./Middlewares/ST/threadx/common/src/tx_event_flags_set.c ****                             /* No, not all the requested flags are present. Clear the flags present
 396:./Middlewares/ST/threadx/common/src/tx_event_flags_set.c ****                             flags_satisfied =  ((ULONG) 0);
 397:./Middlewares/ST/threadx/common/src/tx_event_flags_set.c ****                         }
 398:./Middlewares/ST/threadx/common/src/tx_event_flags_set.c ****                     }
 399:./Middlewares/ST/threadx/common/src/tx_event_flags_set.c ****                     else
 400:./Middlewares/ST/threadx/common/src/tx_event_flags_set.c ****                     {
 401:./Middlewares/ST/threadx/common/src/tx_event_flags_set.c **** 
 402:./Middlewares/ST/threadx/common/src/tx_event_flags_set.c ****                         /* OR request is present. Simply or the requested flags and the current fla
 403:./Middlewares/ST/threadx/common/src/tx_event_flags_set.c ****                         flags_satisfied =  (current_event_flags & requested_flags);
 404:./Middlewares/ST/threadx/common/src/tx_event_flags_set.c ****                     }
 405:./Middlewares/ST/threadx/common/src/tx_event_flags_set.c **** 
ARM GAS  /tmp/ccgNlioB.s 			page 21


 406:./Middlewares/ST/threadx/common/src/tx_event_flags_set.c ****                     /* Check to see if the thread had a timeout or wait abort during the event sear
 407:./Middlewares/ST/threadx/common/src/tx_event_flags_set.c ****                        If so, just set the flags satisfied to ensure the processing here removes th
 408:./Middlewares/ST/threadx/common/src/tx_event_flags_set.c ****                        the suspension list.  */
 409:./Middlewares/ST/threadx/common/src/tx_event_flags_set.c ****                     if (thread_ptr -> tx_thread_state != TX_EVENT_FLAG)
 410:./Middlewares/ST/threadx/common/src/tx_event_flags_set.c ****                     {
 411:./Middlewares/ST/threadx/common/src/tx_event_flags_set.c **** 
 412:./Middlewares/ST/threadx/common/src/tx_event_flags_set.c ****                        /* Simply set the satisfied flags to 1 in order to remove the thread from th
 413:./Middlewares/ST/threadx/common/src/tx_event_flags_set.c ****                         flags_satisfied =  ((ULONG) 1);
 414:./Middlewares/ST/threadx/common/src/tx_event_flags_set.c ****                     }
 415:./Middlewares/ST/threadx/common/src/tx_event_flags_set.c **** 
 416:./Middlewares/ST/threadx/common/src/tx_event_flags_set.c ****                     /* Determine if the request is satisfied.  */
 417:./Middlewares/ST/threadx/common/src/tx_event_flags_set.c ****                     if (flags_satisfied != ((ULONG) 0))
 418:./Middlewares/ST/threadx/common/src/tx_event_flags_set.c ****                     {
 419:./Middlewares/ST/threadx/common/src/tx_event_flags_set.c **** 
 420:./Middlewares/ST/threadx/common/src/tx_event_flags_set.c ****                         /* Yes, this request can be handled now.  */
 421:./Middlewares/ST/threadx/common/src/tx_event_flags_set.c **** 
 422:./Middlewares/ST/threadx/common/src/tx_event_flags_set.c ****                         /* Set the preempt check flag.  */
 423:./Middlewares/ST/threadx/common/src/tx_event_flags_set.c ****                         preempt_check =  TX_TRUE;
 424:./Middlewares/ST/threadx/common/src/tx_event_flags_set.c **** 
 425:./Middlewares/ST/threadx/common/src/tx_event_flags_set.c ****                         /* Determine if the thread is still suspended on the event flag group. If n
 426:./Middlewares/ST/threadx/common/src/tx_event_flags_set.c ****                            abort must have been done from an ISR.  */
 427:./Middlewares/ST/threadx/common/src/tx_event_flags_set.c ****                         if (thread_ptr -> tx_thread_state == TX_EVENT_FLAG)
 428:./Middlewares/ST/threadx/common/src/tx_event_flags_set.c ****                         {
 429:./Middlewares/ST/threadx/common/src/tx_event_flags_set.c **** 
 430:./Middlewares/ST/threadx/common/src/tx_event_flags_set.c ****                             /* Return the actual event flags that satisfied the request.  */
 431:./Middlewares/ST/threadx/common/src/tx_event_flags_set.c ****                             suspend_info_ptr =   TX_VOID_TO_ULONG_POINTER_CONVERT(thread_ptr -> tx_
 432:./Middlewares/ST/threadx/common/src/tx_event_flags_set.c ****                             *suspend_info_ptr =  current_event_flags;
 433:./Middlewares/ST/threadx/common/src/tx_event_flags_set.c **** 
 434:./Middlewares/ST/threadx/common/src/tx_event_flags_set.c ****                             /* Pickup the clear bit.  */
 435:./Middlewares/ST/threadx/common/src/tx_event_flags_set.c ****                             clear_request =  (get_option & TX_EVENT_FLAGS_CLEAR_MASK);
 436:./Middlewares/ST/threadx/common/src/tx_event_flags_set.c **** 
 437:./Middlewares/ST/threadx/common/src/tx_event_flags_set.c ****                             /* Determine whether or not clearing needs to take place.  */
 438:./Middlewares/ST/threadx/common/src/tx_event_flags_set.c ****                             if (clear_request == TX_TRUE)
 439:./Middlewares/ST/threadx/common/src/tx_event_flags_set.c ****                             {
 440:./Middlewares/ST/threadx/common/src/tx_event_flags_set.c **** 
 441:./Middlewares/ST/threadx/common/src/tx_event_flags_set.c ****                                 /* Yes, clear the flags that satisfied this request.  */
 442:./Middlewares/ST/threadx/common/src/tx_event_flags_set.c ****                                 group_ptr -> tx_event_flags_group_current =  group_ptr -> tx_event_
 443:./Middlewares/ST/threadx/common/src/tx_event_flags_set.c ****                             }
 444:./Middlewares/ST/threadx/common/src/tx_event_flags_set.c **** 
 445:./Middlewares/ST/threadx/common/src/tx_event_flags_set.c ****                             /* Prepare for resumption of the first thread.  */
 446:./Middlewares/ST/threadx/common/src/tx_event_flags_set.c **** 
 447:./Middlewares/ST/threadx/common/src/tx_event_flags_set.c ****                             /* Clear cleanup routine to avoid timeout.  */
 448:./Middlewares/ST/threadx/common/src/tx_event_flags_set.c ****                             thread_ptr -> tx_thread_suspend_cleanup =  TX_NULL;
 449:./Middlewares/ST/threadx/common/src/tx_event_flags_set.c **** 
 450:./Middlewares/ST/threadx/common/src/tx_event_flags_set.c ****                             /* Put return status into the thread control block.  */
 451:./Middlewares/ST/threadx/common/src/tx_event_flags_set.c ****                             thread_ptr -> tx_thread_suspend_status =  TX_SUCCESS;
 452:./Middlewares/ST/threadx/common/src/tx_event_flags_set.c ****                         }
 453:./Middlewares/ST/threadx/common/src/tx_event_flags_set.c **** 
 454:./Middlewares/ST/threadx/common/src/tx_event_flags_set.c ****                         /* We need to remove the thread from the suspension list and place it in th
 455:./Middlewares/ST/threadx/common/src/tx_event_flags_set.c ****                            expired list.  */
 456:./Middlewares/ST/threadx/common/src/tx_event_flags_set.c **** 
 457:./Middlewares/ST/threadx/common/src/tx_event_flags_set.c ****                         /* See if this is the only suspended thread on the list.  */
 458:./Middlewares/ST/threadx/common/src/tx_event_flags_set.c ****                         if (thread_ptr == thread_ptr -> tx_thread_suspended_next)
 459:./Middlewares/ST/threadx/common/src/tx_event_flags_set.c ****                         {
 460:./Middlewares/ST/threadx/common/src/tx_event_flags_set.c **** 
 461:./Middlewares/ST/threadx/common/src/tx_event_flags_set.c ****                             /* Yes, the only suspended thread.  */
 462:./Middlewares/ST/threadx/common/src/tx_event_flags_set.c **** 
ARM GAS  /tmp/ccgNlioB.s 			page 22


 463:./Middlewares/ST/threadx/common/src/tx_event_flags_set.c ****                             /* Update the head pointer.  */
 464:./Middlewares/ST/threadx/common/src/tx_event_flags_set.c ****                             suspended_list =  TX_NULL;
 465:./Middlewares/ST/threadx/common/src/tx_event_flags_set.c ****                         }
 466:./Middlewares/ST/threadx/common/src/tx_event_flags_set.c ****                         else
 467:./Middlewares/ST/threadx/common/src/tx_event_flags_set.c ****                         {
 468:./Middlewares/ST/threadx/common/src/tx_event_flags_set.c **** 
 469:./Middlewares/ST/threadx/common/src/tx_event_flags_set.c ****                             /* At least one more thread is on the same expiration list.  */
 470:./Middlewares/ST/threadx/common/src/tx_event_flags_set.c **** 
 471:./Middlewares/ST/threadx/common/src/tx_event_flags_set.c ****                             /* Update the links of the adjacent threads.  */
 472:./Middlewares/ST/threadx/common/src/tx_event_flags_set.c ****                             next_thread =                                  thread_ptr -> tx_thread_
 473:./Middlewares/ST/threadx/common/src/tx_event_flags_set.c ****                             previous_thread =                              thread_ptr -> tx_thread_
 474:./Middlewares/ST/threadx/common/src/tx_event_flags_set.c ****                             next_thread -> tx_thread_suspended_previous =  previous_thread;
 475:./Middlewares/ST/threadx/common/src/tx_event_flags_set.c ****                             previous_thread -> tx_thread_suspended_next =  next_thread;
 476:./Middlewares/ST/threadx/common/src/tx_event_flags_set.c **** 
 477:./Middlewares/ST/threadx/common/src/tx_event_flags_set.c ****                             /* Update the list head pointer, if removing the head of the
 478:./Middlewares/ST/threadx/common/src/tx_event_flags_set.c ****                                list.  */
 479:./Middlewares/ST/threadx/common/src/tx_event_flags_set.c ****                             if (suspended_list == thread_ptr)
 480:./Middlewares/ST/threadx/common/src/tx_event_flags_set.c ****                             {
 481:./Middlewares/ST/threadx/common/src/tx_event_flags_set.c **** 
 482:./Middlewares/ST/threadx/common/src/tx_event_flags_set.c ****                                 /* Yes, head pointer needs to be updated.  */
 483:./Middlewares/ST/threadx/common/src/tx_event_flags_set.c ****                                 suspended_list =  thread_ptr -> tx_thread_suspended_next;
 484:./Middlewares/ST/threadx/common/src/tx_event_flags_set.c ****                             }
 485:./Middlewares/ST/threadx/common/src/tx_event_flags_set.c ****                         }
 486:./Middlewares/ST/threadx/common/src/tx_event_flags_set.c **** 
 487:./Middlewares/ST/threadx/common/src/tx_event_flags_set.c ****                         /* Decrement the suspension count.  */
 488:./Middlewares/ST/threadx/common/src/tx_event_flags_set.c ****                         group_ptr -> tx_event_flags_group_suspended_count--;
 489:./Middlewares/ST/threadx/common/src/tx_event_flags_set.c **** 
 490:./Middlewares/ST/threadx/common/src/tx_event_flags_set.c ****                         /* Place this thread on the expired list.  */
 491:./Middlewares/ST/threadx/common/src/tx_event_flags_set.c ****                         if (satisfied_list == TX_NULL)
 492:./Middlewares/ST/threadx/common/src/tx_event_flags_set.c ****                         {
 493:./Middlewares/ST/threadx/common/src/tx_event_flags_set.c **** 
 494:./Middlewares/ST/threadx/common/src/tx_event_flags_set.c ****                             /* First thread on the satisfied list.  */
 495:./Middlewares/ST/threadx/common/src/tx_event_flags_set.c ****                             satisfied_list =  thread_ptr;
 496:./Middlewares/ST/threadx/common/src/tx_event_flags_set.c ****                             last_satisfied =  thread_ptr;
 497:./Middlewares/ST/threadx/common/src/tx_event_flags_set.c **** 
 498:./Middlewares/ST/threadx/common/src/tx_event_flags_set.c ****                             /* Setup initial next pointer.  */
 499:./Middlewares/ST/threadx/common/src/tx_event_flags_set.c ****                             thread_ptr -> tx_thread_suspended_next =  TX_NULL;
 500:./Middlewares/ST/threadx/common/src/tx_event_flags_set.c ****                         }
 501:./Middlewares/ST/threadx/common/src/tx_event_flags_set.c ****                         else
 502:./Middlewares/ST/threadx/common/src/tx_event_flags_set.c ****                         {
 503:./Middlewares/ST/threadx/common/src/tx_event_flags_set.c **** 
 504:./Middlewares/ST/threadx/common/src/tx_event_flags_set.c ****                             /* Not the first thread on the satisfied list.  */
 505:./Middlewares/ST/threadx/common/src/tx_event_flags_set.c **** 
 506:./Middlewares/ST/threadx/common/src/tx_event_flags_set.c ****                             /* Link it up at the end.  */
 507:./Middlewares/ST/threadx/common/src/tx_event_flags_set.c ****                             last_satisfied -> tx_thread_suspended_next =  thread_ptr;
 508:./Middlewares/ST/threadx/common/src/tx_event_flags_set.c ****                             thread_ptr -> tx_thread_suspended_next =      TX_NULL;
 509:./Middlewares/ST/threadx/common/src/tx_event_flags_set.c ****                             last_satisfied =                              thread_ptr;
 510:./Middlewares/ST/threadx/common/src/tx_event_flags_set.c ****                         }
 511:./Middlewares/ST/threadx/common/src/tx_event_flags_set.c ****                     }
 512:./Middlewares/ST/threadx/common/src/tx_event_flags_set.c **** 
 513:./Middlewares/ST/threadx/common/src/tx_event_flags_set.c ****                     /* Copy next thread pointer to working thread ptr.  */
 514:./Middlewares/ST/threadx/common/src/tx_event_flags_set.c ****                     thread_ptr =  next_thread_ptr;
 515:./Middlewares/ST/threadx/common/src/tx_event_flags_set.c **** 
 516:./Middlewares/ST/threadx/common/src/tx_event_flags_set.c ****                     /* Decrement the suspension count.  */
 517:./Middlewares/ST/threadx/common/src/tx_event_flags_set.c ****                     suspended_count--;
 518:./Middlewares/ST/threadx/common/src/tx_event_flags_set.c **** 
 519:./Middlewares/ST/threadx/common/src/tx_event_flags_set.c ****                 } while (suspended_count != TX_NO_SUSPENSIONS);
ARM GAS  /tmp/ccgNlioB.s 			page 23


 520:./Middlewares/ST/threadx/common/src/tx_event_flags_set.c **** 
 521:./Middlewares/ST/threadx/common/src/tx_event_flags_set.c ****                 /* Setup the group's suspension list head again.  */
 522:./Middlewares/ST/threadx/common/src/tx_event_flags_set.c ****                 group_ptr -> tx_event_flags_group_suspension_list =  suspended_list;
 523:./Middlewares/ST/threadx/common/src/tx_event_flags_set.c **** 
 524:./Middlewares/ST/threadx/common/src/tx_event_flags_set.c **** #ifndef TX_NOT_INTERRUPTABLE
 525:./Middlewares/ST/threadx/common/src/tx_event_flags_set.c **** 
 526:./Middlewares/ST/threadx/common/src/tx_event_flags_set.c ****                 /* Determine if there is any delayed event clearing to perform.  */
 527:./Middlewares/ST/threadx/common/src/tx_event_flags_set.c ****                 if (group_ptr -> tx_event_flags_group_delayed_clear != ((ULONG) 0))
 528:./Middlewares/ST/threadx/common/src/tx_event_flags_set.c ****                 {
 529:./Middlewares/ST/threadx/common/src/tx_event_flags_set.c **** 
 530:./Middlewares/ST/threadx/common/src/tx_event_flags_set.c ****                     /* Perform the delayed event clearing.  */
 531:./Middlewares/ST/threadx/common/src/tx_event_flags_set.c ****                     group_ptr -> tx_event_flags_group_current =
 532:./Middlewares/ST/threadx/common/src/tx_event_flags_set.c ****                         group_ptr -> tx_event_flags_group_current & ~(group_ptr -> tx_event_flags_g
 533:./Middlewares/ST/threadx/common/src/tx_event_flags_set.c **** 
 534:./Middlewares/ST/threadx/common/src/tx_event_flags_set.c ****                     /* Clear the delayed event flag clear value.  */
 535:./Middlewares/ST/threadx/common/src/tx_event_flags_set.c ****                     group_ptr -> tx_event_flags_group_delayed_clear =  ((ULONG) 0);
 536:./Middlewares/ST/threadx/common/src/tx_event_flags_set.c ****                 }
 537:./Middlewares/ST/threadx/common/src/tx_event_flags_set.c **** #endif
 538:./Middlewares/ST/threadx/common/src/tx_event_flags_set.c **** 
 539:./Middlewares/ST/threadx/common/src/tx_event_flags_set.c ****                 /* Restore interrupts.  */
 540:./Middlewares/ST/threadx/common/src/tx_event_flags_set.c ****                 TX_RESTORE
 541:./Middlewares/ST/threadx/common/src/tx_event_flags_set.c **** 
 542:./Middlewares/ST/threadx/common/src/tx_event_flags_set.c ****                 /* Walk through the satisfied list, setup initial thread pointer. */
 543:./Middlewares/ST/threadx/common/src/tx_event_flags_set.c ****                 thread_ptr =  satisfied_list;
 544:./Middlewares/ST/threadx/common/src/tx_event_flags_set.c ****                 while(thread_ptr != TX_NULL)
 545:./Middlewares/ST/threadx/common/src/tx_event_flags_set.c ****                 {
 546:./Middlewares/ST/threadx/common/src/tx_event_flags_set.c **** 
 547:./Middlewares/ST/threadx/common/src/tx_event_flags_set.c ****                     /* Get next pointer first.  */
 548:./Middlewares/ST/threadx/common/src/tx_event_flags_set.c ****                     next_thread_ptr =  thread_ptr -> tx_thread_suspended_next;
 549:./Middlewares/ST/threadx/common/src/tx_event_flags_set.c **** 
 550:./Middlewares/ST/threadx/common/src/tx_event_flags_set.c ****                     /* Disable interrupts.  */
 551:./Middlewares/ST/threadx/common/src/tx_event_flags_set.c ****                     TX_DISABLE
 552:./Middlewares/ST/threadx/common/src/tx_event_flags_set.c **** 
 553:./Middlewares/ST/threadx/common/src/tx_event_flags_set.c **** #ifdef TX_NOT_INTERRUPTABLE
 554:./Middlewares/ST/threadx/common/src/tx_event_flags_set.c **** 
 555:./Middlewares/ST/threadx/common/src/tx_event_flags_set.c ****                     /* Resume the thread!  */
 556:./Middlewares/ST/threadx/common/src/tx_event_flags_set.c ****                     _tx_thread_system_ni_resume(thread_ptr);
 557:./Middlewares/ST/threadx/common/src/tx_event_flags_set.c **** 
 558:./Middlewares/ST/threadx/common/src/tx_event_flags_set.c ****                     /* Restore interrupts.  */
 559:./Middlewares/ST/threadx/common/src/tx_event_flags_set.c ****                     TX_RESTORE
 560:./Middlewares/ST/threadx/common/src/tx_event_flags_set.c **** #else
 561:./Middlewares/ST/threadx/common/src/tx_event_flags_set.c **** 
 562:./Middlewares/ST/threadx/common/src/tx_event_flags_set.c ****                     /* Disable preemption again.  */
 563:./Middlewares/ST/threadx/common/src/tx_event_flags_set.c ****                     _tx_thread_preempt_disable++;
 564:./Middlewares/ST/threadx/common/src/tx_event_flags_set.c **** 
 565:./Middlewares/ST/threadx/common/src/tx_event_flags_set.c ****                     /* Restore interrupt posture.  */
 566:./Middlewares/ST/threadx/common/src/tx_event_flags_set.c ****                     TX_RESTORE
 567:./Middlewares/ST/threadx/common/src/tx_event_flags_set.c **** 
 568:./Middlewares/ST/threadx/common/src/tx_event_flags_set.c ****                     /* Resume the thread.  */
 569:./Middlewares/ST/threadx/common/src/tx_event_flags_set.c ****                     _tx_thread_system_resume(thread_ptr);
 570:./Middlewares/ST/threadx/common/src/tx_event_flags_set.c **** #endif
 571:./Middlewares/ST/threadx/common/src/tx_event_flags_set.c **** 
 572:./Middlewares/ST/threadx/common/src/tx_event_flags_set.c ****                     /* Move next thread to current.  */
 573:./Middlewares/ST/threadx/common/src/tx_event_flags_set.c ****                     thread_ptr =  next_thread_ptr;
 574:./Middlewares/ST/threadx/common/src/tx_event_flags_set.c ****                 }
 575:./Middlewares/ST/threadx/common/src/tx_event_flags_set.c **** 
 576:./Middlewares/ST/threadx/common/src/tx_event_flags_set.c ****                 /* Disable interrupts.  */
ARM GAS  /tmp/ccgNlioB.s 			page 24


 577:./Middlewares/ST/threadx/common/src/tx_event_flags_set.c ****                 TX_DISABLE
 578:./Middlewares/ST/threadx/common/src/tx_event_flags_set.c **** 
 579:./Middlewares/ST/threadx/common/src/tx_event_flags_set.c ****                 /* Release thread preemption disable.  */
 580:./Middlewares/ST/threadx/common/src/tx_event_flags_set.c ****                 _tx_thread_preempt_disable--;
 581:./Middlewares/ST/threadx/common/src/tx_event_flags_set.c ****             }
 582:./Middlewares/ST/threadx/common/src/tx_event_flags_set.c ****         }
 583:./Middlewares/ST/threadx/common/src/tx_event_flags_set.c ****         else
 584:./Middlewares/ST/threadx/common/src/tx_event_flags_set.c ****         {
 585:./Middlewares/ST/threadx/common/src/tx_event_flags_set.c **** 
 586:./Middlewares/ST/threadx/common/src/tx_event_flags_set.c ****             /* Determine if we need to set the reset search field.  */
 587:./Middlewares/ST/threadx/common/src/tx_event_flags_set.c ****             if (group_ptr -> tx_event_flags_group_suspended_count != TX_NO_SUSPENSIONS)
 588:./Middlewares/ST/threadx/common/src/tx_event_flags_set.c ****             {
 589:./Middlewares/ST/threadx/common/src/tx_event_flags_set.c **** 
 590:./Middlewares/ST/threadx/common/src/tx_event_flags_set.c ****                 /* We interrupted a search of an event flag group suspension
 591:./Middlewares/ST/threadx/common/src/tx_event_flags_set.c ****                    list.  Make sure we reset the search.  */
 592:./Middlewares/ST/threadx/common/src/tx_event_flags_set.c ****                 group_ptr -> tx_event_flags_group_reset_search =  TX_TRUE;
 593:./Middlewares/ST/threadx/common/src/tx_event_flags_set.c ****             }
 594:./Middlewares/ST/threadx/common/src/tx_event_flags_set.c ****         }
 595:./Middlewares/ST/threadx/common/src/tx_event_flags_set.c **** 
 596:./Middlewares/ST/threadx/common/src/tx_event_flags_set.c ****         /* Restore interrupts.  */
 597:./Middlewares/ST/threadx/common/src/tx_event_flags_set.c ****         TX_RESTORE
 598:./Middlewares/ST/threadx/common/src/tx_event_flags_set.c **** 
 599:./Middlewares/ST/threadx/common/src/tx_event_flags_set.c **** #ifndef TX_DISABLE_NOTIFY_CALLBACKS
 600:./Middlewares/ST/threadx/common/src/tx_event_flags_set.c **** 
 601:./Middlewares/ST/threadx/common/src/tx_event_flags_set.c ****         /* Determine if a notify callback is required.  */
 602:./Middlewares/ST/threadx/common/src/tx_event_flags_set.c ****         if (events_set_notify != TX_NULL)
 603:./Middlewares/ST/threadx/common/src/tx_event_flags_set.c ****         {
 604:./Middlewares/ST/threadx/common/src/tx_event_flags_set.c **** 
 605:./Middlewares/ST/threadx/common/src/tx_event_flags_set.c ****             /* Call application event flags set notification.  */
 606:./Middlewares/ST/threadx/common/src/tx_event_flags_set.c ****             (events_set_notify)(group_ptr);
 607:./Middlewares/ST/threadx/common/src/tx_event_flags_set.c ****         }
 608:./Middlewares/ST/threadx/common/src/tx_event_flags_set.c **** #endif
 609:./Middlewares/ST/threadx/common/src/tx_event_flags_set.c **** 
 610:./Middlewares/ST/threadx/common/src/tx_event_flags_set.c ****         /* Determine if a check for preemption is necessary.  */
 611:./Middlewares/ST/threadx/common/src/tx_event_flags_set.c ****         if (preempt_check == TX_TRUE)
 612:./Middlewares/ST/threadx/common/src/tx_event_flags_set.c ****         {
 613:./Middlewares/ST/threadx/common/src/tx_event_flags_set.c **** 
 614:./Middlewares/ST/threadx/common/src/tx_event_flags_set.c ****             /* Yes, one or more threads were resumed, check for preemption.  */
 615:./Middlewares/ST/threadx/common/src/tx_event_flags_set.c ****             _tx_thread_system_preempt_check();
 616:./Middlewares/ST/threadx/common/src/tx_event_flags_set.c ****         }
 617:./Middlewares/ST/threadx/common/src/tx_event_flags_set.c ****     }
 618:./Middlewares/ST/threadx/common/src/tx_event_flags_set.c **** 
 619:./Middlewares/ST/threadx/common/src/tx_event_flags_set.c ****     /* Return completion status.  */
 620:./Middlewares/ST/threadx/common/src/tx_event_flags_set.c ****     return(TX_SUCCESS);
 151              		.loc 1 620 5 is_stmt 1 view .LVU49
 621:./Middlewares/ST/threadx/common/src/tx_event_flags_set.c **** }
 152              		.loc 1 621 1 is_stmt 0 view .LVU50
 153 002c 0020     		movs	r0, #0
 154 002e 03B0     		add	sp, sp, #12
 155              	.LCFI2:
 156              		.cfi_remember_state
 157              		.cfi_def_cfa_offset 36
 158              		@ sp needed
 159 0030 BDE8F08F 		pop	{r4, r5, r6, r7, r8, r9, r10, fp, pc}
 160              	.LVL7:
 161              	.L32:
 162              	.LCFI3:
ARM GAS  /tmp/ccgNlioB.s 			page 25


 163              		.cfi_restore_state
 145:./Middlewares/ST/threadx/common/src/tx_event_flags_set.c ****             }
 164              		.loc 1 145 17 is_stmt 1 view .LVU51
 150:./Middlewares/ST/threadx/common/src/tx_event_flags_set.c ****         {
 165              		.loc 1 150 9 view .LVU52
 157:./Middlewares/ST/threadx/common/src/tx_event_flags_set.c ****                                         group_ptr -> tx_event_flags_group_delayed_clear | ~flags_to
 166              		.loc 1 157 13 view .LVU53
 158:./Middlewares/ST/threadx/common/src/tx_event_flags_set.c ****         }
 167              		.loc 1 158 51 is_stmt 0 view .LVU54
 168 0034 036A     		ldr	r3, [r0, #32]
 158:./Middlewares/ST/threadx/common/src/tx_event_flags_set.c ****         }
 169              		.loc 1 158 89 view .LVU55
 170 0036 63EA0103 		orn	r3, r3, r1
 157:./Middlewares/ST/threadx/common/src/tx_event_flags_set.c ****                                         group_ptr -> tx_event_flags_group_delayed_clear | ~flags_to
 171              		.loc 1 157 61 view .LVU56
 172 003a 0362     		str	r3, [r0, #32]
 173 003c F4E7     		b	.L4
 174              	.LVL8:
 175              	.L2:
 188:./Middlewares/ST/threadx/common/src/tx_event_flags_set.c ****             group_ptr -> tx_event_flags_group_current | flags_to_set;
 176              		.loc 1 188 9 is_stmt 1 view .LVU57
 189:./Middlewares/ST/threadx/common/src/tx_event_flags_set.c **** 
 177              		.loc 1 189 23 is_stmt 0 view .LVU58
 178 003e 8268     		ldr	r2, [r0, #8]
 179              	.LVL9:
 189:./Middlewares/ST/threadx/common/src/tx_event_flags_set.c **** 
 180              		.loc 1 189 55 view .LVU59
 181 0040 0A43     		orrs	r2, r2, r1
 188:./Middlewares/ST/threadx/common/src/tx_event_flags_set.c ****             group_ptr -> tx_event_flags_group_current | flags_to_set;
 182              		.loc 1 188 51 view .LVU60
 183 0042 8260     		str	r2, [r0, #8]
 194:./Middlewares/ST/threadx/common/src/tx_event_flags_set.c ****         {
 184              		.loc 1 194 9 is_stmt 1 view .LVU61
 194:./Middlewares/ST/threadx/common/src/tx_event_flags_set.c ****         {
 185              		.loc 1 194 23 is_stmt 0 view .LVU62
 186 0044 036A     		ldr	r3, [r0, #32]
 194:./Middlewares/ST/threadx/common/src/tx_event_flags_set.c ****         {
 187              		.loc 1 194 12 view .LVU63
 188 0046 13B1     		cbz	r3, .L6
 198:./Middlewares/ST/threadx/common/src/tx_event_flags_set.c ****                                         group_ptr -> tx_event_flags_group_delayed_clear & ~flags_to
 189              		.loc 1 198 13 is_stmt 1 view .LVU64
 199:./Middlewares/ST/threadx/common/src/tx_event_flags_set.c ****         }
 190              		.loc 1 199 89 is_stmt 0 view .LVU65
 191 0048 23EA0103 		bic	r3, r3, r1
 198:./Middlewares/ST/threadx/common/src/tx_event_flags_set.c ****                                         group_ptr -> tx_event_flags_group_delayed_clear & ~flags_to
 192              		.loc 1 198 61 view .LVU66
 193 004c 0362     		str	r3, [r0, #32]
 194              	.L6:
 204:./Middlewares/ST/threadx/common/src/tx_event_flags_set.c **** 
 195              		.loc 1 204 9 is_stmt 1 view .LVU67
 196              	.LVL10:
 207:./Middlewares/ST/threadx/common/src/tx_event_flags_set.c **** 
 197              		.loc 1 207 9 view .LVU68
 207:./Middlewares/ST/threadx/common/src/tx_event_flags_set.c **** 
 198              		.loc 1 207 25 is_stmt 0 view .LVU69
 199 004e DCF81440 		ldr	r4, [ip, #20]
 200              	.LVL11:
ARM GAS  /tmp/ccgNlioB.s 			page 26


 210:./Middlewares/ST/threadx/common/src/tx_event_flags_set.c ****         {
 201              		.loc 1 210 9 is_stmt 1 view .LVU70
 210:./Middlewares/ST/threadx/common/src/tx_event_flags_set.c ****         {
 202              		.loc 1 210 23 is_stmt 0 view .LVU71
 203 0052 DCF81050 		ldr	r5, [ip, #16]
 210:./Middlewares/ST/threadx/common/src/tx_event_flags_set.c ****         {
 204              		.loc 1 210 12 view .LVU72
 205 0056 002D     		cmp	r5, #0
 206 0058 00F0D780 		beq	.L7
 215:./Middlewares/ST/threadx/common/src/tx_event_flags_set.c ****             {
 207              		.loc 1 215 13 is_stmt 1 view .LVU73
 215:./Middlewares/ST/threadx/common/src/tx_event_flags_set.c ****             {
 208              		.loc 1 215 16 is_stmt 0 view .LVU74
 209 005c 012C     		cmp	r4, #1
 210 005e 0BD0     		beq	.L33
 322:./Middlewares/ST/threadx/common/src/tx_event_flags_set.c ****                 thread_ptr =      suspended_list;
 211              		.loc 1 322 17 is_stmt 1 view .LVU75
 212              	.LVL12:
 323:./Middlewares/ST/threadx/common/src/tx_event_flags_set.c **** 
 213              		.loc 1 323 17 view .LVU76
 327:./Middlewares/ST/threadx/common/src/tx_event_flags_set.c **** 
 214              		.loc 1 327 17 view .LVU77
 327:./Middlewares/ST/threadx/common/src/tx_event_flags_set.c **** 
 215              		.loc 1 327 67 is_stmt 0 view .LVU78
 216 0060 0020     		movs	r0, #0
 217              	.LVL13:
 327:./Middlewares/ST/threadx/common/src/tx_event_flags_set.c **** 
 218              		.loc 1 327 67 view .LVU79
 219 0062 CCF81000 		str	r0, [ip, #16]
 330:./Middlewares/ST/threadx/common/src/tx_event_flags_set.c ****                 last_satisfied =  TX_NULL;
 220              		.loc 1 330 17 is_stmt 1 view .LVU80
 221              	.LVL14:
 331:./Middlewares/ST/threadx/common/src/tx_event_flags_set.c **** 
 222              		.loc 1 331 17 view .LVU81
 334:./Middlewares/ST/threadx/common/src/tx_event_flags_set.c **** 
 223              		.loc 1 334 17 view .LVU82
 337:./Middlewares/ST/threadx/common/src/tx_event_flags_set.c **** 
 224              		.loc 1 337 17 view .LVU83
 337:./Middlewares/ST/threadx/common/src/tx_event_flags_set.c **** 
 225              		.loc 1 337 43 is_stmt 0 view .LVU84
 226 0066 6D49     		ldr	r1, .L39
 227              	.LVL15:
 337:./Middlewares/ST/threadx/common/src/tx_event_flags_set.c **** 
 228              		.loc 1 337 43 view .LVU85
 229 0068 0B68     		ldr	r3, [r1]
 230 006a 0133     		adds	r3, r3, #1
 231 006c 0B60     		str	r3, [r1]
 204:./Middlewares/ST/threadx/common/src/tx_event_flags_set.c **** 
 232              		.loc 1 204 23 view .LVU86
 233 006e DDF80490 		ldr	r9, [sp, #4]
 322:./Middlewares/ST/threadx/common/src/tx_event_flags_set.c ****                 thread_ptr =      suspended_list;
 234              		.loc 1 322 32 view .LVU87
 235 0072 2E46     		mov	r6, r5
 331:./Middlewares/ST/threadx/common/src/tx_event_flags_set.c **** 
 236              		.loc 1 331 32 view .LVU88
 237 0074 0746     		mov	r7, r0
 238 0076 57E0     		b	.L22
ARM GAS  /tmp/ccgNlioB.s 			page 27


 239              	.LVL16:
 240              	.L33:
 222:./Middlewares/ST/threadx/common/src/tx_event_flags_set.c **** 
 241              		.loc 1 222 17 is_stmt 1 view .LVU89
 225:./Middlewares/ST/threadx/common/src/tx_event_flags_set.c **** 
 242              		.loc 1 225 17 view .LVU90
 228:./Middlewares/ST/threadx/common/src/tx_event_flags_set.c **** 
 243              		.loc 1 228 17 view .LVU91
 228:./Middlewares/ST/threadx/common/src/tx_event_flags_set.c **** 
 244              		.loc 1 228 33 is_stmt 0 view .LVU92
 245 0078 AB6F     		ldr	r3, [r5, #120]
 246              	.LVL17:
 231:./Middlewares/ST/threadx/common/src/tx_event_flags_set.c **** 
 247              		.loc 1 231 17 is_stmt 1 view .LVU93
 231:./Middlewares/ST/threadx/common/src/tx_event_flags_set.c **** 
 248              		.loc 1 231 28 is_stmt 0 view .LVU94
 249 007a D5F88010 		ldr	r1, [r5, #128]
 250              	.LVL18:
 234:./Middlewares/ST/threadx/common/src/tx_event_flags_set.c **** 
 251              		.loc 1 234 17 is_stmt 1 view .LVU95
 237:./Middlewares/ST/threadx/common/src/tx_event_flags_set.c ****                 {
 252              		.loc 1 237 17 view .LVU96
 237:./Middlewares/ST/threadx/common/src/tx_event_flags_set.c ****                 {
 253              		.loc 1 237 20 is_stmt 0 view .LVU97
 254 007e 11F0020F 		tst	r1, #2
 255 0082 07D0     		beq	.L9
 243:./Middlewares/ST/threadx/common/src/tx_event_flags_set.c **** 
 256              		.loc 1 243 21 is_stmt 1 view .LVU98
 243:./Middlewares/ST/threadx/common/src/tx_event_flags_set.c **** 
 257              		.loc 1 243 37 is_stmt 0 view .LVU99
 258 0084 02EA0309 		and	r9, r2, r3
 259              	.LVL19:
 246:./Middlewares/ST/threadx/common/src/tx_event_flags_set.c ****                     {
 260              		.loc 1 246 21 is_stmt 1 view .LVU100
 246:./Middlewares/ST/threadx/common/src/tx_event_flags_set.c ****                     {
 261              		.loc 1 246 24 is_stmt 0 view .LVU101
 262 0088 33EA0200 		bics	r0, r3, r2
 263              	.LVL20:
 246:./Middlewares/ST/threadx/common/src/tx_event_flags_set.c ****                     {
 264              		.loc 1 246 24 view .LVU102
 265 008c 04D0     		beq	.L11
 204:./Middlewares/ST/threadx/common/src/tx_event_flags_set.c **** 
 266              		.loc 1 204 23 view .LVU103
 267 008e DDF80490 		ldr	r9, [sp, #4]
 268              	.LVL21:
 204:./Middlewares/ST/threadx/common/src/tx_event_flags_set.c **** 
 269              		.loc 1 204 23 view .LVU104
 270 0092 B1E0     		b	.L10
 271              	.LVL22:
 272              	.L9:
 257:./Middlewares/ST/threadx/common/src/tx_event_flags_set.c ****                 }
 273              		.loc 1 257 21 is_stmt 1 view .LVU105
 257:./Middlewares/ST/threadx/common/src/tx_event_flags_set.c ****                 }
 274              		.loc 1 257 37 is_stmt 0 view .LVU106
 275 0094 02EA0309 		and	r9, r2, r3
 276              	.LVL23:
 277              	.L11:
ARM GAS  /tmp/ccgNlioB.s 			page 28


 261:./Middlewares/ST/threadx/common/src/tx_event_flags_set.c ****                 {
 278              		.loc 1 261 17 is_stmt 1 view .LVU107
 261:./Middlewares/ST/threadx/common/src/tx_event_flags_set.c ****                 {
 279              		.loc 1 261 20 is_stmt 0 view .LVU108
 280 0098 B9F1000F 		cmp	r9, #0
 281 009c 00F0AC80 		beq	.L10
 268:./Middlewares/ST/threadx/common/src/tx_event_flags_set.c **** 
 282              		.loc 1 268 21 is_stmt 1 view .LVU109
 283              	.LVL24:
 271:./Middlewares/ST/threadx/common/src/tx_event_flags_set.c ****                     *suspend_info_ptr =  current_event_flags;
 284              		.loc 1 271 21 view .LVU110
 271:./Middlewares/ST/threadx/common/src/tx_event_flags_set.c ****                     *suspend_info_ptr =  current_event_flags;
 285              		.loc 1 271 38 is_stmt 0 view .LVU111
 286 00a0 E86F     		ldr	r0, [r5, #124]
 287              	.LVL25:
 272:./Middlewares/ST/threadx/common/src/tx_event_flags_set.c **** 
 288              		.loc 1 272 21 is_stmt 1 view .LVU112
 272:./Middlewares/ST/threadx/common/src/tx_event_flags_set.c **** 
 289              		.loc 1 272 39 is_stmt 0 view .LVU113
 290 00a2 0260     		str	r2, [r0]
 275:./Middlewares/ST/threadx/common/src/tx_event_flags_set.c **** 
 291              		.loc 1 275 21 is_stmt 1 view .LVU114
 292              	.LVL26:
 278:./Middlewares/ST/threadx/common/src/tx_event_flags_set.c ****                     {
 293              		.loc 1 278 21 view .LVU115
 278:./Middlewares/ST/threadx/common/src/tx_event_flags_set.c ****                     {
 294              		.loc 1 278 24 is_stmt 0 view .LVU116
 295 00a4 11F0010F 		tst	r1, #1
 296 00a8 05D0     		beq	.L12
 282:./Middlewares/ST/threadx/common/src/tx_event_flags_set.c ****                     }
 297              		.loc 1 282 25 is_stmt 1 view .LVU117
 282:./Middlewares/ST/threadx/common/src/tx_event_flags_set.c ****                     }
 298              		.loc 1 282 80 is_stmt 0 view .LVU118
 299 00aa DCF80820 		ldr	r2, [ip, #8]
 300              	.LVL27:
 282:./Middlewares/ST/threadx/common/src/tx_event_flags_set.c ****                     }
 301              		.loc 1 282 112 view .LVU119
 302 00ae 22EA0302 		bic	r2, r2, r3
 282:./Middlewares/ST/threadx/common/src/tx_event_flags_set.c ****                     }
 303              		.loc 1 282 67 view .LVU120
 304 00b2 CCF80820 		str	r2, [ip, #8]
 305              	.LVL28:
 306              	.L12:
 286:./Middlewares/ST/threadx/common/src/tx_event_flags_set.c ****                     group_ptr -> tx_event_flags_group_suspended_count =  TX_NO_SUSPENSIONS;
 307              		.loc 1 286 21 is_stmt 1 view .LVU121
 286:./Middlewares/ST/threadx/common/src/tx_event_flags_set.c ****                     group_ptr -> tx_event_flags_group_suspended_count =  TX_NO_SUSPENSIONS;
 308              		.loc 1 286 71 is_stmt 0 view .LVU122
 309 00b6 0023     		movs	r3, #0
 310              	.LVL29:
 286:./Middlewares/ST/threadx/common/src/tx_event_flags_set.c ****                     group_ptr -> tx_event_flags_group_suspended_count =  TX_NO_SUSPENSIONS;
 311              		.loc 1 286 71 view .LVU123
 312 00b8 CCF81030 		str	r3, [ip, #16]
 287:./Middlewares/ST/threadx/common/src/tx_event_flags_set.c **** 
 313              		.loc 1 287 21 is_stmt 1 view .LVU124
 287:./Middlewares/ST/threadx/common/src/tx_event_flags_set.c **** 
 314              		.loc 1 287 71 is_stmt 0 view .LVU125
 315 00bc CCF81430 		str	r3, [ip, #20]
ARM GAS  /tmp/ccgNlioB.s 			page 29


 290:./Middlewares/ST/threadx/common/src/tx_event_flags_set.c **** 
 316              		.loc 1 290 21 is_stmt 1 view .LVU126
 290:./Middlewares/ST/threadx/common/src/tx_event_flags_set.c **** 
 317              		.loc 1 290 61 is_stmt 0 view .LVU127
 318 00c0 AB66     		str	r3, [r5, #104]
 293:./Middlewares/ST/threadx/common/src/tx_event_flags_set.c **** 
 319              		.loc 1 293 21 is_stmt 1 view .LVU128
 293:./Middlewares/ST/threadx/common/src/tx_event_flags_set.c **** 
 320              		.loc 1 293 60 is_stmt 0 view .LVU129
 321 00c2 C5F88430 		str	r3, [r5, #132]
 302:./Middlewares/ST/threadx/common/src/tx_event_flags_set.c **** 
 322              		.loc 1 302 21 is_stmt 1 view .LVU130
 302:./Middlewares/ST/threadx/common/src/tx_event_flags_set.c **** 
 323              		.loc 1 302 47 is_stmt 0 view .LVU131
 324 00c6 554A     		ldr	r2, .L39
 325 00c8 1368     		ldr	r3, [r2]
 326 00ca 0133     		adds	r3, r3, #1
 327 00cc 1360     		str	r3, [r2]
 305:./Middlewares/ST/threadx/common/src/tx_event_flags_set.c **** 
 328              		.loc 1 305 21 is_stmt 1 view .LVU132
 329              	.LVL30:
 330              	.LBB42:
 331              	.LBI42:
 556:./Middlewares/ST/threadx/ports/cortex_m4/gnu/inc/tx_port.h **** {
 332              		.loc 2 556 55 view .LVU133
 333              	.LBB43:
 562:./Middlewares/ST/threadx/ports/cortex_m4/gnu/inc/tx_port.h **** #endif
 334              		.loc 2 562 5 view .LVU134
 335              		.syntax unified
 336              	@ 562 "./Middlewares/ST/threadx/ports/cortex_m4/gnu/inc/tx_port.h" 1
 337 00ce 8EF31088 		MSR  PRIMASK,lr
 338              	@ 0 "" 2
 339              	.LVL31:
 562:./Middlewares/ST/threadx/ports/cortex_m4/gnu/inc/tx_port.h **** #endif
 340              		.loc 2 562 5 is_stmt 0 view .LVU135
 341              		.thumb
 342              		.syntax unified
 343              	.LBE43:
 344              	.LBE42:
 308:./Middlewares/ST/threadx/common/src/tx_event_flags_set.c **** 
 345              		.loc 1 308 21 is_stmt 1 view .LVU136
 346 00d2 2846     		mov	r0, r5
 347              	.LVL32:
 308:./Middlewares/ST/threadx/common/src/tx_event_flags_set.c **** 
 348              		.loc 1 308 21 is_stmt 0 view .LVU137
 349 00d4 FFF7FEFF 		bl	_tx_thread_system_resume
 350              	.LVL33:
 311:./Middlewares/ST/threadx/common/src/tx_event_flags_set.c **** #endif
 351              		.loc 1 311 21 is_stmt 1 view .LVU138
 352              	.LBB44:
 353              	.LBI44:
 566:./Middlewares/ST/threadx/ports/cortex_m4/gnu/inc/tx_port.h **** {
 354              		.loc 2 566 63 view .LVU139
 355              	.LBB45:
 568:./Middlewares/ST/threadx/ports/cortex_m4/gnu/inc/tx_port.h **** 
 356              		.loc 2 568 1 view .LVU140
 570:./Middlewares/ST/threadx/ports/cortex_m4/gnu/inc/tx_port.h **** 
ARM GAS  /tmp/ccgNlioB.s 			page 30


 357              		.loc 2 570 5 view .LVU141
 358              	.LBB46:
 359              	.LBI46:
 533:./Middlewares/ST/threadx/ports/cortex_m4/gnu/inc/tx_port.h **** {
 360              		.loc 2 533 63 view .LVU142
 361              	.LBB47:
 535:./Middlewares/ST/threadx/ports/cortex_m4/gnu/inc/tx_port.h **** #ifdef TX_PORT_USE_BASEPRI
 362              		.loc 2 535 1 view .LVU143
 539:./Middlewares/ST/threadx/ports/cortex_m4/gnu/inc/tx_port.h **** #endif
 363              		.loc 2 539 5 view .LVU144
 364              		.syntax unified
 365              	@ 539 "./Middlewares/ST/threadx/ports/cortex_m4/gnu/inc/tx_port.h" 1
 366 00d8 EFF3108E 		MRS  lr, PRIMASK 
 367              	@ 0 "" 2
 368              	.LVL34:
 541:./Middlewares/ST/threadx/ports/cortex_m4/gnu/inc/tx_port.h **** }
 369              		.loc 2 541 5 view .LVU145
 541:./Middlewares/ST/threadx/ports/cortex_m4/gnu/inc/tx_port.h **** }
 370              		.loc 2 541 5 is_stmt 0 view .LVU146
 371              		.thumb
 372              		.syntax unified
 373              	.LBE47:
 374              	.LBE46:
 575:./Middlewares/ST/threadx/ports/cortex_m4/gnu/inc/tx_port.h **** #endif
 375              		.loc 2 575 5 is_stmt 1 view .LVU147
 376              		.syntax unified
 377              	@ 575 "./Middlewares/ST/threadx/ports/cortex_m4/gnu/inc/tx_port.h" 1
 378 00dc 72B6     		CPSID i
 379              	@ 0 "" 2
 380              		.loc 2 577 5 view .LVU148
 381              	.LVL35:
 382              		.loc 2 577 5 is_stmt 0 view .LVU149
 383              		.thumb
 384              		.syntax unified
 385              	.LBE45:
 386              	.LBE44:
 268:./Middlewares/ST/threadx/common/src/tx_event_flags_set.c **** 
 387              		.loc 1 268 35 view .LVU150
 388 00de A146     		mov	r9, r4
 389              	.LVL36:
 268:./Middlewares/ST/threadx/common/src/tx_event_flags_set.c **** 
 390              		.loc 1 268 35 view .LVU151
 391 00e0 8AE0     		b	.L10
 392              	.LVL37:
 393              	.L27:
 268:./Middlewares/ST/threadx/common/src/tx_event_flags_set.c **** 
 394              		.loc 1 268 35 view .LVU152
 395 00e2 2B46     		mov	r3, r5
 396 00e4 32E0     		b	.L13
 397              	.LVL38:
 398              	.L14:
 403:./Middlewares/ST/threadx/common/src/tx_event_flags_set.c ****                     }
 399              		.loc 1 403 25 is_stmt 1 view .LVU153
 403:./Middlewares/ST/threadx/common/src/tx_event_flags_set.c ****                     }
 400              		.loc 1 403 41 is_stmt 0 view .LVU154
 401 00e6 02EA080B 		and	fp, r2, r8
 402              	.LVL39:
ARM GAS  /tmp/ccgNlioB.s 			page 31


 403              	.L15:
 409:./Middlewares/ST/threadx/common/src/tx_event_flags_set.c ****                     {
 404              		.loc 1 409 21 is_stmt 1 view .LVU155
 409:./Middlewares/ST/threadx/common/src/tx_event_flags_set.c ****                     {
 405              		.loc 1 409 36 is_stmt 0 view .LVU156
 406 00ea 196B     		ldr	r1, [r3, #48]
 409:./Middlewares/ST/threadx/common/src/tx_event_flags_set.c ****                     {
 407              		.loc 1 409 24 view .LVU157
 408 00ec 0729     		cmp	r1, #7
 409 00ee 3DD0     		beq	.L34
 410              	.L16:
 411              	.LVL40:
 423:./Middlewares/ST/threadx/common/src/tx_event_flags_set.c **** 
 412              		.loc 1 423 25 is_stmt 1 view .LVU158
 427:./Middlewares/ST/threadx/common/src/tx_event_flags_set.c ****                         {
 413              		.loc 1 427 25 view .LVU159
 427:./Middlewares/ST/threadx/common/src/tx_event_flags_set.c ****                         {
 414              		.loc 1 427 28 is_stmt 0 view .LVU160
 415 00f0 0729     		cmp	r1, #7
 416 00f2 3FD0     		beq	.L35
 417              	.L18:
 458:./Middlewares/ST/threadx/common/src/tx_event_flags_set.c ****                         {
 418              		.loc 1 458 25 is_stmt 1 view .LVU161
 458:./Middlewares/ST/threadx/common/src/tx_event_flags_set.c ****                         {
 419              		.loc 1 458 54 is_stmt 0 view .LVU162
 420 00f4 196F     		ldr	r1, [r3, #112]
 458:./Middlewares/ST/threadx/common/src/tx_event_flags_set.c ****                         {
 421              		.loc 1 458 28 view .LVU163
 422 00f6 9942     		cmp	r1, r3
 423 00f8 4ED0     		beq	.L29
 472:./Middlewares/ST/threadx/common/src/tx_event_flags_set.c ****                             previous_thread =                              thread_ptr -> tx_thread_
 424              		.loc 1 472 29 is_stmt 1 view .LVU164
 425              	.LVL41:
 473:./Middlewares/ST/threadx/common/src/tx_event_flags_set.c ****                             next_thread -> tx_thread_suspended_previous =  previous_thread;
 426              		.loc 1 473 29 view .LVU165
 473:./Middlewares/ST/threadx/common/src/tx_event_flags_set.c ****                             next_thread -> tx_thread_suspended_previous =  previous_thread;
 427              		.loc 1 473 45 is_stmt 0 view .LVU166
 428 00fa D3F87480 		ldr	r8, [r3, #116]
 429              	.LVL42:
 474:./Middlewares/ST/threadx/common/src/tx_event_flags_set.c ****                             previous_thread -> tx_thread_suspended_next =  next_thread;
 430              		.loc 1 474 29 is_stmt 1 view .LVU167
 474:./Middlewares/ST/threadx/common/src/tx_event_flags_set.c ****                             previous_thread -> tx_thread_suspended_next =  next_thread;
 431              		.loc 1 474 73 is_stmt 0 view .LVU168
 432 00fe C1F87480 		str	r8, [r1, #116]
 475:./Middlewares/ST/threadx/common/src/tx_event_flags_set.c **** 
 433              		.loc 1 475 29 is_stmt 1 view .LVU169
 475:./Middlewares/ST/threadx/common/src/tx_event_flags_set.c **** 
 434              		.loc 1 475 73 is_stmt 0 view .LVU170
 435 0102 C8F87010 		str	r1, [r8, #112]
 479:./Middlewares/ST/threadx/common/src/tx_event_flags_set.c ****                             {
 436              		.loc 1 479 29 is_stmt 1 view .LVU171
 479:./Middlewares/ST/threadx/common/src/tx_event_flags_set.c ****                             {
 437              		.loc 1 479 32 is_stmt 0 view .LVU172
 438 0106 B342     		cmp	r3, r6
 439 0108 44D0     		beq	.L36
 440              	.LVL43:
 441              	.L20:
ARM GAS  /tmp/ccgNlioB.s 			page 32


 488:./Middlewares/ST/threadx/common/src/tx_event_flags_set.c **** 
 442              		.loc 1 488 25 is_stmt 1 view .LVU173
 488:./Middlewares/ST/threadx/common/src/tx_event_flags_set.c **** 
 443              		.loc 1 488 35 is_stmt 0 view .LVU174
 444 010a DCF81410 		ldr	r1, [ip, #20]
 488:./Middlewares/ST/threadx/common/src/tx_event_flags_set.c **** 
 445              		.loc 1 488 74 view .LVU175
 446 010e 0139     		subs	r1, r1, #1
 447 0110 CCF81410 		str	r1, [ip, #20]
 491:./Middlewares/ST/threadx/common/src/tx_event_flags_set.c ****                         {
 448              		.loc 1 491 25 is_stmt 1 view .LVU176
 491:./Middlewares/ST/threadx/common/src/tx_event_flags_set.c ****                         {
 449              		.loc 1 491 28 is_stmt 0 view .LVU177
 450 0114 0028     		cmp	r0, #0
 451 0116 41D0     		beq	.L37
 507:./Middlewares/ST/threadx/common/src/tx_event_flags_set.c ****                             thread_ptr -> tx_thread_suspended_next =      TX_NULL;
 452              		.loc 1 507 29 is_stmt 1 view .LVU178
 507:./Middlewares/ST/threadx/common/src/tx_event_flags_set.c ****                             thread_ptr -> tx_thread_suspended_next =      TX_NULL;
 453              		.loc 1 507 72 is_stmt 0 view .LVU179
 454 0118 3B67     		str	r3, [r7, #112]
 508:./Middlewares/ST/threadx/common/src/tx_event_flags_set.c ****                             last_satisfied =                              thread_ptr;
 455              		.loc 1 508 29 is_stmt 1 view .LVU180
 508:./Middlewares/ST/threadx/common/src/tx_event_flags_set.c ****                             last_satisfied =                              thread_ptr;
 456              		.loc 1 508 68 is_stmt 0 view .LVU181
 457 011a 0021     		movs	r1, #0
 458 011c 1967     		str	r1, [r3, #112]
 509:./Middlewares/ST/threadx/common/src/tx_event_flags_set.c ****                         }
 459              		.loc 1 509 29 is_stmt 1 view .LVU182
 460              	.LVL44:
 509:./Middlewares/ST/threadx/common/src/tx_event_flags_set.c ****                         }
 461              		.loc 1 509 44 is_stmt 0 view .LVU183
 462 011e 1F46     		mov	r7, r3
 423:./Middlewares/ST/threadx/common/src/tx_event_flags_set.c **** 
 463              		.loc 1 423 39 view .LVU184
 464 0120 4FF00109 		mov	r9, #1
 465              	.LVL45:
 466              	.L17:
 514:./Middlewares/ST/threadx/common/src/tx_event_flags_set.c **** 
 467              		.loc 1 514 21 is_stmt 1 view .LVU185
 517:./Middlewares/ST/threadx/common/src/tx_event_flags_set.c **** 
 468              		.loc 1 517 21 view .LVU186
 519:./Middlewares/ST/threadx/common/src/tx_event_flags_set.c **** 
 469              		.loc 1 519 42 view .LVU187
 470 0124 013C     		subs	r4, r4, #1
 471              	.LVL46:
 519:./Middlewares/ST/threadx/common/src/tx_event_flags_set.c **** 
 472              		.loc 1 519 42 is_stmt 0 view .LVU188
 473 0126 40D0     		beq	.L38
 474              	.LVL47:
 475              	.L22:
 340:./Middlewares/ST/threadx/common/src/tx_event_flags_set.c ****                 {
 476              		.loc 1 340 17 is_stmt 1 view .LVU189
 346:./Middlewares/ST/threadx/common/src/tx_event_flags_set.c **** 
 477              		.loc 1 346 21 view .LVU190
 478              	.LBB48:
 479              	.LBI48:
 556:./Middlewares/ST/threadx/ports/cortex_m4/gnu/inc/tx_port.h **** {
ARM GAS  /tmp/ccgNlioB.s 			page 33


 480              		.loc 2 556 55 view .LVU191
 481              	.LBB49:
 562:./Middlewares/ST/threadx/ports/cortex_m4/gnu/inc/tx_port.h **** #endif
 482              		.loc 2 562 5 view .LVU192
 483              		.syntax unified
 484              	@ 562 "./Middlewares/ST/threadx/ports/cortex_m4/gnu/inc/tx_port.h" 1
 485 0128 8EF31088 		MSR  PRIMASK,lr
 486              	@ 0 "" 2
 487              	.LVL48:
 562:./Middlewares/ST/threadx/ports/cortex_m4/gnu/inc/tx_port.h **** #endif
 488              		.loc 2 562 5 is_stmt 0 view .LVU193
 489              		.thumb
 490              		.syntax unified
 491              	.LBE49:
 492              	.LBE48:
 349:./Middlewares/ST/threadx/common/src/tx_event_flags_set.c **** #endif
 493              		.loc 1 349 21 is_stmt 1 view .LVU194
 494              	.LBB50:
 495              	.LBI50:
 566:./Middlewares/ST/threadx/ports/cortex_m4/gnu/inc/tx_port.h **** {
 496              		.loc 2 566 63 view .LVU195
 497              	.LBB51:
 568:./Middlewares/ST/threadx/ports/cortex_m4/gnu/inc/tx_port.h **** 
 498              		.loc 2 568 1 view .LVU196
 570:./Middlewares/ST/threadx/ports/cortex_m4/gnu/inc/tx_port.h **** 
 499              		.loc 2 570 5 view .LVU197
 500              	.LBB52:
 501              	.LBI52:
 533:./Middlewares/ST/threadx/ports/cortex_m4/gnu/inc/tx_port.h **** {
 502              		.loc 2 533 63 view .LVU198
 503              	.LBB53:
 535:./Middlewares/ST/threadx/ports/cortex_m4/gnu/inc/tx_port.h **** #ifdef TX_PORT_USE_BASEPRI
 504              		.loc 2 535 1 view .LVU199
 539:./Middlewares/ST/threadx/ports/cortex_m4/gnu/inc/tx_port.h **** #endif
 505              		.loc 2 539 5 view .LVU200
 506              		.syntax unified
 507              	@ 539 "./Middlewares/ST/threadx/ports/cortex_m4/gnu/inc/tx_port.h" 1
 508 012c EFF3108E 		MRS  lr, PRIMASK 
 509              	@ 0 "" 2
 510              	.LVL49:
 541:./Middlewares/ST/threadx/ports/cortex_m4/gnu/inc/tx_port.h **** }
 511              		.loc 2 541 5 view .LVU201
 541:./Middlewares/ST/threadx/ports/cortex_m4/gnu/inc/tx_port.h **** }
 512              		.loc 2 541 5 is_stmt 0 view .LVU202
 513              		.thumb
 514              		.syntax unified
 515              	.LBE53:
 516              	.LBE52:
 575:./Middlewares/ST/threadx/ports/cortex_m4/gnu/inc/tx_port.h **** #endif
 517              		.loc 2 575 5 is_stmt 1 view .LVU203
 518              		.syntax unified
 519              	@ 575 "./Middlewares/ST/threadx/ports/cortex_m4/gnu/inc/tx_port.h" 1
 520 0130 72B6     		CPSID i
 521              	@ 0 "" 2
 522              		.loc 2 577 5 view .LVU204
 523              	.LVL50:
 524              		.loc 2 577 5 is_stmt 0 view .LVU205
ARM GAS  /tmp/ccgNlioB.s 			page 34


 525              		.thumb
 526              		.syntax unified
 527              	.LBE51:
 528              	.LBE50:
 353:./Middlewares/ST/threadx/common/src/tx_event_flags_set.c ****                     {
 529              		.loc 1 353 21 is_stmt 1 view .LVU206
 353:./Middlewares/ST/threadx/common/src/tx_event_flags_set.c ****                     {
 530              		.loc 1 353 35 is_stmt 0 view .LVU207
 531 0132 DCF80C30 		ldr	r3, [ip, #12]
 353:./Middlewares/ST/threadx/common/src/tx_event_flags_set.c ****                     {
 532              		.loc 1 353 24 view .LVU208
 533 0136 002B     		cmp	r3, #0
 534 0138 D3D0     		beq	.L27
 357:./Middlewares/ST/threadx/common/src/tx_event_flags_set.c **** 
 535              		.loc 1 357 25 is_stmt 1 view .LVU209
 357:./Middlewares/ST/threadx/common/src/tx_event_flags_set.c **** 
 536              		.loc 1 357 72 is_stmt 0 view .LVU210
 537 013a 0023     		movs	r3, #0
 538 013c CCF80C30 		str	r3, [ip, #12]
 360:./Middlewares/ST/threadx/common/src/tx_event_flags_set.c **** 
 539              		.loc 1 360 25 is_stmt 1 view .LVU211
 540              	.LVL51:
 363:./Middlewares/ST/threadx/common/src/tx_event_flags_set.c **** 
 541              		.loc 1 363 25 view .LVU212
 363:./Middlewares/ST/threadx/common/src/tx_event_flags_set.c **** 
 542              		.loc 1 363 41 is_stmt 0 view .LVU213
 543 0140 DCF81440 		ldr	r4, [ip, #20]
 544              	.LVL52:
 367:./Middlewares/ST/threadx/common/src/tx_event_flags_set.c ****                     }
 545              		.loc 1 367 25 is_stmt 1 view .LVU214
 367:./Middlewares/ST/threadx/common/src/tx_event_flags_set.c ****                     }
 546              		.loc 1 367 80 is_stmt 0 view .LVU215
 547 0144 DCF80830 		ldr	r3, [ip, #8]
 367:./Middlewares/ST/threadx/common/src/tx_event_flags_set.c ****                     }
 548              		.loc 1 367 45 view .LVU216
 549 0148 1A43     		orrs	r2, r2, r3
 550              	.LVL53:
 360:./Middlewares/ST/threadx/common/src/tx_event_flags_set.c **** 
 551              		.loc 1 360 36 view .LVU217
 552 014a 3346     		mov	r3, r6
 553              	.LVL54:
 554              	.L13:
 371:./Middlewares/ST/threadx/common/src/tx_event_flags_set.c **** 
 555              		.loc 1 371 21 is_stmt 1 view .LVU218
 371:./Middlewares/ST/threadx/common/src/tx_event_flags_set.c **** 
 556              		.loc 1 371 37 is_stmt 0 view .LVU219
 557 014c 1D6F     		ldr	r5, [r3, #112]
 558              	.LVL55:
 374:./Middlewares/ST/threadx/common/src/tx_event_flags_set.c **** 
 559              		.loc 1 374 21 is_stmt 1 view .LVU220
 374:./Middlewares/ST/threadx/common/src/tx_event_flags_set.c **** 
 560              		.loc 1 374 37 is_stmt 0 view .LVU221
 561 014e D3F87880 		ldr	r8, [r3, #120]
 562              	.LVL56:
 377:./Middlewares/ST/threadx/common/src/tx_event_flags_set.c **** 
 563              		.loc 1 377 21 is_stmt 1 view .LVU222
 377:./Middlewares/ST/threadx/common/src/tx_event_flags_set.c **** 
ARM GAS  /tmp/ccgNlioB.s 			page 35


 564              		.loc 1 377 32 is_stmt 0 view .LVU223
 565 0152 D3F880A0 		ldr	r10, [r3, #128]
 566              	.LVL57:
 380:./Middlewares/ST/threadx/common/src/tx_event_flags_set.c **** 
 567              		.loc 1 380 21 is_stmt 1 view .LVU224
 383:./Middlewares/ST/threadx/common/src/tx_event_flags_set.c ****                     {
 568              		.loc 1 383 21 view .LVU225
 383:./Middlewares/ST/threadx/common/src/tx_event_flags_set.c ****                     {
 569              		.loc 1 383 24 is_stmt 0 view .LVU226
 570 0156 1AF0020F 		tst	r10, #2
 571 015a C4D0     		beq	.L14
 389:./Middlewares/ST/threadx/common/src/tx_event_flags_set.c **** 
 572              		.loc 1 389 25 is_stmt 1 view .LVU227
 389:./Middlewares/ST/threadx/common/src/tx_event_flags_set.c **** 
 573              		.loc 1 389 41 is_stmt 0 view .LVU228
 574 015c 02EA080B 		and	fp, r2, r8
 575              	.LVL58:
 392:./Middlewares/ST/threadx/common/src/tx_event_flags_set.c ****                         {
 576              		.loc 1 392 25 is_stmt 1 view .LVU229
 392:./Middlewares/ST/threadx/common/src/tx_event_flags_set.c ****                         {
 577              		.loc 1 392 28 is_stmt 0 view .LVU230
 578 0160 38EA0201 		bics	r1, r8, r2
 579 0164 C1D0     		beq	.L15
 396:./Middlewares/ST/threadx/common/src/tx_event_flags_set.c ****                         }
 580              		.loc 1 396 45 view .LVU231
 581 0166 DDF804B0 		ldr	fp, [sp, #4]
 582              	.LVL59:
 396:./Middlewares/ST/threadx/common/src/tx_event_flags_set.c ****                         }
 583              		.loc 1 396 45 view .LVU232
 584 016a BEE7     		b	.L15
 585              	.LVL60:
 586              	.L34:
 417:./Middlewares/ST/threadx/common/src/tx_event_flags_set.c ****                     {
 587              		.loc 1 417 21 is_stmt 1 view .LVU233
 417:./Middlewares/ST/threadx/common/src/tx_event_flags_set.c ****                     {
 588              		.loc 1 417 24 is_stmt 0 view .LVU234
 589 016c BBF1000F 		cmp	fp, #0
 590 0170 D8D0     		beq	.L17
 591 0172 BDE7     		b	.L16
 592              	.LVL61:
 593              	.L35:
 431:./Middlewares/ST/threadx/common/src/tx_event_flags_set.c ****                             *suspend_info_ptr =  current_event_flags;
 594              		.loc 1 431 29 is_stmt 1 view .LVU235
 431:./Middlewares/ST/threadx/common/src/tx_event_flags_set.c ****                             *suspend_info_ptr =  current_event_flags;
 595              		.loc 1 431 46 is_stmt 0 view .LVU236
 596 0174 D96F     		ldr	r1, [r3, #124]
 597              	.LVL62:
 432:./Middlewares/ST/threadx/common/src/tx_event_flags_set.c **** 
 598              		.loc 1 432 29 is_stmt 1 view .LVU237
 432:./Middlewares/ST/threadx/common/src/tx_event_flags_set.c **** 
 599              		.loc 1 432 47 is_stmt 0 view .LVU238
 600 0176 0A60     		str	r2, [r1]
 435:./Middlewares/ST/threadx/common/src/tx_event_flags_set.c **** 
 601              		.loc 1 435 29 is_stmt 1 view .LVU239
 602              	.LVL63:
 438:./Middlewares/ST/threadx/common/src/tx_event_flags_set.c ****                             {
 603              		.loc 1 438 29 view .LVU240
ARM GAS  /tmp/ccgNlioB.s 			page 36


 438:./Middlewares/ST/threadx/common/src/tx_event_flags_set.c ****                             {
 604              		.loc 1 438 32 is_stmt 0 view .LVU241
 605 0178 1AF0010F 		tst	r10, #1
 606 017c 05D0     		beq	.L19
 442:./Middlewares/ST/threadx/common/src/tx_event_flags_set.c ****                             }
 607              		.loc 1 442 33 is_stmt 1 view .LVU242
 442:./Middlewares/ST/threadx/common/src/tx_event_flags_set.c ****                             }
 608              		.loc 1 442 88 is_stmt 0 view .LVU243
 609 017e DCF80810 		ldr	r1, [ip, #8]
 610              	.LVL64:
 442:./Middlewares/ST/threadx/common/src/tx_event_flags_set.c ****                             }
 611              		.loc 1 442 120 view .LVU244
 612 0182 21EA0801 		bic	r1, r1, r8
 442:./Middlewares/ST/threadx/common/src/tx_event_flags_set.c ****                             }
 613              		.loc 1 442 75 view .LVU245
 614 0186 CCF80810 		str	r1, [ip, #8]
 615              	.L19:
 448:./Middlewares/ST/threadx/common/src/tx_event_flags_set.c **** 
 616              		.loc 1 448 29 is_stmt 1 view .LVU246
 448:./Middlewares/ST/threadx/common/src/tx_event_flags_set.c **** 
 617              		.loc 1 448 69 is_stmt 0 view .LVU247
 618 018a 0021     		movs	r1, #0
 619 018c 9966     		str	r1, [r3, #104]
 451:./Middlewares/ST/threadx/common/src/tx_event_flags_set.c ****                         }
 620              		.loc 1 451 29 is_stmt 1 view .LVU248
 451:./Middlewares/ST/threadx/common/src/tx_event_flags_set.c ****                         }
 621              		.loc 1 451 68 is_stmt 0 view .LVU249
 622 018e C3F88410 		str	r1, [r3, #132]
 623 0192 AFE7     		b	.L18
 624              	.LVL65:
 625              	.L36:
 483:./Middlewares/ST/threadx/common/src/tx_event_flags_set.c ****                             }
 626              		.loc 1 483 33 is_stmt 1 view .LVU250
 483:./Middlewares/ST/threadx/common/src/tx_event_flags_set.c ****                             }
 627              		.loc 1 483 48 is_stmt 0 view .LVU251
 628 0194 1E6F     		ldr	r6, [r3, #112]
 629              	.LVL66:
 483:./Middlewares/ST/threadx/common/src/tx_event_flags_set.c ****                             }
 630              		.loc 1 483 48 view .LVU252
 631 0196 B8E7     		b	.L20
 632              	.LVL67:
 633              	.L29:
 464:./Middlewares/ST/threadx/common/src/tx_event_flags_set.c ****                         }
 634              		.loc 1 464 44 view .LVU253
 635 0198 0026     		movs	r6, #0
 636              	.LVL68:
 464:./Middlewares/ST/threadx/common/src/tx_event_flags_set.c ****                         }
 637              		.loc 1 464 44 view .LVU254
 638 019a B6E7     		b	.L20
 639              	.LVL69:
 640              	.L37:
 495:./Middlewares/ST/threadx/common/src/tx_event_flags_set.c ****                             last_satisfied =  thread_ptr;
 641              		.loc 1 495 29 is_stmt 1 view .LVU255
 496:./Middlewares/ST/threadx/common/src/tx_event_flags_set.c **** 
 642              		.loc 1 496 29 view .LVU256
 499:./Middlewares/ST/threadx/common/src/tx_event_flags_set.c ****                         }
 643              		.loc 1 499 29 view .LVU257
ARM GAS  /tmp/ccgNlioB.s 			page 37


 499:./Middlewares/ST/threadx/common/src/tx_event_flags_set.c ****                         }
 644              		.loc 1 499 68 is_stmt 0 view .LVU258
 645 019c 0021     		movs	r1, #0
 646 019e 1967     		str	r1, [r3, #112]
 496:./Middlewares/ST/threadx/common/src/tx_event_flags_set.c **** 
 647              		.loc 1 496 44 view .LVU259
 648 01a0 1F46     		mov	r7, r3
 495:./Middlewares/ST/threadx/common/src/tx_event_flags_set.c ****                             last_satisfied =  thread_ptr;
 649              		.loc 1 495 44 view .LVU260
 650 01a2 1846     		mov	r0, r3
 423:./Middlewares/ST/threadx/common/src/tx_event_flags_set.c **** 
 651              		.loc 1 423 39 view .LVU261
 652 01a4 4FF00109 		mov	r9, #1
 653 01a8 BCE7     		b	.L17
 654              	.LVL70:
 655              	.L38:
 522:./Middlewares/ST/threadx/common/src/tx_event_flags_set.c **** 
 656              		.loc 1 522 17 is_stmt 1 view .LVU262
 522:./Middlewares/ST/threadx/common/src/tx_event_flags_set.c **** 
 657              		.loc 1 522 67 is_stmt 0 view .LVU263
 658 01aa CCF81060 		str	r6, [ip, #16]
 527:./Middlewares/ST/threadx/common/src/tx_event_flags_set.c ****                 {
 659              		.loc 1 527 17 is_stmt 1 view .LVU264
 527:./Middlewares/ST/threadx/common/src/tx_event_flags_set.c ****                 {
 660              		.loc 1 527 31 is_stmt 0 view .LVU265
 661 01ae DCF82030 		ldr	r3, [ip, #32]
 527:./Middlewares/ST/threadx/common/src/tx_event_flags_set.c ****                 {
 662              		.loc 1 527 20 view .LVU266
 663 01b2 43B1     		cbz	r3, .L23
 531:./Middlewares/ST/threadx/common/src/tx_event_flags_set.c ****                         group_ptr -> tx_event_flags_group_current & ~(group_ptr -> tx_event_flags_g
 664              		.loc 1 531 21 is_stmt 1 view .LVU267
 532:./Middlewares/ST/threadx/common/src/tx_event_flags_set.c **** 
 665              		.loc 1 532 35 is_stmt 0 view .LVU268
 666 01b4 DCF80820 		ldr	r2, [ip, #8]
 667              	.LVL71:
 532:./Middlewares/ST/threadx/common/src/tx_event_flags_set.c **** 
 668              		.loc 1 532 67 view .LVU269
 669 01b8 22EA0302 		bic	r2, r2, r3
 531:./Middlewares/ST/threadx/common/src/tx_event_flags_set.c ****                         group_ptr -> tx_event_flags_group_current & ~(group_ptr -> tx_event_flags_g
 670              		.loc 1 531 63 view .LVU270
 671 01bc CCF80820 		str	r2, [ip, #8]
 535:./Middlewares/ST/threadx/common/src/tx_event_flags_set.c ****                 }
 672              		.loc 1 535 21 is_stmt 1 view .LVU271
 535:./Middlewares/ST/threadx/common/src/tx_event_flags_set.c ****                 }
 673              		.loc 1 535 69 is_stmt 0 view .LVU272
 674 01c0 0023     		movs	r3, #0
 675 01c2 CCF82030 		str	r3, [ip, #32]
 676              	.L23:
 540:./Middlewares/ST/threadx/common/src/tx_event_flags_set.c **** 
 677              		.loc 1 540 17 is_stmt 1 view .LVU273
 678              	.LVL72:
 679              	.LBB54:
 680              	.LBI54:
 556:./Middlewares/ST/threadx/ports/cortex_m4/gnu/inc/tx_port.h **** {
 681              		.loc 2 556 55 view .LVU274
 682              	.LBB55:
 562:./Middlewares/ST/threadx/ports/cortex_m4/gnu/inc/tx_port.h **** #endif
ARM GAS  /tmp/ccgNlioB.s 			page 38


 683              		.loc 2 562 5 view .LVU275
 684              		.syntax unified
 685              	@ 562 "./Middlewares/ST/threadx/ports/cortex_m4/gnu/inc/tx_port.h" 1
 686 01c6 8EF31088 		MSR  PRIMASK,lr
 687              	@ 0 "" 2
 688              	.LVL73:
 562:./Middlewares/ST/threadx/ports/cortex_m4/gnu/inc/tx_port.h **** #endif
 689              		.loc 2 562 5 is_stmt 0 view .LVU276
 690              		.thumb
 691              		.syntax unified
 692              	.LBE55:
 693              	.LBE54:
 543:./Middlewares/ST/threadx/common/src/tx_event_flags_set.c ****                 while(thread_ptr != TX_NULL)
 694              		.loc 1 543 17 is_stmt 1 view .LVU277
 544:./Middlewares/ST/threadx/common/src/tx_event_flags_set.c ****                 {
 695              		.loc 1 544 17 view .LVU278
 544:./Middlewares/ST/threadx/common/src/tx_event_flags_set.c ****                 {
 696              		.loc 1 544 22 is_stmt 0 view .LVU279
 697 01ca 0CE0     		b	.L24
 698              	.LVL74:
 699              	.L25:
 548:./Middlewares/ST/threadx/common/src/tx_event_flags_set.c **** 
 700              		.loc 1 548 21 is_stmt 1 view .LVU280
 548:./Middlewares/ST/threadx/common/src/tx_event_flags_set.c **** 
 701              		.loc 1 548 37 is_stmt 0 view .LVU281
 702 01cc 046F     		ldr	r4, [r0, #112]
 703              	.LVL75:
 551:./Middlewares/ST/threadx/common/src/tx_event_flags_set.c **** 
 704              		.loc 1 551 21 is_stmt 1 view .LVU282
 705              	.LBB56:
 706              	.LBI56:
 566:./Middlewares/ST/threadx/ports/cortex_m4/gnu/inc/tx_port.h **** {
 707              		.loc 2 566 63 view .LVU283
 708              	.LBB57:
 568:./Middlewares/ST/threadx/ports/cortex_m4/gnu/inc/tx_port.h **** 
 709              		.loc 2 568 1 view .LVU284
 570:./Middlewares/ST/threadx/ports/cortex_m4/gnu/inc/tx_port.h **** 
 710              		.loc 2 570 5 view .LVU285
 711              	.LBB58:
 712              	.LBI58:
 533:./Middlewares/ST/threadx/ports/cortex_m4/gnu/inc/tx_port.h **** {
 713              		.loc 2 533 63 view .LVU286
 714              	.LBB59:
 535:./Middlewares/ST/threadx/ports/cortex_m4/gnu/inc/tx_port.h **** #ifdef TX_PORT_USE_BASEPRI
 715              		.loc 2 535 1 view .LVU287
 539:./Middlewares/ST/threadx/ports/cortex_m4/gnu/inc/tx_port.h **** #endif
 716              		.loc 2 539 5 view .LVU288
 717              		.syntax unified
 718              	@ 539 "./Middlewares/ST/threadx/ports/cortex_m4/gnu/inc/tx_port.h" 1
 719 01ce EFF31081 		MRS  r1, PRIMASK 
 720              	@ 0 "" 2
 721              	.LVL76:
 541:./Middlewares/ST/threadx/ports/cortex_m4/gnu/inc/tx_port.h **** }
 722              		.loc 2 541 5 view .LVU289
 541:./Middlewares/ST/threadx/ports/cortex_m4/gnu/inc/tx_port.h **** }
 723              		.loc 2 541 5 is_stmt 0 view .LVU290
 724              		.thumb
ARM GAS  /tmp/ccgNlioB.s 			page 39


 725              		.syntax unified
 726              	.LBE59:
 727              	.LBE58:
 575:./Middlewares/ST/threadx/ports/cortex_m4/gnu/inc/tx_port.h **** #endif
 728              		.loc 2 575 5 is_stmt 1 view .LVU291
 729              		.syntax unified
 730              	@ 575 "./Middlewares/ST/threadx/ports/cortex_m4/gnu/inc/tx_port.h" 1
 731 01d2 72B6     		CPSID i
 732              	@ 0 "" 2
 733              		.loc 2 577 5 view .LVU292
 734              	.LVL77:
 735              		.loc 2 577 5 is_stmt 0 view .LVU293
 736              		.thumb
 737              		.syntax unified
 738              	.LBE57:
 739              	.LBE56:
 563:./Middlewares/ST/threadx/common/src/tx_event_flags_set.c **** 
 740              		.loc 1 563 21 is_stmt 1 view .LVU294
 563:./Middlewares/ST/threadx/common/src/tx_event_flags_set.c **** 
 741              		.loc 1 563 47 is_stmt 0 view .LVU295
 742 01d4 114A     		ldr	r2, .L39
 743 01d6 1368     		ldr	r3, [r2]
 744 01d8 0133     		adds	r3, r3, #1
 745 01da 1360     		str	r3, [r2]
 566:./Middlewares/ST/threadx/common/src/tx_event_flags_set.c **** 
 746              		.loc 1 566 21 is_stmt 1 view .LVU296
 747              	.LVL78:
 748              	.LBB60:
 749              	.LBI60:
 556:./Middlewares/ST/threadx/ports/cortex_m4/gnu/inc/tx_port.h **** {
 750              		.loc 2 556 55 view .LVU297
 751              	.LBB61:
 562:./Middlewares/ST/threadx/ports/cortex_m4/gnu/inc/tx_port.h **** #endif
 752              		.loc 2 562 5 view .LVU298
 753              		.syntax unified
 754              	@ 562 "./Middlewares/ST/threadx/ports/cortex_m4/gnu/inc/tx_port.h" 1
 755 01dc 81F31088 		MSR  PRIMASK,r1
 756              	@ 0 "" 2
 757              	.LVL79:
 562:./Middlewares/ST/threadx/ports/cortex_m4/gnu/inc/tx_port.h **** #endif
 758              		.loc 2 562 5 is_stmt 0 view .LVU299
 759              		.thumb
 760              		.syntax unified
 761              	.LBE61:
 762              	.LBE60:
 569:./Middlewares/ST/threadx/common/src/tx_event_flags_set.c **** #endif
 763              		.loc 1 569 21 is_stmt 1 view .LVU300
 764 01e0 FFF7FEFF 		bl	_tx_thread_system_resume
 765              	.LVL80:
 573:./Middlewares/ST/threadx/common/src/tx_event_flags_set.c ****                 }
 766              		.loc 1 573 21 view .LVU301
 573:./Middlewares/ST/threadx/common/src/tx_event_flags_set.c ****                 }
 767              		.loc 1 573 32 is_stmt 0 view .LVU302
 768 01e4 2046     		mov	r0, r4
 769              	.LVL81:
 770              	.L24:
 544:./Middlewares/ST/threadx/common/src/tx_event_flags_set.c ****                 {
ARM GAS  /tmp/ccgNlioB.s 			page 40


 771              		.loc 1 544 34 is_stmt 1 view .LVU303
 772 01e6 0028     		cmp	r0, #0
 773 01e8 F0D1     		bne	.L25
 577:./Middlewares/ST/threadx/common/src/tx_event_flags_set.c **** 
 774              		.loc 1 577 17 view .LVU304
 775              	.LBB62:
 776              	.LBI62:
 566:./Middlewares/ST/threadx/ports/cortex_m4/gnu/inc/tx_port.h **** {
 777              		.loc 2 566 63 view .LVU305
 778              	.LBB63:
 568:./Middlewares/ST/threadx/ports/cortex_m4/gnu/inc/tx_port.h **** 
 779              		.loc 2 568 1 view .LVU306
 570:./Middlewares/ST/threadx/ports/cortex_m4/gnu/inc/tx_port.h **** 
 780              		.loc 2 570 5 view .LVU307
 781              	.LBB64:
 782              	.LBI64:
 533:./Middlewares/ST/threadx/ports/cortex_m4/gnu/inc/tx_port.h **** {
 783              		.loc 2 533 63 view .LVU308
 784              	.LBB65:
 535:./Middlewares/ST/threadx/ports/cortex_m4/gnu/inc/tx_port.h **** #ifdef TX_PORT_USE_BASEPRI
 785              		.loc 2 535 1 view .LVU309
 539:./Middlewares/ST/threadx/ports/cortex_m4/gnu/inc/tx_port.h **** #endif
 786              		.loc 2 539 5 view .LVU310
 787              		.syntax unified
 788              	@ 539 "./Middlewares/ST/threadx/ports/cortex_m4/gnu/inc/tx_port.h" 1
 789 01ea EFF3108E 		MRS  lr, PRIMASK 
 790              	@ 0 "" 2
 791              	.LVL82:
 541:./Middlewares/ST/threadx/ports/cortex_m4/gnu/inc/tx_port.h **** }
 792              		.loc 2 541 5 view .LVU311
 541:./Middlewares/ST/threadx/ports/cortex_m4/gnu/inc/tx_port.h **** }
 793              		.loc 2 541 5 is_stmt 0 view .LVU312
 794              		.thumb
 795              		.syntax unified
 796              	.LBE65:
 797              	.LBE64:
 575:./Middlewares/ST/threadx/ports/cortex_m4/gnu/inc/tx_port.h **** #endif
 798              		.loc 2 575 5 is_stmt 1 view .LVU313
 799              		.syntax unified
 800              	@ 575 "./Middlewares/ST/threadx/ports/cortex_m4/gnu/inc/tx_port.h" 1
 801 01ee 72B6     		CPSID i
 802              	@ 0 "" 2
 803              		.loc 2 577 5 view .LVU314
 804              	.LVL83:
 805              		.loc 2 577 5 is_stmt 0 view .LVU315
 806              		.thumb
 807              		.syntax unified
 808              	.LBE63:
 809              	.LBE62:
 580:./Middlewares/ST/threadx/common/src/tx_event_flags_set.c ****             }
 810              		.loc 1 580 17 is_stmt 1 view .LVU316
 580:./Middlewares/ST/threadx/common/src/tx_event_flags_set.c ****             }
 811              		.loc 1 580 43 is_stmt 0 view .LVU317
 812 01f0 0A4A     		ldr	r2, .L39
 813 01f2 1368     		ldr	r3, [r2]
 814 01f4 013B     		subs	r3, r3, #1
 815 01f6 1360     		str	r3, [r2]
ARM GAS  /tmp/ccgNlioB.s 			page 41


 816              	.LVL84:
 817              	.L10:
 597:./Middlewares/ST/threadx/common/src/tx_event_flags_set.c **** 
 818              		.loc 1 597 9 is_stmt 1 view .LVU318
 819              	.LBB66:
 820              	.LBI66:
 556:./Middlewares/ST/threadx/ports/cortex_m4/gnu/inc/tx_port.h **** {
 821              		.loc 2 556 55 view .LVU319
 822              	.LBB67:
 562:./Middlewares/ST/threadx/ports/cortex_m4/gnu/inc/tx_port.h **** #endif
 823              		.loc 2 562 5 view .LVU320
 824              		.syntax unified
 825              	@ 562 "./Middlewares/ST/threadx/ports/cortex_m4/gnu/inc/tx_port.h" 1
 826 01f8 8EF31088 		MSR  PRIMASK,lr
 827              	@ 0 "" 2
 828              	.LVL85:
 562:./Middlewares/ST/threadx/ports/cortex_m4/gnu/inc/tx_port.h **** #endif
 829              		.loc 2 562 5 is_stmt 0 view .LVU321
 830              		.thumb
 831              		.syntax unified
 832              	.LBE67:
 833              	.LBE66:
 611:./Middlewares/ST/threadx/common/src/tx_event_flags_set.c ****         {
 834              		.loc 1 611 9 is_stmt 1 view .LVU322
 611:./Middlewares/ST/threadx/common/src/tx_event_flags_set.c ****         {
 835              		.loc 1 611 12 is_stmt 0 view .LVU323
 836 01fc B9F1010F 		cmp	r9, #1
 837 0200 7FF414AF 		bne	.L5
 615:./Middlewares/ST/threadx/common/src/tx_event_flags_set.c ****         }
 838              		.loc 1 615 13 is_stmt 1 view .LVU324
 839 0204 FFF7FEFF 		bl	_tx_thread_system_preempt_check
 840              	.LVL86:
 615:./Middlewares/ST/threadx/common/src/tx_event_flags_set.c ****         }
 841              		.loc 1 615 13 is_stmt 0 view .LVU325
 842 0208 10E7     		b	.L5
 843              	.LVL87:
 844              	.L7:
 587:./Middlewares/ST/threadx/common/src/tx_event_flags_set.c ****             {
 845              		.loc 1 587 13 is_stmt 1 view .LVU326
 587:./Middlewares/ST/threadx/common/src/tx_event_flags_set.c ****             {
 846              		.loc 1 587 16 is_stmt 0 view .LVU327
 847 020a 2CB1     		cbz	r4, .L30
 592:./Middlewares/ST/threadx/common/src/tx_event_flags_set.c ****             }
 848              		.loc 1 592 17 is_stmt 1 view .LVU328
 592:./Middlewares/ST/threadx/common/src/tx_event_flags_set.c ****             }
 849              		.loc 1 592 64 is_stmt 0 view .LVU329
 850 020c 0123     		movs	r3, #1
 851 020e CCF80C30 		str	r3, [ip, #12]
 204:./Middlewares/ST/threadx/common/src/tx_event_flags_set.c **** 
 852              		.loc 1 204 23 view .LVU330
 853 0212 DDF80490 		ldr	r9, [sp, #4]
 854 0216 EFE7     		b	.L10
 855              	.L30:
 204:./Middlewares/ST/threadx/common/src/tx_event_flags_set.c **** 
 856              		.loc 1 204 23 view .LVU331
 857 0218 A146     		mov	r9, r4
 858 021a EDE7     		b	.L10
ARM GAS  /tmp/ccgNlioB.s 			page 42


 859              	.L40:
 860              		.align	2
 861              	.L39:
 862 021c 00000000 		.word	_tx_thread_preempt_disable
 863              		.cfi_endproc
 864              	.LFE8:
 866              		.text
 867              	.Letext0:
 868              		.file 3 "./Middlewares/ST/threadx/common/inc/tx_api.h"
 869              		.file 4 "./Middlewares/ST/threadx/common/inc/tx_thread.h"
ARM GAS  /tmp/ccgNlioB.s 			page 43

