ARM GAS  C:\Users\Dennis\AppData\Local\Temp\ccsngdrP.s 			page 1


   1              		.cpu cortex-m4
   2              		.arch armv7e-m
   3              		.fpu fpv4-sp-d16
   4              		.eabi_attribute 27, 1
   5              		.eabi_attribute 28, 1
   6              		.eabi_attribute 20, 1
   7              		.eabi_attribute 21, 1
   8              		.eabi_attribute 23, 3
   9              		.eabi_attribute 24, 1
  10              		.eabi_attribute 25, 1
  11              		.eabi_attribute 26, 1
  12              		.eabi_attribute 30, 1
  13              		.eabi_attribute 34, 1
  14              		.eabi_attribute 18, 4
  15              		.file	"tx_semaphore_get.c"
  16              		.text
  17              	.Ltext0:
  18              		.cfi_sections	.debug_frame
  19              		.section	.text._tx_semaphore_get,"ax",%progbits
  20              		.align	1
  21              		.global	_tx_semaphore_get
  22              		.syntax unified
  23              		.thumb
  24              		.thumb_func
  26              	_tx_semaphore_get:
  27              	.LVL0:
  28              	.LFB8:
  29              		.file 1 "./Middlewares/ST/threadx/common/src/tx_semaphore_get.c"
   1:./Middlewares/ST/threadx/common/src/tx_semaphore_get.c **** /**************************************************************************/
   2:./Middlewares/ST/threadx/common/src/tx_semaphore_get.c **** /*                                                                        */
   3:./Middlewares/ST/threadx/common/src/tx_semaphore_get.c **** /*       Copyright (c) Microsoft Corporation. All rights reserved.        */
   4:./Middlewares/ST/threadx/common/src/tx_semaphore_get.c **** /*                                                                        */
   5:./Middlewares/ST/threadx/common/src/tx_semaphore_get.c **** /*       This software is licensed under the Microsoft Software License   */
   6:./Middlewares/ST/threadx/common/src/tx_semaphore_get.c **** /*       Terms for Microsoft Azure RTOS. Full text of the license can be  */
   7:./Middlewares/ST/threadx/common/src/tx_semaphore_get.c **** /*       found in the LICENSE file at https://aka.ms/AzureRTOS_EULA       */
   8:./Middlewares/ST/threadx/common/src/tx_semaphore_get.c **** /*       and in the root directory of this software.                      */
   9:./Middlewares/ST/threadx/common/src/tx_semaphore_get.c **** /*                                                                        */
  10:./Middlewares/ST/threadx/common/src/tx_semaphore_get.c **** /**************************************************************************/
  11:./Middlewares/ST/threadx/common/src/tx_semaphore_get.c **** 
  12:./Middlewares/ST/threadx/common/src/tx_semaphore_get.c **** 
  13:./Middlewares/ST/threadx/common/src/tx_semaphore_get.c **** /**************************************************************************/
  14:./Middlewares/ST/threadx/common/src/tx_semaphore_get.c **** /**************************************************************************/
  15:./Middlewares/ST/threadx/common/src/tx_semaphore_get.c **** /**                                                                       */
  16:./Middlewares/ST/threadx/common/src/tx_semaphore_get.c **** /** ThreadX Component                                                     */
  17:./Middlewares/ST/threadx/common/src/tx_semaphore_get.c **** /**                                                                       */
  18:./Middlewares/ST/threadx/common/src/tx_semaphore_get.c **** /**   Semaphore                                                           */
  19:./Middlewares/ST/threadx/common/src/tx_semaphore_get.c **** /**                                                                       */
  20:./Middlewares/ST/threadx/common/src/tx_semaphore_get.c **** /**************************************************************************/
  21:./Middlewares/ST/threadx/common/src/tx_semaphore_get.c **** /**************************************************************************/
  22:./Middlewares/ST/threadx/common/src/tx_semaphore_get.c **** 
  23:./Middlewares/ST/threadx/common/src/tx_semaphore_get.c **** #define TX_SOURCE_CODE
  24:./Middlewares/ST/threadx/common/src/tx_semaphore_get.c **** 
  25:./Middlewares/ST/threadx/common/src/tx_semaphore_get.c **** 
  26:./Middlewares/ST/threadx/common/src/tx_semaphore_get.c **** /* Include necessary system files.  */
  27:./Middlewares/ST/threadx/common/src/tx_semaphore_get.c **** 
  28:./Middlewares/ST/threadx/common/src/tx_semaphore_get.c **** #include "tx_api.h"
  29:./Middlewares/ST/threadx/common/src/tx_semaphore_get.c **** #include "tx_trace.h"
ARM GAS  C:\Users\Dennis\AppData\Local\Temp\ccsngdrP.s 			page 2


  30:./Middlewares/ST/threadx/common/src/tx_semaphore_get.c **** #include "tx_thread.h"
  31:./Middlewares/ST/threadx/common/src/tx_semaphore_get.c **** #include "tx_semaphore.h"
  32:./Middlewares/ST/threadx/common/src/tx_semaphore_get.c **** 
  33:./Middlewares/ST/threadx/common/src/tx_semaphore_get.c **** 
  34:./Middlewares/ST/threadx/common/src/tx_semaphore_get.c **** /**************************************************************************/
  35:./Middlewares/ST/threadx/common/src/tx_semaphore_get.c **** /*                                                                        */
  36:./Middlewares/ST/threadx/common/src/tx_semaphore_get.c **** /*  FUNCTION                                               RELEASE        */
  37:./Middlewares/ST/threadx/common/src/tx_semaphore_get.c **** /*                                                                        */
  38:./Middlewares/ST/threadx/common/src/tx_semaphore_get.c **** /*    _tx_semaphore_get                                   PORTABLE C      */
  39:./Middlewares/ST/threadx/common/src/tx_semaphore_get.c **** /*                                                           6.1          */
  40:./Middlewares/ST/threadx/common/src/tx_semaphore_get.c **** /*  AUTHOR                                                                */
  41:./Middlewares/ST/threadx/common/src/tx_semaphore_get.c **** /*                                                                        */
  42:./Middlewares/ST/threadx/common/src/tx_semaphore_get.c **** /*    William E. Lamie, Microsoft Corporation                             */
  43:./Middlewares/ST/threadx/common/src/tx_semaphore_get.c **** /*                                                                        */
  44:./Middlewares/ST/threadx/common/src/tx_semaphore_get.c **** /*  DESCRIPTION                                                           */
  45:./Middlewares/ST/threadx/common/src/tx_semaphore_get.c **** /*                                                                        */
  46:./Middlewares/ST/threadx/common/src/tx_semaphore_get.c **** /*    This function gets an instance from the specified counting          */
  47:./Middlewares/ST/threadx/common/src/tx_semaphore_get.c **** /*    semaphore.                                                          */
  48:./Middlewares/ST/threadx/common/src/tx_semaphore_get.c **** /*                                                                        */
  49:./Middlewares/ST/threadx/common/src/tx_semaphore_get.c **** /*  INPUT                                                                 */
  50:./Middlewares/ST/threadx/common/src/tx_semaphore_get.c **** /*                                                                        */
  51:./Middlewares/ST/threadx/common/src/tx_semaphore_get.c **** /*    semaphore_ptr                     Pointer to semaphore control block*/
  52:./Middlewares/ST/threadx/common/src/tx_semaphore_get.c **** /*    wait_option                       Suspension option                 */
  53:./Middlewares/ST/threadx/common/src/tx_semaphore_get.c **** /*                                                                        */
  54:./Middlewares/ST/threadx/common/src/tx_semaphore_get.c **** /*  OUTPUT                                                                */
  55:./Middlewares/ST/threadx/common/src/tx_semaphore_get.c **** /*                                                                        */
  56:./Middlewares/ST/threadx/common/src/tx_semaphore_get.c **** /*    status                            Completion status                 */
  57:./Middlewares/ST/threadx/common/src/tx_semaphore_get.c **** /*                                                                        */
  58:./Middlewares/ST/threadx/common/src/tx_semaphore_get.c **** /*  CALLS                                                                 */
  59:./Middlewares/ST/threadx/common/src/tx_semaphore_get.c **** /*                                                                        */
  60:./Middlewares/ST/threadx/common/src/tx_semaphore_get.c **** /*    _tx_thread_system_suspend         Suspend thread service            */
  61:./Middlewares/ST/threadx/common/src/tx_semaphore_get.c **** /*    _tx_thread_system_ni_suspend      Non-interruptable suspend thread  */
  62:./Middlewares/ST/threadx/common/src/tx_semaphore_get.c **** /*                                                                        */
  63:./Middlewares/ST/threadx/common/src/tx_semaphore_get.c **** /*  CALLED BY                                                             */
  64:./Middlewares/ST/threadx/common/src/tx_semaphore_get.c **** /*                                                                        */
  65:./Middlewares/ST/threadx/common/src/tx_semaphore_get.c **** /*    Application Code                                                    */
  66:./Middlewares/ST/threadx/common/src/tx_semaphore_get.c **** /*                                                                        */
  67:./Middlewares/ST/threadx/common/src/tx_semaphore_get.c **** /*  RELEASE HISTORY                                                       */
  68:./Middlewares/ST/threadx/common/src/tx_semaphore_get.c **** /*                                                                        */
  69:./Middlewares/ST/threadx/common/src/tx_semaphore_get.c **** /*    DATE              NAME                      DESCRIPTION             */
  70:./Middlewares/ST/threadx/common/src/tx_semaphore_get.c **** /*                                                                        */
  71:./Middlewares/ST/threadx/common/src/tx_semaphore_get.c **** /*  05-19-2020     William E. Lamie         Initial Version 6.0           */
  72:./Middlewares/ST/threadx/common/src/tx_semaphore_get.c **** /*  09-30-2020     Yuxin Zhou               Modified comment(s),          */
  73:./Middlewares/ST/threadx/common/src/tx_semaphore_get.c **** /*                                            resulting in version 6.1    */
  74:./Middlewares/ST/threadx/common/src/tx_semaphore_get.c **** /*                                                                        */
  75:./Middlewares/ST/threadx/common/src/tx_semaphore_get.c **** /**************************************************************************/
  76:./Middlewares/ST/threadx/common/src/tx_semaphore_get.c **** UINT  _tx_semaphore_get(TX_SEMAPHORE *semaphore_ptr, ULONG wait_option)
  77:./Middlewares/ST/threadx/common/src/tx_semaphore_get.c **** {
  30              		.loc 1 77 1 view -0
  31              		.cfi_startproc
  32              		@ args = 0, pretend = 0, frame = 0
  33              		@ frame_needed = 0, uses_anonymous_args = 0
  34              		.loc 1 77 1 is_stmt 0 view .LVU1
  35 0000 38B5     		push	{r3, r4, r5, lr}
  36              	.LCFI0:
  37              		.cfi_def_cfa_offset 16
  38              		.cfi_offset 3, -16
ARM GAS  C:\Users\Dennis\AppData\Local\Temp\ccsngdrP.s 			page 3


  39              		.cfi_offset 4, -12
  40              		.cfi_offset 5, -8
  41              		.cfi_offset 14, -4
  78:./Middlewares/ST/threadx/common/src/tx_semaphore_get.c **** 
  79:./Middlewares/ST/threadx/common/src/tx_semaphore_get.c **** TX_INTERRUPT_SAVE_AREA
  42              		.loc 1 79 1 is_stmt 1 view .LVU2
  80:./Middlewares/ST/threadx/common/src/tx_semaphore_get.c **** 
  81:./Middlewares/ST/threadx/common/src/tx_semaphore_get.c **** TX_THREAD       *thread_ptr;
  43              		.loc 1 81 1 view .LVU3
  82:./Middlewares/ST/threadx/common/src/tx_semaphore_get.c **** TX_THREAD       *next_thread;
  44              		.loc 1 82 1 view .LVU4
  83:./Middlewares/ST/threadx/common/src/tx_semaphore_get.c **** TX_THREAD       *previous_thread;
  45              		.loc 1 83 1 view .LVU5
  84:./Middlewares/ST/threadx/common/src/tx_semaphore_get.c **** UINT            status;
  46              		.loc 1 84 1 view .LVU6
  85:./Middlewares/ST/threadx/common/src/tx_semaphore_get.c **** 
  86:./Middlewares/ST/threadx/common/src/tx_semaphore_get.c **** 
  87:./Middlewares/ST/threadx/common/src/tx_semaphore_get.c ****     /* Default the status to TX_SUCCESS.  */
  88:./Middlewares/ST/threadx/common/src/tx_semaphore_get.c ****     status =  TX_SUCCESS;
  47              		.loc 1 88 5 view .LVU7
  48              	.LVL1:
  89:./Middlewares/ST/threadx/common/src/tx_semaphore_get.c **** 
  90:./Middlewares/ST/threadx/common/src/tx_semaphore_get.c ****     /* Disable interrupts to get an instance from the semaphore.  */
  91:./Middlewares/ST/threadx/common/src/tx_semaphore_get.c ****     TX_DISABLE
  49              		.loc 1 91 5 view .LVU8
  50              	.LBB16:
  51              	.LBI16:
  52              		.file 2 "./Middlewares/ST/threadx/ports/cortex_m4/gnu/inc/tx_port.h"
   1:./Middlewares/ST/threadx/ports/cortex_m4/gnu/inc/tx_port.h **** /**************************************************************************/
   2:./Middlewares/ST/threadx/ports/cortex_m4/gnu/inc/tx_port.h **** /*                                                                        */
   3:./Middlewares/ST/threadx/ports/cortex_m4/gnu/inc/tx_port.h **** /*       Copyright (c) Microsoft Corporation. All rights reserved.        */
   4:./Middlewares/ST/threadx/ports/cortex_m4/gnu/inc/tx_port.h **** /*                                                                        */
   5:./Middlewares/ST/threadx/ports/cortex_m4/gnu/inc/tx_port.h **** /*       This software is licensed under the Microsoft Software License   */
   6:./Middlewares/ST/threadx/ports/cortex_m4/gnu/inc/tx_port.h **** /*       Terms for Microsoft Azure RTOS. Full text of the license can be  */
   7:./Middlewares/ST/threadx/ports/cortex_m4/gnu/inc/tx_port.h **** /*       found in the LICENSE file at https://aka.ms/AzureRTOS_EULA       */
   8:./Middlewares/ST/threadx/ports/cortex_m4/gnu/inc/tx_port.h **** /*       and in the root directory of this software.                      */
   9:./Middlewares/ST/threadx/ports/cortex_m4/gnu/inc/tx_port.h **** /*                                                                        */
  10:./Middlewares/ST/threadx/ports/cortex_m4/gnu/inc/tx_port.h **** /**************************************************************************/
  11:./Middlewares/ST/threadx/ports/cortex_m4/gnu/inc/tx_port.h **** 
  12:./Middlewares/ST/threadx/ports/cortex_m4/gnu/inc/tx_port.h **** 
  13:./Middlewares/ST/threadx/ports/cortex_m4/gnu/inc/tx_port.h **** /**************************************************************************/
  14:./Middlewares/ST/threadx/ports/cortex_m4/gnu/inc/tx_port.h **** /**************************************************************************/
  15:./Middlewares/ST/threadx/ports/cortex_m4/gnu/inc/tx_port.h **** /**                                                                       */
  16:./Middlewares/ST/threadx/ports/cortex_m4/gnu/inc/tx_port.h **** /** ThreadX Component                                                     */
  17:./Middlewares/ST/threadx/ports/cortex_m4/gnu/inc/tx_port.h **** /**                                                                       */
  18:./Middlewares/ST/threadx/ports/cortex_m4/gnu/inc/tx_port.h **** /**   Port Specific                                                       */
  19:./Middlewares/ST/threadx/ports/cortex_m4/gnu/inc/tx_port.h **** /**                                                                       */
  20:./Middlewares/ST/threadx/ports/cortex_m4/gnu/inc/tx_port.h **** /**************************************************************************/
  21:./Middlewares/ST/threadx/ports/cortex_m4/gnu/inc/tx_port.h **** /**************************************************************************/
  22:./Middlewares/ST/threadx/ports/cortex_m4/gnu/inc/tx_port.h **** 
  23:./Middlewares/ST/threadx/ports/cortex_m4/gnu/inc/tx_port.h **** 
  24:./Middlewares/ST/threadx/ports/cortex_m4/gnu/inc/tx_port.h **** /**************************************************************************/
  25:./Middlewares/ST/threadx/ports/cortex_m4/gnu/inc/tx_port.h **** /*                                                                        */
  26:./Middlewares/ST/threadx/ports/cortex_m4/gnu/inc/tx_port.h **** /*  PORT SPECIFIC C INFORMATION                            RELEASE        */
  27:./Middlewares/ST/threadx/ports/cortex_m4/gnu/inc/tx_port.h **** /*                                                                        */
  28:./Middlewares/ST/threadx/ports/cortex_m4/gnu/inc/tx_port.h **** /*    tx_port.h                                         Cortex-M4/GNU     */
  29:./Middlewares/ST/threadx/ports/cortex_m4/gnu/inc/tx_port.h **** /*                                                           6.1.10       */
ARM GAS  C:\Users\Dennis\AppData\Local\Temp\ccsngdrP.s 			page 4


  30:./Middlewares/ST/threadx/ports/cortex_m4/gnu/inc/tx_port.h **** /*                                                                        */
  31:./Middlewares/ST/threadx/ports/cortex_m4/gnu/inc/tx_port.h **** /*  AUTHOR                                                                */
  32:./Middlewares/ST/threadx/ports/cortex_m4/gnu/inc/tx_port.h **** /*                                                                        */
  33:./Middlewares/ST/threadx/ports/cortex_m4/gnu/inc/tx_port.h **** /*    Scott Larson, Microsoft Corporation                                 */
  34:./Middlewares/ST/threadx/ports/cortex_m4/gnu/inc/tx_port.h **** /*                                                                        */
  35:./Middlewares/ST/threadx/ports/cortex_m4/gnu/inc/tx_port.h **** /*  DESCRIPTION                                                           */
  36:./Middlewares/ST/threadx/ports/cortex_m4/gnu/inc/tx_port.h **** /*                                                                        */
  37:./Middlewares/ST/threadx/ports/cortex_m4/gnu/inc/tx_port.h **** /*    This file contains data type definitions that make the ThreadX      */
  38:./Middlewares/ST/threadx/ports/cortex_m4/gnu/inc/tx_port.h **** /*    real-time kernel function identically on a variety of different     */
  39:./Middlewares/ST/threadx/ports/cortex_m4/gnu/inc/tx_port.h **** /*    processor architectures.  For example, the size or number of bits   */
  40:./Middlewares/ST/threadx/ports/cortex_m4/gnu/inc/tx_port.h **** /*    in an "int" data type vary between microprocessor architectures and */
  41:./Middlewares/ST/threadx/ports/cortex_m4/gnu/inc/tx_port.h **** /*    even C compilers for the same microprocessor.  ThreadX does not     */
  42:./Middlewares/ST/threadx/ports/cortex_m4/gnu/inc/tx_port.h **** /*    directly use native C data types.  Instead, ThreadX creates its     */
  43:./Middlewares/ST/threadx/ports/cortex_m4/gnu/inc/tx_port.h **** /*    own special types that can be mapped to actual data types by this   */
  44:./Middlewares/ST/threadx/ports/cortex_m4/gnu/inc/tx_port.h **** /*    file to guarantee consistency in the interface and functionality.   */
  45:./Middlewares/ST/threadx/ports/cortex_m4/gnu/inc/tx_port.h **** /*                                                                        */
  46:./Middlewares/ST/threadx/ports/cortex_m4/gnu/inc/tx_port.h **** /*    This file replaces the previous Cortex-M3/M4/M7 files. It unifies   */
  47:./Middlewares/ST/threadx/ports/cortex_m4/gnu/inc/tx_port.h **** /*    the ARMv7-M architecture and compilers into one common file.        */
  48:./Middlewares/ST/threadx/ports/cortex_m4/gnu/inc/tx_port.h **** /*                                                                        */
  49:./Middlewares/ST/threadx/ports/cortex_m4/gnu/inc/tx_port.h **** /*  RELEASE HISTORY                                                       */
  50:./Middlewares/ST/threadx/ports/cortex_m4/gnu/inc/tx_port.h **** /*                                                                        */
  51:./Middlewares/ST/threadx/ports/cortex_m4/gnu/inc/tx_port.h **** /*    DATE              NAME                      DESCRIPTION             */
  52:./Middlewares/ST/threadx/ports/cortex_m4/gnu/inc/tx_port.h **** /*                                                                        */
  53:./Middlewares/ST/threadx/ports/cortex_m4/gnu/inc/tx_port.h **** /*  06-02-2021      Scott Larson            Initial Version 6.1.7         */
  54:./Middlewares/ST/threadx/ports/cortex_m4/gnu/inc/tx_port.h **** /*  01-31-2022      Scott Larson            Modified comments, updated    */
  55:./Middlewares/ST/threadx/ports/cortex_m4/gnu/inc/tx_port.h **** /*                                            typedef to fix misra        */
  56:./Middlewares/ST/threadx/ports/cortex_m4/gnu/inc/tx_port.h **** /*                                            violation,                  */
  57:./Middlewares/ST/threadx/ports/cortex_m4/gnu/inc/tx_port.h **** /*                                            fixed predefined macro,     */
  58:./Middlewares/ST/threadx/ports/cortex_m4/gnu/inc/tx_port.h **** /*                                            resulting in version 6.1.10 */
  59:./Middlewares/ST/threadx/ports/cortex_m4/gnu/inc/tx_port.h **** /*                                                                        */
  60:./Middlewares/ST/threadx/ports/cortex_m4/gnu/inc/tx_port.h **** /**************************************************************************/
  61:./Middlewares/ST/threadx/ports/cortex_m4/gnu/inc/tx_port.h **** 
  62:./Middlewares/ST/threadx/ports/cortex_m4/gnu/inc/tx_port.h **** #ifndef TX_PORT_H
  63:./Middlewares/ST/threadx/ports/cortex_m4/gnu/inc/tx_port.h **** #define TX_PORT_H
  64:./Middlewares/ST/threadx/ports/cortex_m4/gnu/inc/tx_port.h **** 
  65:./Middlewares/ST/threadx/ports/cortex_m4/gnu/inc/tx_port.h **** 
  66:./Middlewares/ST/threadx/ports/cortex_m4/gnu/inc/tx_port.h **** /* Determine if the optional ThreadX user define file should be used.  */
  67:./Middlewares/ST/threadx/ports/cortex_m4/gnu/inc/tx_port.h **** 
  68:./Middlewares/ST/threadx/ports/cortex_m4/gnu/inc/tx_port.h **** #ifdef TX_INCLUDE_USER_DEFINE_FILE
  69:./Middlewares/ST/threadx/ports/cortex_m4/gnu/inc/tx_port.h **** 
  70:./Middlewares/ST/threadx/ports/cortex_m4/gnu/inc/tx_port.h **** /* Yes, include the user defines in tx_user.h. The defines in this file may
  71:./Middlewares/ST/threadx/ports/cortex_m4/gnu/inc/tx_port.h ****    alternately be defined on the command line.  */
  72:./Middlewares/ST/threadx/ports/cortex_m4/gnu/inc/tx_port.h **** 
  73:./Middlewares/ST/threadx/ports/cortex_m4/gnu/inc/tx_port.h **** #include "tx_user.h"
  74:./Middlewares/ST/threadx/ports/cortex_m4/gnu/inc/tx_port.h **** #endif
  75:./Middlewares/ST/threadx/ports/cortex_m4/gnu/inc/tx_port.h **** 
  76:./Middlewares/ST/threadx/ports/cortex_m4/gnu/inc/tx_port.h **** 
  77:./Middlewares/ST/threadx/ports/cortex_m4/gnu/inc/tx_port.h **** /* Define compiler library include files.  */
  78:./Middlewares/ST/threadx/ports/cortex_m4/gnu/inc/tx_port.h **** 
  79:./Middlewares/ST/threadx/ports/cortex_m4/gnu/inc/tx_port.h **** #include <stdlib.h>
  80:./Middlewares/ST/threadx/ports/cortex_m4/gnu/inc/tx_port.h **** #include <string.h>
  81:./Middlewares/ST/threadx/ports/cortex_m4/gnu/inc/tx_port.h **** 
  82:./Middlewares/ST/threadx/ports/cortex_m4/gnu/inc/tx_port.h **** #ifdef __ICCARM__
  83:./Middlewares/ST/threadx/ports/cortex_m4/gnu/inc/tx_port.h **** #include <intrinsics.h>                     /* IAR Intrinsics */
  84:./Middlewares/ST/threadx/ports/cortex_m4/gnu/inc/tx_port.h **** #define __asm__ __asm                       /* Define to make all inline asm look similar */
  85:./Middlewares/ST/threadx/ports/cortex_m4/gnu/inc/tx_port.h **** #ifdef  TX_ENABLE_IAR_LIBRARY_SUPPORT
  86:./Middlewares/ST/threadx/ports/cortex_m4/gnu/inc/tx_port.h **** #include <yvals.h>
ARM GAS  C:\Users\Dennis\AppData\Local\Temp\ccsngdrP.s 			page 5


  87:./Middlewares/ST/threadx/ports/cortex_m4/gnu/inc/tx_port.h **** #endif
  88:./Middlewares/ST/threadx/ports/cortex_m4/gnu/inc/tx_port.h **** #endif /* __ICCARM__ */
  89:./Middlewares/ST/threadx/ports/cortex_m4/gnu/inc/tx_port.h **** 
  90:./Middlewares/ST/threadx/ports/cortex_m4/gnu/inc/tx_port.h **** #ifdef __ghs__
  91:./Middlewares/ST/threadx/ports/cortex_m4/gnu/inc/tx_port.h **** #include <arm_ghs.h>
  92:./Middlewares/ST/threadx/ports/cortex_m4/gnu/inc/tx_port.h **** #include "tx_ghs.h"
  93:./Middlewares/ST/threadx/ports/cortex_m4/gnu/inc/tx_port.h **** #endif  /* __ghs__ */
  94:./Middlewares/ST/threadx/ports/cortex_m4/gnu/inc/tx_port.h **** 
  95:./Middlewares/ST/threadx/ports/cortex_m4/gnu/inc/tx_port.h **** 
  96:./Middlewares/ST/threadx/ports/cortex_m4/gnu/inc/tx_port.h **** #if !defined(__GNUC__) && !defined(__CC_ARM)
  97:./Middlewares/ST/threadx/ports/cortex_m4/gnu/inc/tx_port.h **** #define __get_control_value __get_CONTROL
  98:./Middlewares/ST/threadx/ports/cortex_m4/gnu/inc/tx_port.h **** #define __set_control_value __set_CONTROL
  99:./Middlewares/ST/threadx/ports/cortex_m4/gnu/inc/tx_port.h **** #endif
 100:./Middlewares/ST/threadx/ports/cortex_m4/gnu/inc/tx_port.h **** 
 101:./Middlewares/ST/threadx/ports/cortex_m4/gnu/inc/tx_port.h **** #ifndef __GNUC__
 102:./Middlewares/ST/threadx/ports/cortex_m4/gnu/inc/tx_port.h **** #define __get_ipsr_value __get_IPSR
 103:./Middlewares/ST/threadx/ports/cortex_m4/gnu/inc/tx_port.h **** #endif
 104:./Middlewares/ST/threadx/ports/cortex_m4/gnu/inc/tx_port.h **** 
 105:./Middlewares/ST/threadx/ports/cortex_m4/gnu/inc/tx_port.h **** /* Define ThreadX basic types for this port.  */
 106:./Middlewares/ST/threadx/ports/cortex_m4/gnu/inc/tx_port.h **** 
 107:./Middlewares/ST/threadx/ports/cortex_m4/gnu/inc/tx_port.h **** #define VOID                                    void
 108:./Middlewares/ST/threadx/ports/cortex_m4/gnu/inc/tx_port.h **** typedef char                                    CHAR;
 109:./Middlewares/ST/threadx/ports/cortex_m4/gnu/inc/tx_port.h **** typedef unsigned char                           UCHAR;
 110:./Middlewares/ST/threadx/ports/cortex_m4/gnu/inc/tx_port.h **** typedef int                                     INT;
 111:./Middlewares/ST/threadx/ports/cortex_m4/gnu/inc/tx_port.h **** typedef unsigned int                            UINT;
 112:./Middlewares/ST/threadx/ports/cortex_m4/gnu/inc/tx_port.h **** typedef long                                    LONG;
 113:./Middlewares/ST/threadx/ports/cortex_m4/gnu/inc/tx_port.h **** typedef unsigned long                           ULONG;
 114:./Middlewares/ST/threadx/ports/cortex_m4/gnu/inc/tx_port.h **** typedef unsigned long long                      ULONG64;
 115:./Middlewares/ST/threadx/ports/cortex_m4/gnu/inc/tx_port.h **** typedef short                                   SHORT;
 116:./Middlewares/ST/threadx/ports/cortex_m4/gnu/inc/tx_port.h **** typedef unsigned short                          USHORT;
 117:./Middlewares/ST/threadx/ports/cortex_m4/gnu/inc/tx_port.h **** #define ULONG64_DEFINED
 118:./Middlewares/ST/threadx/ports/cortex_m4/gnu/inc/tx_port.h **** 
 119:./Middlewares/ST/threadx/ports/cortex_m4/gnu/inc/tx_port.h **** /* Define the priority levels for ThreadX.  Legal values range
 120:./Middlewares/ST/threadx/ports/cortex_m4/gnu/inc/tx_port.h ****    from 32 to 1024 and MUST be evenly divisible by 32.  */
 121:./Middlewares/ST/threadx/ports/cortex_m4/gnu/inc/tx_port.h **** 
 122:./Middlewares/ST/threadx/ports/cortex_m4/gnu/inc/tx_port.h **** #ifndef TX_MAX_PRIORITIES
 123:./Middlewares/ST/threadx/ports/cortex_m4/gnu/inc/tx_port.h **** #define TX_MAX_PRIORITIES                       32
 124:./Middlewares/ST/threadx/ports/cortex_m4/gnu/inc/tx_port.h **** #endif
 125:./Middlewares/ST/threadx/ports/cortex_m4/gnu/inc/tx_port.h **** 
 126:./Middlewares/ST/threadx/ports/cortex_m4/gnu/inc/tx_port.h **** 
 127:./Middlewares/ST/threadx/ports/cortex_m4/gnu/inc/tx_port.h **** /* Define the minimum stack for a ThreadX thread on this processor. If the size supplied during
 128:./Middlewares/ST/threadx/ports/cortex_m4/gnu/inc/tx_port.h ****    thread creation is less than this value, the thread create call will return an error.  */
 129:./Middlewares/ST/threadx/ports/cortex_m4/gnu/inc/tx_port.h **** 
 130:./Middlewares/ST/threadx/ports/cortex_m4/gnu/inc/tx_port.h **** #ifndef TX_MINIMUM_STACK
 131:./Middlewares/ST/threadx/ports/cortex_m4/gnu/inc/tx_port.h **** #define TX_MINIMUM_STACK                        200         /* Minimum stack size for this port  */
 132:./Middlewares/ST/threadx/ports/cortex_m4/gnu/inc/tx_port.h **** #endif
 133:./Middlewares/ST/threadx/ports/cortex_m4/gnu/inc/tx_port.h **** 
 134:./Middlewares/ST/threadx/ports/cortex_m4/gnu/inc/tx_port.h **** 
 135:./Middlewares/ST/threadx/ports/cortex_m4/gnu/inc/tx_port.h **** /* Define the system timer thread's default stack size and priority.  These are only applicable
 136:./Middlewares/ST/threadx/ports/cortex_m4/gnu/inc/tx_port.h ****    if TX_TIMER_PROCESS_IN_ISR is not defined.  */
 137:./Middlewares/ST/threadx/ports/cortex_m4/gnu/inc/tx_port.h **** 
 138:./Middlewares/ST/threadx/ports/cortex_m4/gnu/inc/tx_port.h **** #ifndef TX_TIMER_THREAD_STACK_SIZE
 139:./Middlewares/ST/threadx/ports/cortex_m4/gnu/inc/tx_port.h **** #define TX_TIMER_THREAD_STACK_SIZE              1024        /* Default timer thread stack size  */
 140:./Middlewares/ST/threadx/ports/cortex_m4/gnu/inc/tx_port.h **** #endif
 141:./Middlewares/ST/threadx/ports/cortex_m4/gnu/inc/tx_port.h **** 
 142:./Middlewares/ST/threadx/ports/cortex_m4/gnu/inc/tx_port.h **** #ifndef TX_TIMER_THREAD_PRIORITY
 143:./Middlewares/ST/threadx/ports/cortex_m4/gnu/inc/tx_port.h **** #define TX_TIMER_THREAD_PRIORITY                0           /* Default timer thread priority    */
ARM GAS  C:\Users\Dennis\AppData\Local\Temp\ccsngdrP.s 			page 6


 144:./Middlewares/ST/threadx/ports/cortex_m4/gnu/inc/tx_port.h **** #endif
 145:./Middlewares/ST/threadx/ports/cortex_m4/gnu/inc/tx_port.h **** 
 146:./Middlewares/ST/threadx/ports/cortex_m4/gnu/inc/tx_port.h **** 
 147:./Middlewares/ST/threadx/ports/cortex_m4/gnu/inc/tx_port.h **** /* Define various constants for the ThreadX Cortex-M port.  */
 148:./Middlewares/ST/threadx/ports/cortex_m4/gnu/inc/tx_port.h **** 
 149:./Middlewares/ST/threadx/ports/cortex_m4/gnu/inc/tx_port.h **** #define TX_INT_DISABLE                          1           /* Disable interrupts               */
 150:./Middlewares/ST/threadx/ports/cortex_m4/gnu/inc/tx_port.h **** #define TX_INT_ENABLE                           0           /* Enable interrupts                */
 151:./Middlewares/ST/threadx/ports/cortex_m4/gnu/inc/tx_port.h **** 
 152:./Middlewares/ST/threadx/ports/cortex_m4/gnu/inc/tx_port.h **** 
 153:./Middlewares/ST/threadx/ports/cortex_m4/gnu/inc/tx_port.h **** /* Define the clock source for trace event entry time stamp. The following two item are port specif
 154:./Middlewares/ST/threadx/ports/cortex_m4/gnu/inc/tx_port.h ****    For example, if the time source is at the address 0x0a800024 and is 16-bits in size, the clock
 155:./Middlewares/ST/threadx/ports/cortex_m4/gnu/inc/tx_port.h ****    source constants would be:
 156:./Middlewares/ST/threadx/ports/cortex_m4/gnu/inc/tx_port.h **** 
 157:./Middlewares/ST/threadx/ports/cortex_m4/gnu/inc/tx_port.h **** #define TX_TRACE_TIME_SOURCE                    *((ULONG *) 0x0a800024)
 158:./Middlewares/ST/threadx/ports/cortex_m4/gnu/inc/tx_port.h **** #define TX_TRACE_TIME_MASK                      0x0000FFFFUL
 159:./Middlewares/ST/threadx/ports/cortex_m4/gnu/inc/tx_port.h **** 
 160:./Middlewares/ST/threadx/ports/cortex_m4/gnu/inc/tx_port.h **** */
 161:./Middlewares/ST/threadx/ports/cortex_m4/gnu/inc/tx_port.h **** 
 162:./Middlewares/ST/threadx/ports/cortex_m4/gnu/inc/tx_port.h **** #ifndef TX_MISRA_ENABLE
 163:./Middlewares/ST/threadx/ports/cortex_m4/gnu/inc/tx_port.h **** #ifndef TX_TRACE_TIME_SOURCE
 164:./Middlewares/ST/threadx/ports/cortex_m4/gnu/inc/tx_port.h **** #define TX_TRACE_TIME_SOURCE                    *((ULONG *) 0xE0001004)
 165:./Middlewares/ST/threadx/ports/cortex_m4/gnu/inc/tx_port.h **** #endif
 166:./Middlewares/ST/threadx/ports/cortex_m4/gnu/inc/tx_port.h **** #else
 167:./Middlewares/ST/threadx/ports/cortex_m4/gnu/inc/tx_port.h **** ULONG   _tx_misra_time_stamp_get(VOID);
 168:./Middlewares/ST/threadx/ports/cortex_m4/gnu/inc/tx_port.h **** #define TX_TRACE_TIME_SOURCE                    _tx_misra_time_stamp_get()
 169:./Middlewares/ST/threadx/ports/cortex_m4/gnu/inc/tx_port.h **** #endif
 170:./Middlewares/ST/threadx/ports/cortex_m4/gnu/inc/tx_port.h **** 
 171:./Middlewares/ST/threadx/ports/cortex_m4/gnu/inc/tx_port.h **** #ifndef TX_TRACE_TIME_MASK
 172:./Middlewares/ST/threadx/ports/cortex_m4/gnu/inc/tx_port.h **** #define TX_TRACE_TIME_MASK                      0xFFFFFFFFUL
 173:./Middlewares/ST/threadx/ports/cortex_m4/gnu/inc/tx_port.h **** #endif
 174:./Middlewares/ST/threadx/ports/cortex_m4/gnu/inc/tx_port.h **** 
 175:./Middlewares/ST/threadx/ports/cortex_m4/gnu/inc/tx_port.h **** #ifdef __ghs__
 176:./Middlewares/ST/threadx/ports/cortex_m4/gnu/inc/tx_port.h **** /* Define constants for Green Hills EventAnalyzer.  */
 177:./Middlewares/ST/threadx/ports/cortex_m4/gnu/inc/tx_port.h **** 
 178:./Middlewares/ST/threadx/ports/cortex_m4/gnu/inc/tx_port.h **** /* Define the number of ticks per second. This informs the EventAnalyzer what the timestamps
 179:./Middlewares/ST/threadx/ports/cortex_m4/gnu/inc/tx_port.h ****    represent.  By default, this is set to 1,000,000 i.e., one tick every microsecond. */
 180:./Middlewares/ST/threadx/ports/cortex_m4/gnu/inc/tx_port.h **** 
 181:./Middlewares/ST/threadx/ports/cortex_m4/gnu/inc/tx_port.h **** #define TX_EL_TICKS_PER_SECOND                  1000000
 182:./Middlewares/ST/threadx/ports/cortex_m4/gnu/inc/tx_port.h **** 
 183:./Middlewares/ST/threadx/ports/cortex_m4/gnu/inc/tx_port.h **** /* Define the method of how to get the upper and lower 32-bits of the time stamp. By default, simpl
 184:./Middlewares/ST/threadx/ports/cortex_m4/gnu/inc/tx_port.h ****    simulate the time-stamp source with a counter.  */
 185:./Middlewares/ST/threadx/ports/cortex_m4/gnu/inc/tx_port.h **** 
 186:./Middlewares/ST/threadx/ports/cortex_m4/gnu/inc/tx_port.h **** #define read_tbu()                              _tx_el_time_base_upper
 187:./Middlewares/ST/threadx/ports/cortex_m4/gnu/inc/tx_port.h **** #define read_tbl()                              ++_tx_el_time_base_lower
 188:./Middlewares/ST/threadx/ports/cortex_m4/gnu/inc/tx_port.h **** #endif  /* __ghs__ */
 189:./Middlewares/ST/threadx/ports/cortex_m4/gnu/inc/tx_port.h **** 
 190:./Middlewares/ST/threadx/ports/cortex_m4/gnu/inc/tx_port.h **** /* Define the port specific options for the _tx_build_options variable. This variable indicates
 191:./Middlewares/ST/threadx/ports/cortex_m4/gnu/inc/tx_port.h ****    how the ThreadX library was built.  */
 192:./Middlewares/ST/threadx/ports/cortex_m4/gnu/inc/tx_port.h **** 
 193:./Middlewares/ST/threadx/ports/cortex_m4/gnu/inc/tx_port.h **** #define TX_PORT_SPECIFIC_BUILD_OPTIONS          (0)
 194:./Middlewares/ST/threadx/ports/cortex_m4/gnu/inc/tx_port.h **** 
 195:./Middlewares/ST/threadx/ports/cortex_m4/gnu/inc/tx_port.h **** 
 196:./Middlewares/ST/threadx/ports/cortex_m4/gnu/inc/tx_port.h **** /* Define the in-line initialization constant so that modules with in-line
 197:./Middlewares/ST/threadx/ports/cortex_m4/gnu/inc/tx_port.h ****    initialization capabilities can prevent their initialization from being
 198:./Middlewares/ST/threadx/ports/cortex_m4/gnu/inc/tx_port.h ****    a function call.  */
 199:./Middlewares/ST/threadx/ports/cortex_m4/gnu/inc/tx_port.h **** 
 200:./Middlewares/ST/threadx/ports/cortex_m4/gnu/inc/tx_port.h **** #ifdef TX_MISRA_ENABLE
ARM GAS  C:\Users\Dennis\AppData\Local\Temp\ccsngdrP.s 			page 7


 201:./Middlewares/ST/threadx/ports/cortex_m4/gnu/inc/tx_port.h **** #define TX_DISABLE_INLINE
 202:./Middlewares/ST/threadx/ports/cortex_m4/gnu/inc/tx_port.h **** #else
 203:./Middlewares/ST/threadx/ports/cortex_m4/gnu/inc/tx_port.h **** #define TX_INLINE_INITIALIZATION
 204:./Middlewares/ST/threadx/ports/cortex_m4/gnu/inc/tx_port.h **** #endif
 205:./Middlewares/ST/threadx/ports/cortex_m4/gnu/inc/tx_port.h **** 
 206:./Middlewares/ST/threadx/ports/cortex_m4/gnu/inc/tx_port.h **** 
 207:./Middlewares/ST/threadx/ports/cortex_m4/gnu/inc/tx_port.h **** /* Determine whether or not stack checking is enabled. By default, ThreadX stack checking is
 208:./Middlewares/ST/threadx/ports/cortex_m4/gnu/inc/tx_port.h ****    disabled. When the following is defined, ThreadX thread stack checking is enabled.  If stack
 209:./Middlewares/ST/threadx/ports/cortex_m4/gnu/inc/tx_port.h ****    checking is enabled (TX_ENABLE_STACK_CHECKING is defined), the TX_DISABLE_STACK_FILLING
 210:./Middlewares/ST/threadx/ports/cortex_m4/gnu/inc/tx_port.h ****    define is negated, thereby forcing the stack fill which is necessary for the stack checking
 211:./Middlewares/ST/threadx/ports/cortex_m4/gnu/inc/tx_port.h ****    logic.  */
 212:./Middlewares/ST/threadx/ports/cortex_m4/gnu/inc/tx_port.h **** 
 213:./Middlewares/ST/threadx/ports/cortex_m4/gnu/inc/tx_port.h **** #ifndef TX_MISRA_ENABLE
 214:./Middlewares/ST/threadx/ports/cortex_m4/gnu/inc/tx_port.h **** #ifdef TX_ENABLE_STACK_CHECKING
 215:./Middlewares/ST/threadx/ports/cortex_m4/gnu/inc/tx_port.h **** #undef TX_DISABLE_STACK_FILLING
 216:./Middlewares/ST/threadx/ports/cortex_m4/gnu/inc/tx_port.h **** #endif
 217:./Middlewares/ST/threadx/ports/cortex_m4/gnu/inc/tx_port.h **** #endif
 218:./Middlewares/ST/threadx/ports/cortex_m4/gnu/inc/tx_port.h **** 
 219:./Middlewares/ST/threadx/ports/cortex_m4/gnu/inc/tx_port.h **** 
 220:./Middlewares/ST/threadx/ports/cortex_m4/gnu/inc/tx_port.h **** /* Define the TX_THREAD control block extensions for this port. The main reason
 221:./Middlewares/ST/threadx/ports/cortex_m4/gnu/inc/tx_port.h ****    for the multiple macros is so that backward compatibility can be maintained with
 222:./Middlewares/ST/threadx/ports/cortex_m4/gnu/inc/tx_port.h ****    existing ThreadX kernel awareness modules.  */
 223:./Middlewares/ST/threadx/ports/cortex_m4/gnu/inc/tx_port.h **** 
 224:./Middlewares/ST/threadx/ports/cortex_m4/gnu/inc/tx_port.h **** #define TX_THREAD_EXTENSION_0
 225:./Middlewares/ST/threadx/ports/cortex_m4/gnu/inc/tx_port.h **** #define TX_THREAD_EXTENSION_1
 226:./Middlewares/ST/threadx/ports/cortex_m4/gnu/inc/tx_port.h **** #ifdef  TX_ENABLE_IAR_LIBRARY_SUPPORT
 227:./Middlewares/ST/threadx/ports/cortex_m4/gnu/inc/tx_port.h **** #define TX_THREAD_EXTENSION_2           VOID    *tx_thread_iar_tls_pointer;
 228:./Middlewares/ST/threadx/ports/cortex_m4/gnu/inc/tx_port.h **** #elif defined(__ghs__)
 229:./Middlewares/ST/threadx/ports/cortex_m4/gnu/inc/tx_port.h **** #define TX_THREAD_EXTENSION_2           VOID *  tx_thread_eh_globals;                           \
 230:./Middlewares/ST/threadx/ports/cortex_m4/gnu/inc/tx_port.h ****                                         int     Errno;             /* errno.  */                \
 231:./Middlewares/ST/threadx/ports/cortex_m4/gnu/inc/tx_port.h ****                                         char *  strtok_saved_pos;  /* strtok() position.  */
 232:./Middlewares/ST/threadx/ports/cortex_m4/gnu/inc/tx_port.h **** #else
 233:./Middlewares/ST/threadx/ports/cortex_m4/gnu/inc/tx_port.h **** #define TX_THREAD_EXTENSION_2
 234:./Middlewares/ST/threadx/ports/cortex_m4/gnu/inc/tx_port.h **** #endif
 235:./Middlewares/ST/threadx/ports/cortex_m4/gnu/inc/tx_port.h **** 
 236:./Middlewares/ST/threadx/ports/cortex_m4/gnu/inc/tx_port.h **** 
 237:./Middlewares/ST/threadx/ports/cortex_m4/gnu/inc/tx_port.h **** #define TX_THREAD_EXTENSION_3
 238:./Middlewares/ST/threadx/ports/cortex_m4/gnu/inc/tx_port.h **** 
 239:./Middlewares/ST/threadx/ports/cortex_m4/gnu/inc/tx_port.h **** 
 240:./Middlewares/ST/threadx/ports/cortex_m4/gnu/inc/tx_port.h **** 
 241:./Middlewares/ST/threadx/ports/cortex_m4/gnu/inc/tx_port.h **** /* Define the port extensions of the remaining ThreadX objects.  */
 242:./Middlewares/ST/threadx/ports/cortex_m4/gnu/inc/tx_port.h **** 
 243:./Middlewares/ST/threadx/ports/cortex_m4/gnu/inc/tx_port.h **** #define TX_BLOCK_POOL_EXTENSION
 244:./Middlewares/ST/threadx/ports/cortex_m4/gnu/inc/tx_port.h **** #define TX_BYTE_POOL_EXTENSION
 245:./Middlewares/ST/threadx/ports/cortex_m4/gnu/inc/tx_port.h **** #define TX_EVENT_FLAGS_GROUP_EXTENSION
 246:./Middlewares/ST/threadx/ports/cortex_m4/gnu/inc/tx_port.h **** #define TX_MUTEX_EXTENSION
 247:./Middlewares/ST/threadx/ports/cortex_m4/gnu/inc/tx_port.h **** #define TX_QUEUE_EXTENSION
 248:./Middlewares/ST/threadx/ports/cortex_m4/gnu/inc/tx_port.h **** #define TX_SEMAPHORE_EXTENSION
 249:./Middlewares/ST/threadx/ports/cortex_m4/gnu/inc/tx_port.h **** #define TX_TIMER_EXTENSION
 250:./Middlewares/ST/threadx/ports/cortex_m4/gnu/inc/tx_port.h **** 
 251:./Middlewares/ST/threadx/ports/cortex_m4/gnu/inc/tx_port.h **** 
 252:./Middlewares/ST/threadx/ports/cortex_m4/gnu/inc/tx_port.h **** /* Define the user extension field of the thread control block.  Nothing
 253:./Middlewares/ST/threadx/ports/cortex_m4/gnu/inc/tx_port.h ****    additional is needed for this port so it is defined as white space.  */
 254:./Middlewares/ST/threadx/ports/cortex_m4/gnu/inc/tx_port.h **** 
 255:./Middlewares/ST/threadx/ports/cortex_m4/gnu/inc/tx_port.h **** #ifndef TX_THREAD_USER_EXTENSION
 256:./Middlewares/ST/threadx/ports/cortex_m4/gnu/inc/tx_port.h **** #define TX_THREAD_USER_EXTENSION
 257:./Middlewares/ST/threadx/ports/cortex_m4/gnu/inc/tx_port.h **** #endif
ARM GAS  C:\Users\Dennis\AppData\Local\Temp\ccsngdrP.s 			page 8


 258:./Middlewares/ST/threadx/ports/cortex_m4/gnu/inc/tx_port.h **** 
 259:./Middlewares/ST/threadx/ports/cortex_m4/gnu/inc/tx_port.h **** 
 260:./Middlewares/ST/threadx/ports/cortex_m4/gnu/inc/tx_port.h **** /* Define the macros for processing extensions in tx_thread_create, tx_thread_delete,
 261:./Middlewares/ST/threadx/ports/cortex_m4/gnu/inc/tx_port.h ****    tx_thread_shell_entry, and tx_thread_terminate.  */
 262:./Middlewares/ST/threadx/ports/cortex_m4/gnu/inc/tx_port.h **** 
 263:./Middlewares/ST/threadx/ports/cortex_m4/gnu/inc/tx_port.h **** 
 264:./Middlewares/ST/threadx/ports/cortex_m4/gnu/inc/tx_port.h **** #ifdef  TX_ENABLE_IAR_LIBRARY_SUPPORT
 265:./Middlewares/ST/threadx/ports/cortex_m4/gnu/inc/tx_port.h **** #if (__VER__ < 8000000)
 266:./Middlewares/ST/threadx/ports/cortex_m4/gnu/inc/tx_port.h **** #define TX_THREAD_CREATE_EXTENSION(thread_ptr)                      thread_ptr -> tx_thread_iar_tls
 267:./Middlewares/ST/threadx/ports/cortex_m4/gnu/inc/tx_port.h **** #define TX_THREAD_DELETE_EXTENSION(thread_ptr)                      __iar_dlib_perthread_deallocate
 268:./Middlewares/ST/threadx/ports/cortex_m4/gnu/inc/tx_port.h ****                                                                     thread_ptr -> tx_thread_iar_tls
 269:./Middlewares/ST/threadx/ports/cortex_m4/gnu/inc/tx_port.h **** #define TX_PORT_SPECIFIC_PRE_SCHEDULER_INITIALIZATION               __iar_dlib_perthread_access(0);
 270:./Middlewares/ST/threadx/ports/cortex_m4/gnu/inc/tx_port.h **** #else
 271:./Middlewares/ST/threadx/ports/cortex_m4/gnu/inc/tx_port.h **** void    *_tx_iar_create_per_thread_tls_area(void);
 272:./Middlewares/ST/threadx/ports/cortex_m4/gnu/inc/tx_port.h **** void    _tx_iar_destroy_per_thread_tls_area(void *tls_ptr);
 273:./Middlewares/ST/threadx/ports/cortex_m4/gnu/inc/tx_port.h **** void    __iar_Initlocks(void);
 274:./Middlewares/ST/threadx/ports/cortex_m4/gnu/inc/tx_port.h **** 
 275:./Middlewares/ST/threadx/ports/cortex_m4/gnu/inc/tx_port.h **** #define TX_THREAD_CREATE_EXTENSION(thread_ptr)                      thread_ptr -> tx_thread_iar_tls
 276:./Middlewares/ST/threadx/ports/cortex_m4/gnu/inc/tx_port.h **** #define TX_THREAD_DELETE_EXTENSION(thread_ptr)                      do {_tx_iar_destroy_per_thread_
 277:./Middlewares/ST/threadx/ports/cortex_m4/gnu/inc/tx_port.h ****                                                                         thread_ptr -> tx_thread_iar
 278:./Middlewares/ST/threadx/ports/cortex_m4/gnu/inc/tx_port.h **** #define TX_PORT_SPECIFIC_PRE_SCHEDULER_INITIALIZATION               do {__iar_Initlocks();} while(0
 279:./Middlewares/ST/threadx/ports/cortex_m4/gnu/inc/tx_port.h **** #endif
 280:./Middlewares/ST/threadx/ports/cortex_m4/gnu/inc/tx_port.h **** #else
 281:./Middlewares/ST/threadx/ports/cortex_m4/gnu/inc/tx_port.h **** #define TX_THREAD_CREATE_EXTENSION(thread_ptr)
 282:./Middlewares/ST/threadx/ports/cortex_m4/gnu/inc/tx_port.h **** #define TX_THREAD_DELETE_EXTENSION(thread_ptr)
 283:./Middlewares/ST/threadx/ports/cortex_m4/gnu/inc/tx_port.h **** #endif
 284:./Middlewares/ST/threadx/ports/cortex_m4/gnu/inc/tx_port.h **** 
 285:./Middlewares/ST/threadx/ports/cortex_m4/gnu/inc/tx_port.h **** #if defined(__ARMVFP__) || defined(__ARM_PCS_VFP) || defined(__ARM_FP) || defined(__TARGET_FPU_VFP)
 286:./Middlewares/ST/threadx/ports/cortex_m4/gnu/inc/tx_port.h **** 
 287:./Middlewares/ST/threadx/ports/cortex_m4/gnu/inc/tx_port.h **** #ifdef TX_MISRA_ENABLE
 288:./Middlewares/ST/threadx/ports/cortex_m4/gnu/inc/tx_port.h **** 
 289:./Middlewares/ST/threadx/ports/cortex_m4/gnu/inc/tx_port.h **** ULONG  _tx_misra_control_get(void);
 290:./Middlewares/ST/threadx/ports/cortex_m4/gnu/inc/tx_port.h **** void   _tx_misra_control_set(ULONG value);
 291:./Middlewares/ST/threadx/ports/cortex_m4/gnu/inc/tx_port.h **** ULONG  _tx_misra_fpccr_get(void);
 292:./Middlewares/ST/threadx/ports/cortex_m4/gnu/inc/tx_port.h **** void   _tx_misra_vfp_touch(void);
 293:./Middlewares/ST/threadx/ports/cortex_m4/gnu/inc/tx_port.h **** 
 294:./Middlewares/ST/threadx/ports/cortex_m4/gnu/inc/tx_port.h **** #else   /* TX_MISRA_ENABLE not defined */
 295:./Middlewares/ST/threadx/ports/cortex_m4/gnu/inc/tx_port.h **** 
 296:./Middlewares/ST/threadx/ports/cortex_m4/gnu/inc/tx_port.h **** /* Define some helper functions (these are intrinsics in some compilers). */
 297:./Middlewares/ST/threadx/ports/cortex_m4/gnu/inc/tx_port.h **** #ifdef __GNUC__ /* GCC and ARM Compiler 6 */
 298:./Middlewares/ST/threadx/ports/cortex_m4/gnu/inc/tx_port.h **** 
 299:./Middlewares/ST/threadx/ports/cortex_m4/gnu/inc/tx_port.h **** __attribute__( ( always_inline ) ) static inline ULONG __get_control_value(void)
 300:./Middlewares/ST/threadx/ports/cortex_m4/gnu/inc/tx_port.h **** {
 301:./Middlewares/ST/threadx/ports/cortex_m4/gnu/inc/tx_port.h **** ULONG  control_value;
 302:./Middlewares/ST/threadx/ports/cortex_m4/gnu/inc/tx_port.h **** 
 303:./Middlewares/ST/threadx/ports/cortex_m4/gnu/inc/tx_port.h ****     __asm__ volatile (" MRS  %0,CONTROL ": "=r" (control_value) );
 304:./Middlewares/ST/threadx/ports/cortex_m4/gnu/inc/tx_port.h ****     return(control_value);
 305:./Middlewares/ST/threadx/ports/cortex_m4/gnu/inc/tx_port.h **** }
 306:./Middlewares/ST/threadx/ports/cortex_m4/gnu/inc/tx_port.h **** 
 307:./Middlewares/ST/threadx/ports/cortex_m4/gnu/inc/tx_port.h **** __attribute__( ( always_inline ) ) static inline void __set_control_value(ULONG control_value)
 308:./Middlewares/ST/threadx/ports/cortex_m4/gnu/inc/tx_port.h **** {
 309:./Middlewares/ST/threadx/ports/cortex_m4/gnu/inc/tx_port.h ****     __asm__ volatile (" MSR  CONTROL,%0": : "r" (control_value): "memory" );
 310:./Middlewares/ST/threadx/ports/cortex_m4/gnu/inc/tx_port.h **** }
 311:./Middlewares/ST/threadx/ports/cortex_m4/gnu/inc/tx_port.h **** 
 312:./Middlewares/ST/threadx/ports/cortex_m4/gnu/inc/tx_port.h **** #define TX_VFP_TOUCH()  __asm__ volatile ("VMOV.F32 s0, s0");
 313:./Middlewares/ST/threadx/ports/cortex_m4/gnu/inc/tx_port.h **** 
 314:./Middlewares/ST/threadx/ports/cortex_m4/gnu/inc/tx_port.h **** #elif defined(__CC_ARM) /* ARM Compiler 5 */
ARM GAS  C:\Users\Dennis\AppData\Local\Temp\ccsngdrP.s 			page 9


 315:./Middlewares/ST/threadx/ports/cortex_m4/gnu/inc/tx_port.h **** 
 316:./Middlewares/ST/threadx/ports/cortex_m4/gnu/inc/tx_port.h **** __attribute__( ( always_inline ) ) ULONG __get_control_value(void)
 317:./Middlewares/ST/threadx/ports/cortex_m4/gnu/inc/tx_port.h **** {
 318:./Middlewares/ST/threadx/ports/cortex_m4/gnu/inc/tx_port.h **** ULONG  control_value;
 319:./Middlewares/ST/threadx/ports/cortex_m4/gnu/inc/tx_port.h **** 
 320:./Middlewares/ST/threadx/ports/cortex_m4/gnu/inc/tx_port.h ****     __asm volatile ("MRS control_value,CONTROL");
 321:./Middlewares/ST/threadx/ports/cortex_m4/gnu/inc/tx_port.h ****     return(control_value);
 322:./Middlewares/ST/threadx/ports/cortex_m4/gnu/inc/tx_port.h **** }
 323:./Middlewares/ST/threadx/ports/cortex_m4/gnu/inc/tx_port.h **** 
 324:./Middlewares/ST/threadx/ports/cortex_m4/gnu/inc/tx_port.h **** __attribute__( ( always_inline ) ) void __set_control_value(ULONG control_value)
 325:./Middlewares/ST/threadx/ports/cortex_m4/gnu/inc/tx_port.h **** {
 326:./Middlewares/ST/threadx/ports/cortex_m4/gnu/inc/tx_port.h ****     __asm__ volatile ("MSR CONTROL,control_value");
 327:./Middlewares/ST/threadx/ports/cortex_m4/gnu/inc/tx_port.h **** }
 328:./Middlewares/ST/threadx/ports/cortex_m4/gnu/inc/tx_port.h **** /* Can't access VFP registers with inline asm, so define this in tx_thread_schedule.  */
 329:./Middlewares/ST/threadx/ports/cortex_m4/gnu/inc/tx_port.h **** void _tx_vfp_access(void);
 330:./Middlewares/ST/threadx/ports/cortex_m4/gnu/inc/tx_port.h **** #define TX_VFP_TOUCH()  _tx_vfp_access();
 331:./Middlewares/ST/threadx/ports/cortex_m4/gnu/inc/tx_port.h **** 
 332:./Middlewares/ST/threadx/ports/cortex_m4/gnu/inc/tx_port.h **** #elif defined(__ICCARM__)  /* IAR */
 333:./Middlewares/ST/threadx/ports/cortex_m4/gnu/inc/tx_port.h **** #define TX_VFP_TOUCH()  __asm__ volatile ("VMOV.F32 s0, s0");
 334:./Middlewares/ST/threadx/ports/cortex_m4/gnu/inc/tx_port.h **** #endif  /* Helper functions for different compilers */
 335:./Middlewares/ST/threadx/ports/cortex_m4/gnu/inc/tx_port.h **** 
 336:./Middlewares/ST/threadx/ports/cortex_m4/gnu/inc/tx_port.h **** #endif  /* TX_MISRA_ENABLE */
 337:./Middlewares/ST/threadx/ports/cortex_m4/gnu/inc/tx_port.h **** 
 338:./Middlewares/ST/threadx/ports/cortex_m4/gnu/inc/tx_port.h **** 
 339:./Middlewares/ST/threadx/ports/cortex_m4/gnu/inc/tx_port.h **** /* A completed thread falls into _thread_shell_entry and we can simply deactivate the FPU via CONTR
 340:./Middlewares/ST/threadx/ports/cortex_m4/gnu/inc/tx_port.h ****    in order to ensure no lazy stacking will occur. */
 341:./Middlewares/ST/threadx/ports/cortex_m4/gnu/inc/tx_port.h **** 
 342:./Middlewares/ST/threadx/ports/cortex_m4/gnu/inc/tx_port.h **** #ifndef TX_MISRA_ENABLE
 343:./Middlewares/ST/threadx/ports/cortex_m4/gnu/inc/tx_port.h **** 
 344:./Middlewares/ST/threadx/ports/cortex_m4/gnu/inc/tx_port.h **** #define TX_THREAD_COMPLETED_EXTENSION(thread_ptr)   {                                              
 345:./Middlewares/ST/threadx/ports/cortex_m4/gnu/inc/tx_port.h ****                                                     ULONG  _tx_vfp_state;                          
 346:./Middlewares/ST/threadx/ports/cortex_m4/gnu/inc/tx_port.h ****                                                         _tx_vfp_state =  __get_control_value();    
 347:./Middlewares/ST/threadx/ports/cortex_m4/gnu/inc/tx_port.h ****                                                         _tx_vfp_state =  _tx_vfp_state & ~((ULONG) 
 348:./Middlewares/ST/threadx/ports/cortex_m4/gnu/inc/tx_port.h ****                                                         __set_control_value(_tx_vfp_state);        
 349:./Middlewares/ST/threadx/ports/cortex_m4/gnu/inc/tx_port.h ****                                                     }
 350:./Middlewares/ST/threadx/ports/cortex_m4/gnu/inc/tx_port.h **** #else
 351:./Middlewares/ST/threadx/ports/cortex_m4/gnu/inc/tx_port.h **** 
 352:./Middlewares/ST/threadx/ports/cortex_m4/gnu/inc/tx_port.h **** #define TX_THREAD_COMPLETED_EXTENSION(thread_ptr)   {                                              
 353:./Middlewares/ST/threadx/ports/cortex_m4/gnu/inc/tx_port.h ****                                                     ULONG  _tx_vfp_state;                          
 354:./Middlewares/ST/threadx/ports/cortex_m4/gnu/inc/tx_port.h ****                                                         _tx_vfp_state =  _tx_misra_control_get();  
 355:./Middlewares/ST/threadx/ports/cortex_m4/gnu/inc/tx_port.h ****                                                         _tx_vfp_state =  _tx_vfp_state & ~((ULONG) 
 356:./Middlewares/ST/threadx/ports/cortex_m4/gnu/inc/tx_port.h ****                                                         _tx_misra_control_set(_tx_vfp_state);      
 357:./Middlewares/ST/threadx/ports/cortex_m4/gnu/inc/tx_port.h ****                                                     }
 358:./Middlewares/ST/threadx/ports/cortex_m4/gnu/inc/tx_port.h **** 
 359:./Middlewares/ST/threadx/ports/cortex_m4/gnu/inc/tx_port.h **** #endif
 360:./Middlewares/ST/threadx/ports/cortex_m4/gnu/inc/tx_port.h **** 
 361:./Middlewares/ST/threadx/ports/cortex_m4/gnu/inc/tx_port.h **** /* A thread can be terminated by another thread, so we first check if it's self-terminating and not
 362:./Middlewares/ST/threadx/ports/cortex_m4/gnu/inc/tx_port.h ****    If so, deactivate the FPU via CONTROL.FPCA. Otherwise we are in an interrupt or another thread i
 363:./Middlewares/ST/threadx/ports/cortex_m4/gnu/inc/tx_port.h ****    this one, so if the FPCCR.LSPACT bit is set, we need to save the CONTROL.FPCA state, touch the F
 364:./Middlewares/ST/threadx/ports/cortex_m4/gnu/inc/tx_port.h ****    the lazy FPU save, then restore the CONTROL.FPCA state. */
 365:./Middlewares/ST/threadx/ports/cortex_m4/gnu/inc/tx_port.h **** 
 366:./Middlewares/ST/threadx/ports/cortex_m4/gnu/inc/tx_port.h **** #ifndef TX_MISRA_ENABLE
 367:./Middlewares/ST/threadx/ports/cortex_m4/gnu/inc/tx_port.h **** 
 368:./Middlewares/ST/threadx/ports/cortex_m4/gnu/inc/tx_port.h **** #define TX_THREAD_TERMINATED_EXTENSION(thread_ptr)  {                                              
 369:./Middlewares/ST/threadx/ports/cortex_m4/gnu/inc/tx_port.h ****                                                     ULONG  _tx_system_state;                       
 370:./Middlewares/ST/threadx/ports/cortex_m4/gnu/inc/tx_port.h ****                                                         _tx_system_state =  TX_THREAD_GET_SYSTEM_ST
 371:./Middlewares/ST/threadx/ports/cortex_m4/gnu/inc/tx_port.h ****                                                         if ((_tx_system_state == ((ULONG) 0)) && ((
ARM GAS  C:\Users\Dennis\AppData\Local\Temp\ccsngdrP.s 			page 10


 372:./Middlewares/ST/threadx/ports/cortex_m4/gnu/inc/tx_port.h ****                                                         {                                          
 373:./Middlewares/ST/threadx/ports/cortex_m4/gnu/inc/tx_port.h ****                                                         ULONG  _tx_vfp_state;                      
 374:./Middlewares/ST/threadx/ports/cortex_m4/gnu/inc/tx_port.h ****                                                             _tx_vfp_state =  __get_control_value();
 375:./Middlewares/ST/threadx/ports/cortex_m4/gnu/inc/tx_port.h ****                                                             _tx_vfp_state =  _tx_vfp_state & ~((ULO
 376:./Middlewares/ST/threadx/ports/cortex_m4/gnu/inc/tx_port.h ****                                                             __set_control_value(_tx_vfp_state);    
 377:./Middlewares/ST/threadx/ports/cortex_m4/gnu/inc/tx_port.h ****                                                         }                                          
 378:./Middlewares/ST/threadx/ports/cortex_m4/gnu/inc/tx_port.h ****                                                         else                                       
 379:./Middlewares/ST/threadx/ports/cortex_m4/gnu/inc/tx_port.h ****                                                         {                                          
 380:./Middlewares/ST/threadx/ports/cortex_m4/gnu/inc/tx_port.h ****                                                         ULONG  _tx_fpccr;                          
 381:./Middlewares/ST/threadx/ports/cortex_m4/gnu/inc/tx_port.h ****                                                             _tx_fpccr =  *((ULONG *) 0xE000EF34);  
 382:./Middlewares/ST/threadx/ports/cortex_m4/gnu/inc/tx_port.h ****                                                             _tx_fpccr =  _tx_fpccr & ((ULONG) 0x01)
 383:./Middlewares/ST/threadx/ports/cortex_m4/gnu/inc/tx_port.h ****                                                             if (_tx_fpccr == ((ULONG) 0x01))       
 384:./Middlewares/ST/threadx/ports/cortex_m4/gnu/inc/tx_port.h ****                                                             {                                      
 385:./Middlewares/ST/threadx/ports/cortex_m4/gnu/inc/tx_port.h ****                                                             ULONG _tx_vfp_state;                   
 386:./Middlewares/ST/threadx/ports/cortex_m4/gnu/inc/tx_port.h ****                                                                 _tx_vfp_state = __get_control_value
 387:./Middlewares/ST/threadx/ports/cortex_m4/gnu/inc/tx_port.h ****                                                                 _tx_vfp_state =  _tx_vfp_state & ((
 388:./Middlewares/ST/threadx/ports/cortex_m4/gnu/inc/tx_port.h ****                                                                 TX_VFP_TOUCH();                    
 389:./Middlewares/ST/threadx/ports/cortex_m4/gnu/inc/tx_port.h ****                                                                 if (_tx_vfp_state == ((ULONG) 0))  
 390:./Middlewares/ST/threadx/ports/cortex_m4/gnu/inc/tx_port.h ****                                                                 {                                  
 391:./Middlewares/ST/threadx/ports/cortex_m4/gnu/inc/tx_port.h ****                                                                     _tx_vfp_state =  __get_control_
 392:./Middlewares/ST/threadx/ports/cortex_m4/gnu/inc/tx_port.h ****                                                                     _tx_vfp_state =  _tx_vfp_state 
 393:./Middlewares/ST/threadx/ports/cortex_m4/gnu/inc/tx_port.h ****                                                                     __set_control_value(_tx_vfp_sta
 394:./Middlewares/ST/threadx/ports/cortex_m4/gnu/inc/tx_port.h ****                                                                 }                                  
 395:./Middlewares/ST/threadx/ports/cortex_m4/gnu/inc/tx_port.h ****                                                             }                                      
 396:./Middlewares/ST/threadx/ports/cortex_m4/gnu/inc/tx_port.h ****                                                         }                                          
 397:./Middlewares/ST/threadx/ports/cortex_m4/gnu/inc/tx_port.h ****                                                     }
 398:./Middlewares/ST/threadx/ports/cortex_m4/gnu/inc/tx_port.h **** #else
 399:./Middlewares/ST/threadx/ports/cortex_m4/gnu/inc/tx_port.h **** 
 400:./Middlewares/ST/threadx/ports/cortex_m4/gnu/inc/tx_port.h **** #define TX_THREAD_TERMINATED_EXTENSION(thread_ptr)  {                                              
 401:./Middlewares/ST/threadx/ports/cortex_m4/gnu/inc/tx_port.h ****                                                     ULONG  _tx_system_state;                       
 402:./Middlewares/ST/threadx/ports/cortex_m4/gnu/inc/tx_port.h ****                                                         _tx_system_state =  TX_THREAD_GET_SYSTEM_ST
 403:./Middlewares/ST/threadx/ports/cortex_m4/gnu/inc/tx_port.h ****                                                         if ((_tx_system_state == ((ULONG) 0)) && ((
 404:./Middlewares/ST/threadx/ports/cortex_m4/gnu/inc/tx_port.h ****                                                         {                                          
 405:./Middlewares/ST/threadx/ports/cortex_m4/gnu/inc/tx_port.h ****                                                         ULONG  _tx_vfp_state;                      
 406:./Middlewares/ST/threadx/ports/cortex_m4/gnu/inc/tx_port.h ****                                                             _tx_vfp_state =  _tx_misra_control_get(
 407:./Middlewares/ST/threadx/ports/cortex_m4/gnu/inc/tx_port.h ****                                                             _tx_vfp_state =  _tx_vfp_state & ~((ULO
 408:./Middlewares/ST/threadx/ports/cortex_m4/gnu/inc/tx_port.h ****                                                             _tx_misra_control_set(_tx_vfp_state);  
 409:./Middlewares/ST/threadx/ports/cortex_m4/gnu/inc/tx_port.h ****                                                         }                                          
 410:./Middlewares/ST/threadx/ports/cortex_m4/gnu/inc/tx_port.h ****                                                         else                                       
 411:./Middlewares/ST/threadx/ports/cortex_m4/gnu/inc/tx_port.h ****                                                         {                                          
 412:./Middlewares/ST/threadx/ports/cortex_m4/gnu/inc/tx_port.h ****                                                         ULONG  _tx_fpccr;                          
 413:./Middlewares/ST/threadx/ports/cortex_m4/gnu/inc/tx_port.h ****                                                             _tx_fpccr =  _tx_misra_fpccr_get();    
 414:./Middlewares/ST/threadx/ports/cortex_m4/gnu/inc/tx_port.h ****                                                             _tx_fpccr =  _tx_fpccr & ((ULONG) 0x01)
 415:./Middlewares/ST/threadx/ports/cortex_m4/gnu/inc/tx_port.h ****                                                             if (_tx_fpccr == ((ULONG) 0x01))       
 416:./Middlewares/ST/threadx/ports/cortex_m4/gnu/inc/tx_port.h ****                                                             {                                      
 417:./Middlewares/ST/threadx/ports/cortex_m4/gnu/inc/tx_port.h ****                                                             ULONG _tx_vfp_state;                   
 418:./Middlewares/ST/threadx/ports/cortex_m4/gnu/inc/tx_port.h ****                                                                 _tx_vfp_state = _tx_misra_control_g
 419:./Middlewares/ST/threadx/ports/cortex_m4/gnu/inc/tx_port.h ****                                                                 _tx_vfp_state =  _tx_vfp_state & ((
 420:./Middlewares/ST/threadx/ports/cortex_m4/gnu/inc/tx_port.h ****                                                                 _tx_misra_vfp_touch();             
 421:./Middlewares/ST/threadx/ports/cortex_m4/gnu/inc/tx_port.h ****                                                                 if (_tx_vfp_state == ((ULONG) 0))  
 422:./Middlewares/ST/threadx/ports/cortex_m4/gnu/inc/tx_port.h ****                                                                 {                                  
 423:./Middlewares/ST/threadx/ports/cortex_m4/gnu/inc/tx_port.h ****                                                                     _tx_vfp_state =  _tx_misra_cont
 424:./Middlewares/ST/threadx/ports/cortex_m4/gnu/inc/tx_port.h ****                                                                     _tx_vfp_state =  _tx_vfp_state 
 425:./Middlewares/ST/threadx/ports/cortex_m4/gnu/inc/tx_port.h ****                                                                     _tx_misra_control_set(_tx_vfp_s
 426:./Middlewares/ST/threadx/ports/cortex_m4/gnu/inc/tx_port.h ****                                                                 }                                  
 427:./Middlewares/ST/threadx/ports/cortex_m4/gnu/inc/tx_port.h ****                                                             }                                      
 428:./Middlewares/ST/threadx/ports/cortex_m4/gnu/inc/tx_port.h ****                                                         }                                          
ARM GAS  C:\Users\Dennis\AppData\Local\Temp\ccsngdrP.s 			page 11


 429:./Middlewares/ST/threadx/ports/cortex_m4/gnu/inc/tx_port.h ****                                                     }
 430:./Middlewares/ST/threadx/ports/cortex_m4/gnu/inc/tx_port.h **** #endif
 431:./Middlewares/ST/threadx/ports/cortex_m4/gnu/inc/tx_port.h **** 
 432:./Middlewares/ST/threadx/ports/cortex_m4/gnu/inc/tx_port.h **** #else   /* No VFP in use */
 433:./Middlewares/ST/threadx/ports/cortex_m4/gnu/inc/tx_port.h **** 
 434:./Middlewares/ST/threadx/ports/cortex_m4/gnu/inc/tx_port.h **** #define TX_THREAD_COMPLETED_EXTENSION(thread_ptr)
 435:./Middlewares/ST/threadx/ports/cortex_m4/gnu/inc/tx_port.h **** #define TX_THREAD_TERMINATED_EXTENSION(thread_ptr)
 436:./Middlewares/ST/threadx/ports/cortex_m4/gnu/inc/tx_port.h **** 
 437:./Middlewares/ST/threadx/ports/cortex_m4/gnu/inc/tx_port.h **** #endif  /* defined(__ARMVFP__) || defined(__ARM_PCS_VFP) || defined(__ARM_FP) || defined(__TARGET_F
 438:./Middlewares/ST/threadx/ports/cortex_m4/gnu/inc/tx_port.h **** 
 439:./Middlewares/ST/threadx/ports/cortex_m4/gnu/inc/tx_port.h **** 
 440:./Middlewares/ST/threadx/ports/cortex_m4/gnu/inc/tx_port.h **** /* Define the ThreadX object creation extensions for the remaining objects.  */
 441:./Middlewares/ST/threadx/ports/cortex_m4/gnu/inc/tx_port.h **** 
 442:./Middlewares/ST/threadx/ports/cortex_m4/gnu/inc/tx_port.h **** #define TX_BLOCK_POOL_CREATE_EXTENSION(pool_ptr)
 443:./Middlewares/ST/threadx/ports/cortex_m4/gnu/inc/tx_port.h **** #define TX_BYTE_POOL_CREATE_EXTENSION(pool_ptr)
 444:./Middlewares/ST/threadx/ports/cortex_m4/gnu/inc/tx_port.h **** #define TX_EVENT_FLAGS_GROUP_CREATE_EXTENSION(group_ptr)
 445:./Middlewares/ST/threadx/ports/cortex_m4/gnu/inc/tx_port.h **** #define TX_MUTEX_CREATE_EXTENSION(mutex_ptr)
 446:./Middlewares/ST/threadx/ports/cortex_m4/gnu/inc/tx_port.h **** #define TX_QUEUE_CREATE_EXTENSION(queue_ptr)
 447:./Middlewares/ST/threadx/ports/cortex_m4/gnu/inc/tx_port.h **** #define TX_SEMAPHORE_CREATE_EXTENSION(semaphore_ptr)
 448:./Middlewares/ST/threadx/ports/cortex_m4/gnu/inc/tx_port.h **** #define TX_TIMER_CREATE_EXTENSION(timer_ptr)
 449:./Middlewares/ST/threadx/ports/cortex_m4/gnu/inc/tx_port.h **** 
 450:./Middlewares/ST/threadx/ports/cortex_m4/gnu/inc/tx_port.h **** 
 451:./Middlewares/ST/threadx/ports/cortex_m4/gnu/inc/tx_port.h **** /* Define the ThreadX object deletion extensions for the remaining objects.  */
 452:./Middlewares/ST/threadx/ports/cortex_m4/gnu/inc/tx_port.h **** 
 453:./Middlewares/ST/threadx/ports/cortex_m4/gnu/inc/tx_port.h **** #define TX_BLOCK_POOL_DELETE_EXTENSION(pool_ptr)
 454:./Middlewares/ST/threadx/ports/cortex_m4/gnu/inc/tx_port.h **** #define TX_BYTE_POOL_DELETE_EXTENSION(pool_ptr)
 455:./Middlewares/ST/threadx/ports/cortex_m4/gnu/inc/tx_port.h **** #define TX_EVENT_FLAGS_GROUP_DELETE_EXTENSION(group_ptr)
 456:./Middlewares/ST/threadx/ports/cortex_m4/gnu/inc/tx_port.h **** #define TX_MUTEX_DELETE_EXTENSION(mutex_ptr)
 457:./Middlewares/ST/threadx/ports/cortex_m4/gnu/inc/tx_port.h **** #define TX_QUEUE_DELETE_EXTENSION(queue_ptr)
 458:./Middlewares/ST/threadx/ports/cortex_m4/gnu/inc/tx_port.h **** #define TX_SEMAPHORE_DELETE_EXTENSION(semaphore_ptr)
 459:./Middlewares/ST/threadx/ports/cortex_m4/gnu/inc/tx_port.h **** #define TX_TIMER_DELETE_EXTENSION(timer_ptr)
 460:./Middlewares/ST/threadx/ports/cortex_m4/gnu/inc/tx_port.h **** 
 461:./Middlewares/ST/threadx/ports/cortex_m4/gnu/inc/tx_port.h **** 
 462:./Middlewares/ST/threadx/ports/cortex_m4/gnu/inc/tx_port.h **** /* Define the get system state macro.  */
 463:./Middlewares/ST/threadx/ports/cortex_m4/gnu/inc/tx_port.h **** 
 464:./Middlewares/ST/threadx/ports/cortex_m4/gnu/inc/tx_port.h **** #ifndef TX_THREAD_GET_SYSTEM_STATE
 465:./Middlewares/ST/threadx/ports/cortex_m4/gnu/inc/tx_port.h **** #ifndef TX_MISRA_ENABLE
 466:./Middlewares/ST/threadx/ports/cortex_m4/gnu/inc/tx_port.h **** 
 467:./Middlewares/ST/threadx/ports/cortex_m4/gnu/inc/tx_port.h **** #ifdef __CC_ARM /* ARM Compiler 5 */
 468:./Middlewares/ST/threadx/ports/cortex_m4/gnu/inc/tx_port.h **** 
 469:./Middlewares/ST/threadx/ports/cortex_m4/gnu/inc/tx_port.h **** register unsigned int _ipsr __asm("ipsr");
 470:./Middlewares/ST/threadx/ports/cortex_m4/gnu/inc/tx_port.h **** #define TX_THREAD_GET_SYSTEM_STATE()        (_tx_thread_system_state | _ipsr)
 471:./Middlewares/ST/threadx/ports/cortex_m4/gnu/inc/tx_port.h **** 
 472:./Middlewares/ST/threadx/ports/cortex_m4/gnu/inc/tx_port.h **** #elif defined(__GNUC__) /* GCC and ARM Compiler 6 */
 473:./Middlewares/ST/threadx/ports/cortex_m4/gnu/inc/tx_port.h **** 
 474:./Middlewares/ST/threadx/ports/cortex_m4/gnu/inc/tx_port.h **** __attribute__( ( always_inline ) ) static inline unsigned int __get_ipsr_value(void)
 475:./Middlewares/ST/threadx/ports/cortex_m4/gnu/inc/tx_port.h **** {
 476:./Middlewares/ST/threadx/ports/cortex_m4/gnu/inc/tx_port.h **** unsigned int  ipsr_value;
 477:./Middlewares/ST/threadx/ports/cortex_m4/gnu/inc/tx_port.h ****     __asm__ volatile (" MRS  %0,IPSR ": "=r" (ipsr_value) );
 478:./Middlewares/ST/threadx/ports/cortex_m4/gnu/inc/tx_port.h ****     return(ipsr_value);
 479:./Middlewares/ST/threadx/ports/cortex_m4/gnu/inc/tx_port.h **** }
 480:./Middlewares/ST/threadx/ports/cortex_m4/gnu/inc/tx_port.h **** 
 481:./Middlewares/ST/threadx/ports/cortex_m4/gnu/inc/tx_port.h **** #define TX_THREAD_GET_SYSTEM_STATE()        (_tx_thread_system_state | __get_ipsr_value())
 482:./Middlewares/ST/threadx/ports/cortex_m4/gnu/inc/tx_port.h **** 
 483:./Middlewares/ST/threadx/ports/cortex_m4/gnu/inc/tx_port.h **** #elif defined(__ICCARM__)   /* IAR */
 484:./Middlewares/ST/threadx/ports/cortex_m4/gnu/inc/tx_port.h **** 
 485:./Middlewares/ST/threadx/ports/cortex_m4/gnu/inc/tx_port.h **** #define TX_THREAD_GET_SYSTEM_STATE()        (_tx_thread_system_state | __get_IPSR())
ARM GAS  C:\Users\Dennis\AppData\Local\Temp\ccsngdrP.s 			page 12


 486:./Middlewares/ST/threadx/ports/cortex_m4/gnu/inc/tx_port.h **** 
 487:./Middlewares/ST/threadx/ports/cortex_m4/gnu/inc/tx_port.h **** #endif  /* TX_THREAD_GET_SYSTEM_STATE for different compilers */
 488:./Middlewares/ST/threadx/ports/cortex_m4/gnu/inc/tx_port.h **** 
 489:./Middlewares/ST/threadx/ports/cortex_m4/gnu/inc/tx_port.h **** #else   /* TX_MISRA_ENABLE is defined, use MISRA function. */
 490:./Middlewares/ST/threadx/ports/cortex_m4/gnu/inc/tx_port.h **** ULONG   _tx_misra_ipsr_get(VOID);
 491:./Middlewares/ST/threadx/ports/cortex_m4/gnu/inc/tx_port.h **** #define TX_THREAD_GET_SYSTEM_STATE()        (_tx_thread_system_state | _tx_misra_ipsr_get())
 492:./Middlewares/ST/threadx/ports/cortex_m4/gnu/inc/tx_port.h **** #endif  /* TX_MISRA_ENABLE */
 493:./Middlewares/ST/threadx/ports/cortex_m4/gnu/inc/tx_port.h **** #endif  /* TX_THREAD_GET_SYSTEM_STATE */
 494:./Middlewares/ST/threadx/ports/cortex_m4/gnu/inc/tx_port.h **** 
 495:./Middlewares/ST/threadx/ports/cortex_m4/gnu/inc/tx_port.h **** 
 496:./Middlewares/ST/threadx/ports/cortex_m4/gnu/inc/tx_port.h **** /* Define the check for whether or not to call the _tx_thread_system_return function.  A non-zero v
 497:./Middlewares/ST/threadx/ports/cortex_m4/gnu/inc/tx_port.h ****    indicates that _tx_thread_system_return should not be called. This overrides the definition in t
 498:./Middlewares/ST/threadx/ports/cortex_m4/gnu/inc/tx_port.h ****    for Cortex-M since so we don't waste time checking the _tx_thread_system_state variable that is 
 499:./Middlewares/ST/threadx/ports/cortex_m4/gnu/inc/tx_port.h ****    zero after initialization for Cortex-M ports. */
 500:./Middlewares/ST/threadx/ports/cortex_m4/gnu/inc/tx_port.h **** 
 501:./Middlewares/ST/threadx/ports/cortex_m4/gnu/inc/tx_port.h **** #ifndef TX_THREAD_SYSTEM_RETURN_CHECK
 502:./Middlewares/ST/threadx/ports/cortex_m4/gnu/inc/tx_port.h **** #define TX_THREAD_SYSTEM_RETURN_CHECK(c)    (c) = ((ULONG) _tx_thread_preempt_disable);
 503:./Middlewares/ST/threadx/ports/cortex_m4/gnu/inc/tx_port.h **** #endif
 504:./Middlewares/ST/threadx/ports/cortex_m4/gnu/inc/tx_port.h **** 
 505:./Middlewares/ST/threadx/ports/cortex_m4/gnu/inc/tx_port.h **** /* Define the macro to ensure _tx_thread_preempt_disable is set early in initialization in order to
 506:./Middlewares/ST/threadx/ports/cortex_m4/gnu/inc/tx_port.h ****    prevent early scheduling on Cortex-M parts.  */
 507:./Middlewares/ST/threadx/ports/cortex_m4/gnu/inc/tx_port.h **** 
 508:./Middlewares/ST/threadx/ports/cortex_m4/gnu/inc/tx_port.h **** #define TX_PORT_SPECIFIC_POST_INITIALIZATION    _tx_thread_preempt_disable++;
 509:./Middlewares/ST/threadx/ports/cortex_m4/gnu/inc/tx_port.h **** 
 510:./Middlewares/ST/threadx/ports/cortex_m4/gnu/inc/tx_port.h **** 
 511:./Middlewares/ST/threadx/ports/cortex_m4/gnu/inc/tx_port.h **** 
 512:./Middlewares/ST/threadx/ports/cortex_m4/gnu/inc/tx_port.h **** 
 513:./Middlewares/ST/threadx/ports/cortex_m4/gnu/inc/tx_port.h **** #ifndef TX_DISABLE_INLINE
 514:./Middlewares/ST/threadx/ports/cortex_m4/gnu/inc/tx_port.h **** 
 515:./Middlewares/ST/threadx/ports/cortex_m4/gnu/inc/tx_port.h **** /* Define the TX_LOWEST_SET_BIT_CALCULATE macro for each compiler. */
 516:./Middlewares/ST/threadx/ports/cortex_m4/gnu/inc/tx_port.h **** #ifdef __ICCARM__       /* IAR Compiler */
 517:./Middlewares/ST/threadx/ports/cortex_m4/gnu/inc/tx_port.h **** #define TX_LOWEST_SET_BIT_CALCULATE(m, b)       (b) = (UINT) __CLZ(__RBIT((m)));
 518:./Middlewares/ST/threadx/ports/cortex_m4/gnu/inc/tx_port.h **** #elif defined(__CC_ARM) /* AC5 Compiler */
 519:./Middlewares/ST/threadx/ports/cortex_m4/gnu/inc/tx_port.h **** #define TX_LOWEST_SET_BIT_CALCULATE(m, b)       (b) = (UINT) __clz(__rbit((m)));
 520:./Middlewares/ST/threadx/ports/cortex_m4/gnu/inc/tx_port.h **** #elif defined(__GNUC__) /* GCC and AC6 Compiler */
 521:./Middlewares/ST/threadx/ports/cortex_m4/gnu/inc/tx_port.h **** #define TX_LOWEST_SET_BIT_CALCULATE(m, b)       __asm__ volatile (" RBIT %0,%1 ": "=r" (m) : "r" (m
 522:./Middlewares/ST/threadx/ports/cortex_m4/gnu/inc/tx_port.h ****                                                 __asm__ volatile (" CLZ  %0,%1 ": "=r" (b) : "r" (m
 523:./Middlewares/ST/threadx/ports/cortex_m4/gnu/inc/tx_port.h **** #endif
 524:./Middlewares/ST/threadx/ports/cortex_m4/gnu/inc/tx_port.h **** 
 525:./Middlewares/ST/threadx/ports/cortex_m4/gnu/inc/tx_port.h **** 
 526:./Middlewares/ST/threadx/ports/cortex_m4/gnu/inc/tx_port.h **** 
 527:./Middlewares/ST/threadx/ports/cortex_m4/gnu/inc/tx_port.h **** /* Define the interrupt disable/restore macros for each compiler. */
 528:./Middlewares/ST/threadx/ports/cortex_m4/gnu/inc/tx_port.h **** 
 529:./Middlewares/ST/threadx/ports/cortex_m4/gnu/inc/tx_port.h **** #if defined(__GNUC__) || defined(__ICCARM__)
 530:./Middlewares/ST/threadx/ports/cortex_m4/gnu/inc/tx_port.h **** 
 531:./Middlewares/ST/threadx/ports/cortex_m4/gnu/inc/tx_port.h **** /*** GCC/AC6 and IAR ***/
 532:./Middlewares/ST/threadx/ports/cortex_m4/gnu/inc/tx_port.h **** 
 533:./Middlewares/ST/threadx/ports/cortex_m4/gnu/inc/tx_port.h **** __attribute__( ( always_inline ) ) static inline unsigned int __get_interrupt_posture(void)
 534:./Middlewares/ST/threadx/ports/cortex_m4/gnu/inc/tx_port.h **** {
 535:./Middlewares/ST/threadx/ports/cortex_m4/gnu/inc/tx_port.h **** unsigned int posture;
 536:./Middlewares/ST/threadx/ports/cortex_m4/gnu/inc/tx_port.h **** #ifdef TX_PORT_USE_BASEPRI
 537:./Middlewares/ST/threadx/ports/cortex_m4/gnu/inc/tx_port.h ****     __asm__ volatile ("MRS  %0, BASEPRI ": "=r" (posture));
 538:./Middlewares/ST/threadx/ports/cortex_m4/gnu/inc/tx_port.h **** #else
 539:./Middlewares/ST/threadx/ports/cortex_m4/gnu/inc/tx_port.h ****     __asm__ volatile ("MRS  %0, PRIMASK ": "=r" (posture));
 540:./Middlewares/ST/threadx/ports/cortex_m4/gnu/inc/tx_port.h **** #endif
 541:./Middlewares/ST/threadx/ports/cortex_m4/gnu/inc/tx_port.h ****     return(posture);
 542:./Middlewares/ST/threadx/ports/cortex_m4/gnu/inc/tx_port.h **** }
ARM GAS  C:\Users\Dennis\AppData\Local\Temp\ccsngdrP.s 			page 13


 543:./Middlewares/ST/threadx/ports/cortex_m4/gnu/inc/tx_port.h **** 
 544:./Middlewares/ST/threadx/ports/cortex_m4/gnu/inc/tx_port.h **** #ifdef TX_PORT_USE_BASEPRI
 545:./Middlewares/ST/threadx/ports/cortex_m4/gnu/inc/tx_port.h **** __attribute__( ( always_inline ) ) static inline void __set_basepri_value(unsigned int basepri_valu
 546:./Middlewares/ST/threadx/ports/cortex_m4/gnu/inc/tx_port.h **** {
 547:./Middlewares/ST/threadx/ports/cortex_m4/gnu/inc/tx_port.h ****     __asm__ volatile ("MSR  BASEPRI,%0 ": : "r" (basepri_value));
 548:./Middlewares/ST/threadx/ports/cortex_m4/gnu/inc/tx_port.h **** }
 549:./Middlewares/ST/threadx/ports/cortex_m4/gnu/inc/tx_port.h **** #else
 550:./Middlewares/ST/threadx/ports/cortex_m4/gnu/inc/tx_port.h **** __attribute__( ( always_inline ) ) static inline void __enable_interrupts(void)
 551:./Middlewares/ST/threadx/ports/cortex_m4/gnu/inc/tx_port.h **** {
 552:./Middlewares/ST/threadx/ports/cortex_m4/gnu/inc/tx_port.h ****     __asm__ volatile ("CPSIE  i": : : "memory");
 553:./Middlewares/ST/threadx/ports/cortex_m4/gnu/inc/tx_port.h **** }
 554:./Middlewares/ST/threadx/ports/cortex_m4/gnu/inc/tx_port.h **** #endif
 555:./Middlewares/ST/threadx/ports/cortex_m4/gnu/inc/tx_port.h **** 
 556:./Middlewares/ST/threadx/ports/cortex_m4/gnu/inc/tx_port.h **** __attribute__( ( always_inline ) ) static inline void __restore_interrupt(unsigned int int_posture)
 557:./Middlewares/ST/threadx/ports/cortex_m4/gnu/inc/tx_port.h **** {
 558:./Middlewares/ST/threadx/ports/cortex_m4/gnu/inc/tx_port.h **** #ifdef TX_PORT_USE_BASEPRI
 559:./Middlewares/ST/threadx/ports/cortex_m4/gnu/inc/tx_port.h ****     __set_basepri_value(int_posture);
 560:./Middlewares/ST/threadx/ports/cortex_m4/gnu/inc/tx_port.h ****     //__asm__ volatile ("MSR  BASEPRI,%0": : "r" (int_posture): "memory");
 561:./Middlewares/ST/threadx/ports/cortex_m4/gnu/inc/tx_port.h **** #else
 562:./Middlewares/ST/threadx/ports/cortex_m4/gnu/inc/tx_port.h ****     __asm__ volatile ("MSR  PRIMASK,%0": : "r" (int_posture): "memory");
 563:./Middlewares/ST/threadx/ports/cortex_m4/gnu/inc/tx_port.h **** #endif
 564:./Middlewares/ST/threadx/ports/cortex_m4/gnu/inc/tx_port.h **** }
 565:./Middlewares/ST/threadx/ports/cortex_m4/gnu/inc/tx_port.h **** 
 566:./Middlewares/ST/threadx/ports/cortex_m4/gnu/inc/tx_port.h **** __attribute__( ( always_inline ) ) static inline unsigned int __disable_interrupts(void)
  53              		.loc 2 566 63 view .LVU9
  54              	.LBB17:
 567:./Middlewares/ST/threadx/ports/cortex_m4/gnu/inc/tx_port.h **** {
 568:./Middlewares/ST/threadx/ports/cortex_m4/gnu/inc/tx_port.h **** unsigned int int_posture;
  55              		.loc 2 568 1 view .LVU10
 569:./Middlewares/ST/threadx/ports/cortex_m4/gnu/inc/tx_port.h **** 
 570:./Middlewares/ST/threadx/ports/cortex_m4/gnu/inc/tx_port.h ****     int_posture = __get_interrupt_posture();
  56              		.loc 2 570 5 view .LVU11
  57              	.LBB18:
  58              	.LBI18:
 533:./Middlewares/ST/threadx/ports/cortex_m4/gnu/inc/tx_port.h **** {
  59              		.loc 2 533 63 view .LVU12
  60              	.LBB19:
 535:./Middlewares/ST/threadx/ports/cortex_m4/gnu/inc/tx_port.h **** #ifdef TX_PORT_USE_BASEPRI
  61              		.loc 2 535 1 view .LVU13
 539:./Middlewares/ST/threadx/ports/cortex_m4/gnu/inc/tx_port.h **** #endif
  62              		.loc 2 539 5 view .LVU14
  63              		.syntax unified
  64              	@ 539 "./Middlewares/ST/threadx/ports/cortex_m4/gnu/inc/tx_port.h" 1
  65 0002 EFF31082 		MRS  r2, PRIMASK 
  66              	@ 0 "" 2
  67              	.LVL2:
 541:./Middlewares/ST/threadx/ports/cortex_m4/gnu/inc/tx_port.h **** }
  68              		.loc 2 541 5 view .LVU15
 541:./Middlewares/ST/threadx/ports/cortex_m4/gnu/inc/tx_port.h **** }
  69              		.loc 2 541 5 is_stmt 0 view .LVU16
  70              		.thumb
  71              		.syntax unified
  72              	.LBE19:
  73              	.LBE18:
 571:./Middlewares/ST/threadx/ports/cortex_m4/gnu/inc/tx_port.h **** 
 572:./Middlewares/ST/threadx/ports/cortex_m4/gnu/inc/tx_port.h **** #ifdef TX_PORT_USE_BASEPRI
 573:./Middlewares/ST/threadx/ports/cortex_m4/gnu/inc/tx_port.h ****     __set_basepri_value(TX_PORT_BASEPRI);
ARM GAS  C:\Users\Dennis\AppData\Local\Temp\ccsngdrP.s 			page 14


 574:./Middlewares/ST/threadx/ports/cortex_m4/gnu/inc/tx_port.h **** #else
 575:./Middlewares/ST/threadx/ports/cortex_m4/gnu/inc/tx_port.h ****     __asm__ volatile ("CPSID i" : : : "memory");
  74              		.loc 2 575 5 is_stmt 1 view .LVU17
  75              		.syntax unified
  76              	@ 575 "./Middlewares/ST/threadx/ports/cortex_m4/gnu/inc/tx_port.h" 1
  77 0006 72B6     		CPSID i
  78              	@ 0 "" 2
 576:./Middlewares/ST/threadx/ports/cortex_m4/gnu/inc/tx_port.h **** #endif
 577:./Middlewares/ST/threadx/ports/cortex_m4/gnu/inc/tx_port.h ****     return(int_posture);
  79              		.loc 2 577 5 view .LVU18
  80              	.LVL3:
  81              		.loc 2 577 5 is_stmt 0 view .LVU19
  82              		.thumb
  83              		.syntax unified
  84              	.LBE17:
  85              	.LBE16:
  92:./Middlewares/ST/threadx/common/src/tx_semaphore_get.c **** 
  93:./Middlewares/ST/threadx/common/src/tx_semaphore_get.c **** #ifdef TX_SEMAPHORE_ENABLE_PERFORMANCE_INFO
  94:./Middlewares/ST/threadx/common/src/tx_semaphore_get.c **** 
  95:./Middlewares/ST/threadx/common/src/tx_semaphore_get.c ****     /* Increment the total semaphore get counter.  */
  96:./Middlewares/ST/threadx/common/src/tx_semaphore_get.c ****     _tx_semaphore_performance_get_count++;
  97:./Middlewares/ST/threadx/common/src/tx_semaphore_get.c **** 
  98:./Middlewares/ST/threadx/common/src/tx_semaphore_get.c ****     /* Increment the number of attempts to get this semaphore.  */
  99:./Middlewares/ST/threadx/common/src/tx_semaphore_get.c ****     semaphore_ptr -> tx_semaphore_performance_get_count++;
 100:./Middlewares/ST/threadx/common/src/tx_semaphore_get.c **** #endif
 101:./Middlewares/ST/threadx/common/src/tx_semaphore_get.c **** 
 102:./Middlewares/ST/threadx/common/src/tx_semaphore_get.c ****     /* If trace is enabled, insert this event into the trace buffer.  */
 103:./Middlewares/ST/threadx/common/src/tx_semaphore_get.c ****     TX_TRACE_IN_LINE_INSERT(TX_TRACE_SEMAPHORE_GET, semaphore_ptr, wait_option, semaphore_ptr -> tx
 104:./Middlewares/ST/threadx/common/src/tx_semaphore_get.c **** 
 105:./Middlewares/ST/threadx/common/src/tx_semaphore_get.c ****     /* Log this kernel call.  */
 106:./Middlewares/ST/threadx/common/src/tx_semaphore_get.c ****     TX_EL_SEMAPHORE_GET_INSERT
 107:./Middlewares/ST/threadx/common/src/tx_semaphore_get.c **** 
 108:./Middlewares/ST/threadx/common/src/tx_semaphore_get.c ****     /* Determine if there is an instance of the semaphore.  */
 109:./Middlewares/ST/threadx/common/src/tx_semaphore_get.c ****     if (semaphore_ptr -> tx_semaphore_count != ((ULONG) 0))
  86              		.loc 1 109 5 is_stmt 1 view .LVU20
  87              		.loc 1 109 23 is_stmt 0 view .LVU21
  88 0008 8368     		ldr	r3, [r0, #8]
  89              		.loc 1 109 8 view .LVU22
  90 000a 2BB1     		cbz	r3, .L2
 110:./Middlewares/ST/threadx/common/src/tx_semaphore_get.c ****     {
 111:./Middlewares/ST/threadx/common/src/tx_semaphore_get.c **** 
 112:./Middlewares/ST/threadx/common/src/tx_semaphore_get.c ****         /* Decrement the semaphore count.  */
 113:./Middlewares/ST/threadx/common/src/tx_semaphore_get.c ****         semaphore_ptr -> tx_semaphore_count--;
  91              		.loc 1 113 9 is_stmt 1 view .LVU23
  92              		.loc 1 113 44 is_stmt 0 view .LVU24
  93 000c 013B     		subs	r3, r3, #1
  94 000e 8360     		str	r3, [r0, #8]
 114:./Middlewares/ST/threadx/common/src/tx_semaphore_get.c **** 
 115:./Middlewares/ST/threadx/common/src/tx_semaphore_get.c ****         /* Restore interrupts.  */
 116:./Middlewares/ST/threadx/common/src/tx_semaphore_get.c ****         TX_RESTORE
  95              		.loc 1 116 9 is_stmt 1 view .LVU25
  96              	.LVL4:
  97              	.LBB20:
  98              	.LBI20:
 556:./Middlewares/ST/threadx/ports/cortex_m4/gnu/inc/tx_port.h **** {
  99              		.loc 2 556 55 view .LVU26
 100              	.LBB21:
ARM GAS  C:\Users\Dennis\AppData\Local\Temp\ccsngdrP.s 			page 15


 562:./Middlewares/ST/threadx/ports/cortex_m4/gnu/inc/tx_port.h **** #endif
 101              		.loc 2 562 5 view .LVU27
 102              		.syntax unified
 103              	@ 562 "./Middlewares/ST/threadx/ports/cortex_m4/gnu/inc/tx_port.h" 1
 104 0010 82F31088 		MSR  PRIMASK,r2
 105              	@ 0 "" 2
 106              		.thumb
 107              		.syntax unified
 108              	.LBE21:
 109              	.LBE20:
  88:./Middlewares/ST/threadx/common/src/tx_semaphore_get.c **** 
 110              		.loc 1 88 12 is_stmt 0 view .LVU28
 111 0014 0020     		movs	r0, #0
 112              	.LVL5:
 113              	.L1:
 117:./Middlewares/ST/threadx/common/src/tx_semaphore_get.c ****     }
 118:./Middlewares/ST/threadx/common/src/tx_semaphore_get.c **** 
 119:./Middlewares/ST/threadx/common/src/tx_semaphore_get.c ****     /* Determine if the request specifies suspension.  */
 120:./Middlewares/ST/threadx/common/src/tx_semaphore_get.c ****     else if (wait_option != TX_NO_WAIT)
 121:./Middlewares/ST/threadx/common/src/tx_semaphore_get.c ****     {
 122:./Middlewares/ST/threadx/common/src/tx_semaphore_get.c **** 
 123:./Middlewares/ST/threadx/common/src/tx_semaphore_get.c ****         /* Determine if the preempt disable flag is non-zero.  */
 124:./Middlewares/ST/threadx/common/src/tx_semaphore_get.c ****         if (_tx_thread_preempt_disable != ((UINT) 0))
 125:./Middlewares/ST/threadx/common/src/tx_semaphore_get.c ****         {
 126:./Middlewares/ST/threadx/common/src/tx_semaphore_get.c **** 
 127:./Middlewares/ST/threadx/common/src/tx_semaphore_get.c ****             /* Restore interrupts.  */
 128:./Middlewares/ST/threadx/common/src/tx_semaphore_get.c ****             TX_RESTORE
 129:./Middlewares/ST/threadx/common/src/tx_semaphore_get.c **** 
 130:./Middlewares/ST/threadx/common/src/tx_semaphore_get.c ****             /* Suspension is not allowed if the preempt disable flag is non-zero at this point - re
 131:./Middlewares/ST/threadx/common/src/tx_semaphore_get.c ****             status =  TX_NO_INSTANCE;
 132:./Middlewares/ST/threadx/common/src/tx_semaphore_get.c ****         }
 133:./Middlewares/ST/threadx/common/src/tx_semaphore_get.c ****         else
 134:./Middlewares/ST/threadx/common/src/tx_semaphore_get.c ****         {
 135:./Middlewares/ST/threadx/common/src/tx_semaphore_get.c **** 
 136:./Middlewares/ST/threadx/common/src/tx_semaphore_get.c ****             /* Prepare for suspension of this thread.  */
 137:./Middlewares/ST/threadx/common/src/tx_semaphore_get.c **** 
 138:./Middlewares/ST/threadx/common/src/tx_semaphore_get.c **** #ifdef TX_SEMAPHORE_ENABLE_PERFORMANCE_INFO
 139:./Middlewares/ST/threadx/common/src/tx_semaphore_get.c **** 
 140:./Middlewares/ST/threadx/common/src/tx_semaphore_get.c ****             /* Increment the total semaphore suspensions counter.  */
 141:./Middlewares/ST/threadx/common/src/tx_semaphore_get.c ****             _tx_semaphore_performance_suspension_count++;
 142:./Middlewares/ST/threadx/common/src/tx_semaphore_get.c **** 
 143:./Middlewares/ST/threadx/common/src/tx_semaphore_get.c ****             /* Increment the number of suspensions on this semaphore.  */
 144:./Middlewares/ST/threadx/common/src/tx_semaphore_get.c ****             semaphore_ptr -> tx_semaphore_performance_suspension_count++;
 145:./Middlewares/ST/threadx/common/src/tx_semaphore_get.c **** #endif
 146:./Middlewares/ST/threadx/common/src/tx_semaphore_get.c **** 
 147:./Middlewares/ST/threadx/common/src/tx_semaphore_get.c ****             /* Pickup thread pointer.  */
 148:./Middlewares/ST/threadx/common/src/tx_semaphore_get.c ****             TX_THREAD_GET_CURRENT(thread_ptr)
 149:./Middlewares/ST/threadx/common/src/tx_semaphore_get.c **** 
 150:./Middlewares/ST/threadx/common/src/tx_semaphore_get.c ****             /* Setup cleanup routine pointer.  */
 151:./Middlewares/ST/threadx/common/src/tx_semaphore_get.c ****             thread_ptr -> tx_thread_suspend_cleanup =  &(_tx_semaphore_cleanup);
 152:./Middlewares/ST/threadx/common/src/tx_semaphore_get.c **** 
 153:./Middlewares/ST/threadx/common/src/tx_semaphore_get.c ****             /* Setup cleanup information, i.e. this semaphore control
 154:./Middlewares/ST/threadx/common/src/tx_semaphore_get.c ****                block.  */
 155:./Middlewares/ST/threadx/common/src/tx_semaphore_get.c ****             thread_ptr -> tx_thread_suspend_control_block =  (VOID *) semaphore_ptr;
 156:./Middlewares/ST/threadx/common/src/tx_semaphore_get.c **** 
 157:./Middlewares/ST/threadx/common/src/tx_semaphore_get.c **** #ifndef TX_NOT_INTERRUPTABLE
 158:./Middlewares/ST/threadx/common/src/tx_semaphore_get.c **** 
ARM GAS  C:\Users\Dennis\AppData\Local\Temp\ccsngdrP.s 			page 16


 159:./Middlewares/ST/threadx/common/src/tx_semaphore_get.c ****             /* Increment the suspension sequence number, which is used to identify
 160:./Middlewares/ST/threadx/common/src/tx_semaphore_get.c ****                this suspension event.  */
 161:./Middlewares/ST/threadx/common/src/tx_semaphore_get.c ****             thread_ptr -> tx_thread_suspension_sequence++;
 162:./Middlewares/ST/threadx/common/src/tx_semaphore_get.c **** #endif
 163:./Middlewares/ST/threadx/common/src/tx_semaphore_get.c **** 
 164:./Middlewares/ST/threadx/common/src/tx_semaphore_get.c ****             /* Setup suspension list.  */
 165:./Middlewares/ST/threadx/common/src/tx_semaphore_get.c ****             if (semaphore_ptr -> tx_semaphore_suspended_count == TX_NO_SUSPENSIONS)
 166:./Middlewares/ST/threadx/common/src/tx_semaphore_get.c ****             {
 167:./Middlewares/ST/threadx/common/src/tx_semaphore_get.c **** 
 168:./Middlewares/ST/threadx/common/src/tx_semaphore_get.c ****                 /* No other threads are suspended.  Setup the head pointer and
 169:./Middlewares/ST/threadx/common/src/tx_semaphore_get.c ****                    just setup this threads pointers to itself.  */
 170:./Middlewares/ST/threadx/common/src/tx_semaphore_get.c ****                 semaphore_ptr -> tx_semaphore_suspension_list =         thread_ptr;
 171:./Middlewares/ST/threadx/common/src/tx_semaphore_get.c ****                 thread_ptr -> tx_thread_suspended_next =                thread_ptr;
 172:./Middlewares/ST/threadx/common/src/tx_semaphore_get.c ****                 thread_ptr -> tx_thread_suspended_previous =            thread_ptr;
 173:./Middlewares/ST/threadx/common/src/tx_semaphore_get.c ****             }
 174:./Middlewares/ST/threadx/common/src/tx_semaphore_get.c ****             else
 175:./Middlewares/ST/threadx/common/src/tx_semaphore_get.c ****             {
 176:./Middlewares/ST/threadx/common/src/tx_semaphore_get.c **** 
 177:./Middlewares/ST/threadx/common/src/tx_semaphore_get.c ****                 /* This list is not NULL, add current thread to the end. */
 178:./Middlewares/ST/threadx/common/src/tx_semaphore_get.c ****                 next_thread =                                   semaphore_ptr -> tx_semaphore_suspe
 179:./Middlewares/ST/threadx/common/src/tx_semaphore_get.c ****                 thread_ptr -> tx_thread_suspended_next =        next_thread;
 180:./Middlewares/ST/threadx/common/src/tx_semaphore_get.c ****                 previous_thread =                               next_thread -> tx_thread_suspended_
 181:./Middlewares/ST/threadx/common/src/tx_semaphore_get.c ****                 thread_ptr -> tx_thread_suspended_previous =    previous_thread;
 182:./Middlewares/ST/threadx/common/src/tx_semaphore_get.c ****                 previous_thread -> tx_thread_suspended_next =   thread_ptr;
 183:./Middlewares/ST/threadx/common/src/tx_semaphore_get.c ****                 next_thread -> tx_thread_suspended_previous =   thread_ptr;
 184:./Middlewares/ST/threadx/common/src/tx_semaphore_get.c ****             }
 185:./Middlewares/ST/threadx/common/src/tx_semaphore_get.c **** 
 186:./Middlewares/ST/threadx/common/src/tx_semaphore_get.c ****             /* Increment the number of suspensions.  */
 187:./Middlewares/ST/threadx/common/src/tx_semaphore_get.c ****             semaphore_ptr -> tx_semaphore_suspended_count++;
 188:./Middlewares/ST/threadx/common/src/tx_semaphore_get.c **** 
 189:./Middlewares/ST/threadx/common/src/tx_semaphore_get.c ****             /* Set the state to suspended.  */
 190:./Middlewares/ST/threadx/common/src/tx_semaphore_get.c ****             thread_ptr -> tx_thread_state =    TX_SEMAPHORE_SUSP;
 191:./Middlewares/ST/threadx/common/src/tx_semaphore_get.c **** 
 192:./Middlewares/ST/threadx/common/src/tx_semaphore_get.c **** #ifdef TX_NOT_INTERRUPTABLE
 193:./Middlewares/ST/threadx/common/src/tx_semaphore_get.c **** 
 194:./Middlewares/ST/threadx/common/src/tx_semaphore_get.c ****             /* Call actual non-interruptable thread suspension routine.  */
 195:./Middlewares/ST/threadx/common/src/tx_semaphore_get.c ****             _tx_thread_system_ni_suspend(thread_ptr, wait_option);
 196:./Middlewares/ST/threadx/common/src/tx_semaphore_get.c **** 
 197:./Middlewares/ST/threadx/common/src/tx_semaphore_get.c ****             /* Restore interrupts.  */
 198:./Middlewares/ST/threadx/common/src/tx_semaphore_get.c ****             TX_RESTORE
 199:./Middlewares/ST/threadx/common/src/tx_semaphore_get.c **** #else
 200:./Middlewares/ST/threadx/common/src/tx_semaphore_get.c **** 
 201:./Middlewares/ST/threadx/common/src/tx_semaphore_get.c ****             /* Set the suspending flag.  */
 202:./Middlewares/ST/threadx/common/src/tx_semaphore_get.c ****             thread_ptr -> tx_thread_suspending =  TX_TRUE;
 203:./Middlewares/ST/threadx/common/src/tx_semaphore_get.c **** 
 204:./Middlewares/ST/threadx/common/src/tx_semaphore_get.c ****             /* Setup the timeout period.  */
 205:./Middlewares/ST/threadx/common/src/tx_semaphore_get.c ****             thread_ptr -> tx_thread_timer.tx_timer_internal_remaining_ticks =  wait_option;
 206:./Middlewares/ST/threadx/common/src/tx_semaphore_get.c **** 
 207:./Middlewares/ST/threadx/common/src/tx_semaphore_get.c ****             /* Temporarily disable preemption.  */
 208:./Middlewares/ST/threadx/common/src/tx_semaphore_get.c ****             _tx_thread_preempt_disable++;
 209:./Middlewares/ST/threadx/common/src/tx_semaphore_get.c **** 
 210:./Middlewares/ST/threadx/common/src/tx_semaphore_get.c ****             /* Restore interrupts.  */
 211:./Middlewares/ST/threadx/common/src/tx_semaphore_get.c ****             TX_RESTORE
 212:./Middlewares/ST/threadx/common/src/tx_semaphore_get.c **** 
 213:./Middlewares/ST/threadx/common/src/tx_semaphore_get.c ****             /* Call actual thread suspension routine.  */
 214:./Middlewares/ST/threadx/common/src/tx_semaphore_get.c ****             _tx_thread_system_suspend(thread_ptr);
 215:./Middlewares/ST/threadx/common/src/tx_semaphore_get.c **** #endif
ARM GAS  C:\Users\Dennis\AppData\Local\Temp\ccsngdrP.s 			page 17


 216:./Middlewares/ST/threadx/common/src/tx_semaphore_get.c **** 
 217:./Middlewares/ST/threadx/common/src/tx_semaphore_get.c ****             /* Return the completion status.  */
 218:./Middlewares/ST/threadx/common/src/tx_semaphore_get.c ****             status =  thread_ptr -> tx_thread_suspend_status;
 219:./Middlewares/ST/threadx/common/src/tx_semaphore_get.c ****         }
 220:./Middlewares/ST/threadx/common/src/tx_semaphore_get.c ****     }
 221:./Middlewares/ST/threadx/common/src/tx_semaphore_get.c ****     else
 222:./Middlewares/ST/threadx/common/src/tx_semaphore_get.c ****     {
 223:./Middlewares/ST/threadx/common/src/tx_semaphore_get.c **** 
 224:./Middlewares/ST/threadx/common/src/tx_semaphore_get.c ****         /* Restore interrupts.  */
 225:./Middlewares/ST/threadx/common/src/tx_semaphore_get.c ****         TX_RESTORE
 226:./Middlewares/ST/threadx/common/src/tx_semaphore_get.c **** 
 227:./Middlewares/ST/threadx/common/src/tx_semaphore_get.c ****         /* Immediate return, return error completion.  */
 228:./Middlewares/ST/threadx/common/src/tx_semaphore_get.c ****         status =  TX_NO_INSTANCE;
 229:./Middlewares/ST/threadx/common/src/tx_semaphore_get.c ****     }
 230:./Middlewares/ST/threadx/common/src/tx_semaphore_get.c **** 
 231:./Middlewares/ST/threadx/common/src/tx_semaphore_get.c ****     /* Return completion status.  */
 232:./Middlewares/ST/threadx/common/src/tx_semaphore_get.c ****     return(status);
 233:./Middlewares/ST/threadx/common/src/tx_semaphore_get.c **** }
 114              		.loc 1 233 1 view .LVU29
 115 0016 38BD     		pop	{r3, r4, r5, pc}
 116              	.LVL6:
 117              	.L2:
 120:./Middlewares/ST/threadx/common/src/tx_semaphore_get.c ****     {
 118              		.loc 1 120 10 is_stmt 1 view .LVU30
 120:./Middlewares/ST/threadx/common/src/tx_semaphore_get.c ****     {
 119              		.loc 1 120 13 is_stmt 0 view .LVU31
 120 0018 0029     		cmp	r1, #0
 121 001a 30D0     		beq	.L4
 124:./Middlewares/ST/threadx/common/src/tx_semaphore_get.c ****         {
 122              		.loc 1 124 9 is_stmt 1 view .LVU32
 124:./Middlewares/ST/threadx/common/src/tx_semaphore_get.c ****         {
 123              		.loc 1 124 40 is_stmt 0 view .LVU33
 124 001c 1A4B     		ldr	r3, .L10
 125 001e 1B68     		ldr	r3, [r3]
 124:./Middlewares/ST/threadx/common/src/tx_semaphore_get.c ****         {
 126              		.loc 1 124 12 view .LVU34
 127 0020 13BB     		cbnz	r3, .L9
 148:./Middlewares/ST/threadx/common/src/tx_semaphore_get.c **** 
 128              		.loc 1 148 13 is_stmt 1 view .LVU35
 129 0022 1A4B     		ldr	r3, .L10+4
 130 0024 1C68     		ldr	r4, [r3]
 131              	.LVL7:
 151:./Middlewares/ST/threadx/common/src/tx_semaphore_get.c **** 
 132              		.loc 1 151 13 view .LVU36
 151:./Middlewares/ST/threadx/common/src/tx_semaphore_get.c **** 
 133              		.loc 1 151 53 is_stmt 0 view .LVU37
 134 0026 1A4B     		ldr	r3, .L10+8
 135 0028 A366     		str	r3, [r4, #104]
 155:./Middlewares/ST/threadx/common/src/tx_semaphore_get.c **** 
 136              		.loc 1 155 13 is_stmt 1 view .LVU38
 155:./Middlewares/ST/threadx/common/src/tx_semaphore_get.c **** 
 137              		.loc 1 155 59 is_stmt 0 view .LVU39
 138 002a E066     		str	r0, [r4, #108]
 161:./Middlewares/ST/threadx/common/src/tx_semaphore_get.c **** #endif
 139              		.loc 1 161 13 is_stmt 1 view .LVU40
 161:./Middlewares/ST/threadx/common/src/tx_semaphore_get.c **** #endif
 140              		.loc 1 161 24 is_stmt 0 view .LVU41
ARM GAS  C:\Users\Dennis\AppData\Local\Temp\ccsngdrP.s 			page 18


 141 002c D4F8AC30 		ldr	r3, [r4, #172]
 161:./Middlewares/ST/threadx/common/src/tx_semaphore_get.c **** #endif
 142              		.loc 1 161 56 view .LVU42
 143 0030 0133     		adds	r3, r3, #1
 144 0032 C4F8AC30 		str	r3, [r4, #172]
 165:./Middlewares/ST/threadx/common/src/tx_semaphore_get.c ****             {
 145              		.loc 1 165 13 is_stmt 1 view .LVU43
 165:./Middlewares/ST/threadx/common/src/tx_semaphore_get.c ****             {
 146              		.loc 1 165 31 is_stmt 0 view .LVU44
 147 0036 0369     		ldr	r3, [r0, #16]
 165:./Middlewares/ST/threadx/common/src/tx_semaphore_get.c ****             {
 148              		.loc 1 165 16 view .LVU45
 149 0038 D3B9     		cbnz	r3, .L6
 170:./Middlewares/ST/threadx/common/src/tx_semaphore_get.c ****                 thread_ptr -> tx_thread_suspended_next =                thread_ptr;
 150              		.loc 1 170 17 is_stmt 1 view .LVU46
 170:./Middlewares/ST/threadx/common/src/tx_semaphore_get.c ****                 thread_ptr -> tx_thread_suspended_next =                thread_ptr;
 151              		.loc 1 170 63 is_stmt 0 view .LVU47
 152 003a C460     		str	r4, [r0, #12]
 171:./Middlewares/ST/threadx/common/src/tx_semaphore_get.c ****                 thread_ptr -> tx_thread_suspended_previous =            thread_ptr;
 153              		.loc 1 171 17 is_stmt 1 view .LVU48
 171:./Middlewares/ST/threadx/common/src/tx_semaphore_get.c ****                 thread_ptr -> tx_thread_suspended_previous =            thread_ptr;
 154              		.loc 1 171 56 is_stmt 0 view .LVU49
 155 003c 2467     		str	r4, [r4, #112]
 172:./Middlewares/ST/threadx/common/src/tx_semaphore_get.c ****             }
 156              		.loc 1 172 17 is_stmt 1 view .LVU50
 172:./Middlewares/ST/threadx/common/src/tx_semaphore_get.c ****             }
 157              		.loc 1 172 60 is_stmt 0 view .LVU51
 158 003e 6467     		str	r4, [r4, #116]
 159              	.L7:
 187:./Middlewares/ST/threadx/common/src/tx_semaphore_get.c **** 
 160              		.loc 1 187 13 is_stmt 1 view .LVU52
 187:./Middlewares/ST/threadx/common/src/tx_semaphore_get.c **** 
 161              		.loc 1 187 27 is_stmt 0 view .LVU53
 162 0040 0369     		ldr	r3, [r0, #16]
 187:./Middlewares/ST/threadx/common/src/tx_semaphore_get.c **** 
 163              		.loc 1 187 58 view .LVU54
 164 0042 0133     		adds	r3, r3, #1
 165 0044 0361     		str	r3, [r0, #16]
 190:./Middlewares/ST/threadx/common/src/tx_semaphore_get.c **** 
 166              		.loc 1 190 13 is_stmt 1 view .LVU55
 190:./Middlewares/ST/threadx/common/src/tx_semaphore_get.c **** 
 167              		.loc 1 190 43 is_stmt 0 view .LVU56
 168 0046 0623     		movs	r3, #6
 169 0048 2363     		str	r3, [r4, #48]
 202:./Middlewares/ST/threadx/common/src/tx_semaphore_get.c **** 
 170              		.loc 1 202 13 is_stmt 1 view .LVU57
 202:./Middlewares/ST/threadx/common/src/tx_semaphore_get.c **** 
 171              		.loc 1 202 48 is_stmt 0 view .LVU58
 172 004a 0123     		movs	r3, #1
 173 004c A363     		str	r3, [r4, #56]
 205:./Middlewares/ST/threadx/common/src/tx_semaphore_get.c **** 
 174              		.loc 1 205 13 is_stmt 1 view .LVU59
 205:./Middlewares/ST/threadx/common/src/tx_semaphore_get.c **** 
 175              		.loc 1 205 77 is_stmt 0 view .LVU60
 176 004e E164     		str	r1, [r4, #76]
 208:./Middlewares/ST/threadx/common/src/tx_semaphore_get.c **** 
 177              		.loc 1 208 13 is_stmt 1 view .LVU61
ARM GAS  C:\Users\Dennis\AppData\Local\Temp\ccsngdrP.s 			page 19


 208:./Middlewares/ST/threadx/common/src/tx_semaphore_get.c **** 
 178              		.loc 1 208 39 is_stmt 0 view .LVU62
 179 0050 0D49     		ldr	r1, .L10
 180              	.LVL8:
 208:./Middlewares/ST/threadx/common/src/tx_semaphore_get.c **** 
 181              		.loc 1 208 39 view .LVU63
 182 0052 0B68     		ldr	r3, [r1]
 183 0054 0133     		adds	r3, r3, #1
 184 0056 0B60     		str	r3, [r1]
 211:./Middlewares/ST/threadx/common/src/tx_semaphore_get.c **** 
 185              		.loc 1 211 13 is_stmt 1 view .LVU64
 186              	.LVL9:
 187              	.LBB22:
 188              	.LBI22:
 556:./Middlewares/ST/threadx/ports/cortex_m4/gnu/inc/tx_port.h **** {
 189              		.loc 2 556 55 view .LVU65
 190              	.LBB23:
 562:./Middlewares/ST/threadx/ports/cortex_m4/gnu/inc/tx_port.h **** #endif
 191              		.loc 2 562 5 view .LVU66
 192              		.syntax unified
 193              	@ 562 "./Middlewares/ST/threadx/ports/cortex_m4/gnu/inc/tx_port.h" 1
 194 0058 82F31088 		MSR  PRIMASK,r2
 195              	@ 0 "" 2
 196              	.LVL10:
 562:./Middlewares/ST/threadx/ports/cortex_m4/gnu/inc/tx_port.h **** #endif
 197              		.loc 2 562 5 is_stmt 0 view .LVU67
 198              		.thumb
 199              		.syntax unified
 200              	.LBE23:
 201              	.LBE22:
 214:./Middlewares/ST/threadx/common/src/tx_semaphore_get.c **** #endif
 202              		.loc 1 214 13 is_stmt 1 view .LVU68
 203 005c 2046     		mov	r0, r4
 204              	.LVL11:
 214:./Middlewares/ST/threadx/common/src/tx_semaphore_get.c **** #endif
 205              		.loc 1 214 13 is_stmt 0 view .LVU69
 206 005e FFF7FEFF 		bl	_tx_thread_system_suspend
 207              	.LVL12:
 218:./Middlewares/ST/threadx/common/src/tx_semaphore_get.c ****         }
 208              		.loc 1 218 13 is_stmt 1 view .LVU70
 218:./Middlewares/ST/threadx/common/src/tx_semaphore_get.c ****         }
 209              		.loc 1 218 20 is_stmt 0 view .LVU71
 210 0062 D4F88400 		ldr	r0, [r4, #132]
 211              	.LVL13:
 218:./Middlewares/ST/threadx/common/src/tx_semaphore_get.c ****         }
 212              		.loc 1 218 20 view .LVU72
 213 0066 D6E7     		b	.L1
 214              	.LVL14:
 215              	.L9:
 128:./Middlewares/ST/threadx/common/src/tx_semaphore_get.c **** 
 216              		.loc 1 128 13 is_stmt 1 view .LVU73
 217              	.LBB24:
 218              	.LBI24:
 556:./Middlewares/ST/threadx/ports/cortex_m4/gnu/inc/tx_port.h **** {
 219              		.loc 2 556 55 view .LVU74
 220              	.LBB25:
 562:./Middlewares/ST/threadx/ports/cortex_m4/gnu/inc/tx_port.h **** #endif
ARM GAS  C:\Users\Dennis\AppData\Local\Temp\ccsngdrP.s 			page 20


 221              		.loc 2 562 5 view .LVU75
 222              		.syntax unified
 223              	@ 562 "./Middlewares/ST/threadx/ports/cortex_m4/gnu/inc/tx_port.h" 1
 224 0068 82F31088 		MSR  PRIMASK,r2
 225              	@ 0 "" 2
 226              	.LVL15:
 562:./Middlewares/ST/threadx/ports/cortex_m4/gnu/inc/tx_port.h **** #endif
 227              		.loc 2 562 5 is_stmt 0 view .LVU76
 228              		.thumb
 229              		.syntax unified
 230              	.LBE25:
 231              	.LBE24:
 131:./Middlewares/ST/threadx/common/src/tx_semaphore_get.c ****         }
 232              		.loc 1 131 13 is_stmt 1 view .LVU77
 131:./Middlewares/ST/threadx/common/src/tx_semaphore_get.c ****         }
 233              		.loc 1 131 20 is_stmt 0 view .LVU78
 234 006c 0D20     		movs	r0, #13
 235              	.LVL16:
 131:./Middlewares/ST/threadx/common/src/tx_semaphore_get.c ****         }
 236              		.loc 1 131 20 view .LVU79
 237 006e D2E7     		b	.L1
 238              	.LVL17:
 239              	.L6:
 178:./Middlewares/ST/threadx/common/src/tx_semaphore_get.c ****                 thread_ptr -> tx_thread_suspended_next =        next_thread;
 240              		.loc 1 178 17 is_stmt 1 view .LVU80
 178:./Middlewares/ST/threadx/common/src/tx_semaphore_get.c ****                 thread_ptr -> tx_thread_suspended_next =        next_thread;
 241              		.loc 1 178 29 is_stmt 0 view .LVU81
 242 0070 C368     		ldr	r3, [r0, #12]
 243              	.LVL18:
 179:./Middlewares/ST/threadx/common/src/tx_semaphore_get.c ****                 previous_thread =                               next_thread -> tx_thread_suspended_
 244              		.loc 1 179 17 is_stmt 1 view .LVU82
 179:./Middlewares/ST/threadx/common/src/tx_semaphore_get.c ****                 previous_thread =                               next_thread -> tx_thread_suspended_
 245              		.loc 1 179 56 is_stmt 0 view .LVU83
 246 0072 2367     		str	r3, [r4, #112]
 180:./Middlewares/ST/threadx/common/src/tx_semaphore_get.c ****                 thread_ptr -> tx_thread_suspended_previous =    previous_thread;
 247              		.loc 1 180 17 is_stmt 1 view .LVU84
 180:./Middlewares/ST/threadx/common/src/tx_semaphore_get.c ****                 thread_ptr -> tx_thread_suspended_previous =    previous_thread;
 248              		.loc 1 180 33 is_stmt 0 view .LVU85
 249 0074 5D6F     		ldr	r5, [r3, #116]
 250              	.LVL19:
 181:./Middlewares/ST/threadx/common/src/tx_semaphore_get.c ****                 previous_thread -> tx_thread_suspended_next =   thread_ptr;
 251              		.loc 1 181 17 is_stmt 1 view .LVU86
 181:./Middlewares/ST/threadx/common/src/tx_semaphore_get.c ****                 previous_thread -> tx_thread_suspended_next =   thread_ptr;
 252              		.loc 1 181 60 is_stmt 0 view .LVU87
 253 0076 6567     		str	r5, [r4, #116]
 182:./Middlewares/ST/threadx/common/src/tx_semaphore_get.c ****                 next_thread -> tx_thread_suspended_previous =   thread_ptr;
 254              		.loc 1 182 17 is_stmt 1 view .LVU88
 182:./Middlewares/ST/threadx/common/src/tx_semaphore_get.c ****                 next_thread -> tx_thread_suspended_previous =   thread_ptr;
 255              		.loc 1 182 61 is_stmt 0 view .LVU89
 256 0078 2C67     		str	r4, [r5, #112]
 183:./Middlewares/ST/threadx/common/src/tx_semaphore_get.c ****             }
 257              		.loc 1 183 17 is_stmt 1 view .LVU90
 183:./Middlewares/ST/threadx/common/src/tx_semaphore_get.c ****             }
 258              		.loc 1 183 61 is_stmt 0 view .LVU91
 259 007a 5C67     		str	r4, [r3, #116]
 260 007c E0E7     		b	.L7
 261              	.LVL20:
ARM GAS  C:\Users\Dennis\AppData\Local\Temp\ccsngdrP.s 			page 21


 262              	.L4:
 225:./Middlewares/ST/threadx/common/src/tx_semaphore_get.c **** 
 263              		.loc 1 225 9 is_stmt 1 view .LVU92
 264              	.LBB26:
 265              	.LBI26:
 556:./Middlewares/ST/threadx/ports/cortex_m4/gnu/inc/tx_port.h **** {
 266              		.loc 2 556 55 view .LVU93
 267              	.LBB27:
 562:./Middlewares/ST/threadx/ports/cortex_m4/gnu/inc/tx_port.h **** #endif
 268              		.loc 2 562 5 view .LVU94
 269              		.syntax unified
 270              	@ 562 "./Middlewares/ST/threadx/ports/cortex_m4/gnu/inc/tx_port.h" 1
 271 007e 82F31088 		MSR  PRIMASK,r2
 272              	@ 0 "" 2
 273              	.LVL21:
 562:./Middlewares/ST/threadx/ports/cortex_m4/gnu/inc/tx_port.h **** #endif
 274              		.loc 2 562 5 is_stmt 0 view .LVU95
 275              		.thumb
 276              		.syntax unified
 277              	.LBE27:
 278              	.LBE26:
 228:./Middlewares/ST/threadx/common/src/tx_semaphore_get.c ****     }
 279              		.loc 1 228 9 is_stmt 1 view .LVU96
 228:./Middlewares/ST/threadx/common/src/tx_semaphore_get.c ****     }
 280              		.loc 1 228 16 is_stmt 0 view .LVU97
 281 0082 0D20     		movs	r0, #13
 282              	.LVL22:
 232:./Middlewares/ST/threadx/common/src/tx_semaphore_get.c **** }
 283              		.loc 1 232 5 is_stmt 1 view .LVU98
 232:./Middlewares/ST/threadx/common/src/tx_semaphore_get.c **** }
 284              		.loc 1 232 11 is_stmt 0 view .LVU99
 285 0084 C7E7     		b	.L1
 286              	.L11:
 287 0086 00BF     		.align	2
 288              	.L10:
 289 0088 00000000 		.word	_tx_thread_preempt_disable
 290 008c 00000000 		.word	_tx_thread_current_ptr
 291 0090 00000000 		.word	_tx_semaphore_cleanup
 292              		.cfi_endproc
 293              	.LFE8:
 295              		.text
 296              	.Letext0:
 297              		.file 3 "./Middlewares/ST/threadx/common/inc/tx_api.h"
 298              		.file 4 "./Middlewares/ST/threadx/common/inc/tx_thread.h"
ARM GAS  C:\Users\Dennis\AppData\Local\Temp\ccsngdrP.s 			page 22

