ARM GAS  C:\Users\Dennis\AppData\Local\Temp\ccezipdX.s 			page 1


   1              		.cpu cortex-m4
   2              		.arch armv7e-m
   3              		.fpu fpv4-sp-d16
   4              		.eabi_attribute 27, 1
   5              		.eabi_attribute 28, 1
   6              		.eabi_attribute 20, 1
   7              		.eabi_attribute 21, 1
   8              		.eabi_attribute 23, 3
   9              		.eabi_attribute 24, 1
  10              		.eabi_attribute 25, 1
  11              		.eabi_attribute 26, 1
  12              		.eabi_attribute 30, 1
  13              		.eabi_attribute 34, 1
  14              		.eabi_attribute 18, 4
  15              		.file	"txe_byte_pool_info_get.c"
  16              		.text
  17              	.Ltext0:
  18              		.cfi_sections	.debug_frame
  19              		.section	.text._txe_byte_pool_info_get,"ax",%progbits
  20              		.align	1
  21              		.global	_txe_byte_pool_info_get
  22              		.syntax unified
  23              		.thumb
  24              		.thumb_func
  26              	_txe_byte_pool_info_get:
  27              	.LVL0:
  28              	.LFB8:
  29              		.file 1 "./Middlewares/ST/threadx/common/src/txe_byte_pool_info_get.c"
   1:./Middlewares/ST/threadx/common/src/txe_byte_pool_info_get.c **** /**************************************************************************/
   2:./Middlewares/ST/threadx/common/src/txe_byte_pool_info_get.c **** /*                                                                        */
   3:./Middlewares/ST/threadx/common/src/txe_byte_pool_info_get.c **** /*       Copyright (c) Microsoft Corporation. All rights reserved.        */
   4:./Middlewares/ST/threadx/common/src/txe_byte_pool_info_get.c **** /*                                                                        */
   5:./Middlewares/ST/threadx/common/src/txe_byte_pool_info_get.c **** /*       This software is licensed under the Microsoft Software License   */
   6:./Middlewares/ST/threadx/common/src/txe_byte_pool_info_get.c **** /*       Terms for Microsoft Azure RTOS. Full text of the license can be  */
   7:./Middlewares/ST/threadx/common/src/txe_byte_pool_info_get.c **** /*       found in the LICENSE file at https://aka.ms/AzureRTOS_EULA       */
   8:./Middlewares/ST/threadx/common/src/txe_byte_pool_info_get.c **** /*       and in the root directory of this software.                      */
   9:./Middlewares/ST/threadx/common/src/txe_byte_pool_info_get.c **** /*                                                                        */
  10:./Middlewares/ST/threadx/common/src/txe_byte_pool_info_get.c **** /**************************************************************************/
  11:./Middlewares/ST/threadx/common/src/txe_byte_pool_info_get.c **** 
  12:./Middlewares/ST/threadx/common/src/txe_byte_pool_info_get.c **** 
  13:./Middlewares/ST/threadx/common/src/txe_byte_pool_info_get.c **** /**************************************************************************/
  14:./Middlewares/ST/threadx/common/src/txe_byte_pool_info_get.c **** /**************************************************************************/
  15:./Middlewares/ST/threadx/common/src/txe_byte_pool_info_get.c **** /**                                                                       */
  16:./Middlewares/ST/threadx/common/src/txe_byte_pool_info_get.c **** /** ThreadX Component                                                     */
  17:./Middlewares/ST/threadx/common/src/txe_byte_pool_info_get.c **** /**                                                                       */
  18:./Middlewares/ST/threadx/common/src/txe_byte_pool_info_get.c **** /**   Byte Memory                                                         */
  19:./Middlewares/ST/threadx/common/src/txe_byte_pool_info_get.c **** /**                                                                       */
  20:./Middlewares/ST/threadx/common/src/txe_byte_pool_info_get.c **** /**************************************************************************/
  21:./Middlewares/ST/threadx/common/src/txe_byte_pool_info_get.c **** /**************************************************************************/
  22:./Middlewares/ST/threadx/common/src/txe_byte_pool_info_get.c **** 
  23:./Middlewares/ST/threadx/common/src/txe_byte_pool_info_get.c **** #define TX_SOURCE_CODE
  24:./Middlewares/ST/threadx/common/src/txe_byte_pool_info_get.c **** 
  25:./Middlewares/ST/threadx/common/src/txe_byte_pool_info_get.c **** 
  26:./Middlewares/ST/threadx/common/src/txe_byte_pool_info_get.c **** /* Include necessary system files.  */
  27:./Middlewares/ST/threadx/common/src/txe_byte_pool_info_get.c **** 
  28:./Middlewares/ST/threadx/common/src/txe_byte_pool_info_get.c **** #include "tx_api.h"
  29:./Middlewares/ST/threadx/common/src/txe_byte_pool_info_get.c **** #include "tx_byte_pool.h"
ARM GAS  C:\Users\Dennis\AppData\Local\Temp\ccezipdX.s 			page 2


  30:./Middlewares/ST/threadx/common/src/txe_byte_pool_info_get.c **** 
  31:./Middlewares/ST/threadx/common/src/txe_byte_pool_info_get.c **** 
  32:./Middlewares/ST/threadx/common/src/txe_byte_pool_info_get.c **** /**************************************************************************/
  33:./Middlewares/ST/threadx/common/src/txe_byte_pool_info_get.c **** /*                                                                        */
  34:./Middlewares/ST/threadx/common/src/txe_byte_pool_info_get.c **** /*  FUNCTION                                               RELEASE        */
  35:./Middlewares/ST/threadx/common/src/txe_byte_pool_info_get.c **** /*                                                                        */
  36:./Middlewares/ST/threadx/common/src/txe_byte_pool_info_get.c **** /*    _txe_byte_pool_info_get                             PORTABLE C      */
  37:./Middlewares/ST/threadx/common/src/txe_byte_pool_info_get.c **** /*                                                           6.1          */
  38:./Middlewares/ST/threadx/common/src/txe_byte_pool_info_get.c **** /*  AUTHOR                                                                */
  39:./Middlewares/ST/threadx/common/src/txe_byte_pool_info_get.c **** /*                                                                        */
  40:./Middlewares/ST/threadx/common/src/txe_byte_pool_info_get.c **** /*    William E. Lamie, Microsoft Corporation                             */
  41:./Middlewares/ST/threadx/common/src/txe_byte_pool_info_get.c **** /*                                                                        */
  42:./Middlewares/ST/threadx/common/src/txe_byte_pool_info_get.c **** /*  DESCRIPTION                                                           */
  43:./Middlewares/ST/threadx/common/src/txe_byte_pool_info_get.c **** /*                                                                        */
  44:./Middlewares/ST/threadx/common/src/txe_byte_pool_info_get.c **** /*    This function checks for errors in the byte pool information get    */
  45:./Middlewares/ST/threadx/common/src/txe_byte_pool_info_get.c **** /*    service.                                                            */
  46:./Middlewares/ST/threadx/common/src/txe_byte_pool_info_get.c **** /*                                                                        */
  47:./Middlewares/ST/threadx/common/src/txe_byte_pool_info_get.c **** /*  INPUT                                                                 */
  48:./Middlewares/ST/threadx/common/src/txe_byte_pool_info_get.c **** /*                                                                        */
  49:./Middlewares/ST/threadx/common/src/txe_byte_pool_info_get.c **** /*    pool_ptr                          Pointer to byte pool control block*/
  50:./Middlewares/ST/threadx/common/src/txe_byte_pool_info_get.c **** /*    name                              Destination for the pool name     */
  51:./Middlewares/ST/threadx/common/src/txe_byte_pool_info_get.c **** /*    available_bytes                   Number of free bytes in byte pool */
  52:./Middlewares/ST/threadx/common/src/txe_byte_pool_info_get.c **** /*    fragments                         Number of fragments in byte pool  */
  53:./Middlewares/ST/threadx/common/src/txe_byte_pool_info_get.c **** /*    first_suspended                   Destination for pointer of first  */
  54:./Middlewares/ST/threadx/common/src/txe_byte_pool_info_get.c **** /*                                        thread suspended on byte pool   */
  55:./Middlewares/ST/threadx/common/src/txe_byte_pool_info_get.c **** /*    suspended_count                   Destination for suspended count   */
  56:./Middlewares/ST/threadx/common/src/txe_byte_pool_info_get.c **** /*    next_pool                         Destination for pointer to next   */
  57:./Middlewares/ST/threadx/common/src/txe_byte_pool_info_get.c **** /*                                        byte pool on the created list   */
  58:./Middlewares/ST/threadx/common/src/txe_byte_pool_info_get.c **** /*                                                                        */
  59:./Middlewares/ST/threadx/common/src/txe_byte_pool_info_get.c **** /*  OUTPUT                                                                */
  60:./Middlewares/ST/threadx/common/src/txe_byte_pool_info_get.c **** /*                                                                        */
  61:./Middlewares/ST/threadx/common/src/txe_byte_pool_info_get.c **** /*    TX_POOL_ERROR                     Invalid byte pool pointer         */
  62:./Middlewares/ST/threadx/common/src/txe_byte_pool_info_get.c **** /*    status                            Completion status                 */
  63:./Middlewares/ST/threadx/common/src/txe_byte_pool_info_get.c **** /*                                                                        */
  64:./Middlewares/ST/threadx/common/src/txe_byte_pool_info_get.c **** /*  CALLS                                                                 */
  65:./Middlewares/ST/threadx/common/src/txe_byte_pool_info_get.c **** /*                                                                        */
  66:./Middlewares/ST/threadx/common/src/txe_byte_pool_info_get.c **** /*    _tx_byte_pool_info_get            Actual byte pool info get service */
  67:./Middlewares/ST/threadx/common/src/txe_byte_pool_info_get.c **** /*                                                                        */
  68:./Middlewares/ST/threadx/common/src/txe_byte_pool_info_get.c **** /*  CALLED BY                                                             */
  69:./Middlewares/ST/threadx/common/src/txe_byte_pool_info_get.c **** /*                                                                        */
  70:./Middlewares/ST/threadx/common/src/txe_byte_pool_info_get.c **** /*    Application Code                                                    */
  71:./Middlewares/ST/threadx/common/src/txe_byte_pool_info_get.c **** /*                                                                        */
  72:./Middlewares/ST/threadx/common/src/txe_byte_pool_info_get.c **** /*  RELEASE HISTORY                                                       */
  73:./Middlewares/ST/threadx/common/src/txe_byte_pool_info_get.c **** /*                                                                        */
  74:./Middlewares/ST/threadx/common/src/txe_byte_pool_info_get.c **** /*    DATE              NAME                      DESCRIPTION             */
  75:./Middlewares/ST/threadx/common/src/txe_byte_pool_info_get.c **** /*                                                                        */
  76:./Middlewares/ST/threadx/common/src/txe_byte_pool_info_get.c **** /*  05-19-2020     William E. Lamie         Initial Version 6.0           */
  77:./Middlewares/ST/threadx/common/src/txe_byte_pool_info_get.c **** /*  09-30-2020     Yuxin Zhou               Modified comment(s),          */
  78:./Middlewares/ST/threadx/common/src/txe_byte_pool_info_get.c **** /*                                            resulting in version 6.1    */
  79:./Middlewares/ST/threadx/common/src/txe_byte_pool_info_get.c **** /*                                                                        */
  80:./Middlewares/ST/threadx/common/src/txe_byte_pool_info_get.c **** /**************************************************************************/
  81:./Middlewares/ST/threadx/common/src/txe_byte_pool_info_get.c **** UINT  _txe_byte_pool_info_get(TX_BYTE_POOL *pool_ptr, CHAR **name, ULONG *available_bytes,
  82:./Middlewares/ST/threadx/common/src/txe_byte_pool_info_get.c ****                     ULONG *fragments, TX_THREAD **first_suspended,
  83:./Middlewares/ST/threadx/common/src/txe_byte_pool_info_get.c ****                     ULONG *suspended_count, TX_BYTE_POOL **next_pool)
  84:./Middlewares/ST/threadx/common/src/txe_byte_pool_info_get.c **** {
  30              		.loc 1 84 1 view -0
  31              		.cfi_startproc
ARM GAS  C:\Users\Dennis\AppData\Local\Temp\ccezipdX.s 			page 3


  32              		@ args = 12, pretend = 0, frame = 0
  33              		@ frame_needed = 0, uses_anonymous_args = 0
  85:./Middlewares/ST/threadx/common/src/txe_byte_pool_info_get.c **** 
  86:./Middlewares/ST/threadx/common/src/txe_byte_pool_info_get.c **** UINT    status;
  34              		.loc 1 86 1 view .LVU1
  87:./Middlewares/ST/threadx/common/src/txe_byte_pool_info_get.c **** 
  88:./Middlewares/ST/threadx/common/src/txe_byte_pool_info_get.c **** 
  89:./Middlewares/ST/threadx/common/src/txe_byte_pool_info_get.c ****     /* Check for an invalid byte pool pointer.  */
  90:./Middlewares/ST/threadx/common/src/txe_byte_pool_info_get.c ****     if (pool_ptr == TX_NULL)
  35              		.loc 1 90 5 view .LVU2
  36              		.loc 1 90 8 is_stmt 0 view .LVU3
  37 0000 A0B1     		cbz	r0, .L3
  84:./Middlewares/ST/threadx/common/src/txe_byte_pool_info_get.c **** 
  38              		.loc 1 84 1 view .LVU4
  39 0002 10B5     		push	{r4, lr}
  40              	.LCFI0:
  41              		.cfi_def_cfa_offset 8
  42              		.cfi_offset 4, -8
  43              		.cfi_offset 14, -4
  44 0004 84B0     		sub	sp, sp, #16
  45              	.LCFI1:
  46              		.cfi_def_cfa_offset 24
  47 0006 8446     		mov	ip, r0
  91:./Middlewares/ST/threadx/common/src/txe_byte_pool_info_get.c ****     {
  92:./Middlewares/ST/threadx/common/src/txe_byte_pool_info_get.c **** 
  93:./Middlewares/ST/threadx/common/src/txe_byte_pool_info_get.c ****         /* Block pool pointer is invalid, return appropriate error code.  */
  94:./Middlewares/ST/threadx/common/src/txe_byte_pool_info_get.c ****         status =  TX_POOL_ERROR;
  95:./Middlewares/ST/threadx/common/src/txe_byte_pool_info_get.c ****     }
  96:./Middlewares/ST/threadx/common/src/txe_byte_pool_info_get.c **** 
  97:./Middlewares/ST/threadx/common/src/txe_byte_pool_info_get.c ****     /* Now check for invalid pool ID.  */
  98:./Middlewares/ST/threadx/common/src/txe_byte_pool_info_get.c ****     else if (pool_ptr -> tx_byte_pool_id != TX_BYTE_POOL_ID)
  48              		.loc 1 98 10 is_stmt 1 view .LVU5
  49              		.loc 1 98 13 is_stmt 0 view .LVU6
  50 0008 0948     		ldr	r0, .L10
  51              	.LVL1:
  52              		.loc 1 98 13 view .LVU7
  53 000a DCF80040 		ldr	r4, [ip]
  54 000e 8442     		cmp	r4, r0
  55 0010 02D0     		beq	.L9
  99:./Middlewares/ST/threadx/common/src/txe_byte_pool_info_get.c ****     {
 100:./Middlewares/ST/threadx/common/src/txe_byte_pool_info_get.c **** 
 101:./Middlewares/ST/threadx/common/src/txe_byte_pool_info_get.c ****         /* Block pool pointer is invalid, return appropriate error code.  */
 102:./Middlewares/ST/threadx/common/src/txe_byte_pool_info_get.c ****         status =  TX_POOL_ERROR;
  56              		.loc 1 102 16 view .LVU8
  57 0012 0220     		movs	r0, #2
  58              	.LVL2:
 103:./Middlewares/ST/threadx/common/src/txe_byte_pool_info_get.c ****     }
 104:./Middlewares/ST/threadx/common/src/txe_byte_pool_info_get.c ****     else
 105:./Middlewares/ST/threadx/common/src/txe_byte_pool_info_get.c ****     {
 106:./Middlewares/ST/threadx/common/src/txe_byte_pool_info_get.c **** 
 107:./Middlewares/ST/threadx/common/src/txe_byte_pool_info_get.c ****         /* Otherwise, call the actual byte pool information get service.  */
 108:./Middlewares/ST/threadx/common/src/txe_byte_pool_info_get.c ****         status =  _tx_byte_pool_info_get(pool_ptr, name, available_bytes,
 109:./Middlewares/ST/threadx/common/src/txe_byte_pool_info_get.c ****                             fragments, first_suspended, suspended_count, next_pool);
 110:./Middlewares/ST/threadx/common/src/txe_byte_pool_info_get.c ****     }
 111:./Middlewares/ST/threadx/common/src/txe_byte_pool_info_get.c **** 
 112:./Middlewares/ST/threadx/common/src/txe_byte_pool_info_get.c ****     /* Return completion status.  */
 113:./Middlewares/ST/threadx/common/src/txe_byte_pool_info_get.c ****     return(status);
ARM GAS  C:\Users\Dennis\AppData\Local\Temp\ccezipdX.s 			page 4


  59              		.loc 1 113 5 is_stmt 1 view .LVU9
  60              	.L1:
 114:./Middlewares/ST/threadx/common/src/txe_byte_pool_info_get.c **** }
  61              		.loc 1 114 1 is_stmt 0 view .LVU10
  62 0014 04B0     		add	sp, sp, #16
  63              	.LCFI2:
  64              		.cfi_remember_state
  65              		.cfi_def_cfa_offset 8
  66              		@ sp needed
  67 0016 10BD     		pop	{r4, pc}
  68              	.LVL3:
  69              	.L9:
  70              	.LCFI3:
  71              		.cfi_restore_state
 108:./Middlewares/ST/threadx/common/src/txe_byte_pool_info_get.c ****                             fragments, first_suspended, suspended_count, next_pool);
  72              		.loc 1 108 9 is_stmt 1 view .LVU11
 108:./Middlewares/ST/threadx/common/src/txe_byte_pool_info_get.c ****                             fragments, first_suspended, suspended_count, next_pool);
  73              		.loc 1 108 19 is_stmt 0 view .LVU12
  74 0018 0898     		ldr	r0, [sp, #32]
  75 001a 0290     		str	r0, [sp, #8]
  76 001c 0798     		ldr	r0, [sp, #28]
  77 001e 0190     		str	r0, [sp, #4]
  78 0020 0698     		ldr	r0, [sp, #24]
  79 0022 0090     		str	r0, [sp]
  80 0024 6046     		mov	r0, ip
  81 0026 FFF7FEFF 		bl	_tx_byte_pool_info_get
  82              	.LVL4:
 108:./Middlewares/ST/threadx/common/src/txe_byte_pool_info_get.c ****                             fragments, first_suspended, suspended_count, next_pool);
  83              		.loc 1 108 19 view .LVU13
  84 002a F3E7     		b	.L1
  85              	.LVL5:
  86              	.L3:
  87              	.LCFI4:
  88              		.cfi_def_cfa_offset 0
  89              		.cfi_restore 4
  90              		.cfi_restore 14
  94:./Middlewares/ST/threadx/common/src/txe_byte_pool_info_get.c ****     }
  91              		.loc 1 94 16 view .LVU14
  92 002c 0220     		movs	r0, #2
  93              	.LVL6:
  94              		.loc 1 114 1 view .LVU15
  95 002e 7047     		bx	lr
  96              	.L11:
  97              		.align	2
  98              	.L10:
  99 0030 45545942 		.word	1113150533
 100              		.cfi_endproc
 101              	.LFE8:
 103              		.text
 104              	.Letext0:
 105              		.file 2 "./Middlewares/ST/threadx/ports/cortex_m4/gnu/inc/tx_port.h"
 106              		.file 3 "./Middlewares/ST/threadx/common/inc/tx_api.h"
ARM GAS  C:\Users\Dennis\AppData\Local\Temp\ccezipdX.s 			page 5

