ARM GAS  C:\Users\Dennis\AppData\Local\Temp\ccgstCYt.s 			page 1


   1              		.cpu cortex-m4
   2              		.arch armv7e-m
   3              		.fpu fpv4-sp-d16
   4              		.eabi_attribute 27, 1
   5              		.eabi_attribute 28, 1
   6              		.eabi_attribute 20, 1
   7              		.eabi_attribute 21, 1
   8              		.eabi_attribute 23, 3
   9              		.eabi_attribute 24, 1
  10              		.eabi_attribute 25, 1
  11              		.eabi_attribute 26, 1
  12              		.eabi_attribute 30, 1
  13              		.eabi_attribute 34, 1
  14              		.eabi_attribute 18, 4
  15              		.file	"usart.c"
  16              		.text
  17              	.Ltext0:
  18              		.cfi_sections	.debug_frame
  19              		.section	.text.MX_USART1_UART_Init,"ax",%progbits
  20              		.align	1
  21              		.global	MX_USART1_UART_Init
  22              		.syntax unified
  23              		.thumb
  24              		.thumb_func
  26              	MX_USART1_UART_Init:
  27              	.LFB239:
  28              		.file 1 "./Core/Src/usart.c"
   1:./Core/Src/usart.c **** /* USER CODE BEGIN Header */
   2:./Core/Src/usart.c **** /**
   3:./Core/Src/usart.c ****   ******************************************************************************
   4:./Core/Src/usart.c ****   * @file    usart.c
   5:./Core/Src/usart.c ****   * @brief   This file provides code for the configuration
   6:./Core/Src/usart.c ****   *          of the USART instances.
   7:./Core/Src/usart.c ****   ******************************************************************************
   8:./Core/Src/usart.c ****   * @attention
   9:./Core/Src/usart.c ****   *
  10:./Core/Src/usart.c ****   * Copyright (c) 2025 STMicroelectronics.
  11:./Core/Src/usart.c ****   * All rights reserved.
  12:./Core/Src/usart.c ****   *
  13:./Core/Src/usart.c ****   * This software is licensed under terms that can be found in the LICENSE file
  14:./Core/Src/usart.c ****   * in the root directory of this software component.
  15:./Core/Src/usart.c ****   * If no LICENSE file comes with this software, it is provided AS-IS.
  16:./Core/Src/usart.c ****   *
  17:./Core/Src/usart.c ****   ******************************************************************************
  18:./Core/Src/usart.c ****   */
  19:./Core/Src/usart.c **** /* USER CODE END Header */
  20:./Core/Src/usart.c **** /* Includes ------------------------------------------------------------------*/
  21:./Core/Src/usart.c **** #include "usart.h"
  22:./Core/Src/usart.c **** 
  23:./Core/Src/usart.c **** /* USER CODE BEGIN 0 */
  24:./Core/Src/usart.c **** 
  25:./Core/Src/usart.c **** /* USER CODE END 0 */
  26:./Core/Src/usart.c **** 
  27:./Core/Src/usart.c **** UART_HandleTypeDef huart1;
  28:./Core/Src/usart.c **** UART_HandleTypeDef huart2;
  29:./Core/Src/usart.c **** UART_HandleTypeDef huart3;
  30:./Core/Src/usart.c **** DMA_HandleTypeDef hdma_usart1_rx;
ARM GAS  C:\Users\Dennis\AppData\Local\Temp\ccgstCYt.s 			page 2


  31:./Core/Src/usart.c **** 
  32:./Core/Src/usart.c **** /* USART1 init function */
  33:./Core/Src/usart.c **** 
  34:./Core/Src/usart.c **** void MX_USART1_UART_Init(void)
  35:./Core/Src/usart.c **** {
  29              		.loc 1 35 1 view -0
  30              		.cfi_startproc
  31              		@ args = 0, pretend = 0, frame = 0
  32              		@ frame_needed = 0, uses_anonymous_args = 0
  33 0000 08B5     		push	{r3, lr}
  34              	.LCFI0:
  35              		.cfi_def_cfa_offset 8
  36              		.cfi_offset 3, -8
  37              		.cfi_offset 14, -4
  36:./Core/Src/usart.c **** 
  37:./Core/Src/usart.c ****   /* USER CODE BEGIN USART1_Init 0 */
  38:./Core/Src/usart.c **** 
  39:./Core/Src/usart.c ****   /* USER CODE END USART1_Init 0 */
  40:./Core/Src/usart.c **** 
  41:./Core/Src/usart.c ****   /* USER CODE BEGIN USART1_Init 1 */
  42:./Core/Src/usart.c **** 
  43:./Core/Src/usart.c ****   /* USER CODE END USART1_Init 1 */
  44:./Core/Src/usart.c ****   huart1.Instance = USART1;
  38              		.loc 1 44 3 view .LVU1
  39              		.loc 1 44 19 is_stmt 0 view .LVU2
  40 0002 0A48     		ldr	r0, .L5
  41 0004 0A4B     		ldr	r3, .L5+4
  42 0006 0360     		str	r3, [r0]
  45:./Core/Src/usart.c ****   huart1.Init.BaudRate = 115200;
  43              		.loc 1 45 3 is_stmt 1 view .LVU3
  44              		.loc 1 45 24 is_stmt 0 view .LVU4
  45 0008 4FF4E133 		mov	r3, #115200
  46 000c 4360     		str	r3, [r0, #4]
  46:./Core/Src/usart.c ****   huart1.Init.WordLength = UART_WORDLENGTH_8B;
  47              		.loc 1 46 3 is_stmt 1 view .LVU5
  48              		.loc 1 46 26 is_stmt 0 view .LVU6
  49 000e 0023     		movs	r3, #0
  50 0010 8360     		str	r3, [r0, #8]
  47:./Core/Src/usart.c ****   huart1.Init.StopBits = UART_STOPBITS_1;
  51              		.loc 1 47 3 is_stmt 1 view .LVU7
  52              		.loc 1 47 24 is_stmt 0 view .LVU8
  53 0012 C360     		str	r3, [r0, #12]
  48:./Core/Src/usart.c ****   huart1.Init.Parity = UART_PARITY_NONE;
  54              		.loc 1 48 3 is_stmt 1 view .LVU9
  55              		.loc 1 48 22 is_stmt 0 view .LVU10
  56 0014 0361     		str	r3, [r0, #16]
  49:./Core/Src/usart.c ****   huart1.Init.Mode = UART_MODE_TX_RX;
  57              		.loc 1 49 3 is_stmt 1 view .LVU11
  58              		.loc 1 49 20 is_stmt 0 view .LVU12
  59 0016 0C22     		movs	r2, #12
  60 0018 4261     		str	r2, [r0, #20]
  50:./Core/Src/usart.c ****   huart1.Init.HwFlowCtl = UART_HWCONTROL_NONE;
  61              		.loc 1 50 3 is_stmt 1 view .LVU13
  62              		.loc 1 50 25 is_stmt 0 view .LVU14
  63 001a 8361     		str	r3, [r0, #24]
  51:./Core/Src/usart.c ****   huart1.Init.OverSampling = UART_OVERSAMPLING_16;
  64              		.loc 1 51 3 is_stmt 1 view .LVU15
ARM GAS  C:\Users\Dennis\AppData\Local\Temp\ccgstCYt.s 			page 3


  65              		.loc 1 51 28 is_stmt 0 view .LVU16
  66 001c C361     		str	r3, [r0, #28]
  52:./Core/Src/usart.c ****   if (HAL_UART_Init(&huart1) != HAL_OK)
  67              		.loc 1 52 3 is_stmt 1 view .LVU17
  68              		.loc 1 52 7 is_stmt 0 view .LVU18
  69 001e FFF7FEFF 		bl	HAL_UART_Init
  70              	.LVL0:
  71              		.loc 1 52 6 view .LVU19
  72 0022 00B9     		cbnz	r0, .L4
  73              	.L1:
  53:./Core/Src/usart.c ****   {
  54:./Core/Src/usart.c ****     Error_Handler();
  55:./Core/Src/usart.c ****   }
  56:./Core/Src/usart.c ****   /* USER CODE BEGIN USART1_Init 2 */
  57:./Core/Src/usart.c **** 
  58:./Core/Src/usart.c ****   /* USER CODE END USART1_Init 2 */
  59:./Core/Src/usart.c **** 
  60:./Core/Src/usart.c **** }
  74              		.loc 1 60 1 view .LVU20
  75 0024 08BD     		pop	{r3, pc}
  76              	.L4:
  54:./Core/Src/usart.c ****   }
  77              		.loc 1 54 5 is_stmt 1 view .LVU21
  78 0026 FFF7FEFF 		bl	Error_Handler
  79              	.LVL1:
  80              		.loc 1 60 1 is_stmt 0 view .LVU22
  81 002a FBE7     		b	.L1
  82              	.L6:
  83              		.align	2
  84              	.L5:
  85 002c 00000000 		.word	.LANCHOR0
  86 0030 00100140 		.word	1073811456
  87              		.cfi_endproc
  88              	.LFE239:
  90              		.section	.text.MX_USART2_UART_Init,"ax",%progbits
  91              		.align	1
  92              		.global	MX_USART2_UART_Init
  93              		.syntax unified
  94              		.thumb
  95              		.thumb_func
  97              	MX_USART2_UART_Init:
  98              	.LFB240:
  61:./Core/Src/usart.c **** /* USART2 init function */
  62:./Core/Src/usart.c **** 
  63:./Core/Src/usart.c **** void MX_USART2_UART_Init(void)
  64:./Core/Src/usart.c **** {
  99              		.loc 1 64 1 is_stmt 1 view -0
 100              		.cfi_startproc
 101              		@ args = 0, pretend = 0, frame = 0
 102              		@ frame_needed = 0, uses_anonymous_args = 0
 103 0000 08B5     		push	{r3, lr}
 104              	.LCFI1:
 105              		.cfi_def_cfa_offset 8
 106              		.cfi_offset 3, -8
 107              		.cfi_offset 14, -4
  65:./Core/Src/usart.c **** 
  66:./Core/Src/usart.c ****   /* USER CODE BEGIN USART2_Init 0 */
ARM GAS  C:\Users\Dennis\AppData\Local\Temp\ccgstCYt.s 			page 4


  67:./Core/Src/usart.c **** 
  68:./Core/Src/usart.c ****   /* USER CODE END USART2_Init 0 */
  69:./Core/Src/usart.c **** 
  70:./Core/Src/usart.c ****   /* USER CODE BEGIN USART2_Init 1 */
  71:./Core/Src/usart.c **** 
  72:./Core/Src/usart.c ****   /* USER CODE END USART2_Init 1 */
  73:./Core/Src/usart.c ****   huart2.Instance = USART2;
 108              		.loc 1 73 3 view .LVU24
 109              		.loc 1 73 19 is_stmt 0 view .LVU25
 110 0002 0A48     		ldr	r0, .L11
 111 0004 0A4B     		ldr	r3, .L11+4
 112 0006 0360     		str	r3, [r0]
  74:./Core/Src/usart.c ****   huart2.Init.BaudRate = 115200;
 113              		.loc 1 74 3 is_stmt 1 view .LVU26
 114              		.loc 1 74 24 is_stmt 0 view .LVU27
 115 0008 4FF4E133 		mov	r3, #115200
 116 000c 4360     		str	r3, [r0, #4]
  75:./Core/Src/usart.c ****   huart2.Init.WordLength = UART_WORDLENGTH_8B;
 117              		.loc 1 75 3 is_stmt 1 view .LVU28
 118              		.loc 1 75 26 is_stmt 0 view .LVU29
 119 000e 0023     		movs	r3, #0
 120 0010 8360     		str	r3, [r0, #8]
  76:./Core/Src/usart.c ****   huart2.Init.StopBits = UART_STOPBITS_1;
 121              		.loc 1 76 3 is_stmt 1 view .LVU30
 122              		.loc 1 76 24 is_stmt 0 view .LVU31
 123 0012 C360     		str	r3, [r0, #12]
  77:./Core/Src/usart.c ****   huart2.Init.Parity = UART_PARITY_NONE;
 124              		.loc 1 77 3 is_stmt 1 view .LVU32
 125              		.loc 1 77 22 is_stmt 0 view .LVU33
 126 0014 0361     		str	r3, [r0, #16]
  78:./Core/Src/usart.c ****   huart2.Init.Mode = UART_MODE_TX_RX;
 127              		.loc 1 78 3 is_stmt 1 view .LVU34
 128              		.loc 1 78 20 is_stmt 0 view .LVU35
 129 0016 0C22     		movs	r2, #12
 130 0018 4261     		str	r2, [r0, #20]
  79:./Core/Src/usart.c ****   huart2.Init.HwFlowCtl = UART_HWCONTROL_NONE;
 131              		.loc 1 79 3 is_stmt 1 view .LVU36
 132              		.loc 1 79 25 is_stmt 0 view .LVU37
 133 001a 8361     		str	r3, [r0, #24]
  80:./Core/Src/usart.c ****   huart2.Init.OverSampling = UART_OVERSAMPLING_16;
 134              		.loc 1 80 3 is_stmt 1 view .LVU38
 135              		.loc 1 80 28 is_stmt 0 view .LVU39
 136 001c C361     		str	r3, [r0, #28]
  81:./Core/Src/usart.c ****   if (HAL_UART_Init(&huart2) != HAL_OK)
 137              		.loc 1 81 3 is_stmt 1 view .LVU40
 138              		.loc 1 81 7 is_stmt 0 view .LVU41
 139 001e FFF7FEFF 		bl	HAL_UART_Init
 140              	.LVL2:
 141              		.loc 1 81 6 view .LVU42
 142 0022 00B9     		cbnz	r0, .L10
 143              	.L7:
  82:./Core/Src/usart.c ****   {
  83:./Core/Src/usart.c ****     Error_Handler();
  84:./Core/Src/usart.c ****   }
  85:./Core/Src/usart.c ****   /* USER CODE BEGIN USART2_Init 2 */
  86:./Core/Src/usart.c **** 
  87:./Core/Src/usart.c ****   /* USER CODE END USART2_Init 2 */
ARM GAS  C:\Users\Dennis\AppData\Local\Temp\ccgstCYt.s 			page 5


  88:./Core/Src/usart.c **** 
  89:./Core/Src/usart.c **** }
 144              		.loc 1 89 1 view .LVU43
 145 0024 08BD     		pop	{r3, pc}
 146              	.L10:
  83:./Core/Src/usart.c ****   }
 147              		.loc 1 83 5 is_stmt 1 view .LVU44
 148 0026 FFF7FEFF 		bl	Error_Handler
 149              	.LVL3:
 150              		.loc 1 89 1 is_stmt 0 view .LVU45
 151 002a FBE7     		b	.L7
 152              	.L12:
 153              		.align	2
 154              	.L11:
 155 002c 00000000 		.word	.LANCHOR1
 156 0030 00440040 		.word	1073759232
 157              		.cfi_endproc
 158              	.LFE240:
 160              		.section	.text.MX_USART3_UART_Init,"ax",%progbits
 161              		.align	1
 162              		.global	MX_USART3_UART_Init
 163              		.syntax unified
 164              		.thumb
 165              		.thumb_func
 167              	MX_USART3_UART_Init:
 168              	.LFB241:
  90:./Core/Src/usart.c **** /* USART3 init function */
  91:./Core/Src/usart.c **** 
  92:./Core/Src/usart.c **** void MX_USART3_UART_Init(void)
  93:./Core/Src/usart.c **** {
 169              		.loc 1 93 1 is_stmt 1 view -0
 170              		.cfi_startproc
 171              		@ args = 0, pretend = 0, frame = 0
 172              		@ frame_needed = 0, uses_anonymous_args = 0
 173 0000 08B5     		push	{r3, lr}
 174              	.LCFI2:
 175              		.cfi_def_cfa_offset 8
 176              		.cfi_offset 3, -8
 177              		.cfi_offset 14, -4
  94:./Core/Src/usart.c **** 
  95:./Core/Src/usart.c ****   /* USER CODE BEGIN USART3_Init 0 */
  96:./Core/Src/usart.c **** 
  97:./Core/Src/usart.c ****   /* USER CODE END USART3_Init 0 */
  98:./Core/Src/usart.c **** 
  99:./Core/Src/usart.c ****   /* USER CODE BEGIN USART3_Init 1 */
 100:./Core/Src/usart.c **** 
 101:./Core/Src/usart.c ****   /* USER CODE END USART3_Init 1 */
 102:./Core/Src/usart.c ****   huart3.Instance = USART3;
 178              		.loc 1 102 3 view .LVU47
 179              		.loc 1 102 19 is_stmt 0 view .LVU48
 180 0002 0A48     		ldr	r0, .L17
 181 0004 0A4B     		ldr	r3, .L17+4
 182 0006 0360     		str	r3, [r0]
 103:./Core/Src/usart.c ****   huart3.Init.BaudRate = 115200;
 183              		.loc 1 103 3 is_stmt 1 view .LVU49
 184              		.loc 1 103 24 is_stmt 0 view .LVU50
 185 0008 4FF4E133 		mov	r3, #115200
ARM GAS  C:\Users\Dennis\AppData\Local\Temp\ccgstCYt.s 			page 6


 186 000c 4360     		str	r3, [r0, #4]
 104:./Core/Src/usart.c ****   huart3.Init.WordLength = UART_WORDLENGTH_8B;
 187              		.loc 1 104 3 is_stmt 1 view .LVU51
 188              		.loc 1 104 26 is_stmt 0 view .LVU52
 189 000e 0023     		movs	r3, #0
 190 0010 8360     		str	r3, [r0, #8]
 105:./Core/Src/usart.c ****   huart3.Init.StopBits = UART_STOPBITS_1;
 191              		.loc 1 105 3 is_stmt 1 view .LVU53
 192              		.loc 1 105 24 is_stmt 0 view .LVU54
 193 0012 C360     		str	r3, [r0, #12]
 106:./Core/Src/usart.c ****   huart3.Init.Parity = UART_PARITY_NONE;
 194              		.loc 1 106 3 is_stmt 1 view .LVU55
 195              		.loc 1 106 22 is_stmt 0 view .LVU56
 196 0014 0361     		str	r3, [r0, #16]
 107:./Core/Src/usart.c ****   huart3.Init.Mode = UART_MODE_TX_RX;
 197              		.loc 1 107 3 is_stmt 1 view .LVU57
 198              		.loc 1 107 20 is_stmt 0 view .LVU58
 199 0016 0C22     		movs	r2, #12
 200 0018 4261     		str	r2, [r0, #20]
 108:./Core/Src/usart.c ****   huart3.Init.HwFlowCtl = UART_HWCONTROL_NONE;
 201              		.loc 1 108 3 is_stmt 1 view .LVU59
 202              		.loc 1 108 25 is_stmt 0 view .LVU60
 203 001a 8361     		str	r3, [r0, #24]
 109:./Core/Src/usart.c ****   huart3.Init.OverSampling = UART_OVERSAMPLING_16;
 204              		.loc 1 109 3 is_stmt 1 view .LVU61
 205              		.loc 1 109 28 is_stmt 0 view .LVU62
 206 001c C361     		str	r3, [r0, #28]
 110:./Core/Src/usart.c ****   if (HAL_UART_Init(&huart3) != HAL_OK)
 207              		.loc 1 110 3 is_stmt 1 view .LVU63
 208              		.loc 1 110 7 is_stmt 0 view .LVU64
 209 001e FFF7FEFF 		bl	HAL_UART_Init
 210              	.LVL4:
 211              		.loc 1 110 6 view .LVU65
 212 0022 00B9     		cbnz	r0, .L16
 213              	.L13:
 111:./Core/Src/usart.c ****   {
 112:./Core/Src/usart.c ****     Error_Handler();
 113:./Core/Src/usart.c ****   }
 114:./Core/Src/usart.c ****   /* USER CODE BEGIN USART3_Init 2 */
 115:./Core/Src/usart.c **** 
 116:./Core/Src/usart.c ****   /* USER CODE END USART3_Init 2 */
 117:./Core/Src/usart.c **** 
 118:./Core/Src/usart.c **** }
 214              		.loc 1 118 1 view .LVU66
 215 0024 08BD     		pop	{r3, pc}
 216              	.L16:
 112:./Core/Src/usart.c ****   }
 217              		.loc 1 112 5 is_stmt 1 view .LVU67
 218 0026 FFF7FEFF 		bl	Error_Handler
 219              	.LVL5:
 220              		.loc 1 118 1 is_stmt 0 view .LVU68
 221 002a FBE7     		b	.L13
 222              	.L18:
 223              		.align	2
 224              	.L17:
 225 002c 00000000 		.word	.LANCHOR2
 226 0030 00480040 		.word	1073760256
ARM GAS  C:\Users\Dennis\AppData\Local\Temp\ccgstCYt.s 			page 7


 227              		.cfi_endproc
 228              	.LFE241:
 230              		.section	.text.HAL_UART_MspInit,"ax",%progbits
 231              		.align	1
 232              		.global	HAL_UART_MspInit
 233              		.syntax unified
 234              		.thumb
 235              		.thumb_func
 237              	HAL_UART_MspInit:
 238              	.LVL6:
 239              	.LFB242:
 119:./Core/Src/usart.c **** 
 120:./Core/Src/usart.c **** void HAL_UART_MspInit(UART_HandleTypeDef* uartHandle)
 121:./Core/Src/usart.c **** {
 240              		.loc 1 121 1 is_stmt 1 view -0
 241              		.cfi_startproc
 242              		@ args = 0, pretend = 0, frame = 48
 243              		@ frame_needed = 0, uses_anonymous_args = 0
 244              		.loc 1 121 1 is_stmt 0 view .LVU70
 245 0000 30B5     		push	{r4, r5, lr}
 246              	.LCFI3:
 247              		.cfi_def_cfa_offset 12
 248              		.cfi_offset 4, -12
 249              		.cfi_offset 5, -8
 250              		.cfi_offset 14, -4
 251 0002 8DB0     		sub	sp, sp, #52
 252              	.LCFI4:
 253              		.cfi_def_cfa_offset 64
 122:./Core/Src/usart.c **** 
 123:./Core/Src/usart.c ****   GPIO_InitTypeDef GPIO_InitStruct = {0};
 254              		.loc 1 123 3 is_stmt 1 view .LVU71
 255              		.loc 1 123 20 is_stmt 0 view .LVU72
 256 0004 0023     		movs	r3, #0
 257 0006 0793     		str	r3, [sp, #28]
 258 0008 0893     		str	r3, [sp, #32]
 259 000a 0993     		str	r3, [sp, #36]
 260 000c 0A93     		str	r3, [sp, #40]
 261 000e 0B93     		str	r3, [sp, #44]
 124:./Core/Src/usart.c ****   if(uartHandle->Instance==USART1)
 262              		.loc 1 124 3 is_stmt 1 view .LVU73
 263              		.loc 1 124 16 is_stmt 0 view .LVU74
 264 0010 0368     		ldr	r3, [r0]
 265              		.loc 1 124 5 view .LVU75
 266 0012 4C4A     		ldr	r2, .L29
 267 0014 9342     		cmp	r3, r2
 268 0016 07D0     		beq	.L25
 125:./Core/Src/usart.c ****   {
 126:./Core/Src/usart.c ****   /* USER CODE BEGIN USART1_MspInit 0 */
 127:./Core/Src/usart.c **** 
 128:./Core/Src/usart.c ****   /* USER CODE END USART1_MspInit 0 */
 129:./Core/Src/usart.c ****     /* USART1 clock enable */
 130:./Core/Src/usart.c ****     __HAL_RCC_USART1_CLK_ENABLE();
 131:./Core/Src/usart.c **** 
 132:./Core/Src/usart.c ****     __HAL_RCC_GPIOA_CLK_ENABLE();
 133:./Core/Src/usart.c ****     /**USART1 GPIO Configuration
 134:./Core/Src/usart.c ****     PA9     ------> USART1_TX
 135:./Core/Src/usart.c ****     PA10     ------> USART1_RX
ARM GAS  C:\Users\Dennis\AppData\Local\Temp\ccgstCYt.s 			page 8


 136:./Core/Src/usart.c ****     */
 137:./Core/Src/usart.c ****     GPIO_InitStruct.Pin = GPIO_PIN_9|GPIO_PIN_10;
 138:./Core/Src/usart.c ****     GPIO_InitStruct.Mode = GPIO_MODE_AF_PP;
 139:./Core/Src/usart.c ****     GPIO_InitStruct.Pull = GPIO_NOPULL;
 140:./Core/Src/usart.c ****     GPIO_InitStruct.Speed = GPIO_SPEED_FREQ_VERY_HIGH;
 141:./Core/Src/usart.c ****     GPIO_InitStruct.Alternate = GPIO_AF7_USART1;
 142:./Core/Src/usart.c ****     HAL_GPIO_Init(GPIOA, &GPIO_InitStruct);
 143:./Core/Src/usart.c **** 
 144:./Core/Src/usart.c ****     /* USART1 DMA Init */
 145:./Core/Src/usart.c ****     /* USART1_RX Init */
 146:./Core/Src/usart.c ****     hdma_usart1_rx.Instance = DMA2_Stream2;
 147:./Core/Src/usart.c ****     hdma_usart1_rx.Init.Channel = DMA_CHANNEL_4;
 148:./Core/Src/usart.c ****     hdma_usart1_rx.Init.Direction = DMA_PERIPH_TO_MEMORY;
 149:./Core/Src/usart.c ****     hdma_usart1_rx.Init.PeriphInc = DMA_PINC_DISABLE;
 150:./Core/Src/usart.c ****     hdma_usart1_rx.Init.MemInc = DMA_MINC_ENABLE;
 151:./Core/Src/usart.c ****     hdma_usart1_rx.Init.PeriphDataAlignment = DMA_PDATAALIGN_BYTE;
 152:./Core/Src/usart.c ****     hdma_usart1_rx.Init.MemDataAlignment = DMA_MDATAALIGN_BYTE;
 153:./Core/Src/usart.c ****     hdma_usart1_rx.Init.Mode = DMA_NORMAL;
 154:./Core/Src/usart.c ****     hdma_usart1_rx.Init.Priority = DMA_PRIORITY_LOW;
 155:./Core/Src/usart.c ****     hdma_usart1_rx.Init.FIFOMode = DMA_FIFOMODE_DISABLE;
 156:./Core/Src/usart.c ****     if (HAL_DMA_Init(&hdma_usart1_rx) != HAL_OK)
 157:./Core/Src/usart.c ****     {
 158:./Core/Src/usart.c ****       Error_Handler();
 159:./Core/Src/usart.c ****     }
 160:./Core/Src/usart.c **** 
 161:./Core/Src/usart.c ****     __HAL_LINKDMA(uartHandle,hdmarx,hdma_usart1_rx);
 162:./Core/Src/usart.c **** 
 163:./Core/Src/usart.c ****     /* USART1 interrupt Init */
 164:./Core/Src/usart.c ****     HAL_NVIC_SetPriority(USART1_IRQn, 0, 0);
 165:./Core/Src/usart.c ****     HAL_NVIC_EnableIRQ(USART1_IRQn);
 166:./Core/Src/usart.c ****   /* USER CODE BEGIN USART1_MspInit 1 */
 167:./Core/Src/usart.c **** 
 168:./Core/Src/usart.c ****   /* USER CODE END USART1_MspInit 1 */
 169:./Core/Src/usart.c ****   }
 170:./Core/Src/usart.c ****   else if(uartHandle->Instance==USART2)
 269              		.loc 1 170 8 is_stmt 1 view .LVU76
 270              		.loc 1 170 10 is_stmt 0 view .LVU77
 271 0018 4B4A     		ldr	r2, .L29+4
 272 001a 9342     		cmp	r3, r2
 273 001c 4AD0     		beq	.L26
 171:./Core/Src/usart.c ****   {
 172:./Core/Src/usart.c ****   /* USER CODE BEGIN USART2_MspInit 0 */
 173:./Core/Src/usart.c **** 
 174:./Core/Src/usart.c ****   /* USER CODE END USART2_MspInit 0 */
 175:./Core/Src/usart.c ****     /* USART2 clock enable */
 176:./Core/Src/usart.c ****     __HAL_RCC_USART2_CLK_ENABLE();
 177:./Core/Src/usart.c **** 
 178:./Core/Src/usart.c ****     __HAL_RCC_GPIOD_CLK_ENABLE();
 179:./Core/Src/usart.c ****     /**USART2 GPIO Configuration
 180:./Core/Src/usart.c ****     PD5     ------> USART2_TX
 181:./Core/Src/usart.c ****     PD6     ------> USART2_RX
 182:./Core/Src/usart.c ****     */
 183:./Core/Src/usart.c ****     GPIO_InitStruct.Pin = GPIO_PIN_5|GPIO_PIN_6;
 184:./Core/Src/usart.c ****     GPIO_InitStruct.Mode = GPIO_MODE_AF_PP;
 185:./Core/Src/usart.c ****     GPIO_InitStruct.Pull = GPIO_NOPULL;
 186:./Core/Src/usart.c ****     GPIO_InitStruct.Speed = GPIO_SPEED_FREQ_VERY_HIGH;
 187:./Core/Src/usart.c ****     GPIO_InitStruct.Alternate = GPIO_AF7_USART2;
ARM GAS  C:\Users\Dennis\AppData\Local\Temp\ccgstCYt.s 			page 9


 188:./Core/Src/usart.c ****     HAL_GPIO_Init(GPIOD, &GPIO_InitStruct);
 189:./Core/Src/usart.c **** 
 190:./Core/Src/usart.c ****   /* USER CODE BEGIN USART2_MspInit 1 */
 191:./Core/Src/usart.c **** 
 192:./Core/Src/usart.c ****   /* USER CODE END USART2_MspInit 1 */
 193:./Core/Src/usart.c ****   }
 194:./Core/Src/usart.c ****   else if(uartHandle->Instance==USART3)
 274              		.loc 1 194 8 is_stmt 1 view .LVU78
 275              		.loc 1 194 10 is_stmt 0 view .LVU79
 276 001e 4B4A     		ldr	r2, .L29+8
 277 0020 9342     		cmp	r3, r2
 278 0022 6AD0     		beq	.L27
 279              	.LVL7:
 280              	.L19:
 195:./Core/Src/usart.c ****   {
 196:./Core/Src/usart.c ****   /* USER CODE BEGIN USART3_MspInit 0 */
 197:./Core/Src/usart.c **** 
 198:./Core/Src/usart.c ****   /* USER CODE END USART3_MspInit 0 */
 199:./Core/Src/usart.c ****     /* USART3 clock enable */
 200:./Core/Src/usart.c ****     __HAL_RCC_USART3_CLK_ENABLE();
 201:./Core/Src/usart.c **** 
 202:./Core/Src/usart.c ****     __HAL_RCC_GPIOD_CLK_ENABLE();
 203:./Core/Src/usart.c ****     /**USART3 GPIO Configuration
 204:./Core/Src/usart.c ****     PD8     ------> USART3_TX
 205:./Core/Src/usart.c ****     PD9     ------> USART3_RX
 206:./Core/Src/usart.c ****     */
 207:./Core/Src/usart.c ****     GPIO_InitStruct.Pin = GPIO_PIN_8|GPIO_PIN_9;
 208:./Core/Src/usart.c ****     GPIO_InitStruct.Mode = GPIO_MODE_AF_PP;
 209:./Core/Src/usart.c ****     GPIO_InitStruct.Pull = GPIO_NOPULL;
 210:./Core/Src/usart.c ****     GPIO_InitStruct.Speed = GPIO_SPEED_FREQ_VERY_HIGH;
 211:./Core/Src/usart.c ****     GPIO_InitStruct.Alternate = GPIO_AF7_USART3;
 212:./Core/Src/usart.c ****     HAL_GPIO_Init(GPIOD, &GPIO_InitStruct);
 213:./Core/Src/usart.c **** 
 214:./Core/Src/usart.c ****   /* USER CODE BEGIN USART3_MspInit 1 */
 215:./Core/Src/usart.c **** 
 216:./Core/Src/usart.c ****   /* USER CODE END USART3_MspInit 1 */
 217:./Core/Src/usart.c ****   }
 218:./Core/Src/usart.c **** }
 281              		.loc 1 218 1 view .LVU80
 282 0024 0DB0     		add	sp, sp, #52
 283              	.LCFI5:
 284              		.cfi_remember_state
 285              		.cfi_def_cfa_offset 12
 286              		@ sp needed
 287 0026 30BD     		pop	{r4, r5, pc}
 288              	.LVL8:
 289              	.L25:
 290              	.LCFI6:
 291              		.cfi_restore_state
 292              		.loc 1 218 1 view .LVU81
 293 0028 0446     		mov	r4, r0
 130:./Core/Src/usart.c **** 
 294              		.loc 1 130 5 is_stmt 1 view .LVU82
 295              	.LBB2:
 130:./Core/Src/usart.c **** 
 296              		.loc 1 130 5 view .LVU83
 297 002a 0025     		movs	r5, #0
ARM GAS  C:\Users\Dennis\AppData\Local\Temp\ccgstCYt.s 			page 10


 298 002c 0195     		str	r5, [sp, #4]
 130:./Core/Src/usart.c **** 
 299              		.loc 1 130 5 view .LVU84
 300 002e 484B     		ldr	r3, .L29+12
 301 0030 5A6C     		ldr	r2, [r3, #68]
 302 0032 42F01002 		orr	r2, r2, #16
 303 0036 5A64     		str	r2, [r3, #68]
 130:./Core/Src/usart.c **** 
 304              		.loc 1 130 5 view .LVU85
 305 0038 5A6C     		ldr	r2, [r3, #68]
 306 003a 02F01002 		and	r2, r2, #16
 307 003e 0192     		str	r2, [sp, #4]
 130:./Core/Src/usart.c **** 
 308              		.loc 1 130 5 view .LVU86
 309 0040 019A     		ldr	r2, [sp, #4]
 310              	.LBE2:
 130:./Core/Src/usart.c **** 
 311              		.loc 1 130 5 view .LVU87
 132:./Core/Src/usart.c ****     /**USART1 GPIO Configuration
 312              		.loc 1 132 5 view .LVU88
 313              	.LBB3:
 132:./Core/Src/usart.c ****     /**USART1 GPIO Configuration
 314              		.loc 1 132 5 view .LVU89
 315 0042 0295     		str	r5, [sp, #8]
 132:./Core/Src/usart.c ****     /**USART1 GPIO Configuration
 316              		.loc 1 132 5 view .LVU90
 317 0044 1A6B     		ldr	r2, [r3, #48]
 318 0046 42F00102 		orr	r2, r2, #1
 319 004a 1A63     		str	r2, [r3, #48]
 132:./Core/Src/usart.c ****     /**USART1 GPIO Configuration
 320              		.loc 1 132 5 view .LVU91
 321 004c 1B6B     		ldr	r3, [r3, #48]
 322 004e 03F00103 		and	r3, r3, #1
 323 0052 0293     		str	r3, [sp, #8]
 132:./Core/Src/usart.c ****     /**USART1 GPIO Configuration
 324              		.loc 1 132 5 view .LVU92
 325 0054 029B     		ldr	r3, [sp, #8]
 326              	.LBE3:
 132:./Core/Src/usart.c ****     /**USART1 GPIO Configuration
 327              		.loc 1 132 5 view .LVU93
 137:./Core/Src/usart.c ****     GPIO_InitStruct.Mode = GPIO_MODE_AF_PP;
 328              		.loc 1 137 5 view .LVU94
 137:./Core/Src/usart.c ****     GPIO_InitStruct.Mode = GPIO_MODE_AF_PP;
 329              		.loc 1 137 25 is_stmt 0 view .LVU95
 330 0056 4FF4C063 		mov	r3, #1536
 331 005a 0793     		str	r3, [sp, #28]
 138:./Core/Src/usart.c ****     GPIO_InitStruct.Pull = GPIO_NOPULL;
 332              		.loc 1 138 5 is_stmt 1 view .LVU96
 138:./Core/Src/usart.c ****     GPIO_InitStruct.Pull = GPIO_NOPULL;
 333              		.loc 1 138 26 is_stmt 0 view .LVU97
 334 005c 0223     		movs	r3, #2
 335 005e 0893     		str	r3, [sp, #32]
 139:./Core/Src/usart.c ****     GPIO_InitStruct.Speed = GPIO_SPEED_FREQ_VERY_HIGH;
 336              		.loc 1 139 5 is_stmt 1 view .LVU98
 140:./Core/Src/usart.c ****     GPIO_InitStruct.Alternate = GPIO_AF7_USART1;
 337              		.loc 1 140 5 view .LVU99
 140:./Core/Src/usart.c ****     GPIO_InitStruct.Alternate = GPIO_AF7_USART1;
ARM GAS  C:\Users\Dennis\AppData\Local\Temp\ccgstCYt.s 			page 11


 338              		.loc 1 140 27 is_stmt 0 view .LVU100
 339 0060 0323     		movs	r3, #3
 340 0062 0A93     		str	r3, [sp, #40]
 141:./Core/Src/usart.c ****     HAL_GPIO_Init(GPIOA, &GPIO_InitStruct);
 341              		.loc 1 141 5 is_stmt 1 view .LVU101
 141:./Core/Src/usart.c ****     HAL_GPIO_Init(GPIOA, &GPIO_InitStruct);
 342              		.loc 1 141 31 is_stmt 0 view .LVU102
 343 0064 0723     		movs	r3, #7
 344 0066 0B93     		str	r3, [sp, #44]
 142:./Core/Src/usart.c **** 
 345              		.loc 1 142 5 is_stmt 1 view .LVU103
 346 0068 07A9     		add	r1, sp, #28
 347 006a 3A48     		ldr	r0, .L29+16
 348              	.LVL9:
 142:./Core/Src/usart.c **** 
 349              		.loc 1 142 5 is_stmt 0 view .LVU104
 350 006c FFF7FEFF 		bl	HAL_GPIO_Init
 351              	.LVL10:
 146:./Core/Src/usart.c ****     hdma_usart1_rx.Init.Channel = DMA_CHANNEL_4;
 352              		.loc 1 146 5 is_stmt 1 view .LVU105
 146:./Core/Src/usart.c ****     hdma_usart1_rx.Init.Channel = DMA_CHANNEL_4;
 353              		.loc 1 146 29 is_stmt 0 view .LVU106
 354 0070 3948     		ldr	r0, .L29+20
 355 0072 3A4B     		ldr	r3, .L29+24
 356 0074 0360     		str	r3, [r0]
 147:./Core/Src/usart.c ****     hdma_usart1_rx.Init.Direction = DMA_PERIPH_TO_MEMORY;
 357              		.loc 1 147 5 is_stmt 1 view .LVU107
 147:./Core/Src/usart.c ****     hdma_usart1_rx.Init.Direction = DMA_PERIPH_TO_MEMORY;
 358              		.loc 1 147 33 is_stmt 0 view .LVU108
 359 0076 4FF00063 		mov	r3, #134217728
 360 007a 4360     		str	r3, [r0, #4]
 148:./Core/Src/usart.c ****     hdma_usart1_rx.Init.PeriphInc = DMA_PINC_DISABLE;
 361              		.loc 1 148 5 is_stmt 1 view .LVU109
 148:./Core/Src/usart.c ****     hdma_usart1_rx.Init.PeriphInc = DMA_PINC_DISABLE;
 362              		.loc 1 148 35 is_stmt 0 view .LVU110
 363 007c 8560     		str	r5, [r0, #8]
 149:./Core/Src/usart.c ****     hdma_usart1_rx.Init.MemInc = DMA_MINC_ENABLE;
 364              		.loc 1 149 5 is_stmt 1 view .LVU111
 149:./Core/Src/usart.c ****     hdma_usart1_rx.Init.MemInc = DMA_MINC_ENABLE;
 365              		.loc 1 149 35 is_stmt 0 view .LVU112
 366 007e C560     		str	r5, [r0, #12]
 150:./Core/Src/usart.c ****     hdma_usart1_rx.Init.PeriphDataAlignment = DMA_PDATAALIGN_BYTE;
 367              		.loc 1 150 5 is_stmt 1 view .LVU113
 150:./Core/Src/usart.c ****     hdma_usart1_rx.Init.PeriphDataAlignment = DMA_PDATAALIGN_BYTE;
 368              		.loc 1 150 32 is_stmt 0 view .LVU114
 369 0080 4FF48063 		mov	r3, #1024
 370 0084 0361     		str	r3, [r0, #16]
 151:./Core/Src/usart.c ****     hdma_usart1_rx.Init.MemDataAlignment = DMA_MDATAALIGN_BYTE;
 371              		.loc 1 151 5 is_stmt 1 view .LVU115
 151:./Core/Src/usart.c ****     hdma_usart1_rx.Init.MemDataAlignment = DMA_MDATAALIGN_BYTE;
 372              		.loc 1 151 45 is_stmt 0 view .LVU116
 373 0086 4561     		str	r5, [r0, #20]
 152:./Core/Src/usart.c ****     hdma_usart1_rx.Init.Mode = DMA_NORMAL;
 374              		.loc 1 152 5 is_stmt 1 view .LVU117
 152:./Core/Src/usart.c ****     hdma_usart1_rx.Init.Mode = DMA_NORMAL;
 375              		.loc 1 152 42 is_stmt 0 view .LVU118
 376 0088 8561     		str	r5, [r0, #24]
ARM GAS  C:\Users\Dennis\AppData\Local\Temp\ccgstCYt.s 			page 12


 153:./Core/Src/usart.c ****     hdma_usart1_rx.Init.Priority = DMA_PRIORITY_LOW;
 377              		.loc 1 153 5 is_stmt 1 view .LVU119
 153:./Core/Src/usart.c ****     hdma_usart1_rx.Init.Priority = DMA_PRIORITY_LOW;
 378              		.loc 1 153 30 is_stmt 0 view .LVU120
 379 008a C561     		str	r5, [r0, #28]
 154:./Core/Src/usart.c ****     hdma_usart1_rx.Init.FIFOMode = DMA_FIFOMODE_DISABLE;
 380              		.loc 1 154 5 is_stmt 1 view .LVU121
 154:./Core/Src/usart.c ****     hdma_usart1_rx.Init.FIFOMode = DMA_FIFOMODE_DISABLE;
 381              		.loc 1 154 34 is_stmt 0 view .LVU122
 382 008c 0562     		str	r5, [r0, #32]
 155:./Core/Src/usart.c ****     if (HAL_DMA_Init(&hdma_usart1_rx) != HAL_OK)
 383              		.loc 1 155 5 is_stmt 1 view .LVU123
 155:./Core/Src/usart.c ****     if (HAL_DMA_Init(&hdma_usart1_rx) != HAL_OK)
 384              		.loc 1 155 34 is_stmt 0 view .LVU124
 385 008e 4562     		str	r5, [r0, #36]
 156:./Core/Src/usart.c ****     {
 386              		.loc 1 156 5 is_stmt 1 view .LVU125
 156:./Core/Src/usart.c ****     {
 387              		.loc 1 156 9 is_stmt 0 view .LVU126
 388 0090 FFF7FEFF 		bl	HAL_DMA_Init
 389              	.LVL11:
 156:./Core/Src/usart.c ****     {
 390              		.loc 1 156 8 view .LVU127
 391 0094 58B9     		cbnz	r0, .L28
 392              	.L21:
 161:./Core/Src/usart.c **** 
 393              		.loc 1 161 5 is_stmt 1 view .LVU128
 161:./Core/Src/usart.c **** 
 394              		.loc 1 161 5 view .LVU129
 395 0096 304B     		ldr	r3, .L29+20
 396 0098 E363     		str	r3, [r4, #60]
 161:./Core/Src/usart.c **** 
 397              		.loc 1 161 5 view .LVU130
 398 009a 9C63     		str	r4, [r3, #56]
 161:./Core/Src/usart.c **** 
 399              		.loc 1 161 5 view .LVU131
 164:./Core/Src/usart.c ****     HAL_NVIC_EnableIRQ(USART1_IRQn);
 400              		.loc 1 164 5 view .LVU132
 401 009c 0022     		movs	r2, #0
 402 009e 1146     		mov	r1, r2
 403 00a0 2520     		movs	r0, #37
 404 00a2 FFF7FEFF 		bl	HAL_NVIC_SetPriority
 405              	.LVL12:
 165:./Core/Src/usart.c ****   /* USER CODE BEGIN USART1_MspInit 1 */
 406              		.loc 1 165 5 view .LVU133
 407 00a6 2520     		movs	r0, #37
 408 00a8 FFF7FEFF 		bl	HAL_NVIC_EnableIRQ
 409              	.LVL13:
 410 00ac BAE7     		b	.L19
 411              	.L28:
 158:./Core/Src/usart.c ****     }
 412              		.loc 1 158 7 view .LVU134
 413 00ae FFF7FEFF 		bl	Error_Handler
 414              	.LVL14:
 415 00b2 F0E7     		b	.L21
 416              	.LVL15:
 417              	.L26:
ARM GAS  C:\Users\Dennis\AppData\Local\Temp\ccgstCYt.s 			page 13


 176:./Core/Src/usart.c **** 
 418              		.loc 1 176 5 view .LVU135
 419              	.LBB4:
 176:./Core/Src/usart.c **** 
 420              		.loc 1 176 5 view .LVU136
 421 00b4 0021     		movs	r1, #0
 422 00b6 0391     		str	r1, [sp, #12]
 176:./Core/Src/usart.c **** 
 423              		.loc 1 176 5 view .LVU137
 424 00b8 254B     		ldr	r3, .L29+12
 425 00ba 1A6C     		ldr	r2, [r3, #64]
 426 00bc 42F40032 		orr	r2, r2, #131072
 427 00c0 1A64     		str	r2, [r3, #64]
 176:./Core/Src/usart.c **** 
 428              		.loc 1 176 5 view .LVU138
 429 00c2 1A6C     		ldr	r2, [r3, #64]
 430 00c4 02F40032 		and	r2, r2, #131072
 431 00c8 0392     		str	r2, [sp, #12]
 176:./Core/Src/usart.c **** 
 432              		.loc 1 176 5 view .LVU139
 433 00ca 039A     		ldr	r2, [sp, #12]
 434              	.LBE4:
 176:./Core/Src/usart.c **** 
 435              		.loc 1 176 5 view .LVU140
 178:./Core/Src/usart.c ****     /**USART2 GPIO Configuration
 436              		.loc 1 178 5 view .LVU141
 437              	.LBB5:
 178:./Core/Src/usart.c ****     /**USART2 GPIO Configuration
 438              		.loc 1 178 5 view .LVU142
 439 00cc 0491     		str	r1, [sp, #16]
 178:./Core/Src/usart.c ****     /**USART2 GPIO Configuration
 440              		.loc 1 178 5 view .LVU143
 441 00ce 1A6B     		ldr	r2, [r3, #48]
 442 00d0 42F00802 		orr	r2, r2, #8
 443 00d4 1A63     		str	r2, [r3, #48]
 178:./Core/Src/usart.c ****     /**USART2 GPIO Configuration
 444              		.loc 1 178 5 view .LVU144
 445 00d6 1B6B     		ldr	r3, [r3, #48]
 446 00d8 03F00803 		and	r3, r3, #8
 447 00dc 0493     		str	r3, [sp, #16]
 178:./Core/Src/usart.c ****     /**USART2 GPIO Configuration
 448              		.loc 1 178 5 view .LVU145
 449 00de 049B     		ldr	r3, [sp, #16]
 450              	.LBE5:
 178:./Core/Src/usart.c ****     /**USART2 GPIO Configuration
 451              		.loc 1 178 5 view .LVU146
 183:./Core/Src/usart.c ****     GPIO_InitStruct.Mode = GPIO_MODE_AF_PP;
 452              		.loc 1 183 5 view .LVU147
 183:./Core/Src/usart.c ****     GPIO_InitStruct.Mode = GPIO_MODE_AF_PP;
 453              		.loc 1 183 25 is_stmt 0 view .LVU148
 454 00e0 6023     		movs	r3, #96
 455 00e2 0793     		str	r3, [sp, #28]
 184:./Core/Src/usart.c ****     GPIO_InitStruct.Pull = GPIO_NOPULL;
 456              		.loc 1 184 5 is_stmt 1 view .LVU149
 184:./Core/Src/usart.c ****     GPIO_InitStruct.Pull = GPIO_NOPULL;
 457              		.loc 1 184 26 is_stmt 0 view .LVU150
 458 00e4 0223     		movs	r3, #2
ARM GAS  C:\Users\Dennis\AppData\Local\Temp\ccgstCYt.s 			page 14


 459 00e6 0893     		str	r3, [sp, #32]
 185:./Core/Src/usart.c ****     GPIO_InitStruct.Speed = GPIO_SPEED_FREQ_VERY_HIGH;
 460              		.loc 1 185 5 is_stmt 1 view .LVU151
 186:./Core/Src/usart.c ****     GPIO_InitStruct.Alternate = GPIO_AF7_USART2;
 461              		.loc 1 186 5 view .LVU152
 186:./Core/Src/usart.c ****     GPIO_InitStruct.Alternate = GPIO_AF7_USART2;
 462              		.loc 1 186 27 is_stmt 0 view .LVU153
 463 00e8 0323     		movs	r3, #3
 464 00ea 0A93     		str	r3, [sp, #40]
 187:./Core/Src/usart.c ****     HAL_GPIO_Init(GPIOD, &GPIO_InitStruct);
 465              		.loc 1 187 5 is_stmt 1 view .LVU154
 187:./Core/Src/usart.c ****     HAL_GPIO_Init(GPIOD, &GPIO_InitStruct);
 466              		.loc 1 187 31 is_stmt 0 view .LVU155
 467 00ec 0723     		movs	r3, #7
 468 00ee 0B93     		str	r3, [sp, #44]
 188:./Core/Src/usart.c **** 
 469              		.loc 1 188 5 is_stmt 1 view .LVU156
 470 00f0 07A9     		add	r1, sp, #28
 471 00f2 1B48     		ldr	r0, .L29+28
 472              	.LVL16:
 188:./Core/Src/usart.c **** 
 473              		.loc 1 188 5 is_stmt 0 view .LVU157
 474 00f4 FFF7FEFF 		bl	HAL_GPIO_Init
 475              	.LVL17:
 476 00f8 94E7     		b	.L19
 477              	.LVL18:
 478              	.L27:
 200:./Core/Src/usart.c **** 
 479              		.loc 1 200 5 is_stmt 1 view .LVU158
 480              	.LBB6:
 200:./Core/Src/usart.c **** 
 481              		.loc 1 200 5 view .LVU159
 482 00fa 0021     		movs	r1, #0
 483 00fc 0591     		str	r1, [sp, #20]
 200:./Core/Src/usart.c **** 
 484              		.loc 1 200 5 view .LVU160
 485 00fe 144B     		ldr	r3, .L29+12
 486 0100 1A6C     		ldr	r2, [r3, #64]
 487 0102 42F48022 		orr	r2, r2, #262144
 488 0106 1A64     		str	r2, [r3, #64]
 200:./Core/Src/usart.c **** 
 489              		.loc 1 200 5 view .LVU161
 490 0108 1A6C     		ldr	r2, [r3, #64]
 491 010a 02F48022 		and	r2, r2, #262144
 492 010e 0592     		str	r2, [sp, #20]
 200:./Core/Src/usart.c **** 
 493              		.loc 1 200 5 view .LVU162
 494 0110 059A     		ldr	r2, [sp, #20]
 495              	.LBE6:
 200:./Core/Src/usart.c **** 
 496              		.loc 1 200 5 view .LVU163
 202:./Core/Src/usart.c ****     /**USART3 GPIO Configuration
 497              		.loc 1 202 5 view .LVU164
 498              	.LBB7:
 202:./Core/Src/usart.c ****     /**USART3 GPIO Configuration
 499              		.loc 1 202 5 view .LVU165
 500 0112 0691     		str	r1, [sp, #24]
ARM GAS  C:\Users\Dennis\AppData\Local\Temp\ccgstCYt.s 			page 15


 202:./Core/Src/usart.c ****     /**USART3 GPIO Configuration
 501              		.loc 1 202 5 view .LVU166
 502 0114 1A6B     		ldr	r2, [r3, #48]
 503 0116 42F00802 		orr	r2, r2, #8
 504 011a 1A63     		str	r2, [r3, #48]
 202:./Core/Src/usart.c ****     /**USART3 GPIO Configuration
 505              		.loc 1 202 5 view .LVU167
 506 011c 1B6B     		ldr	r3, [r3, #48]
 507 011e 03F00803 		and	r3, r3, #8
 508 0122 0693     		str	r3, [sp, #24]
 202:./Core/Src/usart.c ****     /**USART3 GPIO Configuration
 509              		.loc 1 202 5 view .LVU168
 510 0124 069B     		ldr	r3, [sp, #24]
 511              	.LBE7:
 202:./Core/Src/usart.c ****     /**USART3 GPIO Configuration
 512              		.loc 1 202 5 view .LVU169
 207:./Core/Src/usart.c ****     GPIO_InitStruct.Mode = GPIO_MODE_AF_PP;
 513              		.loc 1 207 5 view .LVU170
 207:./Core/Src/usart.c ****     GPIO_InitStruct.Mode = GPIO_MODE_AF_PP;
 514              		.loc 1 207 25 is_stmt 0 view .LVU171
 515 0126 4FF44073 		mov	r3, #768
 516 012a 0793     		str	r3, [sp, #28]
 208:./Core/Src/usart.c ****     GPIO_InitStruct.Pull = GPIO_NOPULL;
 517              		.loc 1 208 5 is_stmt 1 view .LVU172
 208:./Core/Src/usart.c ****     GPIO_InitStruct.Pull = GPIO_NOPULL;
 518              		.loc 1 208 26 is_stmt 0 view .LVU173
 519 012c 0223     		movs	r3, #2
 520 012e 0893     		str	r3, [sp, #32]
 209:./Core/Src/usart.c ****     GPIO_InitStruct.Speed = GPIO_SPEED_FREQ_VERY_HIGH;
 521              		.loc 1 209 5 is_stmt 1 view .LVU174
 210:./Core/Src/usart.c ****     GPIO_InitStruct.Alternate = GPIO_AF7_USART3;
 522              		.loc 1 210 5 view .LVU175
 210:./Core/Src/usart.c ****     GPIO_InitStruct.Alternate = GPIO_AF7_USART3;
 523              		.loc 1 210 27 is_stmt 0 view .LVU176
 524 0130 0323     		movs	r3, #3
 525 0132 0A93     		str	r3, [sp, #40]
 211:./Core/Src/usart.c ****     HAL_GPIO_Init(GPIOD, &GPIO_InitStruct);
 526              		.loc 1 211 5 is_stmt 1 view .LVU177
 211:./Core/Src/usart.c ****     HAL_GPIO_Init(GPIOD, &GPIO_InitStruct);
 527              		.loc 1 211 31 is_stmt 0 view .LVU178
 528 0134 0723     		movs	r3, #7
 529 0136 0B93     		str	r3, [sp, #44]
 212:./Core/Src/usart.c **** 
 530              		.loc 1 212 5 is_stmt 1 view .LVU179
 531 0138 07A9     		add	r1, sp, #28
 532 013a 0948     		ldr	r0, .L29+28
 533              	.LVL19:
 212:./Core/Src/usart.c **** 
 534              		.loc 1 212 5 is_stmt 0 view .LVU180
 535 013c FFF7FEFF 		bl	HAL_GPIO_Init
 536              	.LVL20:
 537              		.loc 1 218 1 view .LVU181
 538 0140 70E7     		b	.L19
 539              	.L30:
 540 0142 00BF     		.align	2
 541              	.L29:
 542 0144 00100140 		.word	1073811456
ARM GAS  C:\Users\Dennis\AppData\Local\Temp\ccgstCYt.s 			page 16


 543 0148 00440040 		.word	1073759232
 544 014c 00480040 		.word	1073760256
 545 0150 00380240 		.word	1073887232
 546 0154 00000240 		.word	1073872896
 547 0158 00000000 		.word	.LANCHOR3
 548 015c 40640240 		.word	1073898560
 549 0160 000C0240 		.word	1073875968
 550              		.cfi_endproc
 551              	.LFE242:
 553              		.section	.text.HAL_UART_MspDeInit,"ax",%progbits
 554              		.align	1
 555              		.global	HAL_UART_MspDeInit
 556              		.syntax unified
 557              		.thumb
 558              		.thumb_func
 560              	HAL_UART_MspDeInit:
 561              	.LVL21:
 562              	.LFB243:
 219:./Core/Src/usart.c **** 
 220:./Core/Src/usart.c **** void HAL_UART_MspDeInit(UART_HandleTypeDef* uartHandle)
 221:./Core/Src/usart.c **** {
 563              		.loc 1 221 1 is_stmt 1 view -0
 564              		.cfi_startproc
 565              		@ args = 0, pretend = 0, frame = 0
 566              		@ frame_needed = 0, uses_anonymous_args = 0
 567              		.loc 1 221 1 is_stmt 0 view .LVU183
 568 0000 10B5     		push	{r4, lr}
 569              	.LCFI7:
 570              		.cfi_def_cfa_offset 8
 571              		.cfi_offset 4, -8
 572              		.cfi_offset 14, -4
 222:./Core/Src/usart.c **** 
 223:./Core/Src/usart.c ****   if(uartHandle->Instance==USART1)
 573              		.loc 1 223 3 is_stmt 1 view .LVU184
 574              		.loc 1 223 16 is_stmt 0 view .LVU185
 575 0002 0368     		ldr	r3, [r0]
 576              		.loc 1 223 5 view .LVU186
 577 0004 194A     		ldr	r2, .L39
 578 0006 9342     		cmp	r3, r2
 579 0008 06D0     		beq	.L36
 224:./Core/Src/usart.c ****   {
 225:./Core/Src/usart.c ****   /* USER CODE BEGIN USART1_MspDeInit 0 */
 226:./Core/Src/usart.c **** 
 227:./Core/Src/usart.c ****   /* USER CODE END USART1_MspDeInit 0 */
 228:./Core/Src/usart.c ****     /* Peripheral clock disable */
 229:./Core/Src/usart.c ****     __HAL_RCC_USART1_CLK_DISABLE();
 230:./Core/Src/usart.c **** 
 231:./Core/Src/usart.c ****     /**USART1 GPIO Configuration
 232:./Core/Src/usart.c ****     PA9     ------> USART1_TX
 233:./Core/Src/usart.c ****     PA10     ------> USART1_RX
 234:./Core/Src/usart.c ****     */
 235:./Core/Src/usart.c ****     HAL_GPIO_DeInit(GPIOA, GPIO_PIN_9|GPIO_PIN_10);
 236:./Core/Src/usart.c **** 
 237:./Core/Src/usart.c ****     /* USART1 DMA DeInit */
 238:./Core/Src/usart.c ****     HAL_DMA_DeInit(uartHandle->hdmarx);
 239:./Core/Src/usart.c **** 
 240:./Core/Src/usart.c ****     /* USART1 interrupt Deinit */
ARM GAS  C:\Users\Dennis\AppData\Local\Temp\ccgstCYt.s 			page 17


 241:./Core/Src/usart.c ****     HAL_NVIC_DisableIRQ(USART1_IRQn);
 242:./Core/Src/usart.c ****   /* USER CODE BEGIN USART1_MspDeInit 1 */
 243:./Core/Src/usart.c **** 
 244:./Core/Src/usart.c ****   /* USER CODE END USART1_MspDeInit 1 */
 245:./Core/Src/usart.c ****   }
 246:./Core/Src/usart.c ****   else if(uartHandle->Instance==USART2)
 580              		.loc 1 246 8 is_stmt 1 view .LVU187
 581              		.loc 1 246 10 is_stmt 0 view .LVU188
 582 000a 194A     		ldr	r2, .L39+4
 583 000c 9342     		cmp	r3, r2
 584 000e 16D0     		beq	.L37
 247:./Core/Src/usart.c ****   {
 248:./Core/Src/usart.c ****   /* USER CODE BEGIN USART2_MspDeInit 0 */
 249:./Core/Src/usart.c **** 
 250:./Core/Src/usart.c ****   /* USER CODE END USART2_MspDeInit 0 */
 251:./Core/Src/usart.c ****     /* Peripheral clock disable */
 252:./Core/Src/usart.c ****     __HAL_RCC_USART2_CLK_DISABLE();
 253:./Core/Src/usart.c **** 
 254:./Core/Src/usart.c ****     /**USART2 GPIO Configuration
 255:./Core/Src/usart.c ****     PD5     ------> USART2_TX
 256:./Core/Src/usart.c ****     PD6     ------> USART2_RX
 257:./Core/Src/usart.c ****     */
 258:./Core/Src/usart.c ****     HAL_GPIO_DeInit(GPIOD, GPIO_PIN_5|GPIO_PIN_6);
 259:./Core/Src/usart.c **** 
 260:./Core/Src/usart.c ****   /* USER CODE BEGIN USART2_MspDeInit 1 */
 261:./Core/Src/usart.c **** 
 262:./Core/Src/usart.c ****   /* USER CODE END USART2_MspDeInit 1 */
 263:./Core/Src/usart.c ****   }
 264:./Core/Src/usart.c ****   else if(uartHandle->Instance==USART3)
 585              		.loc 1 264 8 is_stmt 1 view .LVU189
 586              		.loc 1 264 10 is_stmt 0 view .LVU190
 587 0010 184A     		ldr	r2, .L39+8
 588 0012 9342     		cmp	r3, r2
 589 0014 1ED0     		beq	.L38
 590              	.LVL22:
 591              	.L31:
 265:./Core/Src/usart.c ****   {
 266:./Core/Src/usart.c ****   /* USER CODE BEGIN USART3_MspDeInit 0 */
 267:./Core/Src/usart.c **** 
 268:./Core/Src/usart.c ****   /* USER CODE END USART3_MspDeInit 0 */
 269:./Core/Src/usart.c ****     /* Peripheral clock disable */
 270:./Core/Src/usart.c ****     __HAL_RCC_USART3_CLK_DISABLE();
 271:./Core/Src/usart.c **** 
 272:./Core/Src/usart.c ****     /**USART3 GPIO Configuration
 273:./Core/Src/usart.c ****     PD8     ------> USART3_TX
 274:./Core/Src/usart.c ****     PD9     ------> USART3_RX
 275:./Core/Src/usart.c ****     */
 276:./Core/Src/usart.c ****     HAL_GPIO_DeInit(GPIOD, GPIO_PIN_8|GPIO_PIN_9);
 277:./Core/Src/usart.c **** 
 278:./Core/Src/usart.c ****   /* USER CODE BEGIN USART3_MspDeInit 1 */
 279:./Core/Src/usart.c **** 
 280:./Core/Src/usart.c ****   /* USER CODE END USART3_MspDeInit 1 */
 281:./Core/Src/usart.c ****   }
 282:./Core/Src/usart.c **** }
 592              		.loc 1 282 1 view .LVU191
 593 0016 10BD     		pop	{r4, pc}
 594              	.LVL23:
ARM GAS  C:\Users\Dennis\AppData\Local\Temp\ccgstCYt.s 			page 18


 595              	.L36:
 596              		.loc 1 282 1 view .LVU192
 597 0018 0446     		mov	r4, r0
 229:./Core/Src/usart.c **** 
 598              		.loc 1 229 5 is_stmt 1 view .LVU193
 599 001a 02F59432 		add	r2, r2, #75776
 600 001e 536C     		ldr	r3, [r2, #68]
 601 0020 23F01003 		bic	r3, r3, #16
 602 0024 5364     		str	r3, [r2, #68]
 235:./Core/Src/usart.c **** 
 603              		.loc 1 235 5 view .LVU194
 604 0026 4FF4C061 		mov	r1, #1536
 605 002a 1348     		ldr	r0, .L39+12
 606              	.LVL24:
 235:./Core/Src/usart.c **** 
 607              		.loc 1 235 5 is_stmt 0 view .LVU195
 608 002c FFF7FEFF 		bl	HAL_GPIO_DeInit
 609              	.LVL25:
 238:./Core/Src/usart.c **** 
 610              		.loc 1 238 5 is_stmt 1 view .LVU196
 611 0030 E06B     		ldr	r0, [r4, #60]
 612 0032 FFF7FEFF 		bl	HAL_DMA_DeInit
 613              	.LVL26:
 241:./Core/Src/usart.c ****   /* USER CODE BEGIN USART1_MspDeInit 1 */
 614              		.loc 1 241 5 view .LVU197
 615 0036 2520     		movs	r0, #37
 616 0038 FFF7FEFF 		bl	HAL_NVIC_DisableIRQ
 617              	.LVL27:
 618 003c EBE7     		b	.L31
 619              	.LVL28:
 620              	.L37:
 252:./Core/Src/usart.c **** 
 621              		.loc 1 252 5 view .LVU198
 622 003e 02F5FA32 		add	r2, r2, #128000
 623 0042 136C     		ldr	r3, [r2, #64]
 624 0044 23F40033 		bic	r3, r3, #131072
 625 0048 1364     		str	r3, [r2, #64]
 258:./Core/Src/usart.c **** 
 626              		.loc 1 258 5 view .LVU199
 627 004a 6021     		movs	r1, #96
 628 004c 0B48     		ldr	r0, .L39+16
 629              	.LVL29:
 258:./Core/Src/usart.c **** 
 630              		.loc 1 258 5 is_stmt 0 view .LVU200
 631 004e FFF7FEFF 		bl	HAL_GPIO_DeInit
 632              	.LVL30:
 633 0052 E0E7     		b	.L31
 634              	.LVL31:
 635              	.L38:
 270:./Core/Src/usart.c **** 
 636              		.loc 1 270 5 is_stmt 1 view .LVU201
 637 0054 02F5F832 		add	r2, r2, #126976
 638 0058 136C     		ldr	r3, [r2, #64]
 639 005a 23F48023 		bic	r3, r3, #262144
 640 005e 1364     		str	r3, [r2, #64]
 276:./Core/Src/usart.c **** 
 641              		.loc 1 276 5 view .LVU202
ARM GAS  C:\Users\Dennis\AppData\Local\Temp\ccgstCYt.s 			page 19


 642 0060 4FF44071 		mov	r1, #768
 643 0064 0548     		ldr	r0, .L39+16
 644              	.LVL32:
 276:./Core/Src/usart.c **** 
 645              		.loc 1 276 5 is_stmt 0 view .LVU203
 646 0066 FFF7FEFF 		bl	HAL_GPIO_DeInit
 647              	.LVL33:
 648              		.loc 1 282 1 view .LVU204
 649 006a D4E7     		b	.L31
 650              	.L40:
 651              		.align	2
 652              	.L39:
 653 006c 00100140 		.word	1073811456
 654 0070 00440040 		.word	1073759232
 655 0074 00480040 		.word	1073760256
 656 0078 00000240 		.word	1073872896
 657 007c 000C0240 		.word	1073875968
 658              		.cfi_endproc
 659              	.LFE243:
 661              		.global	hdma_usart1_rx
 662              		.global	huart3
 663              		.global	huart2
 664              		.global	huart1
 665              		.section	.bss.hdma_usart1_rx,"aw",%nobits
 666              		.align	2
 667              		.set	.LANCHOR3,. + 0
 670              	hdma_usart1_rx:
 671 0000 00000000 		.space	96
 671      00000000 
 671      00000000 
 671      00000000 
 671      00000000 
 672              		.section	.bss.huart1,"aw",%nobits
 673              		.align	2
 674              		.set	.LANCHOR0,. + 0
 677              	huart1:
 678 0000 00000000 		.space	72
 678      00000000 
 678      00000000 
 678      00000000 
 678      00000000 
 679              		.section	.bss.huart2,"aw",%nobits
 680              		.align	2
 681              		.set	.LANCHOR1,. + 0
 684              	huart2:
 685 0000 00000000 		.space	72
 685      00000000 
 685      00000000 
 685      00000000 
 685      00000000 
 686              		.section	.bss.huart3,"aw",%nobits
 687              		.align	2
 688              		.set	.LANCHOR2,. + 0
 691              	huart3:
 692 0000 00000000 		.space	72
 692      00000000 
 692      00000000 
ARM GAS  C:\Users\Dennis\AppData\Local\Temp\ccgstCYt.s 			page 20


 692      00000000 
 692      00000000 
 693              		.text
 694              	.Letext0:
 695              		.file 2 "c:\\software_user\\armgcc\\arm-none-eabi\\include\\machine\\_default_types.h"
 696              		.file 3 "c:\\software_user\\armgcc\\arm-none-eabi\\include\\sys\\_stdint.h"
 697              		.file 4 "./Drivers/CMSIS/Device/ST/STM32F4xx/Include/stm32f407xx.h"
 698              		.file 5 "./Drivers/STM32F4xx_HAL_Driver/Inc/stm32f4xx_hal_def.h"
 699              		.file 6 "./Drivers/STM32F4xx_HAL_Driver/Inc/stm32f4xx_hal_gpio.h"
 700              		.file 7 "./Drivers/STM32F4xx_HAL_Driver/Inc/stm32f4xx_hal_dma.h"
 701              		.file 8 "./Drivers/STM32F4xx_HAL_Driver/Inc/stm32f4xx_hal_uart.h"
 702              		.file 9 "./Core/Inc/usart.h"
 703              		.file 10 "./Drivers/STM32F4xx_HAL_Driver/Inc/stm32f4xx_hal_cortex.h"
 704              		.file 11 "./Core/Inc/main.h"
ARM GAS  C:\Users\Dennis\AppData\Local\Temp\ccgstCYt.s 			page 21

