ARM GAS  C:\Users\Dennis\AppData\Local\Temp\ccCmpaCJ.s 			page 1


   1              		.cpu cortex-m4
   2              		.arch armv7e-m
   3              		.fpu fpv4-sp-d16
   4              		.eabi_attribute 27, 1
   5              		.eabi_attribute 28, 1
   6              		.eabi_attribute 20, 1
   7              		.eabi_attribute 21, 1
   8              		.eabi_attribute 23, 3
   9              		.eabi_attribute 24, 1
  10              		.eabi_attribute 25, 1
  11              		.eabi_attribute 26, 1
  12              		.eabi_attribute 30, 1
  13              		.eabi_attribute 34, 1
  14              		.eabi_attribute 18, 4
  15              		.file	"ux_device_class_dfu_initialize.c"
  16              		.text
  17              	.Ltext0:
  18              		.cfi_sections	.debug_frame
  19              		.section	.rodata._ux_device_class_dfu_initialize.str1.4,"aMS",%progbits,1
  20              		.align	2
  21              	.LC0:
  22 0000 75785F64 		.ascii	"ux_device_class_dfu_event_flag\000"
  22      65766963 
  22      655F636C 
  22      6173735F 
  22      6466755F 
  23 001f 00       		.align	2
  24              	.LC1:
  25 0020 75785F73 		.ascii	"ux_slave_class_dfu_thread\000"
  25      6C617665 
  25      5F636C61 
  25      73735F64 
  25      66755F74 
  26              		.section	.text._ux_device_class_dfu_initialize,"ax",%progbits
  27              		.align	1
  28              		.global	_ux_device_class_dfu_initialize
  29              		.syntax unified
  30              		.thumb
  31              		.thumb_func
  33              	_ux_device_class_dfu_initialize:
  34              	.LVL0:
  35              	.LFB11:
  36              		.file 1 "./Middlewares/ST/usbx/common/usbx_device_classes/src/ux_device_class_dfu_initialize.c"
   1:./Middlewares/ST/usbx/common/usbx_device_classes/src/ux_device_class_dfu_initialize.c **** /**************************************************************************/
   2:./Middlewares/ST/usbx/common/usbx_device_classes/src/ux_device_class_dfu_initialize.c **** /*                                                                        */
   3:./Middlewares/ST/usbx/common/usbx_device_classes/src/ux_device_class_dfu_initialize.c **** /*       Copyright (c) Microsoft Corporation. All rights reserved.        */
   4:./Middlewares/ST/usbx/common/usbx_device_classes/src/ux_device_class_dfu_initialize.c **** /*                                                                        */
   5:./Middlewares/ST/usbx/common/usbx_device_classes/src/ux_device_class_dfu_initialize.c **** /*       This software is licensed under the Microsoft Software License   */
   6:./Middlewares/ST/usbx/common/usbx_device_classes/src/ux_device_class_dfu_initialize.c **** /*       Terms for Microsoft Azure RTOS. Full text of the license can be  */
   7:./Middlewares/ST/usbx/common/usbx_device_classes/src/ux_device_class_dfu_initialize.c **** /*       found in the LICENSE file at https://aka.ms/AzureRTOS_EULA       */
   8:./Middlewares/ST/usbx/common/usbx_device_classes/src/ux_device_class_dfu_initialize.c **** /*       and in the root directory of this software.                      */
   9:./Middlewares/ST/usbx/common/usbx_device_classes/src/ux_device_class_dfu_initialize.c **** /*                                                                        */
  10:./Middlewares/ST/usbx/common/usbx_device_classes/src/ux_device_class_dfu_initialize.c **** /**************************************************************************/
  11:./Middlewares/ST/usbx/common/usbx_device_classes/src/ux_device_class_dfu_initialize.c **** 
  12:./Middlewares/ST/usbx/common/usbx_device_classes/src/ux_device_class_dfu_initialize.c **** /**************************************************************************/
  13:./Middlewares/ST/usbx/common/usbx_device_classes/src/ux_device_class_dfu_initialize.c **** /**                                                                       */ 
  14:./Middlewares/ST/usbx/common/usbx_device_classes/src/ux_device_class_dfu_initialize.c **** /** USBX Component                                                        */ 
ARM GAS  C:\Users\Dennis\AppData\Local\Temp\ccCmpaCJ.s 			page 2


  15:./Middlewares/ST/usbx/common/usbx_device_classes/src/ux_device_class_dfu_initialize.c **** /**                                                                       */
  16:./Middlewares/ST/usbx/common/usbx_device_classes/src/ux_device_class_dfu_initialize.c **** /**   Device DFU Class                                                    */
  17:./Middlewares/ST/usbx/common/usbx_device_classes/src/ux_device_class_dfu_initialize.c **** /**                                                                       */
  18:./Middlewares/ST/usbx/common/usbx_device_classes/src/ux_device_class_dfu_initialize.c **** /**************************************************************************/
  19:./Middlewares/ST/usbx/common/usbx_device_classes/src/ux_device_class_dfu_initialize.c **** /**************************************************************************/
  20:./Middlewares/ST/usbx/common/usbx_device_classes/src/ux_device_class_dfu_initialize.c **** 
  21:./Middlewares/ST/usbx/common/usbx_device_classes/src/ux_device_class_dfu_initialize.c **** #define UX_SOURCE_CODE
  22:./Middlewares/ST/usbx/common/usbx_device_classes/src/ux_device_class_dfu_initialize.c **** 
  23:./Middlewares/ST/usbx/common/usbx_device_classes/src/ux_device_class_dfu_initialize.c **** 
  24:./Middlewares/ST/usbx/common/usbx_device_classes/src/ux_device_class_dfu_initialize.c **** /* Include necessary system files.  */
  25:./Middlewares/ST/usbx/common/usbx_device_classes/src/ux_device_class_dfu_initialize.c **** 
  26:./Middlewares/ST/usbx/common/usbx_device_classes/src/ux_device_class_dfu_initialize.c **** #include "ux_api.h"
  27:./Middlewares/ST/usbx/common/usbx_device_classes/src/ux_device_class_dfu_initialize.c **** #include "ux_device_class_dfu.h"
  28:./Middlewares/ST/usbx/common/usbx_device_classes/src/ux_device_class_dfu_initialize.c **** #include "ux_device_stack.h"
  29:./Middlewares/ST/usbx/common/usbx_device_classes/src/ux_device_class_dfu_initialize.c **** 
  30:./Middlewares/ST/usbx/common/usbx_device_classes/src/ux_device_class_dfu_initialize.c **** 
  31:./Middlewares/ST/usbx/common/usbx_device_classes/src/ux_device_class_dfu_initialize.c **** /**************************************************************************/ 
  32:./Middlewares/ST/usbx/common/usbx_device_classes/src/ux_device_class_dfu_initialize.c **** /*                                                                        */ 
  33:./Middlewares/ST/usbx/common/usbx_device_classes/src/ux_device_class_dfu_initialize.c **** /*  FUNCTION                                               RELEASE        */ 
  34:./Middlewares/ST/usbx/common/usbx_device_classes/src/ux_device_class_dfu_initialize.c **** /*                                                                        */ 
  35:./Middlewares/ST/usbx/common/usbx_device_classes/src/ux_device_class_dfu_initialize.c **** /*    _ux_device_class_dfu_initialize                     PORTABLE C      */ 
  36:./Middlewares/ST/usbx/common/usbx_device_classes/src/ux_device_class_dfu_initialize.c **** /*                                                           6.1.10       */
  37:./Middlewares/ST/usbx/common/usbx_device_classes/src/ux_device_class_dfu_initialize.c **** /*  AUTHOR                                                                */
  38:./Middlewares/ST/usbx/common/usbx_device_classes/src/ux_device_class_dfu_initialize.c **** /*                                                                        */
  39:./Middlewares/ST/usbx/common/usbx_device_classes/src/ux_device_class_dfu_initialize.c **** /*    Chaoqiong Xiao, Microsoft Corporation                               */
  40:./Middlewares/ST/usbx/common/usbx_device_classes/src/ux_device_class_dfu_initialize.c **** /*                                                                        */
  41:./Middlewares/ST/usbx/common/usbx_device_classes/src/ux_device_class_dfu_initialize.c **** /*  DESCRIPTION                                                           */
  42:./Middlewares/ST/usbx/common/usbx_device_classes/src/ux_device_class_dfu_initialize.c **** /*                                                                        */ 
  43:./Middlewares/ST/usbx/common/usbx_device_classes/src/ux_device_class_dfu_initialize.c **** /*    This function initializes the USB DFU device.                       */ 
  44:./Middlewares/ST/usbx/common/usbx_device_classes/src/ux_device_class_dfu_initialize.c **** /*                                                                        */ 
  45:./Middlewares/ST/usbx/common/usbx_device_classes/src/ux_device_class_dfu_initialize.c **** /*  INPUT                                                                 */ 
  46:./Middlewares/ST/usbx/common/usbx_device_classes/src/ux_device_class_dfu_initialize.c **** /*                                                                        */ 
  47:./Middlewares/ST/usbx/common/usbx_device_classes/src/ux_device_class_dfu_initialize.c **** /*    command                               Pointer to dfu command        */ 
  48:./Middlewares/ST/usbx/common/usbx_device_classes/src/ux_device_class_dfu_initialize.c **** /*                                                                        */ 
  49:./Middlewares/ST/usbx/common/usbx_device_classes/src/ux_device_class_dfu_initialize.c **** /*  OUTPUT                                                                */ 
  50:./Middlewares/ST/usbx/common/usbx_device_classes/src/ux_device_class_dfu_initialize.c **** /*                                                                        */ 
  51:./Middlewares/ST/usbx/common/usbx_device_classes/src/ux_device_class_dfu_initialize.c **** /*    Completion Status                                                   */ 
  52:./Middlewares/ST/usbx/common/usbx_device_classes/src/ux_device_class_dfu_initialize.c **** /*                                                                        */ 
  53:./Middlewares/ST/usbx/common/usbx_device_classes/src/ux_device_class_dfu_initialize.c **** /*  CALLS                                                                 */ 
  54:./Middlewares/ST/usbx/common/usbx_device_classes/src/ux_device_class_dfu_initialize.c **** /*                                                                        */ 
  55:./Middlewares/ST/usbx/common/usbx_device_classes/src/ux_device_class_dfu_initialize.c **** /*    _ux_utility_memory_allocate           Allocate memory               */
  56:./Middlewares/ST/usbx/common/usbx_device_classes/src/ux_device_class_dfu_initialize.c **** /*    _ux_utility_memory_free               Free memory                   */
  57:./Middlewares/ST/usbx/common/usbx_device_classes/src/ux_device_class_dfu_initialize.c **** /*    _ux_utility_descriptor_parse          Parse a descriptor            */
  58:./Middlewares/ST/usbx/common/usbx_device_classes/src/ux_device_class_dfu_initialize.c **** /*    _ux_utility_event_flags_create        Create event flags            */
  59:./Middlewares/ST/usbx/common/usbx_device_classes/src/ux_device_class_dfu_initialize.c **** /*    _ux_utility_event_flags_delete        Delete event flags            */
  60:./Middlewares/ST/usbx/common/usbx_device_classes/src/ux_device_class_dfu_initialize.c **** /*    _ux_device_thread_create              Create thread                 */
  61:./Middlewares/ST/usbx/common/usbx_device_classes/src/ux_device_class_dfu_initialize.c **** /*                                                                        */ 
  62:./Middlewares/ST/usbx/common/usbx_device_classes/src/ux_device_class_dfu_initialize.c **** /*  CALLED BY                                                             */ 
  63:./Middlewares/ST/usbx/common/usbx_device_classes/src/ux_device_class_dfu_initialize.c **** /*                                                                        */ 
  64:./Middlewares/ST/usbx/common/usbx_device_classes/src/ux_device_class_dfu_initialize.c **** /*    USBX Source Code                                                    */ 
  65:./Middlewares/ST/usbx/common/usbx_device_classes/src/ux_device_class_dfu_initialize.c **** /*                                                                        */ 
  66:./Middlewares/ST/usbx/common/usbx_device_classes/src/ux_device_class_dfu_initialize.c **** /*  RELEASE HISTORY                                                       */ 
  67:./Middlewares/ST/usbx/common/usbx_device_classes/src/ux_device_class_dfu_initialize.c **** /*                                                                        */ 
  68:./Middlewares/ST/usbx/common/usbx_device_classes/src/ux_device_class_dfu_initialize.c **** /*    DATE              NAME                      DESCRIPTION             */ 
  69:./Middlewares/ST/usbx/common/usbx_device_classes/src/ux_device_class_dfu_initialize.c **** /*                                                                        */ 
  70:./Middlewares/ST/usbx/common/usbx_device_classes/src/ux_device_class_dfu_initialize.c **** /*  05-19-2020     Chaoqiong Xiao           Initial Version 6.0           */
  71:./Middlewares/ST/usbx/common/usbx_device_classes/src/ux_device_class_dfu_initialize.c **** /*  09-30-2020     Chaoqiong Xiao           Modified comment(s),          */
ARM GAS  C:\Users\Dennis\AppData\Local\Temp\ccCmpaCJ.s 			page 3


  72:./Middlewares/ST/usbx/common/usbx_device_classes/src/ux_device_class_dfu_initialize.c **** /*                                            used UX prefix to refer to  */
  73:./Middlewares/ST/usbx/common/usbx_device_classes/src/ux_device_class_dfu_initialize.c **** /*                                            TX symbols instead of using */
  74:./Middlewares/ST/usbx/common/usbx_device_classes/src/ux_device_class_dfu_initialize.c **** /*                                            them directly,              */
  75:./Middlewares/ST/usbx/common/usbx_device_classes/src/ux_device_class_dfu_initialize.c **** /*                                            resulting in version 6.1    */
  76:./Middlewares/ST/usbx/common/usbx_device_classes/src/ux_device_class_dfu_initialize.c **** /*  04-02-2021     Chaoqiong Xiao           Modified comment(s),          */
  77:./Middlewares/ST/usbx/common/usbx_device_classes/src/ux_device_class_dfu_initialize.c **** /*                                            fixed max transfer size,    */
  78:./Middlewares/ST/usbx/common/usbx_device_classes/src/ux_device_class_dfu_initialize.c **** /*                                            added max size limit check, */
  79:./Middlewares/ST/usbx/common/usbx_device_classes/src/ux_device_class_dfu_initialize.c **** /*                                            resulting in version 6.1.6  */
  80:./Middlewares/ST/usbx/common/usbx_device_classes/src/ux_device_class_dfu_initialize.c **** /*  01-31-2022     Chaoqiong Xiao           Modified comment(s),          */
  81:./Middlewares/ST/usbx/common/usbx_device_classes/src/ux_device_class_dfu_initialize.c **** /*                                            added standalone support,   */
  82:./Middlewares/ST/usbx/common/usbx_device_classes/src/ux_device_class_dfu_initialize.c **** /*                                            resulting in version 6.1.10 */
  83:./Middlewares/ST/usbx/common/usbx_device_classes/src/ux_device_class_dfu_initialize.c **** /*                                                                        */
  84:./Middlewares/ST/usbx/common/usbx_device_classes/src/ux_device_class_dfu_initialize.c **** /**************************************************************************/
  85:./Middlewares/ST/usbx/common/usbx_device_classes/src/ux_device_class_dfu_initialize.c **** UINT  _ux_device_class_dfu_initialize(UX_SLAVE_CLASS_COMMAND *command)
  86:./Middlewares/ST/usbx/common/usbx_device_classes/src/ux_device_class_dfu_initialize.c **** {
  37              		.loc 1 86 1 view -0
  38              		.cfi_startproc
  39              		@ args = 0, pretend = 0, frame = 24
  40              		@ frame_needed = 0, uses_anonymous_args = 0
  41              		.loc 1 86 1 is_stmt 0 view .LVU1
  42 0000 F0B5     		push	{r4, r5, r6, r7, lr}
  43              	.LCFI0:
  44              		.cfi_def_cfa_offset 20
  45              		.cfi_offset 4, -20
  46              		.cfi_offset 5, -16
  47              		.cfi_offset 6, -12
  48              		.cfi_offset 7, -8
  49              		.cfi_offset 14, -4
  50 0002 8DB0     		sub	sp, sp, #52
  51              	.LCFI1:
  52              		.cfi_def_cfa_offset 72
  53 0004 0546     		mov	r5, r0
  87:./Middlewares/ST/usbx/common/usbx_device_classes/src/ux_device_class_dfu_initialize.c ****                                           
  88:./Middlewares/ST/usbx/common/usbx_device_classes/src/ux_device_class_dfu_initialize.c **** UX_SLAVE_CLASS_DFU                      *dfu;
  54              		.loc 1 88 1 is_stmt 1 view .LVU2
  89:./Middlewares/ST/usbx/common/usbx_device_classes/src/ux_device_class_dfu_initialize.c **** UX_SLAVE_CLASS_DFU_PARAMETER            *dfu_parameter;
  55              		.loc 1 89 1 view .LVU3
  90:./Middlewares/ST/usbx/common/usbx_device_classes/src/ux_device_class_dfu_initialize.c **** UX_SLAVE_CLASS                          *class;
  56              		.loc 1 90 1 view .LVU4
  91:./Middlewares/ST/usbx/common/usbx_device_classes/src/ux_device_class_dfu_initialize.c **** UINT                                    status;
  57              		.loc 1 91 1 view .LVU5
  92:./Middlewares/ST/usbx/common/usbx_device_classes/src/ux_device_class_dfu_initialize.c **** UX_DFU_FUNCTIONAL_DESCRIPTOR            dfu_functional_descriptor;
  58              		.loc 1 92 1 view .LVU6
  93:./Middlewares/ST/usbx/common/usbx_device_classes/src/ux_device_class_dfu_initialize.c **** UCHAR                                   *dfu_framework; 
  59              		.loc 1 93 1 view .LVU7
  94:./Middlewares/ST/usbx/common/usbx_device_classes/src/ux_device_class_dfu_initialize.c **** ULONG                                   dfu_framework_length;
  60              		.loc 1 94 1 view .LVU8
  95:./Middlewares/ST/usbx/common/usbx_device_classes/src/ux_device_class_dfu_initialize.c **** UCHAR                                   descriptor_type;
  61              		.loc 1 95 1 view .LVU9
  96:./Middlewares/ST/usbx/common/usbx_device_classes/src/ux_device_class_dfu_initialize.c **** ULONG                                   descriptor_length;
  62              		.loc 1 96 1 view .LVU10
  97:./Middlewares/ST/usbx/common/usbx_device_classes/src/ux_device_class_dfu_initialize.c **** 
  98:./Middlewares/ST/usbx/common/usbx_device_classes/src/ux_device_class_dfu_initialize.c ****     /* Get the class container.  */
  99:./Middlewares/ST/usbx/common/usbx_device_classes/src/ux_device_class_dfu_initialize.c ****     class =  command -> ux_slave_class_command_class_ptr;
  63              		.loc 1 99 5 view .LVU11
  64              		.loc 1 99 11 is_stmt 0 view .LVU12
  65 0006 066A     		ldr	r6, [r0, #32]
ARM GAS  C:\Users\Dennis\AppData\Local\Temp\ccCmpaCJ.s 			page 4


  66              	.LVL1:
 100:./Middlewares/ST/usbx/common/usbx_device_classes/src/ux_device_class_dfu_initialize.c **** 
 101:./Middlewares/ST/usbx/common/usbx_device_classes/src/ux_device_class_dfu_initialize.c ****     /* Create an instance of the device dfu class.  */
 102:./Middlewares/ST/usbx/common/usbx_device_classes/src/ux_device_class_dfu_initialize.c ****     dfu =  _ux_utility_memory_allocate(UX_NO_ALIGN, UX_REGULAR_MEMORY, sizeof(UX_SLAVE_CLASS_DFU));
  67              		.loc 1 102 5 is_stmt 1 view .LVU13
  68              		.loc 1 102 12 is_stmt 0 view .LVU14
  69 0008 F822     		movs	r2, #248
  70 000a 0021     		movs	r1, #0
  71 000c 0846     		mov	r0, r1
  72              	.LVL2:
  73              		.loc 1 102 12 view .LVU15
  74 000e FFF7FEFF 		bl	_ux_utility_memory_allocate
  75              	.LVL3:
 103:./Middlewares/ST/usbx/common/usbx_device_classes/src/ux_device_class_dfu_initialize.c **** 
 104:./Middlewares/ST/usbx/common/usbx_device_classes/src/ux_device_class_dfu_initialize.c ****     /* Check for successful allocation.  */
 105:./Middlewares/ST/usbx/common/usbx_device_classes/src/ux_device_class_dfu_initialize.c ****     if (dfu == UX_NULL)
  76              		.loc 1 105 5 is_stmt 1 view .LVU16
  77              		.loc 1 105 8 is_stmt 0 view .LVU17
  78 0012 0028     		cmp	r0, #0
  79 0014 7CD0     		beq	.L12
  80 0016 0446     		mov	r4, r0
 106:./Middlewares/ST/usbx/common/usbx_device_classes/src/ux_device_class_dfu_initialize.c ****         return(UX_MEMORY_INSUFFICIENT);
 107:./Middlewares/ST/usbx/common/usbx_device_classes/src/ux_device_class_dfu_initialize.c **** 
 108:./Middlewares/ST/usbx/common/usbx_device_classes/src/ux_device_class_dfu_initialize.c ****     /* Save the address of the DFU instance inside the DFU container.  */
 109:./Middlewares/ST/usbx/common/usbx_device_classes/src/ux_device_class_dfu_initialize.c ****     class -> ux_slave_class_instance = (VOID *) dfu;
  81              		.loc 1 109 5 is_stmt 1 view .LVU18
  82              		.loc 1 109 38 is_stmt 0 view .LVU19
  83 0018 B064     		str	r0, [r6, #72]
 110:./Middlewares/ST/usbx/common/usbx_device_classes/src/ux_device_class_dfu_initialize.c **** 
 111:./Middlewares/ST/usbx/common/usbx_device_classes/src/ux_device_class_dfu_initialize.c ****     /* Get the pointer to the application parameters for the dfu class.  */
 112:./Middlewares/ST/usbx/common/usbx_device_classes/src/ux_device_class_dfu_initialize.c ****     dfu_parameter =  command -> ux_slave_class_command_parameter;
  84              		.loc 1 112 5 is_stmt 1 view .LVU20
  85              		.loc 1 112 19 is_stmt 0 view .LVU21
  86 001a 6B6A     		ldr	r3, [r5, #36]
  87              	.LVL4:
 113:./Middlewares/ST/usbx/common/usbx_device_classes/src/ux_device_class_dfu_initialize.c **** 
 114:./Middlewares/ST/usbx/common/usbx_device_classes/src/ux_device_class_dfu_initialize.c ****     /* Save the calling parameters in the class instance.  */
 115:./Middlewares/ST/usbx/common/usbx_device_classes/src/ux_device_class_dfu_initialize.c ****     dfu -> ux_slave_class_dfu_instance_activate                 =  dfu_parameter -> ux_slave_class_
  88              		.loc 1 115 5 is_stmt 1 view .LVU22
  89              		.loc 1 115 82 is_stmt 0 view .LVU23
  90 001c 9A68     		ldr	r2, [r3, #8]
  91              		.loc 1 115 65 view .LVU24
  92 001e 8260     		str	r2, [r0, #8]
 116:./Middlewares/ST/usbx/common/usbx_device_classes/src/ux_device_class_dfu_initialize.c ****     dfu -> ux_slave_class_dfu_instance_deactivate               =  dfu_parameter -> ux_slave_class_
  93              		.loc 1 116 5 is_stmt 1 view .LVU25
  94              		.loc 1 116 82 is_stmt 0 view .LVU26
  95 0020 DA68     		ldr	r2, [r3, #12]
  96              		.loc 1 116 65 view .LVU27
  97 0022 C260     		str	r2, [r0, #12]
 117:./Middlewares/ST/usbx/common/usbx_device_classes/src/ux_device_class_dfu_initialize.c ****     dfu -> ux_slave_class_dfu_read                              =  dfu_parameter -> ux_slave_class_
  98              		.loc 1 117 5 is_stmt 1 view .LVU28
  99              		.loc 1 117 82 is_stmt 0 view .LVU29
 100 0024 1A69     		ldr	r2, [r3, #16]
 101              		.loc 1 117 65 view .LVU30
 102 0026 0261     		str	r2, [r0, #16]
 118:./Middlewares/ST/usbx/common/usbx_device_classes/src/ux_device_class_dfu_initialize.c ****     dfu -> ux_slave_class_dfu_write                             =  dfu_parameter -> ux_slave_class_
 103              		.loc 1 118 5 is_stmt 1 view .LVU31
ARM GAS  C:\Users\Dennis\AppData\Local\Temp\ccCmpaCJ.s 			page 5


 104              		.loc 1 118 82 is_stmt 0 view .LVU32
 105 0028 5A69     		ldr	r2, [r3, #20]
 106              		.loc 1 118 65 view .LVU33
 107 002a 4261     		str	r2, [r0, #20]
 119:./Middlewares/ST/usbx/common/usbx_device_classes/src/ux_device_class_dfu_initialize.c ****     dfu -> ux_slave_class_dfu_get_status                        =  dfu_parameter -> ux_slave_class_
 108              		.loc 1 119 5 is_stmt 1 view .LVU34
 109              		.loc 1 119 82 is_stmt 0 view .LVU35
 110 002c 9A69     		ldr	r2, [r3, #24]
 111              		.loc 1 119 65 view .LVU36
 112 002e 8261     		str	r2, [r0, #24]
 120:./Middlewares/ST/usbx/common/usbx_device_classes/src/ux_device_class_dfu_initialize.c ****     dfu -> ux_slave_class_dfu_notify                            =  dfu_parameter -> ux_slave_class_
 113              		.loc 1 120 5 is_stmt 1 view .LVU37
 114              		.loc 1 120 82 is_stmt 0 view .LVU38
 115 0030 DA69     		ldr	r2, [r3, #28]
 116              		.loc 1 120 65 view .LVU39
 117 0032 C261     		str	r2, [r0, #28]
 121:./Middlewares/ST/usbx/common/usbx_device_classes/src/ux_device_class_dfu_initialize.c **** #ifdef UX_DEVICE_CLASS_DFU_CUSTOM_REQUEST_ENABLE
 122:./Middlewares/ST/usbx/common/usbx_device_classes/src/ux_device_class_dfu_initialize.c ****     dfu -> ux_device_class_dfu_custom_request                   =  dfu_parameter -> ux_device_class
 123:./Middlewares/ST/usbx/common/usbx_device_classes/src/ux_device_class_dfu_initialize.c **** #endif
 124:./Middlewares/ST/usbx/common/usbx_device_classes/src/ux_device_class_dfu_initialize.c **** 
 125:./Middlewares/ST/usbx/common/usbx_device_classes/src/ux_device_class_dfu_initialize.c ****     /* Store the device dfu in the project structure.  */
 126:./Middlewares/ST/usbx/common/usbx_device_classes/src/ux_device_class_dfu_initialize.c ****     _ux_system_slave -> ux_system_slave_dfu_framework           =  dfu_parameter -> ux_slave_class_
 118              		.loc 1 126 5 is_stmt 1 view .LVU40
 119              		.loc 1 126 22 is_stmt 0 view .LVU41
 120 0034 374A     		ldr	r2, .L21
 121 0036 1168     		ldr	r1, [r2]
 122              		.loc 1 126 82 view .LVU42
 123 0038 186A     		ldr	r0, [r3, #32]
 124              	.LVL5:
 125              		.loc 1 126 65 view .LVU43
 126 003a C1F85001 		str	r0, [r1, #336]
 127:./Middlewares/ST/usbx/common/usbx_device_classes/src/ux_device_class_dfu_initialize.c ****     _ux_system_slave -> ux_system_slave_dfu_framework_length    =  dfu_parameter -> ux_slave_class_
 127              		.loc 1 127 5 is_stmt 1 view .LVU44
 128              		.loc 1 127 82 is_stmt 0 view .LVU45
 129 003e 5A6A     		ldr	r2, [r3, #36]
 130              		.loc 1 127 65 view .LVU46
 131 0040 C1F85421 		str	r2, [r1, #340]
 128:./Middlewares/ST/usbx/common/usbx_device_classes/src/ux_device_class_dfu_initialize.c **** 
 129:./Middlewares/ST/usbx/common/usbx_device_classes/src/ux_device_class_dfu_initialize.c ****     /* There is a DFU descriptor.  It has a device descriptor, a configuration descriptor,
 130:./Middlewares/ST/usbx/common/usbx_device_classes/src/ux_device_class_dfu_initialize.c ****        an interface descriptor and finally a functional descriptor. */
 131:./Middlewares/ST/usbx/common/usbx_device_classes/src/ux_device_class_dfu_initialize.c ****     dfu_framework        =  _ux_system_slave -> ux_system_slave_dfu_framework;
 132              		.loc 1 131 5 is_stmt 1 view .LVU47
 133              	.LVL6:
 132:./Middlewares/ST/usbx/common/usbx_device_classes/src/ux_device_class_dfu_initialize.c ****     dfu_framework_length =  _ux_system_slave -> ux_system_slave_dfu_framework_length;
 134              		.loc 1 132 5 view .LVU48
 133:./Middlewares/ST/usbx/common/usbx_device_classes/src/ux_device_class_dfu_initialize.c ****     
 134:./Middlewares/ST/usbx/common/usbx_device_classes/src/ux_device_class_dfu_initialize.c ****     /* Parse the device framework and locate interfaces and endpoint descriptor(s).  */
 135:./Middlewares/ST/usbx/common/usbx_device_classes/src/ux_device_class_dfu_initialize.c ****     status = UX_DESCRIPTOR_CORRUPTED;
 135              		.loc 1 135 5 view .LVU49
 136:./Middlewares/ST/usbx/common/usbx_device_classes/src/ux_device_class_dfu_initialize.c ****     while (dfu_framework_length != 0)
 136              		.loc 1 136 5 view .LVU50
 137              	.L3:
 138              		.loc 1 136 11 view .LVU51
 139 0044 02B3     		cbz	r2, .L4
 137:./Middlewares/ST/usbx/common/usbx_device_classes/src/ux_device_class_dfu_initialize.c ****     {
 138:./Middlewares/ST/usbx/common/usbx_device_classes/src/ux_device_class_dfu_initialize.c **** 
 139:./Middlewares/ST/usbx/common/usbx_device_classes/src/ux_device_class_dfu_initialize.c ****         /* Get the length of this descriptor.  */
ARM GAS  C:\Users\Dennis\AppData\Local\Temp\ccCmpaCJ.s 			page 6


 140:./Middlewares/ST/usbx/common/usbx_device_classes/src/ux_device_class_dfu_initialize.c ****         descriptor_length =  (ULONG) *dfu_framework;
 140              		.loc 1 140 9 view .LVU52
 141              		.loc 1 140 38 is_stmt 0 view .LVU53
 142 0046 0378     		ldrb	r3, [r0]	@ zero_extendqisi2
 143              	.LVL7:
 141:./Middlewares/ST/usbx/common/usbx_device_classes/src/ux_device_class_dfu_initialize.c **** 
 142:./Middlewares/ST/usbx/common/usbx_device_classes/src/ux_device_class_dfu_initialize.c ****         /* Length validation.  */
 143:./Middlewares/ST/usbx/common/usbx_device_classes/src/ux_device_class_dfu_initialize.c ****         if (descriptor_length < 2 ||
 144              		.loc 1 143 9 is_stmt 1 view .LVU54
 145              		.loc 1 143 12 is_stmt 0 view .LVU55
 146 0048 012B     		cmp	r3, #1
 147 004a 1DD9     		bls	.L4
 148              		.loc 1 143 35 discriminator 1 view .LVU56
 149 004c 9A42     		cmp	r2, r3
 150 004e 1BD3     		bcc	.L4
 144:./Middlewares/ST/usbx/common/usbx_device_classes/src/ux_device_class_dfu_initialize.c ****             descriptor_length > dfu_framework_length)
 145:./Middlewares/ST/usbx/common/usbx_device_classes/src/ux_device_class_dfu_initialize.c ****             break;
 146:./Middlewares/ST/usbx/common/usbx_device_classes/src/ux_device_class_dfu_initialize.c **** 
 147:./Middlewares/ST/usbx/common/usbx_device_classes/src/ux_device_class_dfu_initialize.c ****         /* And its type.  */
 148:./Middlewares/ST/usbx/common/usbx_device_classes/src/ux_device_class_dfu_initialize.c ****         descriptor_type =  *(dfu_framework + 1);
 151              		.loc 1 148 9 is_stmt 1 view .LVU57
 152              		.loc 1 148 25 is_stmt 0 view .LVU58
 153 0050 4178     		ldrb	r1, [r0, #1]	@ zero_extendqisi2
 154              	.LVL8:
 149:./Middlewares/ST/usbx/common/usbx_device_classes/src/ux_device_class_dfu_initialize.c **** 
 150:./Middlewares/ST/usbx/common/usbx_device_classes/src/ux_device_class_dfu_initialize.c ****         /* Is this the Functional descriptor ?  */
 151:./Middlewares/ST/usbx/common/usbx_device_classes/src/ux_device_class_dfu_initialize.c ****         if (descriptor_type == UX_DFU_FUNCTIONAL_DESCRIPTOR_ITEM)
 155              		.loc 1 151 9 is_stmt 1 view .LVU59
 156              		.loc 1 151 12 is_stmt 0 view .LVU60
 157 0052 2129     		cmp	r1, #33
 158 0054 02D0     		beq	.L17
 152:./Middlewares/ST/usbx/common/usbx_device_classes/src/ux_device_class_dfu_initialize.c ****         {
 153:./Middlewares/ST/usbx/common/usbx_device_classes/src/ux_device_class_dfu_initialize.c **** 
 154:./Middlewares/ST/usbx/common/usbx_device_classes/src/ux_device_class_dfu_initialize.c ****             /* Parse the DFU descriptor in something more readable.  */
 155:./Middlewares/ST/usbx/common/usbx_device_classes/src/ux_device_class_dfu_initialize.c ****             _ux_utility_descriptor_parse(dfu_framework,
 156:./Middlewares/ST/usbx/common/usbx_device_classes/src/ux_device_class_dfu_initialize.c ****                         _ux_system_dfu_functional_descriptor_structure,
 157:./Middlewares/ST/usbx/common/usbx_device_classes/src/ux_device_class_dfu_initialize.c ****                         UX_DFU_FUNCTIONAL_DESCRIPTOR_ENTRIES,
 158:./Middlewares/ST/usbx/common/usbx_device_classes/src/ux_device_class_dfu_initialize.c ****                         (UCHAR *) &dfu_functional_descriptor);
 159:./Middlewares/ST/usbx/common/usbx_device_classes/src/ux_device_class_dfu_initialize.c **** 
 160:./Middlewares/ST/usbx/common/usbx_device_classes/src/ux_device_class_dfu_initialize.c ****             /* Control transfer limit validation.  */
 161:./Middlewares/ST/usbx/common/usbx_device_classes/src/ux_device_class_dfu_initialize.c ****             if (dfu_functional_descriptor.wTransferSize > UX_SLAVE_REQUEST_CONTROL_MAX_LENGTH)
 162:./Middlewares/ST/usbx/common/usbx_device_classes/src/ux_device_class_dfu_initialize.c ****                 break;
 163:./Middlewares/ST/usbx/common/usbx_device_classes/src/ux_device_class_dfu_initialize.c **** 
 164:./Middlewares/ST/usbx/common/usbx_device_classes/src/ux_device_class_dfu_initialize.c ****             /* Retrieve the DFU capabilities and store them in the system.  */
 165:./Middlewares/ST/usbx/common/usbx_device_classes/src/ux_device_class_dfu_initialize.c ****             _ux_system_slave -> ux_system_slave_device_dfu_capabilities = dfu_functional_descriptor
 166:./Middlewares/ST/usbx/common/usbx_device_classes/src/ux_device_class_dfu_initialize.c ****             
 167:./Middlewares/ST/usbx/common/usbx_device_classes/src/ux_device_class_dfu_initialize.c ****             /* Retrieve the DFU timeout value. */
 168:./Middlewares/ST/usbx/common/usbx_device_classes/src/ux_device_class_dfu_initialize.c ****             _ux_system_slave -> ux_system_slave_device_dfu_detach_timeout = dfu_functional_descript
 169:./Middlewares/ST/usbx/common/usbx_device_classes/src/ux_device_class_dfu_initialize.c ****             
 170:./Middlewares/ST/usbx/common/usbx_device_classes/src/ux_device_class_dfu_initialize.c ****             /* Retrieve the DFU transfer size value. */
 171:./Middlewares/ST/usbx/common/usbx_device_classes/src/ux_device_class_dfu_initialize.c ****             _ux_system_slave -> ux_system_slave_device_dfu_transfer_size = dfu_functional_descripto
 172:./Middlewares/ST/usbx/common/usbx_device_classes/src/ux_device_class_dfu_initialize.c **** 
 173:./Middlewares/ST/usbx/common/usbx_device_classes/src/ux_device_class_dfu_initialize.c ****             /* In the system, state the DFU state machine.  */
 174:./Middlewares/ST/usbx/common/usbx_device_classes/src/ux_device_class_dfu_initialize.c ****             _ux_system_slave -> ux_system_slave_device_dfu_state_machine = UX_SYSTEM_DFU_STATE_APP_
 175:./Middlewares/ST/usbx/common/usbx_device_classes/src/ux_device_class_dfu_initialize.c **** 
 176:./Middlewares/ST/usbx/common/usbx_device_classes/src/ux_device_class_dfu_initialize.c ****             /* DFU descriptor parsed, done.  */
 177:./Middlewares/ST/usbx/common/usbx_device_classes/src/ux_device_class_dfu_initialize.c ****             status = UX_SUCCESS;
ARM GAS  C:\Users\Dennis\AppData\Local\Temp\ccCmpaCJ.s 			page 7


 178:./Middlewares/ST/usbx/common/usbx_device_classes/src/ux_device_class_dfu_initialize.c ****             break;
 179:./Middlewares/ST/usbx/common/usbx_device_classes/src/ux_device_class_dfu_initialize.c ****         }
 180:./Middlewares/ST/usbx/common/usbx_device_classes/src/ux_device_class_dfu_initialize.c **** 
 181:./Middlewares/ST/usbx/common/usbx_device_classes/src/ux_device_class_dfu_initialize.c ****         /* Adjust what is left of the device framework.  */
 182:./Middlewares/ST/usbx/common/usbx_device_classes/src/ux_device_class_dfu_initialize.c ****         dfu_framework_length -=  descriptor_length;
 159              		.loc 1 182 9 is_stmt 1 view .LVU61
 160              		.loc 1 182 30 is_stmt 0 view .LVU62
 161 0056 D21A     		subs	r2, r2, r3
 162              	.LVL9:
 183:./Middlewares/ST/usbx/common/usbx_device_classes/src/ux_device_class_dfu_initialize.c **** 
 184:./Middlewares/ST/usbx/common/usbx_device_classes/src/ux_device_class_dfu_initialize.c ****         /* Point to the next descriptor.  */
 185:./Middlewares/ST/usbx/common/usbx_device_classes/src/ux_device_class_dfu_initialize.c ****         dfu_framework +=  descriptor_length;
 163              		.loc 1 185 9 is_stmt 1 view .LVU63
 164              		.loc 1 185 23 is_stmt 0 view .LVU64
 165 0058 1844     		add	r0, r0, r3
 166              	.LVL10:
 167              		.loc 1 185 23 view .LVU65
 168 005a F3E7     		b	.L3
 169              	.L17:
 155:./Middlewares/ST/usbx/common/usbx_device_classes/src/ux_device_class_dfu_initialize.c ****                         _ux_system_dfu_functional_descriptor_structure,
 170              		.loc 1 155 13 is_stmt 1 view .LVU66
 171 005c 06AB     		add	r3, sp, #24
 172              	.LVL11:
 155:./Middlewares/ST/usbx/common/usbx_device_classes/src/ux_device_class_dfu_initialize.c ****                         _ux_system_dfu_functional_descriptor_structure,
 173              		.loc 1 155 13 is_stmt 0 view .LVU67
 174 005e 0622     		movs	r2, #6
 175              	.LVL12:
 155:./Middlewares/ST/usbx/common/usbx_device_classes/src/ux_device_class_dfu_initialize.c ****                         _ux_system_dfu_functional_descriptor_structure,
 176              		.loc 1 155 13 view .LVU68
 177 0060 2D49     		ldr	r1, .L21+4
 178              	.LVL13:
 155:./Middlewares/ST/usbx/common/usbx_device_classes/src/ux_device_class_dfu_initialize.c ****                         _ux_system_dfu_functional_descriptor_structure,
 179              		.loc 1 155 13 view .LVU69
 180 0062 FFF7FEFF 		bl	_ux_utility_descriptor_parse
 181              	.LVL14:
 161:./Middlewares/ST/usbx/common/usbx_device_classes/src/ux_device_class_dfu_initialize.c ****                 break;
 182              		.loc 1 161 13 is_stmt 1 view .LVU70
 161:./Middlewares/ST/usbx/common/usbx_device_classes/src/ux_device_class_dfu_initialize.c ****                 break;
 183              		.loc 1 161 42 is_stmt 0 view .LVU71
 184 0066 0A9B     		ldr	r3, [sp, #40]
 161:./Middlewares/ST/usbx/common/usbx_device_classes/src/ux_device_class_dfu_initialize.c ****                 break;
 185              		.loc 1 161 16 view .LVU72
 186 0068 B3F5807F 		cmp	r3, #256
 187 006c 0CD8     		bhi	.L4
 165:./Middlewares/ST/usbx/common/usbx_device_classes/src/ux_device_class_dfu_initialize.c ****             
 188              		.loc 1 165 13 is_stmt 1 view .LVU73
 165:./Middlewares/ST/usbx/common/usbx_device_classes/src/ux_device_class_dfu_initialize.c ****             
 189              		.loc 1 165 30 is_stmt 0 view .LVU74
 190 006e 294A     		ldr	r2, .L21
 191 0070 1268     		ldr	r2, [r2]
 165:./Middlewares/ST/usbx/common/usbx_device_classes/src/ux_device_class_dfu_initialize.c ****             
 192              		.loc 1 165 100 view .LVU75
 193 0072 0899     		ldr	r1, [sp, #32]
 165:./Middlewares/ST/usbx/common/usbx_device_classes/src/ux_device_class_dfu_initialize.c ****             
 194              		.loc 1 165 73 view .LVU76
 195 0074 C2F8AC11 		str	r1, [r2, #428]
 168:./Middlewares/ST/usbx/common/usbx_device_classes/src/ux_device_class_dfu_initialize.c ****             
ARM GAS  C:\Users\Dennis\AppData\Local\Temp\ccCmpaCJ.s 			page 8


 196              		.loc 1 168 13 is_stmt 1 view .LVU77
 168:./Middlewares/ST/usbx/common/usbx_device_classes/src/ux_device_class_dfu_initialize.c ****             
 197              		.loc 1 168 102 is_stmt 0 view .LVU78
 198 0078 0999     		ldr	r1, [sp, #36]
 168:./Middlewares/ST/usbx/common/usbx_device_classes/src/ux_device_class_dfu_initialize.c ****             
 199              		.loc 1 168 75 view .LVU79
 200 007a C2F8B011 		str	r1, [r2, #432]
 171:./Middlewares/ST/usbx/common/usbx_device_classes/src/ux_device_class_dfu_initialize.c **** 
 201              		.loc 1 171 13 is_stmt 1 view .LVU80
 171:./Middlewares/ST/usbx/common/usbx_device_classes/src/ux_device_class_dfu_initialize.c **** 
 202              		.loc 1 171 74 is_stmt 0 view .LVU81
 203 007e C2F8B431 		str	r3, [r2, #436]
 174:./Middlewares/ST/usbx/common/usbx_device_classes/src/ux_device_class_dfu_initialize.c **** 
 204              		.loc 1 174 13 is_stmt 1 view .LVU82
 174:./Middlewares/ST/usbx/common/usbx_device_classes/src/ux_device_class_dfu_initialize.c **** 
 205              		.loc 1 174 74 is_stmt 0 view .LVU83
 206 0082 0023     		movs	r3, #0
 207 0084 C2F8B831 		str	r3, [r2, #440]
 177:./Middlewares/ST/usbx/common/usbx_device_classes/src/ux_device_class_dfu_initialize.c ****             break;
 208              		.loc 1 177 13 is_stmt 1 view .LVU84
 209              	.LVL15:
 178:./Middlewares/ST/usbx/common/usbx_device_classes/src/ux_device_class_dfu_initialize.c ****         }
 210              		.loc 1 178 13 view .LVU85
 211              	.L4:
 186:./Middlewares/ST/usbx/common/usbx_device_classes/src/ux_device_class_dfu_initialize.c **** 
 187:./Middlewares/ST/usbx/common/usbx_device_classes/src/ux_device_class_dfu_initialize.c ****     }
 188:./Middlewares/ST/usbx/common/usbx_device_classes/src/ux_device_class_dfu_initialize.c **** 
 189:./Middlewares/ST/usbx/common/usbx_device_classes/src/ux_device_class_dfu_initialize.c **** #if !defined(UX_DEVICE_STANDALONE)
 190:./Middlewares/ST/usbx/common/usbx_device_classes/src/ux_device_class_dfu_initialize.c **** 
 191:./Middlewares/ST/usbx/common/usbx_device_classes/src/ux_device_class_dfu_initialize.c ****     /* Create a event flag group for the dfu class to synchronize with the event interrupt thread. 
 192:./Middlewares/ST/usbx/common/usbx_device_classes/src/ux_device_class_dfu_initialize.c ****     status =  _ux_utility_event_flags_create(&dfu -> ux_slave_class_dfu_event_flags_group, "ux_devi
 212              		.loc 1 192 5 view .LVU86
 213              		.loc 1 192 15 is_stmt 0 view .LVU87
 214 0088 04F1D407 		add	r7, r4, #212
 215 008c 2349     		ldr	r1, .L21+8
 216 008e 3846     		mov	r0, r7
 217 0090 FFF7FEFF 		bl	_ux_utility_event_flags_create
 218              	.LVL16:
 193:./Middlewares/ST/usbx/common/usbx_device_classes/src/ux_device_class_dfu_initialize.c **** 
 194:./Middlewares/ST/usbx/common/usbx_device_classes/src/ux_device_class_dfu_initialize.c ****     /* Check status.  */
 195:./Middlewares/ST/usbx/common/usbx_device_classes/src/ux_device_class_dfu_initialize.c ****     if (status != UX_SUCCESS)
 219              		.loc 1 195 5 is_stmt 1 view .LVU88
 220              		.loc 1 195 8 is_stmt 0 view .LVU89
 221 0094 0546     		mov	r5, r0
 222              	.LVL17:
 223              		.loc 1 195 8 view .LVU90
 224 0096 90B1     		cbz	r0, .L18
 196:./Middlewares/ST/usbx/common/usbx_device_classes/src/ux_device_class_dfu_initialize.c ****         status = UX_EVENT_ERROR;
 225              		.loc 1 196 16 view .LVU91
 226 0098 1825     		movs	r5, #24
 227              	.LVL18:
 228              	.L7:
 197:./Middlewares/ST/usbx/common/usbx_device_classes/src/ux_device_class_dfu_initialize.c ****     
 198:./Middlewares/ST/usbx/common/usbx_device_classes/src/ux_device_class_dfu_initialize.c ****     /* Allocate some memory for the dfu thread stack. */
 199:./Middlewares/ST/usbx/common/usbx_device_classes/src/ux_device_class_dfu_initialize.c ****     if (status == UX_SUCCESS)
 200:./Middlewares/ST/usbx/common/usbx_device_classes/src/ux_device_class_dfu_initialize.c ****     {
 201:./Middlewares/ST/usbx/common/usbx_device_classes/src/ux_device_class_dfu_initialize.c ****         dfu -> ux_slave_class_dfu_thread_stack =  
ARM GAS  C:\Users\Dennis\AppData\Local\Temp\ccCmpaCJ.s 			page 9


 202:./Middlewares/ST/usbx/common/usbx_device_classes/src/ux_device_class_dfu_initialize.c ****                 _ux_utility_memory_allocate(UX_NO_ALIGN, UX_REGULAR_MEMORY, UX_THREAD_STACK_SIZE);
 203:./Middlewares/ST/usbx/common/usbx_device_classes/src/ux_device_class_dfu_initialize.c ****         
 204:./Middlewares/ST/usbx/common/usbx_device_classes/src/ux_device_class_dfu_initialize.c ****         /* Check for successful allocation.  */
 205:./Middlewares/ST/usbx/common/usbx_device_classes/src/ux_device_class_dfu_initialize.c ****         if (dfu -> ux_slave_class_dfu_thread_stack  == UX_NULL)
 206:./Middlewares/ST/usbx/common/usbx_device_classes/src/ux_device_class_dfu_initialize.c ****             status = UX_MEMORY_INSUFFICIENT;
 207:./Middlewares/ST/usbx/common/usbx_device_classes/src/ux_device_class_dfu_initialize.c ****     }
 208:./Middlewares/ST/usbx/common/usbx_device_classes/src/ux_device_class_dfu_initialize.c **** 
 209:./Middlewares/ST/usbx/common/usbx_device_classes/src/ux_device_class_dfu_initialize.c ****     /* dfu needs a thread to watch for disconnect and timer event for the DFU_DETACH sequence.  */
 210:./Middlewares/ST/usbx/common/usbx_device_classes/src/ux_device_class_dfu_initialize.c ****     if (status == UX_SUCCESS)
 229              		.loc 1 210 5 is_stmt 1 view .LVU92
 230              		.loc 1 210 8 is_stmt 0 view .LVU93
 231 009a E5B1     		cbz	r5, .L19
 232              	.LVL19:
 233              	.L8:
 211:./Middlewares/ST/usbx/common/usbx_device_classes/src/ux_device_class_dfu_initialize.c ****     {
 212:./Middlewares/ST/usbx/common/usbx_device_classes/src/ux_device_class_dfu_initialize.c ****         status =  _ux_device_thread_create(&dfu -> ux_slave_class_dfu_thread , "ux_slave_class_dfu_
 213:./Middlewares/ST/usbx/common/usbx_device_classes/src/ux_device_class_dfu_initialize.c ****                     _ux_device_class_dfu_thread,
 214:./Middlewares/ST/usbx/common/usbx_device_classes/src/ux_device_class_dfu_initialize.c ****                     (ULONG) (ALIGN_TYPE) class, (VOID *) dfu -> ux_slave_class_dfu_thread_stack,
 215:./Middlewares/ST/usbx/common/usbx_device_classes/src/ux_device_class_dfu_initialize.c ****                     UX_THREAD_STACK_SIZE, UX_THREAD_PRIORITY_CLASS,
 216:./Middlewares/ST/usbx/common/usbx_device_classes/src/ux_device_class_dfu_initialize.c ****                     UX_THREAD_PRIORITY_CLASS, UX_NO_TIME_SLICE, UX_AUTO_START);
 217:./Middlewares/ST/usbx/common/usbx_device_classes/src/ux_device_class_dfu_initialize.c **** 
 218:./Middlewares/ST/usbx/common/usbx_device_classes/src/ux_device_class_dfu_initialize.c ****         /* Check the creation of this thread.  */
 219:./Middlewares/ST/usbx/common/usbx_device_classes/src/ux_device_class_dfu_initialize.c ****         if (status != UX_SUCCESS)
 220:./Middlewares/ST/usbx/common/usbx_device_classes/src/ux_device_class_dfu_initialize.c ****             status = UX_THREAD_ERROR;
 221:./Middlewares/ST/usbx/common/usbx_device_classes/src/ux_device_class_dfu_initialize.c ****     }
 222:./Middlewares/ST/usbx/common/usbx_device_classes/src/ux_device_class_dfu_initialize.c **** 
 223:./Middlewares/ST/usbx/common/usbx_device_classes/src/ux_device_class_dfu_initialize.c ****     UX_THREAD_EXTENSION_PTR_SET(&(dfu -> ux_slave_class_dfu_thread), class)
 224:./Middlewares/ST/usbx/common/usbx_device_classes/src/ux_device_class_dfu_initialize.c **** #else
 225:./Middlewares/ST/usbx/common/usbx_device_classes/src/ux_device_class_dfu_initialize.c **** 
 226:./Middlewares/ST/usbx/common/usbx_device_classes/src/ux_device_class_dfu_initialize.c ****     /* Set task function.  */
 227:./Middlewares/ST/usbx/common/usbx_device_classes/src/ux_device_class_dfu_initialize.c ****     class -> ux_slave_class_task_function = _ux_device_class_dfu_tasks_run;
 228:./Middlewares/ST/usbx/common/usbx_device_classes/src/ux_device_class_dfu_initialize.c **** #endif
 229:./Middlewares/ST/usbx/common/usbx_device_classes/src/ux_device_class_dfu_initialize.c **** 
 230:./Middlewares/ST/usbx/common/usbx_device_classes/src/ux_device_class_dfu_initialize.c ****     /* Return completion status.  */
 231:./Middlewares/ST/usbx/common/usbx_device_classes/src/ux_device_class_dfu_initialize.c ****     if (status == UX_SUCCESS)
 234              		.loc 1 231 5 is_stmt 1 view .LVU94
 235              		.loc 1 231 8 is_stmt 0 view .LVU95
 236 009c 65B1     		cbz	r5, .L1
 237              	.LVL20:
 238              	.L9:
 232:./Middlewares/ST/usbx/common/usbx_device_classes/src/ux_device_class_dfu_initialize.c ****         return(UX_SUCCESS);
 233:./Middlewares/ST/usbx/common/usbx_device_classes/src/ux_device_class_dfu_initialize.c ****     
 234:./Middlewares/ST/usbx/common/usbx_device_classes/src/ux_device_class_dfu_initialize.c ****     /* There is error, free resources.  */
 235:./Middlewares/ST/usbx/common/usbx_device_classes/src/ux_device_class_dfu_initialize.c **** 
 236:./Middlewares/ST/usbx/common/usbx_device_classes/src/ux_device_class_dfu_initialize.c **** #if !defined(UX_DEVICE_STANDALONE)
 237:./Middlewares/ST/usbx/common/usbx_device_classes/src/ux_device_class_dfu_initialize.c **** 
 238:./Middlewares/ST/usbx/common/usbx_device_classes/src/ux_device_class_dfu_initialize.c ****     /* The last resource, thread is not created or created error, no need to free.  */
 239:./Middlewares/ST/usbx/common/usbx_device_classes/src/ux_device_class_dfu_initialize.c ****     if (dfu -> ux_slave_class_dfu_thread_stack)
 239              		.loc 1 239 5 is_stmt 1 view .LVU96
 240              		.loc 1 239 13 is_stmt 0 view .LVU97
 241 009e D4F8D000 		ldr	r0, [r4, #208]
 242              		.loc 1 239 8 view .LVU98
 243 00a2 08B1     		cbz	r0, .L10
 240:./Middlewares/ST/usbx/common/usbx_device_classes/src/ux_device_class_dfu_initialize.c ****         _ux_utility_memory_free(dfu -> ux_slave_class_dfu_thread_stack);
 244              		.loc 1 240 9 is_stmt 1 view .LVU99
 245 00a4 FFF7FEFF 		bl	_ux_utility_memory_free
 246              	.LVL21:
ARM GAS  C:\Users\Dennis\AppData\Local\Temp\ccCmpaCJ.s 			page 10


 247              	.L10:
 241:./Middlewares/ST/usbx/common/usbx_device_classes/src/ux_device_class_dfu_initialize.c ****     if (dfu -> ux_slave_class_dfu_event_flags_group.tx_event_flags_group_id != 0)
 248              		.loc 1 241 5 view .LVU100
 249              		.loc 1 241 52 is_stmt 0 view .LVU101
 250 00a8 D4F8D430 		ldr	r3, [r4, #212]
 251              		.loc 1 241 8 view .LVU102
 252 00ac 63BB     		cbnz	r3, .L20
 253              	.L11:
 242:./Middlewares/ST/usbx/common/usbx_device_classes/src/ux_device_class_dfu_initialize.c ****         _ux_utility_event_flags_delete(&dfu -> ux_slave_class_dfu_event_flags_group);
 243:./Middlewares/ST/usbx/common/usbx_device_classes/src/ux_device_class_dfu_initialize.c **** #endif
 244:./Middlewares/ST/usbx/common/usbx_device_classes/src/ux_device_class_dfu_initialize.c **** 
 245:./Middlewares/ST/usbx/common/usbx_device_classes/src/ux_device_class_dfu_initialize.c ****     /* Detach from container and free instance memory.  */
 246:./Middlewares/ST/usbx/common/usbx_device_classes/src/ux_device_class_dfu_initialize.c ****     class -> ux_slave_class_instance = UX_NULL;
 254              		.loc 1 246 5 is_stmt 1 view .LVU103
 255              		.loc 1 246 38 is_stmt 0 view .LVU104
 256 00ae 0023     		movs	r3, #0
 257 00b0 B364     		str	r3, [r6, #72]
 247:./Middlewares/ST/usbx/common/usbx_device_classes/src/ux_device_class_dfu_initialize.c ****     _ux_utility_memory_free(dfu);
 258              		.loc 1 247 5 is_stmt 1 view .LVU105
 259 00b2 2046     		mov	r0, r4
 260 00b4 FFF7FEFF 		bl	_ux_utility_memory_free
 261              	.LVL22:
 248:./Middlewares/ST/usbx/common/usbx_device_classes/src/ux_device_class_dfu_initialize.c **** 
 249:./Middlewares/ST/usbx/common/usbx_device_classes/src/ux_device_class_dfu_initialize.c ****     return(status);
 262              		.loc 1 249 5 view .LVU106
 263              	.L1:
 250:./Middlewares/ST/usbx/common/usbx_device_classes/src/ux_device_class_dfu_initialize.c **** }
 264              		.loc 1 250 1 is_stmt 0 view .LVU107
 265 00b8 2846     		mov	r0, r5
 266 00ba 0DB0     		add	sp, sp, #52
 267              	.LCFI2:
 268              		.cfi_remember_state
 269              		.cfi_def_cfa_offset 20
 270              		@ sp needed
 271 00bc F0BD     		pop	{r4, r5, r6, r7, pc}
 272              	.LVL23:
 273              	.L18:
 274              	.LCFI3:
 275              		.cfi_restore_state
 199:./Middlewares/ST/usbx/common/usbx_device_classes/src/ux_device_class_dfu_initialize.c ****     {
 276              		.loc 1 199 5 is_stmt 1 view .LVU108
 201:./Middlewares/ST/usbx/common/usbx_device_classes/src/ux_device_class_dfu_initialize.c ****                 _ux_utility_memory_allocate(UX_NO_ALIGN, UX_REGULAR_MEMORY, UX_THREAD_STACK_SIZE);
 277              		.loc 1 201 9 view .LVU109
 202:./Middlewares/ST/usbx/common/usbx_device_classes/src/ux_device_class_dfu_initialize.c ****         
 278              		.loc 1 202 17 is_stmt 0 view .LVU110
 279 00be 4FF48062 		mov	r2, #1024
 280 00c2 0021     		movs	r1, #0
 281 00c4 0846     		mov	r0, r1
 282              	.LVL24:
 202:./Middlewares/ST/usbx/common/usbx_device_classes/src/ux_device_class_dfu_initialize.c ****         
 283              		.loc 1 202 17 view .LVU111
 284 00c6 FFF7FEFF 		bl	_ux_utility_memory_allocate
 285              	.LVL25:
 201:./Middlewares/ST/usbx/common/usbx_device_classes/src/ux_device_class_dfu_initialize.c ****                 _ux_utility_memory_allocate(UX_NO_ALIGN, UX_REGULAR_MEMORY, UX_THREAD_STACK_SIZE);
 286              		.loc 1 201 48 view .LVU112
 287 00ca C4F8D000 		str	r0, [r4, #208]
 205:./Middlewares/ST/usbx/common/usbx_device_classes/src/ux_device_class_dfu_initialize.c ****             status = UX_MEMORY_INSUFFICIENT;
ARM GAS  C:\Users\Dennis\AppData\Local\Temp\ccCmpaCJ.s 			page 11


 288              		.loc 1 205 9 is_stmt 1 view .LVU113
 205:./Middlewares/ST/usbx/common/usbx_device_classes/src/ux_device_class_dfu_initialize.c ****             status = UX_MEMORY_INSUFFICIENT;
 289              		.loc 1 205 12 is_stmt 0 view .LVU114
 290 00ce 0028     		cmp	r0, #0
 291 00d0 E3D1     		bne	.L7
 206:./Middlewares/ST/usbx/common/usbx_device_classes/src/ux_device_class_dfu_initialize.c ****     }
 292              		.loc 1 206 20 view .LVU115
 293 00d2 1225     		movs	r5, #18
 294              	.LVL26:
 206:./Middlewares/ST/usbx/common/usbx_device_classes/src/ux_device_class_dfu_initialize.c ****     }
 295              		.loc 1 206 20 view .LVU116
 296 00d4 E2E7     		b	.L8
 297              	.LVL27:
 298              	.L19:
 212:./Middlewares/ST/usbx/common/usbx_device_classes/src/ux_device_class_dfu_initialize.c ****                     _ux_device_class_dfu_thread,
 299              		.loc 1 212 9 is_stmt 1 view .LVU117
 214:./Middlewares/ST/usbx/common/usbx_device_classes/src/ux_device_class_dfu_initialize.c ****                     UX_THREAD_STACK_SIZE, UX_THREAD_PRIORITY_CLASS,
 300              		.loc 1 214 62 is_stmt 0 view .LVU118
 301 00d6 D4F8D020 		ldr	r2, [r4, #208]
 212:./Middlewares/ST/usbx/common/usbx_device_classes/src/ux_device_class_dfu_initialize.c ****                     _ux_device_class_dfu_thread,
 302              		.loc 1 212 19 view .LVU119
 303 00da 0123     		movs	r3, #1
 304 00dc 0593     		str	r3, [sp, #20]
 305 00de 0023     		movs	r3, #0
 306 00e0 0493     		str	r3, [sp, #16]
 307 00e2 1423     		movs	r3, #20
 308 00e4 0393     		str	r3, [sp, #12]
 309 00e6 0293     		str	r3, [sp, #8]
 310 00e8 4FF48063 		mov	r3, #1024
 311 00ec 0193     		str	r3, [sp, #4]
 312 00ee 0092     		str	r2, [sp]
 313 00f0 3346     		mov	r3, r6
 314 00f2 0B4A     		ldr	r2, .L21+12
 315 00f4 0B49     		ldr	r1, .L21+16
 316 00f6 04F12000 		add	r0, r4, #32
 317 00fa FFF7FEFF 		bl	_ux_utility_thread_create
 318              	.LVL28:
 219:./Middlewares/ST/usbx/common/usbx_device_classes/src/ux_device_class_dfu_initialize.c ****             status = UX_THREAD_ERROR;
 319              		.loc 1 219 9 is_stmt 1 view .LVU120
 219:./Middlewares/ST/usbx/common/usbx_device_classes/src/ux_device_class_dfu_initialize.c ****             status = UX_THREAD_ERROR;
 320              		.loc 1 219 12 is_stmt 0 view .LVU121
 321 00fe 0546     		mov	r5, r0
 322 0100 0028     		cmp	r0, #0
 323 0102 CBD0     		beq	.L8
 220:./Middlewares/ST/usbx/common/usbx_device_classes/src/ux_device_class_dfu_initialize.c ****     }
 324              		.loc 1 220 20 view .LVU122
 325 0104 1625     		movs	r5, #22
 326 0106 CAE7     		b	.L9
 327              	.LVL29:
 328              	.L20:
 242:./Middlewares/ST/usbx/common/usbx_device_classes/src/ux_device_class_dfu_initialize.c **** #endif
 329              		.loc 1 242 9 is_stmt 1 view .LVU123
 330 0108 3846     		mov	r0, r7
 331 010a FFF7FEFF 		bl	_ux_utility_event_flags_delete
 332              	.LVL30:
 333 010e CEE7     		b	.L11
 334              	.LVL31:
ARM GAS  C:\Users\Dennis\AppData\Local\Temp\ccCmpaCJ.s 			page 12


 335              	.L12:
 106:./Middlewares/ST/usbx/common/usbx_device_classes/src/ux_device_class_dfu_initialize.c **** 
 336              		.loc 1 106 15 is_stmt 0 view .LVU124
 337 0110 1225     		movs	r5, #18
 338              	.LVL32:
 106:./Middlewares/ST/usbx/common/usbx_device_classes/src/ux_device_class_dfu_initialize.c **** 
 339              		.loc 1 106 15 view .LVU125
 340 0112 D1E7     		b	.L1
 341              	.L22:
 342              		.align	2
 343              	.L21:
 344 0114 00000000 		.word	_ux_system_slave
 345 0118 00000000 		.word	_ux_system_dfu_functional_descriptor_structure
 346 011c 00000000 		.word	.LC0
 347 0120 00000000 		.word	_ux_device_class_dfu_thread
 348 0124 20000000 		.word	.LC1
 349              		.cfi_endproc
 350              	.LFE11:
 352              		.text
 353              	.Letext0:
 354              		.file 2 "./Middlewares/ST/threadx/ports/cortex_m4/gnu/inc/tx_port.h"
 355              		.file 3 "./Middlewares/ST/threadx/common/inc/tx_api.h"
 356              		.file 4 "./Middlewares/ST/usbx/common/core/inc/ux_api.h"
 357              		.file 5 "./Middlewares/ST/usbx/common/core/inc/ux_system.h"
 358              		.file 6 "./Middlewares/ST/usbx/common/usbx_device_classes/inc/ux_device_class_dfu.h"
 359              		.file 7 "./Middlewares/ST/usbx/common/core/inc/ux_utility.h"
ARM GAS  C:\Users\Dennis\AppData\Local\Temp\ccCmpaCJ.s 			page 13

