ARM GAS  /tmp/cco9iSfq.s 			page 1


   1              		.cpu cortex-m4
   2              		.arch armv7e-m
   3              		.fpu fpv4-sp-d16
   4              		.eabi_attribute 27, 1
   5              		.eabi_attribute 28, 1
   6              		.eabi_attribute 20, 1
   7              		.eabi_attribute 21, 1
   8              		.eabi_attribute 23, 3
   9              		.eabi_attribute 24, 1
  10              		.eabi_attribute 25, 1
  11              		.eabi_attribute 26, 1
  12              		.eabi_attribute 30, 1
  13              		.eabi_attribute 34, 1
  14              		.eabi_attribute 18, 4
  15              		.file	"ux_device_stack_initialize.c"
  16              		.text
  17              	.Ltext0:
  18              		.cfi_sections	.debug_frame
  19              		.file 1 "./Middlewares/ST/usbx/common/core/src/ux_device_stack_initialize.c"
  20              		.section	.rodata._ux_device_stack_initialize.str1.4,"aMS",%progbits,1
  21              		.align	2
  22              	.LC0:
  23 0000 75785F74 		.ascii	"ux_transfer_request_semaphore\000"
  23      72616E73 
  23      6665725F 
  23      72657175 
  23      6573745F 
  24              		.section	.text._ux_device_stack_initialize,"ax",%progbits
  25              		.align	1
  26              		.global	_ux_device_stack_initialize
  27              		.syntax unified
  28              		.thumb
  29              		.thumb_func
  31              	_ux_device_stack_initialize:
  32              	.LVL0:
  33              	.LFB11:
   1:./Middlewares/ST/usbx/common/core/src/ux_device_stack_initialize.c **** /**************************************************************************/
   2:./Middlewares/ST/usbx/common/core/src/ux_device_stack_initialize.c **** /*                                                                        */
   3:./Middlewares/ST/usbx/common/core/src/ux_device_stack_initialize.c **** /*       Copyright (c) Microsoft Corporation. All rights reserved.        */
   4:./Middlewares/ST/usbx/common/core/src/ux_device_stack_initialize.c **** /*                                                                        */
   5:./Middlewares/ST/usbx/common/core/src/ux_device_stack_initialize.c **** /*       This software is licensed under the Microsoft Software License   */
   6:./Middlewares/ST/usbx/common/core/src/ux_device_stack_initialize.c **** /*       Terms for Microsoft Azure RTOS. Full text of the license can be  */
   7:./Middlewares/ST/usbx/common/core/src/ux_device_stack_initialize.c **** /*       found in the LICENSE file at https://aka.ms/AzureRTOS_EULA       */
   8:./Middlewares/ST/usbx/common/core/src/ux_device_stack_initialize.c **** /*       and in the root directory of this software.                      */
   9:./Middlewares/ST/usbx/common/core/src/ux_device_stack_initialize.c **** /*                                                                        */
  10:./Middlewares/ST/usbx/common/core/src/ux_device_stack_initialize.c **** /**************************************************************************/
  11:./Middlewares/ST/usbx/common/core/src/ux_device_stack_initialize.c **** 
  12:./Middlewares/ST/usbx/common/core/src/ux_device_stack_initialize.c **** 
  13:./Middlewares/ST/usbx/common/core/src/ux_device_stack_initialize.c **** /**************************************************************************/
  14:./Middlewares/ST/usbx/common/core/src/ux_device_stack_initialize.c **** /**************************************************************************/
  15:./Middlewares/ST/usbx/common/core/src/ux_device_stack_initialize.c **** /**                                                                       */ 
  16:./Middlewares/ST/usbx/common/core/src/ux_device_stack_initialize.c **** /** USBX Component                                                        */ 
  17:./Middlewares/ST/usbx/common/core/src/ux_device_stack_initialize.c **** /**                                                                       */
  18:./Middlewares/ST/usbx/common/core/src/ux_device_stack_initialize.c **** /**   Device Stack                                                        */
  19:./Middlewares/ST/usbx/common/core/src/ux_device_stack_initialize.c **** /**                                                                       */
  20:./Middlewares/ST/usbx/common/core/src/ux_device_stack_initialize.c **** /**************************************************************************/
  21:./Middlewares/ST/usbx/common/core/src/ux_device_stack_initialize.c **** /**************************************************************************/
ARM GAS  /tmp/cco9iSfq.s 			page 2


  22:./Middlewares/ST/usbx/common/core/src/ux_device_stack_initialize.c **** 
  23:./Middlewares/ST/usbx/common/core/src/ux_device_stack_initialize.c **** #define UX_SOURCE_CODE
  24:./Middlewares/ST/usbx/common/core/src/ux_device_stack_initialize.c **** 
  25:./Middlewares/ST/usbx/common/core/src/ux_device_stack_initialize.c **** 
  26:./Middlewares/ST/usbx/common/core/src/ux_device_stack_initialize.c **** /* Include necessary system files.  */
  27:./Middlewares/ST/usbx/common/core/src/ux_device_stack_initialize.c **** 
  28:./Middlewares/ST/usbx/common/core/src/ux_device_stack_initialize.c **** #include "ux_api.h"
  29:./Middlewares/ST/usbx/common/core/src/ux_device_stack_initialize.c **** #include "ux_device_stack.h"
  30:./Middlewares/ST/usbx/common/core/src/ux_device_stack_initialize.c **** 
  31:./Middlewares/ST/usbx/common/core/src/ux_device_stack_initialize.c **** UX_COMPILE_TIME_ASSERT(!UX_OVERFLOW_CHECK_MULC_ULONG(sizeof(UX_SLAVE_CLASS), UX_MAX_SLAVE_CLASS_DRI
  32:./Middlewares/ST/usbx/common/core/src/ux_device_stack_initialize.c **** 
  33:./Middlewares/ST/usbx/common/core/src/ux_device_stack_initialize.c **** /* Define the names of all the USB Classes of USBX.  */
  34:./Middlewares/ST/usbx/common/core/src/ux_device_stack_initialize.c **** 
  35:./Middlewares/ST/usbx/common/core/src/ux_device_stack_initialize.c **** UCHAR _ux_system_slave_class_storage_name[] =                               "ux_slave_class_storage
  36:./Middlewares/ST/usbx/common/core/src/ux_device_stack_initialize.c **** UCHAR _ux_system_slave_class_cdc_acm_name[] =                               "ux_slave_class_cdc_acm
  37:./Middlewares/ST/usbx/common/core/src/ux_device_stack_initialize.c **** UCHAR _ux_system_slave_class_dpump_name[] =                                 "ux_slave_class_dpump";
  38:./Middlewares/ST/usbx/common/core/src/ux_device_stack_initialize.c **** UCHAR _ux_system_slave_class_pima_name[] =                                  "ux_slave_class_pima";
  39:./Middlewares/ST/usbx/common/core/src/ux_device_stack_initialize.c **** UCHAR _ux_system_slave_class_hid_name[] =                                   "ux_slave_class_hid";
  40:./Middlewares/ST/usbx/common/core/src/ux_device_stack_initialize.c **** UCHAR _ux_system_slave_class_rndis_name[] =                                 "ux_slave_class_rndis";
  41:./Middlewares/ST/usbx/common/core/src/ux_device_stack_initialize.c **** UCHAR _ux_system_slave_class_cdc_ecm_name[] =                               "ux_slave_class_cdc_ecm
  42:./Middlewares/ST/usbx/common/core/src/ux_device_stack_initialize.c **** UCHAR _ux_system_slave_class_dfu_name[] =                                   "ux_slave_class_dfu";
  43:./Middlewares/ST/usbx/common/core/src/ux_device_stack_initialize.c **** UCHAR _ux_system_slave_class_audio_name[] =                                 "ux_slave_class_audio";
  44:./Middlewares/ST/usbx/common/core/src/ux_device_stack_initialize.c **** 
  45:./Middlewares/ST/usbx/common/core/src/ux_device_stack_initialize.c **** UCHAR _ux_system_device_class_printer_name[] =                              "ux_device_class_printe
  46:./Middlewares/ST/usbx/common/core/src/ux_device_stack_initialize.c **** 
  47:./Middlewares/ST/usbx/common/core/src/ux_device_stack_initialize.c **** /* Define USBX Host variable.  */
  48:./Middlewares/ST/usbx/common/core/src/ux_device_stack_initialize.c **** UX_SYSTEM_SLAVE *_ux_system_slave;
  49:./Middlewares/ST/usbx/common/core/src/ux_device_stack_initialize.c **** 
  50:./Middlewares/ST/usbx/common/core/src/ux_device_stack_initialize.c **** /**************************************************************************/
  51:./Middlewares/ST/usbx/common/core/src/ux_device_stack_initialize.c **** /*                                                                        */
  52:./Middlewares/ST/usbx/common/core/src/ux_device_stack_initialize.c **** /*  FUNCTION                                               RELEASE        */
  53:./Middlewares/ST/usbx/common/core/src/ux_device_stack_initialize.c **** /*                                                                        */
  54:./Middlewares/ST/usbx/common/core/src/ux_device_stack_initialize.c **** /*    _ux_device_stack_initialize                         PORTABLE C      */
  55:./Middlewares/ST/usbx/common/core/src/ux_device_stack_initialize.c **** /*                                                           6.1.10       */
  56:./Middlewares/ST/usbx/common/core/src/ux_device_stack_initialize.c **** /*  AUTHOR                                                                */
  57:./Middlewares/ST/usbx/common/core/src/ux_device_stack_initialize.c **** /*                                                                        */
  58:./Middlewares/ST/usbx/common/core/src/ux_device_stack_initialize.c **** /*    Chaoqiong Xiao, Microsoft Corporation                               */
  59:./Middlewares/ST/usbx/common/core/src/ux_device_stack_initialize.c **** /*                                                                        */
  60:./Middlewares/ST/usbx/common/core/src/ux_device_stack_initialize.c **** /*  DESCRIPTION                                                           */
  61:./Middlewares/ST/usbx/common/core/src/ux_device_stack_initialize.c **** /*                                                                        */
  62:./Middlewares/ST/usbx/common/core/src/ux_device_stack_initialize.c **** /*    This function initializes the generic portion of the device side of */
  63:./Middlewares/ST/usbx/common/core/src/ux_device_stack_initialize.c **** /*    USBX.                                                               */
  64:./Middlewares/ST/usbx/common/core/src/ux_device_stack_initialize.c **** /*                                                                        */
  65:./Middlewares/ST/usbx/common/core/src/ux_device_stack_initialize.c **** /*  INPUT                                                                 */
  66:./Middlewares/ST/usbx/common/core/src/ux_device_stack_initialize.c **** /*                                                                        */
  67:./Middlewares/ST/usbx/common/core/src/ux_device_stack_initialize.c **** /*    device_framework_high_speed           Pointer to high speed FW      */ 
  68:./Middlewares/ST/usbx/common/core/src/ux_device_stack_initialize.c **** /*    device_framework_length_high_speed    Length of high speed FW       */ 
  69:./Middlewares/ST/usbx/common/core/src/ux_device_stack_initialize.c **** /*    device_framework_full_speed           Pointer to full speed FW      */ 
  70:./Middlewares/ST/usbx/common/core/src/ux_device_stack_initialize.c **** /*    device_framework_length_full_speed    Length of full speed FW       */ 
  71:./Middlewares/ST/usbx/common/core/src/ux_device_stack_initialize.c **** /*    string_framework                      Pointer to string FW          */ 
  72:./Middlewares/ST/usbx/common/core/src/ux_device_stack_initialize.c **** /*    string_framework_length               Length of string FW           */ 
  73:./Middlewares/ST/usbx/common/core/src/ux_device_stack_initialize.c **** /*    language_id_framework                 Pointer to language ID FW     */ 
  74:./Middlewares/ST/usbx/common/core/src/ux_device_stack_initialize.c **** /*    language_id_framework_length          Length of language ID FW      */ 
  75:./Middlewares/ST/usbx/common/core/src/ux_device_stack_initialize.c **** /*    (ux_system_slave_change_function)     Pointer to callback function  */ 
  76:./Middlewares/ST/usbx/common/core/src/ux_device_stack_initialize.c **** /*                                            for device changes          */ 
  77:./Middlewares/ST/usbx/common/core/src/ux_device_stack_initialize.c **** /*                                                                        */
  78:./Middlewares/ST/usbx/common/core/src/ux_device_stack_initialize.c **** /*  OUTPUT                                                                */
ARM GAS  /tmp/cco9iSfq.s 			page 3


  79:./Middlewares/ST/usbx/common/core/src/ux_device_stack_initialize.c **** /*                                                                        */
  80:./Middlewares/ST/usbx/common/core/src/ux_device_stack_initialize.c **** /*    Completion Status                                                   */ 
  81:./Middlewares/ST/usbx/common/core/src/ux_device_stack_initialize.c **** /*                                                                        */
  82:./Middlewares/ST/usbx/common/core/src/ux_device_stack_initialize.c **** /*  CALLS                                                                 */ 
  83:./Middlewares/ST/usbx/common/core/src/ux_device_stack_initialize.c **** /*                                                                        */ 
  84:./Middlewares/ST/usbx/common/core/src/ux_device_stack_initialize.c **** /*    _ux_utility_memory_allocate           Allocate memory               */ 
  85:./Middlewares/ST/usbx/common/core/src/ux_device_stack_initialize.c **** /*    _ux_utility_memory_free               Free memory                   */ 
  86:./Middlewares/ST/usbx/common/core/src/ux_device_stack_initialize.c **** /*    _ux_utility_semaphore_create          Create semaphore              */
  87:./Middlewares/ST/usbx/common/core/src/ux_device_stack_initialize.c **** /*    _ux_utility_semaphore_delete          Delete semaphore              */
  88:./Middlewares/ST/usbx/common/core/src/ux_device_stack_initialize.c **** /*                                                                        */ 
  89:./Middlewares/ST/usbx/common/core/src/ux_device_stack_initialize.c **** /*  CALLED BY                                                             */ 
  90:./Middlewares/ST/usbx/common/core/src/ux_device_stack_initialize.c **** /*                                                                        */ 
  91:./Middlewares/ST/usbx/common/core/src/ux_device_stack_initialize.c **** /*    Application                                                         */ 
  92:./Middlewares/ST/usbx/common/core/src/ux_device_stack_initialize.c **** /*                                                                        */ 
  93:./Middlewares/ST/usbx/common/core/src/ux_device_stack_initialize.c **** /*  RELEASE HISTORY                                                       */ 
  94:./Middlewares/ST/usbx/common/core/src/ux_device_stack_initialize.c **** /*                                                                        */ 
  95:./Middlewares/ST/usbx/common/core/src/ux_device_stack_initialize.c **** /*    DATE              NAME                      DESCRIPTION             */ 
  96:./Middlewares/ST/usbx/common/core/src/ux_device_stack_initialize.c **** /*                                                                        */ 
  97:./Middlewares/ST/usbx/common/core/src/ux_device_stack_initialize.c **** /*  05-19-2020     Chaoqiong Xiao           Initial Version 6.0           */
  98:./Middlewares/ST/usbx/common/core/src/ux_device_stack_initialize.c **** /*  09-30-2020     Chaoqiong Xiao           Modified comment(s),          */
  99:./Middlewares/ST/usbx/common/core/src/ux_device_stack_initialize.c **** /*                                            optimized based on compile  */
 100:./Middlewares/ST/usbx/common/core/src/ux_device_stack_initialize.c **** /*                                            definitions,                */
 101:./Middlewares/ST/usbx/common/core/src/ux_device_stack_initialize.c **** /*                                            resulting in version 6.1    */
 102:./Middlewares/ST/usbx/common/core/src/ux_device_stack_initialize.c **** /*  01-31-2022     Chaoqiong Xiao           Modified comment(s),          */
 103:./Middlewares/ST/usbx/common/core/src/ux_device_stack_initialize.c **** /*                                            added standalone support,   */
 104:./Middlewares/ST/usbx/common/core/src/ux_device_stack_initialize.c **** /*                                            added printer support,      */
 105:./Middlewares/ST/usbx/common/core/src/ux_device_stack_initialize.c **** /*                                            resulting in version 6.1.10 */
 106:./Middlewares/ST/usbx/common/core/src/ux_device_stack_initialize.c **** /*                                                                        */
 107:./Middlewares/ST/usbx/common/core/src/ux_device_stack_initialize.c **** /**************************************************************************/
 108:./Middlewares/ST/usbx/common/core/src/ux_device_stack_initialize.c **** UINT  _ux_device_stack_initialize(UCHAR * device_framework_high_speed, ULONG device_framework_lengt
 109:./Middlewares/ST/usbx/common/core/src/ux_device_stack_initialize.c ****                                   UCHAR * device_framework_full_speed, ULONG device_framework_lengt
 110:./Middlewares/ST/usbx/common/core/src/ux_device_stack_initialize.c ****                                   UCHAR * string_framework, ULONG string_framework_length,
 111:./Middlewares/ST/usbx/common/core/src/ux_device_stack_initialize.c ****                                   UCHAR * language_id_framework, ULONG language_id_framework_length
 112:./Middlewares/ST/usbx/common/core/src/ux_device_stack_initialize.c ****                                   UINT (*ux_system_slave_change_function)(ULONG))
 113:./Middlewares/ST/usbx/common/core/src/ux_device_stack_initialize.c **** {
  34              		.loc 1 113 1 view -0
  35              		.cfi_startproc
  36              		@ args = 20, pretend = 0, frame = 0
  37              		@ frame_needed = 0, uses_anonymous_args = 0
  38              		.loc 1 113 1 is_stmt 0 view .LVU1
  39 0000 2DE9F843 		push	{r3, r4, r5, r6, r7, r8, r9, lr}
  40              	.LCFI0:
  41              		.cfi_def_cfa_offset 32
  42              		.cfi_offset 3, -32
  43              		.cfi_offset 4, -28
  44              		.cfi_offset 5, -24
  45              		.cfi_offset 6, -20
  46              		.cfi_offset 7, -16
  47              		.cfi_offset 8, -12
  48              		.cfi_offset 9, -8
  49              		.cfi_offset 14, -4
 114:./Middlewares/ST/usbx/common/core/src/ux_device_stack_initialize.c **** UX_SLAVE_DEVICE                 *device;
  50              		.loc 1 114 1 is_stmt 1 view .LVU2
 115:./Middlewares/ST/usbx/common/core/src/ux_device_stack_initialize.c **** UX_SLAVE_ENDPOINT               *endpoints_pool;
  51              		.loc 1 115 1 view .LVU3
 116:./Middlewares/ST/usbx/common/core/src/ux_device_stack_initialize.c **** UX_SLAVE_INTERFACE              *interfaces_pool;
  52              		.loc 1 116 1 view .LVU4
ARM GAS  /tmp/cco9iSfq.s 			page 4


 117:./Middlewares/ST/usbx/common/core/src/ux_device_stack_initialize.c **** UX_SLAVE_TRANSFER               *transfer_request;
  53              		.loc 1 117 1 view .LVU5
 118:./Middlewares/ST/usbx/common/core/src/ux_device_stack_initialize.c **** UINT                            status;
  54              		.loc 1 118 1 view .LVU6
 119:./Middlewares/ST/usbx/common/core/src/ux_device_stack_initialize.c **** ULONG                           interfaces_found;
  55              		.loc 1 119 1 view .LVU7
 120:./Middlewares/ST/usbx/common/core/src/ux_device_stack_initialize.c **** ULONG                           endpoints_found;
  56              		.loc 1 120 1 view .LVU8
 121:./Middlewares/ST/usbx/common/core/src/ux_device_stack_initialize.c **** #if !defined(UX_DEVICE_INITIALIZE_FRAMEWORK_SCAN_DISABLE)
 122:./Middlewares/ST/usbx/common/core/src/ux_device_stack_initialize.c **** ULONG                           max_interface_number;
  57              		.loc 1 122 1 view .LVU9
 123:./Middlewares/ST/usbx/common/core/src/ux_device_stack_initialize.c **** ULONG                           local_interfaces_found;
  58              		.loc 1 123 1 view .LVU10
 124:./Middlewares/ST/usbx/common/core/src/ux_device_stack_initialize.c **** ULONG                           local_endpoints_found;
  59              		.loc 1 124 1 view .LVU11
 125:./Middlewares/ST/usbx/common/core/src/ux_device_stack_initialize.c **** ULONG                           endpoints_in_interface_found;
  60              		.loc 1 125 1 view .LVU12
 126:./Middlewares/ST/usbx/common/core/src/ux_device_stack_initialize.c **** UCHAR                           *device_framework;
  61              		.loc 1 126 1 view .LVU13
 127:./Middlewares/ST/usbx/common/core/src/ux_device_stack_initialize.c **** ULONG                           device_framework_length;
  62              		.loc 1 127 1 view .LVU14
 128:./Middlewares/ST/usbx/common/core/src/ux_device_stack_initialize.c **** UCHAR                           descriptor_type;
  63              		.loc 1 128 1 view .LVU15
 129:./Middlewares/ST/usbx/common/core/src/ux_device_stack_initialize.c **** ULONG                           descriptor_length;
  64              		.loc 1 129 1 view .LVU16
 130:./Middlewares/ST/usbx/common/core/src/ux_device_stack_initialize.c **** #endif
 131:./Middlewares/ST/usbx/common/core/src/ux_device_stack_initialize.c **** UCHAR                           *memory;
  65              		.loc 1 131 1 view .LVU17
 132:./Middlewares/ST/usbx/common/core/src/ux_device_stack_initialize.c **** 
 133:./Middlewares/ST/usbx/common/core/src/ux_device_stack_initialize.c ****     /* If trace is enabled, insert this event into the trace buffer.  */
 134:./Middlewares/ST/usbx/common/core/src/ux_device_stack_initialize.c ****     UX_TRACE_IN_LINE_INSERT(UX_TRACE_DEVICE_STACK_INITIALIZE, 0, 0, 0, 0, UX_TRACE_DEVICE_STACK_EVE
 135:./Middlewares/ST/usbx/common/core/src/ux_device_stack_initialize.c **** 
 136:./Middlewares/ST/usbx/common/core/src/ux_device_stack_initialize.c ****     /* Get the pointer to the device. */
 137:./Middlewares/ST/usbx/common/core/src/ux_device_stack_initialize.c ****     device =  &_ux_system_slave -> ux_system_slave_device;
  66              		.loc 1 137 5 view .LVU18
  67              		.loc 1 137 33 is_stmt 0 view .LVU19
  68 0004 784C     		ldr	r4, .L46
  69 0006 2668     		ldr	r6, [r4]
  70              	.LVL1:
 138:./Middlewares/ST/usbx/common/core/src/ux_device_stack_initialize.c **** 
 139:./Middlewares/ST/usbx/common/core/src/ux_device_stack_initialize.c ****     /* Store the high speed device framework address and length in the project structure.  */
 140:./Middlewares/ST/usbx/common/core/src/ux_device_stack_initialize.c ****     _ux_system_slave -> ux_system_slave_device_framework_high_speed =             device_framework_
  71              		.loc 1 140 5 is_stmt 1 view .LVU20
  72              		.loc 1 140 69 is_stmt 0 view .LVU21
  73 0008 C6F83801 		str	r0, [r6, #312]
 141:./Middlewares/ST/usbx/common/core/src/ux_device_stack_initialize.c ****     _ux_system_slave -> ux_system_slave_device_framework_length_high_speed =      device_framework_
  74              		.loc 1 141 5 is_stmt 1 view .LVU22
  75              		.loc 1 141 76 is_stmt 0 view .LVU23
  76 000c C6F83C11 		str	r1, [r6, #316]
 142:./Middlewares/ST/usbx/common/core/src/ux_device_stack_initialize.c **** 
 143:./Middlewares/ST/usbx/common/core/src/ux_device_stack_initialize.c ****     /* Store the string framework address and length in the project structure.  */
 144:./Middlewares/ST/usbx/common/core/src/ux_device_stack_initialize.c ****     _ux_system_slave -> ux_system_slave_device_framework_full_speed =             device_framework_
  77              		.loc 1 144 5 is_stmt 1 view .LVU24
  78              		.loc 1 144 69 is_stmt 0 view .LVU25
  79 0010 C6F83021 		str	r2, [r6, #304]
 145:./Middlewares/ST/usbx/common/core/src/ux_device_stack_initialize.c ****     _ux_system_slave -> ux_system_slave_device_framework_length_full_speed =      device_framework_
  80              		.loc 1 145 5 is_stmt 1 view .LVU26
ARM GAS  /tmp/cco9iSfq.s 			page 5


  81              		.loc 1 145 76 is_stmt 0 view .LVU27
  82 0014 C6F83431 		str	r3, [r6, #308]
 146:./Middlewares/ST/usbx/common/core/src/ux_device_stack_initialize.c **** 
 147:./Middlewares/ST/usbx/common/core/src/ux_device_stack_initialize.c ****     /* Store the string framework address and length in the project structure.  */
 148:./Middlewares/ST/usbx/common/core/src/ux_device_stack_initialize.c ****     _ux_system_slave -> ux_system_slave_string_framework =                         string_framework
  83              		.loc 1 148 5 is_stmt 1 view .LVU28
  84              		.loc 1 148 58 is_stmt 0 view .LVU29
  85 0018 089B     		ldr	r3, [sp, #32]
  86              	.LVL2:
  87              		.loc 1 148 58 view .LVU30
  88 001a C6F84031 		str	r3, [r6, #320]
 149:./Middlewares/ST/usbx/common/core/src/ux_device_stack_initialize.c ****     _ux_system_slave -> ux_system_slave_string_framework_length =                  string_framework
  89              		.loc 1 149 5 is_stmt 1 view .LVU31
  90              		.loc 1 149 65 is_stmt 0 view .LVU32
  91 001e 099B     		ldr	r3, [sp, #36]
  92 0020 C6F84431 		str	r3, [r6, #324]
 150:./Middlewares/ST/usbx/common/core/src/ux_device_stack_initialize.c **** 
 151:./Middlewares/ST/usbx/common/core/src/ux_device_stack_initialize.c ****     /* Store the language ID list in the project structure.  */
 152:./Middlewares/ST/usbx/common/core/src/ux_device_stack_initialize.c ****     _ux_system_slave -> ux_system_slave_language_id_framework =                 language_id_framewo
  93              		.loc 1 152 5 is_stmt 1 view .LVU33
  94              		.loc 1 152 63 is_stmt 0 view .LVU34
  95 0024 0A9B     		ldr	r3, [sp, #40]
  96 0026 C6F84831 		str	r3, [r6, #328]
 153:./Middlewares/ST/usbx/common/core/src/ux_device_stack_initialize.c ****     _ux_system_slave -> ux_system_slave_language_id_framework_length =          language_id_framewo
  97              		.loc 1 153 5 is_stmt 1 view .LVU35
  98              		.loc 1 153 70 is_stmt 0 view .LVU36
  99 002a 0B9B     		ldr	r3, [sp, #44]
 100 002c C6F84C31 		str	r3, [r6, #332]
 154:./Middlewares/ST/usbx/common/core/src/ux_device_stack_initialize.c **** 
 155:./Middlewares/ST/usbx/common/core/src/ux_device_stack_initialize.c ****     /* Store the max number of slave class drivers in the project structure.  */
 156:./Middlewares/ST/usbx/common/core/src/ux_device_stack_initialize.c ****     UX_SYSTEM_DEVICE_MAX_CLASS_SET(UX_MAX_SLAVE_CLASS_DRIVER);
 101              		.loc 1 156 5 is_stmt 1 view .LVU37
 102              		.loc 1 156 5 view .LVU38
 157:./Middlewares/ST/usbx/common/core/src/ux_device_stack_initialize.c ****     
 158:./Middlewares/ST/usbx/common/core/src/ux_device_stack_initialize.c ****     /* Store the device state change function callback.  */
 159:./Middlewares/ST/usbx/common/core/src/ux_device_stack_initialize.c ****     _ux_system_slave -> ux_system_slave_change_function =  ux_system_slave_change_function;
 103              		.loc 1 159 5 view .LVU39
 104              		.loc 1 159 57 is_stmt 0 view .LVU40
 105 0030 0C9B     		ldr	r3, [sp, #48]
 106 0032 C6F8C031 		str	r3, [r6, #448]
 160:./Middlewares/ST/usbx/common/core/src/ux_device_stack_initialize.c **** 
 161:./Middlewares/ST/usbx/common/core/src/ux_device_stack_initialize.c ****     /* Allocate memory for the classes.
 162:./Middlewares/ST/usbx/common/core/src/ux_device_stack_initialize.c ****      * sizeof(UX_SLAVE_CLASS) * UX_MAX_SLAVE_CLASS_DRIVER) overflow is checked
 163:./Middlewares/ST/usbx/common/core/src/ux_device_stack_initialize.c ****      * outside of the function.
 164:./Middlewares/ST/usbx/common/core/src/ux_device_stack_initialize.c ****      */
 165:./Middlewares/ST/usbx/common/core/src/ux_device_stack_initialize.c ****     memory =  _ux_utility_memory_allocate(UX_NO_ALIGN, UX_REGULAR_MEMORY, sizeof(UX_SLAVE_CLASS) * 
 107              		.loc 1 165 5 is_stmt 1 view .LVU41
 108              		.loc 1 165 15 is_stmt 0 view .LVU42
 109 0036 4FF48A72 		mov	r2, #276
 110              	.LVL3:
 111              		.loc 1 165 15 view .LVU43
 112 003a 0021     		movs	r1, #0
 113              	.LVL4:
 114              		.loc 1 165 15 view .LVU44
 115 003c 0846     		mov	r0, r1
 116              	.LVL5:
 117              		.loc 1 165 15 view .LVU45
ARM GAS  /tmp/cco9iSfq.s 			page 6


 118 003e FFF7FEFF 		bl	_ux_utility_memory_allocate
 119              	.LVL6:
 166:./Middlewares/ST/usbx/common/core/src/ux_device_stack_initialize.c ****     if (memory == UX_NULL)
 120              		.loc 1 166 5 is_stmt 1 view .LVU46
 121              		.loc 1 166 8 is_stmt 0 view .LVU47
 122 0042 0028     		cmp	r0, #0
 123 0044 00F0CE80 		beq	.L25
 167:./Middlewares/ST/usbx/common/core/src/ux_device_stack_initialize.c ****         return(UX_MEMORY_INSUFFICIENT);
 168:./Middlewares/ST/usbx/common/core/src/ux_device_stack_initialize.c ****     
 169:./Middlewares/ST/usbx/common/core/src/ux_device_stack_initialize.c ****     /* Save this memory allocation in the USBX project.  */
 170:./Middlewares/ST/usbx/common/core/src/ux_device_stack_initialize.c ****     _ux_system_slave -> ux_system_slave_class_array =  (UX_SLAVE_CLASS *) ((void *) memory);
 124              		.loc 1 170 5 is_stmt 1 view .LVU48
 125              		.loc 1 170 22 is_stmt 0 view .LVU49
 126 0048 2268     		ldr	r2, [r4]
 127              		.loc 1 170 53 view .LVU50
 128 004a C2F85801 		str	r0, [r2, #344]
 171:./Middlewares/ST/usbx/common/core/src/ux_device_stack_initialize.c **** 
 172:./Middlewares/ST/usbx/common/core/src/ux_device_stack_initialize.c ****     /* Allocate some memory for the Control Endpoint.  First get the address of the transfer reques
 173:./Middlewares/ST/usbx/common/core/src/ux_device_stack_initialize.c ****        control endpoint. */
 174:./Middlewares/ST/usbx/common/core/src/ux_device_stack_initialize.c ****     transfer_request =  &device -> ux_slave_device_control_endpoint.ux_slave_endpoint_transfer_requ
 129              		.loc 1 174 5 is_stmt 1 view .LVU51
 130              	.LVL7:
 175:./Middlewares/ST/usbx/common/core/src/ux_device_stack_initialize.c **** 
 176:./Middlewares/ST/usbx/common/core/src/ux_device_stack_initialize.c ****     /* Acquire a buffer for the size of the endpoint.  */
 177:./Middlewares/ST/usbx/common/core/src/ux_device_stack_initialize.c ****     transfer_request -> ux_slave_transfer_request_data_pointer =
 131              		.loc 1 177 5 view .LVU52
 178:./Middlewares/ST/usbx/common/core/src/ux_device_stack_initialize.c ****           _ux_utility_memory_allocate(UX_NO_ALIGN, UX_CACHE_SAFE_MEMORY, UX_SLAVE_REQUEST_CONTROL_M
 132              		.loc 1 178 11 is_stmt 0 view .LVU53
 133 004e 4FF48072 		mov	r2, #256
 134 0052 0121     		movs	r1, #1
 135 0054 0020     		movs	r0, #0
 136              	.LVL8:
 137              		.loc 1 178 11 view .LVU54
 138 0056 FFF7FEFF 		bl	_ux_utility_memory_allocate
 139              	.LVL9:
 177:./Middlewares/ST/usbx/common/core/src/ux_device_stack_initialize.c ****           _ux_utility_memory_allocate(UX_NO_ALIGN, UX_CACHE_SAFE_MEMORY, UX_SLAVE_REQUEST_CONTROL_M
 140              		.loc 1 177 64 view .LVU55
 141 005a C6F89800 		str	r0, [r6, #152]
 179:./Middlewares/ST/usbx/common/core/src/ux_device_stack_initialize.c **** 
 180:./Middlewares/ST/usbx/common/core/src/ux_device_stack_initialize.c ****     /* Ensure we have enough memory.  */
 181:./Middlewares/ST/usbx/common/core/src/ux_device_stack_initialize.c ****     if (transfer_request -> ux_slave_transfer_request_data_pointer == UX_NULL)
 142              		.loc 1 181 5 is_stmt 1 view .LVU56
 143              		.loc 1 181 8 is_stmt 0 view .LVU57
 144 005e 0028     		cmp	r0, #0
 145 0060 55D0     		beq	.L26
 182:./Middlewares/ST/usbx/common/core/src/ux_device_stack_initialize.c ****         status = UX_MEMORY_INSUFFICIENT;
 183:./Middlewares/ST/usbx/common/core/src/ux_device_stack_initialize.c ****     else
 184:./Middlewares/ST/usbx/common/core/src/ux_device_stack_initialize.c ****         status = UX_SUCCESS;
 146              		.loc 1 184 9 is_stmt 1 view .LVU58
 147              	.LVL10:
 185:./Middlewares/ST/usbx/common/core/src/ux_device_stack_initialize.c **** 
 186:./Middlewares/ST/usbx/common/core/src/ux_device_stack_initialize.c **** #if defined(UX_DEVICE_INITIALIZE_FRAMEWORK_SCAN_DISABLE)
 187:./Middlewares/ST/usbx/common/core/src/ux_device_stack_initialize.c **** 
 188:./Middlewares/ST/usbx/common/core/src/ux_device_stack_initialize.c ****     /* No scan, just assign predefined value.  */
 189:./Middlewares/ST/usbx/common/core/src/ux_device_stack_initialize.c ****     interfaces_found = UX_MAX_SLAVE_INTERFACES;
 190:./Middlewares/ST/usbx/common/core/src/ux_device_stack_initialize.c ****     endpoints_found = UX_MAX_DEVICE_ENDPOINTS;
 191:./Middlewares/ST/usbx/common/core/src/ux_device_stack_initialize.c **** #else
ARM GAS  /tmp/cco9iSfq.s 			page 7


 192:./Middlewares/ST/usbx/common/core/src/ux_device_stack_initialize.c **** 
 193:./Middlewares/ST/usbx/common/core/src/ux_device_stack_initialize.c ****     /* Reset all values we are using during the scanning of the framework.  */
 194:./Middlewares/ST/usbx/common/core/src/ux_device_stack_initialize.c ****     interfaces_found                   =  0;
 148              		.loc 1 194 5 view .LVU59
 195:./Middlewares/ST/usbx/common/core/src/ux_device_stack_initialize.c ****     endpoints_found                    =  0;
 149              		.loc 1 195 5 view .LVU60
 196:./Middlewares/ST/usbx/common/core/src/ux_device_stack_initialize.c ****     max_interface_number               =  0;
 150              		.loc 1 196 5 view .LVU61
 197:./Middlewares/ST/usbx/common/core/src/ux_device_stack_initialize.c **** 
 198:./Middlewares/ST/usbx/common/core/src/ux_device_stack_initialize.c ****     /* Go on to scan interfaces if no error.  */
 199:./Middlewares/ST/usbx/common/core/src/ux_device_stack_initialize.c ****     if (status == UX_SUCCESS)
 151              		.loc 1 199 5 view .LVU62
 200:./Middlewares/ST/usbx/common/core/src/ux_device_stack_initialize.c ****     {
 201:./Middlewares/ST/usbx/common/core/src/ux_device_stack_initialize.c **** 
 202:./Middlewares/ST/usbx/common/core/src/ux_device_stack_initialize.c ****         /* We need to determine the maximum number of interfaces and endpoints declared in the devi
 203:./Middlewares/ST/usbx/common/core/src/ux_device_stack_initialize.c ****         This mechanism requires that both framework behave the same way regarding the number of int
 204:./Middlewares/ST/usbx/common/core/src/ux_device_stack_initialize.c ****         and endpoints.  */
 205:./Middlewares/ST/usbx/common/core/src/ux_device_stack_initialize.c ****         device_framework        =  _ux_system_slave -> ux_system_slave_device_framework_full_speed;
 152              		.loc 1 205 9 view .LVU63
 153              		.loc 1 205 53 is_stmt 0 view .LVU64
 154 0062 2268     		ldr	r2, [r4]
 155              		.loc 1 205 33 view .LVU65
 156 0064 D2F83031 		ldr	r3, [r2, #304]
 157              	.LVL11:
 206:./Middlewares/ST/usbx/common/core/src/ux_device_stack_initialize.c ****         device_framework_length =  _ux_system_slave -> ux_system_slave_device_framework_length_full
 158              		.loc 1 206 9 is_stmt 1 view .LVU66
 159              		.loc 1 206 33 is_stmt 0 view .LVU67
 160 0068 D2F83451 		ldr	r5, [r2, #308]
 161              	.LVL12:
 207:./Middlewares/ST/usbx/common/core/src/ux_device_stack_initialize.c **** 
 208:./Middlewares/ST/usbx/common/core/src/ux_device_stack_initialize.c ****         /* Reset all values we are using during the scanning of the framework.  */
 209:./Middlewares/ST/usbx/common/core/src/ux_device_stack_initialize.c ****         local_interfaces_found             =  0;
 162              		.loc 1 209 9 is_stmt 1 view .LVU68
 210:./Middlewares/ST/usbx/common/core/src/ux_device_stack_initialize.c ****         local_endpoints_found              =  0;
 163              		.loc 1 210 9 view .LVU69
 211:./Middlewares/ST/usbx/common/core/src/ux_device_stack_initialize.c ****         endpoints_in_interface_found       =  0;
 164              		.loc 1 211 9 view .LVU70
 212:./Middlewares/ST/usbx/common/core/src/ux_device_stack_initialize.c **** 
 213:./Middlewares/ST/usbx/common/core/src/ux_device_stack_initialize.c ****         /* Parse the device framework and locate interfaces and endpoint descriptor(s).  */
 214:./Middlewares/ST/usbx/common/core/src/ux_device_stack_initialize.c ****         while (device_framework_length != 0)
 165              		.loc 1 214 9 view .LVU71
 211:./Middlewares/ST/usbx/common/core/src/ux_device_stack_initialize.c ****         endpoints_in_interface_found       =  0;
 166              		.loc 1 211 44 is_stmt 0 view .LVU72
 167 006c 0021     		movs	r1, #0
 210:./Middlewares/ST/usbx/common/core/src/ux_device_stack_initialize.c ****         endpoints_in_interface_found       =  0;
 168              		.loc 1 210 44 view .LVU73
 169 006e 8C46     		mov	ip, r1
 209:./Middlewares/ST/usbx/common/core/src/ux_device_stack_initialize.c ****         local_endpoints_found              =  0;
 170              		.loc 1 209 44 view .LVU74
 171 0070 0C46     		mov	r4, r1
 196:./Middlewares/ST/usbx/common/core/src/ux_device_stack_initialize.c **** 
 172              		.loc 1 196 40 view .LVU75
 173 0072 8946     		mov	r9, r1
 195:./Middlewares/ST/usbx/common/core/src/ux_device_stack_initialize.c ****     max_interface_number               =  0;
 174              		.loc 1 195 40 view .LVU76
 175 0074 8E46     		mov	lr, r1
 194:./Middlewares/ST/usbx/common/core/src/ux_device_stack_initialize.c ****     endpoints_found                    =  0;
ARM GAS  /tmp/cco9iSfq.s 			page 8


 176              		.loc 1 194 40 view .LVU77
 177 0076 0F46     		mov	r7, r1
 178              		.loc 1 214 15 view .LVU78
 179 0078 08E0     		b	.L4
 180              	.LVL13:
 181              	.L7:
 215:./Middlewares/ST/usbx/common/core/src/ux_device_stack_initialize.c ****         {
 216:./Middlewares/ST/usbx/common/core/src/ux_device_stack_initialize.c **** 
 217:./Middlewares/ST/usbx/common/core/src/ux_device_stack_initialize.c ****             /* Get the length of this descriptor.  */
 218:./Middlewares/ST/usbx/common/core/src/ux_device_stack_initialize.c ****             descriptor_length =  (ULONG) *device_framework;
 219:./Middlewares/ST/usbx/common/core/src/ux_device_stack_initialize.c ****         
 220:./Middlewares/ST/usbx/common/core/src/ux_device_stack_initialize.c ****             /* And its type.  */
 221:./Middlewares/ST/usbx/common/core/src/ux_device_stack_initialize.c ****             descriptor_type =  *(device_framework + 1);
 222:./Middlewares/ST/usbx/common/core/src/ux_device_stack_initialize.c ****                     
 223:./Middlewares/ST/usbx/common/core/src/ux_device_stack_initialize.c ****             /* Check if this is an endpoint descriptor.  */
 224:./Middlewares/ST/usbx/common/core/src/ux_device_stack_initialize.c ****             switch(descriptor_type)
 225:./Middlewares/ST/usbx/common/core/src/ux_device_stack_initialize.c ****             {
 226:./Middlewares/ST/usbx/common/core/src/ux_device_stack_initialize.c **** 
 227:./Middlewares/ST/usbx/common/core/src/ux_device_stack_initialize.c ****             case UX_INTERFACE_DESCRIPTOR_ITEM:
 228:./Middlewares/ST/usbx/common/core/src/ux_device_stack_initialize.c **** 
 229:./Middlewares/ST/usbx/common/core/src/ux_device_stack_initialize.c ****                 /* Check if this is alternate setting 0. If not, do not add another interface found
 230:./Middlewares/ST/usbx/common/core/src/ux_device_stack_initialize.c ****                 If this is alternate setting 0, reset the endpoints count for this interface.  */
 231:./Middlewares/ST/usbx/common/core/src/ux_device_stack_initialize.c ****                 if (*(device_framework + 3) == 0)
 232:./Middlewares/ST/usbx/common/core/src/ux_device_stack_initialize.c ****                 {
 233:./Middlewares/ST/usbx/common/core/src/ux_device_stack_initialize.c **** 
 234:./Middlewares/ST/usbx/common/core/src/ux_device_stack_initialize.c ****                     /* Add the cumulated number of endpoints in the previous interface.  */
 235:./Middlewares/ST/usbx/common/core/src/ux_device_stack_initialize.c ****                     local_endpoints_found += endpoints_in_interface_found;
 236:./Middlewares/ST/usbx/common/core/src/ux_device_stack_initialize.c **** 
 237:./Middlewares/ST/usbx/common/core/src/ux_device_stack_initialize.c ****                     /* Read the number of endpoints for this alternate setting.  */
 238:./Middlewares/ST/usbx/common/core/src/ux_device_stack_initialize.c ****                     endpoints_in_interface_found = (ULONG) *(device_framework + 4);
 239:./Middlewares/ST/usbx/common/core/src/ux_device_stack_initialize.c ****                     
 240:./Middlewares/ST/usbx/common/core/src/ux_device_stack_initialize.c ****                     /* Increment the number of interfaces found in the current configuration.  */
 241:./Middlewares/ST/usbx/common/core/src/ux_device_stack_initialize.c ****                     local_interfaces_found++;
 242:./Middlewares/ST/usbx/common/core/src/ux_device_stack_initialize.c ****                 }                
 243:./Middlewares/ST/usbx/common/core/src/ux_device_stack_initialize.c ****                 else
 244:./Middlewares/ST/usbx/common/core/src/ux_device_stack_initialize.c ****                 {
 245:./Middlewares/ST/usbx/common/core/src/ux_device_stack_initialize.c **** 
 246:./Middlewares/ST/usbx/common/core/src/ux_device_stack_initialize.c ****                     /* Compare the number of endpoints found in this non 0 alternate setting.  */
 247:./Middlewares/ST/usbx/common/core/src/ux_device_stack_initialize.c ****                     if (endpoints_in_interface_found < (ULONG) *(device_framework + 4))
 182              		.loc 1 247 21 is_stmt 1 view .LVU79
 183              		.loc 1 247 64 is_stmt 0 view .LVU80
 184 007a 1879     		ldrb	r0, [r3, #4]	@ zero_extendqisi2
 185              		.loc 1 247 24 view .LVU81
 186 007c 8842     		cmp	r0, r1
 187 007e 00D9     		bls	.L8
 248:./Middlewares/ST/usbx/common/core/src/ux_device_stack_initialize.c ****                     
 249:./Middlewares/ST/usbx/common/core/src/ux_device_stack_initialize.c ****                         /* Adjust the number of maximum endpoints in this interface.  */
 250:./Middlewares/ST/usbx/common/core/src/ux_device_stack_initialize.c ****                         endpoints_in_interface_found = (ULONG) *(device_framework + 4);
 188              		.loc 1 250 54 view .LVU82
 189 0080 0146     		mov	r1, r0
 190              	.LVL14:
 191              	.L8:
 251:./Middlewares/ST/usbx/common/core/src/ux_device_stack_initialize.c ****                 }
 252:./Middlewares/ST/usbx/common/core/src/ux_device_stack_initialize.c **** 
 253:./Middlewares/ST/usbx/common/core/src/ux_device_stack_initialize.c ****                 /* Check and update max interface number.  */
 254:./Middlewares/ST/usbx/common/core/src/ux_device_stack_initialize.c ****                 if (*(device_framework + 2) > max_interface_number)
 192              		.loc 1 254 17 is_stmt 1 view .LVU83
ARM GAS  /tmp/cco9iSfq.s 			page 9


 193              		.loc 1 254 21 is_stmt 0 view .LVU84
 194 0082 9878     		ldrb	r0, [r3, #2]	@ zero_extendqisi2
 195              		.loc 1 254 20 view .LVU85
 196 0084 4845     		cmp	r0, r9
 197 0086 19D8     		bhi	.L28
 198              	.LVL15:
 199              	.L6:
 255:./Middlewares/ST/usbx/common/core/src/ux_device_stack_initialize.c ****                     max_interface_number = *(device_framework + 2);
 256:./Middlewares/ST/usbx/common/core/src/ux_device_stack_initialize.c **** 
 257:./Middlewares/ST/usbx/common/core/src/ux_device_stack_initialize.c ****                 break;
 258:./Middlewares/ST/usbx/common/core/src/ux_device_stack_initialize.c **** 
 259:./Middlewares/ST/usbx/common/core/src/ux_device_stack_initialize.c ****             case UX_CONFIGURATION_DESCRIPTOR_ITEM:
 260:./Middlewares/ST/usbx/common/core/src/ux_device_stack_initialize.c **** 
 261:./Middlewares/ST/usbx/common/core/src/ux_device_stack_initialize.c ****                 /* Check if the number of interfaces found in this configuration is the maximum so 
 262:./Middlewares/ST/usbx/common/core/src/ux_device_stack_initialize.c ****                 if (local_interfaces_found > interfaces_found)
 263:./Middlewares/ST/usbx/common/core/src/ux_device_stack_initialize.c ****                     
 264:./Middlewares/ST/usbx/common/core/src/ux_device_stack_initialize.c ****                     /* We need to adjust the number of maximum interfaces.  */
 265:./Middlewares/ST/usbx/common/core/src/ux_device_stack_initialize.c ****                     interfaces_found =  local_interfaces_found;
 266:./Middlewares/ST/usbx/common/core/src/ux_device_stack_initialize.c **** 
 267:./Middlewares/ST/usbx/common/core/src/ux_device_stack_initialize.c ****                 /* We have a new configuration. We need to reset the number of local interfaces. */
 268:./Middlewares/ST/usbx/common/core/src/ux_device_stack_initialize.c ****                 local_interfaces_found =  0;
 269:./Middlewares/ST/usbx/common/core/src/ux_device_stack_initialize.c **** 
 270:./Middlewares/ST/usbx/common/core/src/ux_device_stack_initialize.c ****                 /* Add the cumulated number of endpoints in the previous interface.  */
 271:./Middlewares/ST/usbx/common/core/src/ux_device_stack_initialize.c ****                 local_endpoints_found += endpoints_in_interface_found;
 272:./Middlewares/ST/usbx/common/core/src/ux_device_stack_initialize.c **** 
 273:./Middlewares/ST/usbx/common/core/src/ux_device_stack_initialize.c ****                 /* Check if the number of endpoints found in the previous configuration is the maxi
 274:./Middlewares/ST/usbx/common/core/src/ux_device_stack_initialize.c ****                 if (local_endpoints_found > endpoints_found)
 275:./Middlewares/ST/usbx/common/core/src/ux_device_stack_initialize.c ****                     
 276:./Middlewares/ST/usbx/common/core/src/ux_device_stack_initialize.c ****                     /* We need to adjust the number of maximum endpoints.  */
 277:./Middlewares/ST/usbx/common/core/src/ux_device_stack_initialize.c ****                     endpoints_found =  local_endpoints_found;
 278:./Middlewares/ST/usbx/common/core/src/ux_device_stack_initialize.c **** 
 279:./Middlewares/ST/usbx/common/core/src/ux_device_stack_initialize.c ****                 /* We have a new configuration. We need to reset the number of local endpoints. */
 280:./Middlewares/ST/usbx/common/core/src/ux_device_stack_initialize.c ****                 local_endpoints_found         =  0;
 281:./Middlewares/ST/usbx/common/core/src/ux_device_stack_initialize.c ****                 endpoints_in_interface_found  =  0;
 282:./Middlewares/ST/usbx/common/core/src/ux_device_stack_initialize.c **** 
 283:./Middlewares/ST/usbx/common/core/src/ux_device_stack_initialize.c ****                 break;
 284:./Middlewares/ST/usbx/common/core/src/ux_device_stack_initialize.c **** 
 285:./Middlewares/ST/usbx/common/core/src/ux_device_stack_initialize.c ****             default:
 286:./Middlewares/ST/usbx/common/core/src/ux_device_stack_initialize.c ****                 break;
 287:./Middlewares/ST/usbx/common/core/src/ux_device_stack_initialize.c ****             }
 288:./Middlewares/ST/usbx/common/core/src/ux_device_stack_initialize.c **** 
 289:./Middlewares/ST/usbx/common/core/src/ux_device_stack_initialize.c ****             /* Adjust what is left of the device framework.  */
 290:./Middlewares/ST/usbx/common/core/src/ux_device_stack_initialize.c ****             device_framework_length -=  descriptor_length;
 200              		.loc 1 290 13 is_stmt 1 view .LVU86
 201              		.loc 1 290 37 is_stmt 0 view .LVU87
 202 0088 AD1A     		subs	r5, r5, r2
 203              	.LVL16:
 291:./Middlewares/ST/usbx/common/core/src/ux_device_stack_initialize.c **** 
 292:./Middlewares/ST/usbx/common/core/src/ux_device_stack_initialize.c ****             /* Point to the next descriptor.  */
 293:./Middlewares/ST/usbx/common/core/src/ux_device_stack_initialize.c ****             device_framework +=  descriptor_length;
 204              		.loc 1 293 13 is_stmt 1 view .LVU88
 205              		.loc 1 293 30 is_stmt 0 view .LVU89
 206 008a 1344     		add	r3, r3, r2
 207              	.LVL17:
 208              	.L4:
 214:./Middlewares/ST/usbx/common/core/src/ux_device_stack_initialize.c ****         {
 209              		.loc 1 214 40 is_stmt 1 view .LVU90
ARM GAS  /tmp/cco9iSfq.s 			page 10


 210 008c EDB1     		cbz	r5, .L39
 218:./Middlewares/ST/usbx/common/core/src/ux_device_stack_initialize.c ****         
 211              		.loc 1 218 13 view .LVU91
 218:./Middlewares/ST/usbx/common/core/src/ux_device_stack_initialize.c ****         
 212              		.loc 1 218 42 is_stmt 0 view .LVU92
 213 008e 1A78     		ldrb	r2, [r3]	@ zero_extendqisi2
 214              	.LVL18:
 221:./Middlewares/ST/usbx/common/core/src/ux_device_stack_initialize.c ****                     
 215              		.loc 1 221 13 is_stmt 1 view .LVU93
 221:./Middlewares/ST/usbx/common/core/src/ux_device_stack_initialize.c ****                     
 216              		.loc 1 221 29 is_stmt 0 view .LVU94
 217 0090 5878     		ldrb	r0, [r3, #1]	@ zero_extendqisi2
 218              	.LVL19:
 224:./Middlewares/ST/usbx/common/core/src/ux_device_stack_initialize.c ****             {
 219              		.loc 1 224 13 is_stmt 1 view .LVU95
 220 0092 0228     		cmp	r0, #2
 221 0094 08D0     		beq	.L5
 222 0096 0428     		cmp	r0, #4
 223 0098 F6D1     		bne	.L6
 231:./Middlewares/ST/usbx/common/core/src/ux_device_stack_initialize.c ****                 {
 224              		.loc 1 231 17 view .LVU96
 231:./Middlewares/ST/usbx/common/core/src/ux_device_stack_initialize.c ****                 {
 225              		.loc 1 231 21 is_stmt 0 view .LVU97
 226 009a D878     		ldrb	r0, [r3, #3]	@ zero_extendqisi2
 227              	.LVL20:
 231:./Middlewares/ST/usbx/common/core/src/ux_device_stack_initialize.c ****                 {
 228              		.loc 1 231 20 view .LVU98
 229 009c 0028     		cmp	r0, #0
 230 009e ECD1     		bne	.L7
 235:./Middlewares/ST/usbx/common/core/src/ux_device_stack_initialize.c **** 
 231              		.loc 1 235 21 is_stmt 1 view .LVU99
 235:./Middlewares/ST/usbx/common/core/src/ux_device_stack_initialize.c **** 
 232              		.loc 1 235 43 is_stmt 0 view .LVU100
 233 00a0 8C44     		add	ip, ip, r1
 234              	.LVL21:
 238:./Middlewares/ST/usbx/common/core/src/ux_device_stack_initialize.c ****                     
 235              		.loc 1 238 21 is_stmt 1 view .LVU101
 238:./Middlewares/ST/usbx/common/core/src/ux_device_stack_initialize.c ****                     
 236              		.loc 1 238 60 is_stmt 0 view .LVU102
 237 00a2 1979     		ldrb	r1, [r3, #4]	@ zero_extendqisi2
 238              	.LVL22:
 241:./Middlewares/ST/usbx/common/core/src/ux_device_stack_initialize.c ****                 }                
 239              		.loc 1 241 21 is_stmt 1 view .LVU103
 241:./Middlewares/ST/usbx/common/core/src/ux_device_stack_initialize.c ****                 }                
 240              		.loc 1 241 43 is_stmt 0 view .LVU104
 241 00a4 0134     		adds	r4, r4, #1
 242              	.LVL23:
 241:./Middlewares/ST/usbx/common/core/src/ux_device_stack_initialize.c ****                 }                
 243              		.loc 1 241 43 view .LVU105
 244 00a6 ECE7     		b	.L8
 245              	.LVL24:
 246              	.L5:
 262:./Middlewares/ST/usbx/common/core/src/ux_device_stack_initialize.c ****                     
 247              		.loc 1 262 17 is_stmt 1 view .LVU106
 262:./Middlewares/ST/usbx/common/core/src/ux_device_stack_initialize.c ****                     
 248              		.loc 1 262 20 is_stmt 0 view .LVU107
 249 00a8 A742     		cmp	r7, r4
ARM GAS  /tmp/cco9iSfq.s 			page 11


 250 00aa 00D2     		bcs	.L9
 265:./Middlewares/ST/usbx/common/core/src/ux_device_stack_initialize.c **** 
 251              		.loc 1 265 38 view .LVU108
 252 00ac 2746     		mov	r7, r4
 253              	.LVL25:
 254              	.L9:
 268:./Middlewares/ST/usbx/common/core/src/ux_device_stack_initialize.c **** 
 255              		.loc 1 268 17 is_stmt 1 view .LVU109
 271:./Middlewares/ST/usbx/common/core/src/ux_device_stack_initialize.c **** 
 256              		.loc 1 271 17 view .LVU110
 271:./Middlewares/ST/usbx/common/core/src/ux_device_stack_initialize.c **** 
 257              		.loc 1 271 39 is_stmt 0 view .LVU111
 258 00ae 8C44     		add	ip, ip, r1
 259              	.LVL26:
 274:./Middlewares/ST/usbx/common/core/src/ux_device_stack_initialize.c ****                     
 260              		.loc 1 274 17 is_stmt 1 view .LVU112
 274:./Middlewares/ST/usbx/common/core/src/ux_device_stack_initialize.c ****                     
 261              		.loc 1 274 20 is_stmt 0 view .LVU113
 262 00b0 E645     		cmp	lr, ip
 263 00b2 05D3     		bcc	.L30
 281:./Middlewares/ST/usbx/common/core/src/ux_device_stack_initialize.c **** 
 264              		.loc 1 281 47 view .LVU114
 265 00b4 0021     		movs	r1, #0
 266              	.LVL27:
 280:./Middlewares/ST/usbx/common/core/src/ux_device_stack_initialize.c ****                 endpoints_in_interface_found  =  0;
 267              		.loc 1 280 47 view .LVU115
 268 00b6 8C46     		mov	ip, r1
 269              	.LVL28:
 268:./Middlewares/ST/usbx/common/core/src/ux_device_stack_initialize.c **** 
 270              		.loc 1 268 40 view .LVU116
 271 00b8 0C46     		mov	r4, r1
 272 00ba E5E7     		b	.L6
 273              	.LVL29:
 274              	.L28:
 255:./Middlewares/ST/usbx/common/core/src/ux_device_stack_initialize.c **** 
 275              		.loc 1 255 42 view .LVU117
 276 00bc 8146     		mov	r9, r0
 277              	.LVL30:
 255:./Middlewares/ST/usbx/common/core/src/ux_device_stack_initialize.c **** 
 278              		.loc 1 255 42 view .LVU118
 279 00be E3E7     		b	.L6
 280              	.LVL31:
 281              	.L30:
 277:./Middlewares/ST/usbx/common/core/src/ux_device_stack_initialize.c **** 
 282              		.loc 1 277 37 view .LVU119
 283 00c0 E646     		mov	lr, ip
 284              	.LVL32:
 281:./Middlewares/ST/usbx/common/core/src/ux_device_stack_initialize.c **** 
 285              		.loc 1 281 47 view .LVU120
 286 00c2 0021     		movs	r1, #0
 287              	.LVL33:
 280:./Middlewares/ST/usbx/common/core/src/ux_device_stack_initialize.c ****                 endpoints_in_interface_found  =  0;
 288              		.loc 1 280 47 view .LVU121
 289 00c4 8C46     		mov	ip, r1
 290              	.LVL34:
 268:./Middlewares/ST/usbx/common/core/src/ux_device_stack_initialize.c **** 
 291              		.loc 1 268 40 view .LVU122
ARM GAS  /tmp/cco9iSfq.s 			page 12


 292 00c6 0C46     		mov	r4, r1
 293 00c8 DEE7     		b	.L6
 294              	.LVL35:
 295              	.L39:
 294:./Middlewares/ST/usbx/common/core/src/ux_device_stack_initialize.c ****         }
 295:./Middlewares/ST/usbx/common/core/src/ux_device_stack_initialize.c ****         
 296:./Middlewares/ST/usbx/common/core/src/ux_device_stack_initialize.c ****         /* Add the cumulated number of endpoints in the previous interface.  */
 297:./Middlewares/ST/usbx/common/core/src/ux_device_stack_initialize.c ****         local_endpoints_found += endpoints_in_interface_found;
 296              		.loc 1 297 9 is_stmt 1 view .LVU123
 297              		.loc 1 297 31 is_stmt 0 view .LVU124
 298 00ca 0CEB0108 		add	r8, ip, r1
 299              	.LVL36:
 298:./Middlewares/ST/usbx/common/core/src/ux_device_stack_initialize.c **** 
 299:./Middlewares/ST/usbx/common/core/src/ux_device_stack_initialize.c ****         /* Check if the number of endpoints found in the previous interface is the maximum so far. 
 300:./Middlewares/ST/usbx/common/core/src/ux_device_stack_initialize.c ****         if (local_endpoints_found > endpoints_found)
 300              		.loc 1 300 9 is_stmt 1 view .LVU125
 301              		.loc 1 300 12 is_stmt 0 view .LVU126
 302 00ce C645     		cmp	lr, r8
 303 00d0 00D3     		bcc	.L11
 304 00d2 F046     		mov	r8, lr
 305              	.LVL37:
 306              	.L11:
 301:./Middlewares/ST/usbx/common/core/src/ux_device_stack_initialize.c ****                     
 302:./Middlewares/ST/usbx/common/core/src/ux_device_stack_initialize.c ****             /* We need to adjust the number of maximum endpoints.  */
 303:./Middlewares/ST/usbx/common/core/src/ux_device_stack_initialize.c ****             endpoints_found =  local_endpoints_found;
 304:./Middlewares/ST/usbx/common/core/src/ux_device_stack_initialize.c **** 
 305:./Middlewares/ST/usbx/common/core/src/ux_device_stack_initialize.c **** 
 306:./Middlewares/ST/usbx/common/core/src/ux_device_stack_initialize.c ****         /* Check if the number of interfaces found in this configuration is the maximum so far. */
 307:./Middlewares/ST/usbx/common/core/src/ux_device_stack_initialize.c ****         if (local_interfaces_found > interfaces_found)
 307              		.loc 1 307 9 is_stmt 1 view .LVU127
 308              		.loc 1 307 12 is_stmt 0 view .LVU128
 309 00d4 A742     		cmp	r7, r4
 310 00d6 01D3     		bcc	.L12
 308:./Middlewares/ST/usbx/common/core/src/ux_device_stack_initialize.c ****             
 309:./Middlewares/ST/usbx/common/core/src/ux_device_stack_initialize.c ****             /* We need to adjust the number of maximum interfaces.  */
 310:./Middlewares/ST/usbx/common/core/src/ux_device_stack_initialize.c ****             interfaces_found =  local_interfaces_found;
 311:./Middlewares/ST/usbx/common/core/src/ux_device_stack_initialize.c **** 
 312:./Middlewares/ST/usbx/common/core/src/ux_device_stack_initialize.c ****         /* We do a sanity check on the finding. At least there must be one interface but endpoints 
 313:./Middlewares/ST/usbx/common/core/src/ux_device_stack_initialize.c ****         not necessary.  */
 314:./Middlewares/ST/usbx/common/core/src/ux_device_stack_initialize.c ****         if (interfaces_found == 0)
 311              		.loc 1 314 9 is_stmt 1 view .LVU129
 312              		.loc 1 314 12 is_stmt 0 view .LVU130
 313 00d8 57B1     		cbz	r7, .L40
 314 00da 3C46     		mov	r4, r7
 315              	.LVL38:
 316              	.L12:
 315:./Middlewares/ST/usbx/common/core/src/ux_device_stack_initialize.c ****         {
 316:./Middlewares/ST/usbx/common/core/src/ux_device_stack_initialize.c **** 
 317:./Middlewares/ST/usbx/common/core/src/ux_device_stack_initialize.c ****             /* Error trap. */
 318:./Middlewares/ST/usbx/common/core/src/ux_device_stack_initialize.c ****             _ux_system_error_handler(UX_SYSTEM_LEVEL_THREAD, UX_SYSTEM_CONTEXT_INIT, UX_DESCRIPTOR_
 319:./Middlewares/ST/usbx/common/core/src/ux_device_stack_initialize.c **** 
 320:./Middlewares/ST/usbx/common/core/src/ux_device_stack_initialize.c ****             /* If trace is enabled, insert this event into the trace buffer.  */
 321:./Middlewares/ST/usbx/common/core/src/ux_device_stack_initialize.c ****             UX_TRACE_IN_LINE_INSERT(UX_TRACE_ERROR, UX_DESCRIPTOR_CORRUPTED, device_framework, 0, 0
 322:./Middlewares/ST/usbx/common/core/src/ux_device_stack_initialize.c **** 
 323:./Middlewares/ST/usbx/common/core/src/ux_device_stack_initialize.c ****             status = UX_DESCRIPTOR_CORRUPTED;
 324:./Middlewares/ST/usbx/common/core/src/ux_device_stack_initialize.c ****         }
 325:./Middlewares/ST/usbx/common/core/src/ux_device_stack_initialize.c **** 
ARM GAS  /tmp/cco9iSfq.s 			page 13


 326:./Middlewares/ST/usbx/common/core/src/ux_device_stack_initialize.c ****         /* We do a sanity check on the finding. Max interface number should not exceed limit.  */
 327:./Middlewares/ST/usbx/common/core/src/ux_device_stack_initialize.c ****         if (status == UX_SUCCESS &&
 317              		.loc 1 327 9 is_stmt 1 view .LVU131
 318              		.loc 1 327 34 is_stmt 0 discriminator 1 view .LVU132
 319 00dc B9F10F0F 		cmp	r9, #15
 320 00e0 0ED8     		bhi	.L41
 321              	.LVL39:
 322              	.L3:
 328:./Middlewares/ST/usbx/common/core/src/ux_device_stack_initialize.c ****             max_interface_number >= UX_MAX_SLAVE_INTERFACES)
 329:./Middlewares/ST/usbx/common/core/src/ux_device_stack_initialize.c ****         {
 330:./Middlewares/ST/usbx/common/core/src/ux_device_stack_initialize.c **** 
 331:./Middlewares/ST/usbx/common/core/src/ux_device_stack_initialize.c ****             /* Error trap. */
 332:./Middlewares/ST/usbx/common/core/src/ux_device_stack_initialize.c ****             _ux_system_error_handler(UX_SYSTEM_LEVEL_THREAD, UX_SYSTEM_CONTEXT_INIT, UX_MEMORY_INSU
 333:./Middlewares/ST/usbx/common/core/src/ux_device_stack_initialize.c **** 
 334:./Middlewares/ST/usbx/common/core/src/ux_device_stack_initialize.c ****             /* If trace is enabled, insert this event into the trace buffer.  */
 335:./Middlewares/ST/usbx/common/core/src/ux_device_stack_initialize.c ****             UX_TRACE_IN_LINE_INSERT(UX_TRACE_ERROR, UX_MEMORY_INSUFFICIENT, device_framework, 0, 0,
 336:./Middlewares/ST/usbx/common/core/src/ux_device_stack_initialize.c **** 
 337:./Middlewares/ST/usbx/common/core/src/ux_device_stack_initialize.c ****             status = UX_MEMORY_INSUFFICIENT;
 338:./Middlewares/ST/usbx/common/core/src/ux_device_stack_initialize.c ****         }
 339:./Middlewares/ST/usbx/common/core/src/ux_device_stack_initialize.c ****     }
 340:./Middlewares/ST/usbx/common/core/src/ux_device_stack_initialize.c **** #endif
 341:./Middlewares/ST/usbx/common/core/src/ux_device_stack_initialize.c **** 
 342:./Middlewares/ST/usbx/common/core/src/ux_device_stack_initialize.c ****     /* Go on to allocate interfaces pool if no error.  */
 343:./Middlewares/ST/usbx/common/core/src/ux_device_stack_initialize.c ****     if (status == UX_SUCCESS)
 323              		.loc 1 343 5 is_stmt 1 view .LVU133
 324              		.loc 1 343 8 is_stmt 0 view .LVU134
 325 00e2 CDB1     		cbz	r5, .L42
 326              	.LVL40:
 327              	.L13:
 344:./Middlewares/ST/usbx/common/core/src/ux_device_stack_initialize.c ****     {
 345:./Middlewares/ST/usbx/common/core/src/ux_device_stack_initialize.c **** 
 346:./Middlewares/ST/usbx/common/core/src/ux_device_stack_initialize.c ****         /* Memorize both pool sizes.  */
 347:./Middlewares/ST/usbx/common/core/src/ux_device_stack_initialize.c ****         device -> ux_slave_device_interfaces_pool_number = interfaces_found;
 348:./Middlewares/ST/usbx/common/core/src/ux_device_stack_initialize.c ****         device -> ux_slave_device_endpoints_pool_number  = endpoints_found;
 349:./Middlewares/ST/usbx/common/core/src/ux_device_stack_initialize.c **** 
 350:./Middlewares/ST/usbx/common/core/src/ux_device_stack_initialize.c ****         /* We assign a pool for the interfaces.  */
 351:./Middlewares/ST/usbx/common/core/src/ux_device_stack_initialize.c ****         interfaces_pool =  _ux_utility_memory_allocate_mulc_safe(UX_NO_ALIGN, UX_REGULAR_MEMORY, in
 352:./Middlewares/ST/usbx/common/core/src/ux_device_stack_initialize.c ****         if (interfaces_pool == UX_NULL)
 353:./Middlewares/ST/usbx/common/core/src/ux_device_stack_initialize.c ****             status = UX_MEMORY_INSUFFICIENT;
 354:./Middlewares/ST/usbx/common/core/src/ux_device_stack_initialize.c ****         else
 355:./Middlewares/ST/usbx/common/core/src/ux_device_stack_initialize.c **** 
 356:./Middlewares/ST/usbx/common/core/src/ux_device_stack_initialize.c ****             /* Save the interface pool address in the device container.  */
 357:./Middlewares/ST/usbx/common/core/src/ux_device_stack_initialize.c ****             device -> ux_slave_device_interfaces_pool =  interfaces_pool;
 358:./Middlewares/ST/usbx/common/core/src/ux_device_stack_initialize.c ****     }
 359:./Middlewares/ST/usbx/common/core/src/ux_device_stack_initialize.c **** 
 360:./Middlewares/ST/usbx/common/core/src/ux_device_stack_initialize.c ****     /* Do we need an endpoint pool ?  */
 361:./Middlewares/ST/usbx/common/core/src/ux_device_stack_initialize.c ****     if (endpoints_found != 0 && status == UX_SUCCESS)
 328              		.loc 1 361 5 is_stmt 1 view .LVU135
 329              		.loc 1 361 8 is_stmt 0 view .LVU136
 330 00e4 B8F1000F 		cmp	r8, #0
 331 00e8 4AD0     		beq	.L33
 332              		.loc 1 361 30 discriminator 1 view .LVU137
 333 00ea 2DB3     		cbz	r5, .L43
 362:./Middlewares/ST/usbx/common/core/src/ux_device_stack_initialize.c ****     {
 363:./Middlewares/ST/usbx/common/core/src/ux_device_stack_initialize.c **** 
 364:./Middlewares/ST/usbx/common/core/src/ux_device_stack_initialize.c ****         /* We assign a pool for the endpoints.  */
 365:./Middlewares/ST/usbx/common/core/src/ux_device_stack_initialize.c ****         endpoints_pool =  _ux_utility_memory_allocate_mulc_safe(UX_NO_ALIGN, UX_REGULAR_MEMORY, end
ARM GAS  /tmp/cco9iSfq.s 			page 14


 366:./Middlewares/ST/usbx/common/core/src/ux_device_stack_initialize.c ****         if (endpoints_pool == UX_NULL)
 367:./Middlewares/ST/usbx/common/core/src/ux_device_stack_initialize.c ****             status = UX_MEMORY_INSUFFICIENT;
 368:./Middlewares/ST/usbx/common/core/src/ux_device_stack_initialize.c ****         else
 369:./Middlewares/ST/usbx/common/core/src/ux_device_stack_initialize.c ****         {
 370:./Middlewares/ST/usbx/common/core/src/ux_device_stack_initialize.c **** 
 371:./Middlewares/ST/usbx/common/core/src/ux_device_stack_initialize.c ****             /* Save the endpoint pool address in the device container.  */
 372:./Middlewares/ST/usbx/common/core/src/ux_device_stack_initialize.c ****             device -> ux_slave_device_endpoints_pool =  endpoints_pool;
 373:./Middlewares/ST/usbx/common/core/src/ux_device_stack_initialize.c **** 
 374:./Middlewares/ST/usbx/common/core/src/ux_device_stack_initialize.c ****             /* We need to assign a transfer buffer to each endpoint. Each endpoint is assigned the
 375:./Middlewares/ST/usbx/common/core/src/ux_device_stack_initialize.c ****             maximum buffer size.  We also assign the semaphore used by the endpoint to synchronize 
 376:./Middlewares/ST/usbx/common/core/src/ux_device_stack_initialize.c ****             completion. */
 377:./Middlewares/ST/usbx/common/core/src/ux_device_stack_initialize.c ****             while (endpoints_pool < (device -> ux_slave_device_endpoints_pool + endpoints_found))
 378:./Middlewares/ST/usbx/common/core/src/ux_device_stack_initialize.c ****             {
 379:./Middlewares/ST/usbx/common/core/src/ux_device_stack_initialize.c **** 
 380:./Middlewares/ST/usbx/common/core/src/ux_device_stack_initialize.c ****                 /* Obtain some memory.  */
 381:./Middlewares/ST/usbx/common/core/src/ux_device_stack_initialize.c ****                 endpoints_pool -> ux_slave_endpoint_transfer_request.ux_slave_transfer_request_data
 382:./Middlewares/ST/usbx/common/core/src/ux_device_stack_initialize.c ****                                 _ux_utility_memory_allocate(UX_NO_ALIGN, UX_CACHE_SAFE_MEMORY, UX_S
 383:./Middlewares/ST/usbx/common/core/src/ux_device_stack_initialize.c **** 
 384:./Middlewares/ST/usbx/common/core/src/ux_device_stack_initialize.c ****                 /* Ensure we could allocate memory.  */
 385:./Middlewares/ST/usbx/common/core/src/ux_device_stack_initialize.c ****                 if (endpoints_pool -> ux_slave_endpoint_transfer_request.ux_slave_transfer_request_
 386:./Middlewares/ST/usbx/common/core/src/ux_device_stack_initialize.c ****                 {
 387:./Middlewares/ST/usbx/common/core/src/ux_device_stack_initialize.c ****                     status = UX_MEMORY_INSUFFICIENT;
 388:./Middlewares/ST/usbx/common/core/src/ux_device_stack_initialize.c ****                     break;
 389:./Middlewares/ST/usbx/common/core/src/ux_device_stack_initialize.c ****                 }
 390:./Middlewares/ST/usbx/common/core/src/ux_device_stack_initialize.c ****         
 391:./Middlewares/ST/usbx/common/core/src/ux_device_stack_initialize.c ****                 /* Create the semaphore for the endpoint.  */
 392:./Middlewares/ST/usbx/common/core/src/ux_device_stack_initialize.c ****                 status =  _ux_device_semaphore_create(&endpoints_pool -> ux_slave_endpoint_transfer
 393:./Middlewares/ST/usbx/common/core/src/ux_device_stack_initialize.c ****                                                     "ux_transfer_request_semaphore", 0);
 394:./Middlewares/ST/usbx/common/core/src/ux_device_stack_initialize.c **** 
 395:./Middlewares/ST/usbx/common/core/src/ux_device_stack_initialize.c ****                 /* Check completion status.  */
 396:./Middlewares/ST/usbx/common/core/src/ux_device_stack_initialize.c ****                 if (status != UX_SUCCESS)
 397:./Middlewares/ST/usbx/common/core/src/ux_device_stack_initialize.c ****                 {
 398:./Middlewares/ST/usbx/common/core/src/ux_device_stack_initialize.c ****                     status = UX_SEMAPHORE_ERROR;
 399:./Middlewares/ST/usbx/common/core/src/ux_device_stack_initialize.c ****                     break;
 400:./Middlewares/ST/usbx/common/core/src/ux_device_stack_initialize.c ****                 }
 401:./Middlewares/ST/usbx/common/core/src/ux_device_stack_initialize.c ****         
 402:./Middlewares/ST/usbx/common/core/src/ux_device_stack_initialize.c ****                 /* Next endpoint.  */
 403:./Middlewares/ST/usbx/common/core/src/ux_device_stack_initialize.c ****                 endpoints_pool++;
 404:./Middlewares/ST/usbx/common/core/src/ux_device_stack_initialize.c ****             }
 405:./Middlewares/ST/usbx/common/core/src/ux_device_stack_initialize.c ****         }
 406:./Middlewares/ST/usbx/common/core/src/ux_device_stack_initialize.c ****     }
 407:./Middlewares/ST/usbx/common/core/src/ux_device_stack_initialize.c ****     else
 408:./Middlewares/ST/usbx/common/core/src/ux_device_stack_initialize.c ****         endpoints_pool = UX_NULL;
 334              		.loc 1 408 24 view .LVU138
 335 00ec 0024     		movs	r4, #0
 336              	.LVL41:
 337              		.loc 1 408 24 view .LVU139
 338 00ee 49E0     		b	.L15
 339              	.LVL42:
 340              	.L40:
 318:./Middlewares/ST/usbx/common/core/src/ux_device_stack_initialize.c **** 
 341              		.loc 1 318 13 is_stmt 1 view .LVU140
 342 00f0 4222     		movs	r2, #66
 343 00f2 0321     		movs	r1, #3
 344              	.LVL43:
 318:./Middlewares/ST/usbx/common/core/src/ux_device_stack_initialize.c **** 
 345              		.loc 1 318 13 is_stmt 0 view .LVU141
ARM GAS  /tmp/cco9iSfq.s 			page 15


 346 00f4 0220     		movs	r0, #2
 347 00f6 FFF7FEFF 		bl	_ux_system_error_handler
 348              	.LVL44:
 323:./Middlewares/ST/usbx/common/core/src/ux_device_stack_initialize.c ****         }
 349              		.loc 1 323 13 is_stmt 1 view .LVU142
 327:./Middlewares/ST/usbx/common/core/src/ux_device_stack_initialize.c ****             max_interface_number >= UX_MAX_SLAVE_INTERFACES)
 350              		.loc 1 327 9 view .LVU143
 318:./Middlewares/ST/usbx/common/core/src/ux_device_stack_initialize.c **** 
 351              		.loc 1 318 13 is_stmt 0 view .LVU144
 352 00fa 3C46     		mov	r4, r7
 353              	.LVL45:
 323:./Middlewares/ST/usbx/common/core/src/ux_device_stack_initialize.c ****         }
 354              		.loc 1 323 20 view .LVU145
 355 00fc 4225     		movs	r5, #66
 356              	.LVL46:
 323:./Middlewares/ST/usbx/common/core/src/ux_device_stack_initialize.c ****         }
 357              		.loc 1 323 20 view .LVU146
 358 00fe F0E7     		b	.L3
 359              	.LVL47:
 360              	.L41:
 332:./Middlewares/ST/usbx/common/core/src/ux_device_stack_initialize.c **** 
 361              		.loc 1 332 13 is_stmt 1 view .LVU147
 362 0100 1222     		movs	r2, #18
 363 0102 0321     		movs	r1, #3
 364              	.LVL48:
 332:./Middlewares/ST/usbx/common/core/src/ux_device_stack_initialize.c **** 
 365              		.loc 1 332 13 is_stmt 0 view .LVU148
 366 0104 0220     		movs	r0, #2
 367 0106 FFF7FEFF 		bl	_ux_system_error_handler
 368              	.LVL49:
 337:./Middlewares/ST/usbx/common/core/src/ux_device_stack_initialize.c ****         }
 369              		.loc 1 337 13 is_stmt 1 view .LVU149
 337:./Middlewares/ST/usbx/common/core/src/ux_device_stack_initialize.c ****         }
 370              		.loc 1 337 20 is_stmt 0 view .LVU150
 371 010a 1225     		movs	r5, #18
 372              	.LVL50:
 337:./Middlewares/ST/usbx/common/core/src/ux_device_stack_initialize.c ****         }
 373              		.loc 1 337 20 view .LVU151
 374 010c E9E7     		b	.L3
 375              	.LVL51:
 376              	.L26:
 195:./Middlewares/ST/usbx/common/core/src/ux_device_stack_initialize.c ****     max_interface_number               =  0;
 377              		.loc 1 195 40 view .LVU152
 378 010e 4FF00008 		mov	r8, #0
 194:./Middlewares/ST/usbx/common/core/src/ux_device_stack_initialize.c ****     endpoints_found                    =  0;
 379              		.loc 1 194 40 view .LVU153
 380 0112 4446     		mov	r4, r8
 182:./Middlewares/ST/usbx/common/core/src/ux_device_stack_initialize.c ****     else
 381              		.loc 1 182 16 view .LVU154
 382 0114 1225     		movs	r5, #18
 383 0116 E4E7     		b	.L3
 384              	.LVL52:
 385              	.L42:
 347:./Middlewares/ST/usbx/common/core/src/ux_device_stack_initialize.c ****         device -> ux_slave_device_endpoints_pool_number  = endpoints_found;
 386              		.loc 1 347 9 is_stmt 1 view .LVU155
 347:./Middlewares/ST/usbx/common/core/src/ux_device_stack_initialize.c ****         device -> ux_slave_device_endpoints_pool_number  = endpoints_found;
 387              		.loc 1 347 58 is_stmt 0 view .LVU156
ARM GAS  /tmp/cco9iSfq.s 			page 16


 388 0118 C6F81841 		str	r4, [r6, #280]
 348:./Middlewares/ST/usbx/common/core/src/ux_device_stack_initialize.c **** 
 389              		.loc 1 348 9 is_stmt 1 view .LVU157
 348:./Middlewares/ST/usbx/common/core/src/ux_device_stack_initialize.c **** 
 390              		.loc 1 348 58 is_stmt 0 view .LVU158
 391 011c C6F82081 		str	r8, [r6, #288]
 351:./Middlewares/ST/usbx/common/core/src/ux_device_stack_initialize.c ****         if (interfaces_pool == UX_NULL)
 392              		.loc 1 351 9 is_stmt 1 view .LVU159
 351:./Middlewares/ST/usbx/common/core/src/ux_device_stack_initialize.c ****         if (interfaces_pool == UX_NULL)
 393              		.loc 1 351 28 is_stmt 0 view .LVU160
 394 0120 3823     		movs	r3, #56
 395 0122 2246     		mov	r2, r4
 396 0124 0021     		movs	r1, #0
 397 0126 0846     		mov	r0, r1
 398 0128 FFF7FEFF 		bl	_ux_utility_memory_allocate_mulc_safe
 399              	.LVL53:
 352:./Middlewares/ST/usbx/common/core/src/ux_device_stack_initialize.c ****             status = UX_MEMORY_INSUFFICIENT;
 400              		.loc 1 352 9 is_stmt 1 view .LVU161
 352:./Middlewares/ST/usbx/common/core/src/ux_device_stack_initialize.c ****             status = UX_MEMORY_INSUFFICIENT;
 401              		.loc 1 352 12 is_stmt 0 view .LVU162
 402 012c 10B1     		cbz	r0, .L32
 357:./Middlewares/ST/usbx/common/core/src/ux_device_stack_initialize.c ****     }
 403              		.loc 1 357 13 is_stmt 1 view .LVU163
 357:./Middlewares/ST/usbx/common/core/src/ux_device_stack_initialize.c ****     }
 404              		.loc 1 357 55 is_stmt 0 view .LVU164
 405 012e C6F81401 		str	r0, [r6, #276]
 406 0132 D7E7     		b	.L13
 407              	.L32:
 353:./Middlewares/ST/usbx/common/core/src/ux_device_stack_initialize.c ****         else
 408              		.loc 1 353 20 view .LVU165
 409 0134 1225     		movs	r5, #18
 410              	.LVL54:
 353:./Middlewares/ST/usbx/common/core/src/ux_device_stack_initialize.c ****         else
 411              		.loc 1 353 20 view .LVU166
 412 0136 D5E7     		b	.L13
 413              	.LVL55:
 414              	.L43:
 365:./Middlewares/ST/usbx/common/core/src/ux_device_stack_initialize.c ****         if (endpoints_pool == UX_NULL)
 415              		.loc 1 365 9 is_stmt 1 view .LVU167
 365:./Middlewares/ST/usbx/common/core/src/ux_device_stack_initialize.c ****         if (endpoints_pool == UX_NULL)
 416              		.loc 1 365 27 is_stmt 0 view .LVU168
 417 0138 9023     		movs	r3, #144
 418 013a 4246     		mov	r2, r8
 419 013c 0021     		movs	r1, #0
 420 013e 0846     		mov	r0, r1
 421 0140 FFF7FEFF 		bl	_ux_utility_memory_allocate_mulc_safe
 422              	.LVL56:
 366:./Middlewares/ST/usbx/common/core/src/ux_device_stack_initialize.c ****             status = UX_MEMORY_INSUFFICIENT;
 423              		.loc 1 366 9 is_stmt 1 view .LVU169
 366:./Middlewares/ST/usbx/common/core/src/ux_device_stack_initialize.c ****             status = UX_MEMORY_INSUFFICIENT;
 424              		.loc 1 366 12 is_stmt 0 view .LVU170
 425 0144 0446     		mov	r4, r0
 426              	.LVL57:
 366:./Middlewares/ST/usbx/common/core/src/ux_device_stack_initialize.c ****             status = UX_MEMORY_INSUFFICIENT;
 427              		.loc 1 366 12 view .LVU171
 428 0146 18B3     		cbz	r0, .L35
 372:./Middlewares/ST/usbx/common/core/src/ux_device_stack_initialize.c **** 
ARM GAS  /tmp/cco9iSfq.s 			page 17


 429              		.loc 1 372 13 is_stmt 1 view .LVU172
 372:./Middlewares/ST/usbx/common/core/src/ux_device_stack_initialize.c **** 
 430              		.loc 1 372 54 is_stmt 0 view .LVU173
 431 0148 C6F81C01 		str	r0, [r6, #284]
 377:./Middlewares/ST/usbx/common/core/src/ux_device_stack_initialize.c ****             {
 432              		.loc 1 377 13 is_stmt 1 view .LVU174
 433              	.LVL58:
 434              	.L16:
 377:./Middlewares/ST/usbx/common/core/src/ux_device_stack_initialize.c ****             {
 435              		.loc 1 377 35 view .LVU175
 377:./Middlewares/ST/usbx/common/core/src/ux_device_stack_initialize.c ****             {
 436              		.loc 1 377 45 is_stmt 0 view .LVU176
 437 014c D6F81C31 		ldr	r3, [r6, #284]
 377:./Middlewares/ST/usbx/common/core/src/ux_device_stack_initialize.c ****             {
 438              		.loc 1 377 79 view .LVU177
 439 0150 08EBC802 		add	r2, r8, r8, lsl #3
 440 0154 03EB0213 		add	r3, r3, r2, lsl #4
 377:./Middlewares/ST/usbx/common/core/src/ux_device_stack_initialize.c ****             {
 441              		.loc 1 377 35 view .LVU178
 442 0158 A342     		cmp	r3, r4
 443 015a 12D9     		bls	.L14
 381:./Middlewares/ST/usbx/common/core/src/ux_device_stack_initialize.c ****                                 _ux_utility_memory_allocate(UX_NO_ALIGN, UX_CACHE_SAFE_MEMORY, UX_S
 444              		.loc 1 381 17 is_stmt 1 view .LVU179
 382:./Middlewares/ST/usbx/common/core/src/ux_device_stack_initialize.c **** 
 445              		.loc 1 382 33 is_stmt 0 view .LVU180
 446 015c 4FF40062 		mov	r2, #2048
 447 0160 0121     		movs	r1, #1
 448 0162 0020     		movs	r0, #0
 449 0164 FFF7FEFF 		bl	_ux_utility_memory_allocate
 450              	.LVL59:
 381:./Middlewares/ST/usbx/common/core/src/ux_device_stack_initialize.c ****                                 _ux_utility_memory_allocate(UX_NO_ALIGN, UX_CACHE_SAFE_MEMORY, UX_S
 451              		.loc 1 381 109 view .LVU181
 452 0168 E063     		str	r0, [r4, #60]
 385:./Middlewares/ST/usbx/common/core/src/ux_device_stack_initialize.c ****                 {
 453              		.loc 1 385 17 is_stmt 1 view .LVU182
 385:./Middlewares/ST/usbx/common/core/src/ux_device_stack_initialize.c ****                 {
 454              		.loc 1 385 20 is_stmt 0 view .LVU183
 455 016a 68B1     		cbz	r0, .L36
 392:./Middlewares/ST/usbx/common/core/src/ux_device_stack_initialize.c ****                                                     "ux_transfer_request_semaphore", 0);
 456              		.loc 1 392 17 is_stmt 1 view .LVU184
 392:./Middlewares/ST/usbx/common/core/src/ux_device_stack_initialize.c ****                                                     "ux_transfer_request_semaphore", 0);
 457              		.loc 1 392 27 is_stmt 0 view .LVU185
 458 016c 0022     		movs	r2, #0
 459 016e 1F49     		ldr	r1, .L46+4
 460 0170 04F16000 		add	r0, r4, #96
 461 0174 FFF7FEFF 		bl	_ux_utility_semaphore_create
 462              	.LVL60:
 396:./Middlewares/ST/usbx/common/core/src/ux_device_stack_initialize.c ****                 {
 463              		.loc 1 396 17 is_stmt 1 view .LVU186
 396:./Middlewares/ST/usbx/common/core/src/ux_device_stack_initialize.c ****                 {
 464              		.loc 1 396 20 is_stmt 0 view .LVU187
 465 0178 0546     		mov	r5, r0
 466 017a 38B9     		cbnz	r0, .L37
 403:./Middlewares/ST/usbx/common/core/src/ux_device_stack_initialize.c ****             }
 467              		.loc 1 403 17 is_stmt 1 view .LVU188
 403:./Middlewares/ST/usbx/common/core/src/ux_device_stack_initialize.c ****             }
 468              		.loc 1 403 31 is_stmt 0 view .LVU189
ARM GAS  /tmp/cco9iSfq.s 			page 18


 469 017c 9034     		adds	r4, r4, #144
 470              	.LVL61:
 403:./Middlewares/ST/usbx/common/core/src/ux_device_stack_initialize.c ****             }
 471              		.loc 1 403 31 view .LVU190
 472 017e E5E7     		b	.L16
 473              	.LVL62:
 474              	.L33:
 475              		.loc 1 408 24 view .LVU191
 476 0180 0024     		movs	r4, #0
 477              	.LVL63:
 478              	.L14:
 409:./Middlewares/ST/usbx/common/core/src/ux_device_stack_initialize.c **** 
 410:./Middlewares/ST/usbx/common/core/src/ux_device_stack_initialize.c ****     /* Return successful completion.  */
 411:./Middlewares/ST/usbx/common/core/src/ux_device_stack_initialize.c ****     if (status == UX_SUCCESS)
 479              		.loc 1 411 5 is_stmt 1 view .LVU192
 480              		.loc 1 411 8 is_stmt 0 view .LVU193
 481 0182 65B3     		cbz	r5, .L1
 482              	.LVL64:
 483              	.L15:
 412:./Middlewares/ST/usbx/common/core/src/ux_device_stack_initialize.c ****         return(UX_SUCCESS);
 413:./Middlewares/ST/usbx/common/core/src/ux_device_stack_initialize.c ****     
 414:./Middlewares/ST/usbx/common/core/src/ux_device_stack_initialize.c ****     /* Free resources when there is error.  */
 415:./Middlewares/ST/usbx/common/core/src/ux_device_stack_initialize.c **** 
 416:./Middlewares/ST/usbx/common/core/src/ux_device_stack_initialize.c ****     /* Free device -> ux_slave_device_endpoints_pool.  */
 417:./Middlewares/ST/usbx/common/core/src/ux_device_stack_initialize.c ****     if (endpoints_pool)
 484              		.loc 1 417 5 is_stmt 1 view .LVU194
 485              		.loc 1 417 8 is_stmt 0 view .LVU195
 486 0184 64B9     		cbnz	r4, .L18
 487 0186 1AE0     		b	.L19
 488              	.LVL65:
 489              	.L36:
 387:./Middlewares/ST/usbx/common/core/src/ux_device_stack_initialize.c ****                     break;
 490              		.loc 1 387 28 view .LVU196
 491 0188 1225     		movs	r5, #18
 492              	.LVL66:
 387:./Middlewares/ST/usbx/common/core/src/ux_device_stack_initialize.c ****                     break;
 493              		.loc 1 387 28 view .LVU197
 494 018a FAE7     		b	.L14
 495              	.LVL67:
 496              	.L37:
 398:./Middlewares/ST/usbx/common/core/src/ux_device_stack_initialize.c ****                     break;
 497              		.loc 1 398 28 view .LVU198
 498 018c 1525     		movs	r5, #21
 499 018e F8E7     		b	.L14
 500              	.LVL68:
 501              	.L35:
 367:./Middlewares/ST/usbx/common/core/src/ux_device_stack_initialize.c ****         else
 502              		.loc 1 367 20 view .LVU199
 503 0190 1225     		movs	r5, #18
 504              	.LVL69:
 367:./Middlewares/ST/usbx/common/core/src/ux_device_stack_initialize.c ****         else
 505              		.loc 1 367 20 view .LVU200
 506 0192 F7E7     		b	.L15
 507              	.LVL70:
 508              	.L45:
 418:./Middlewares/ST/usbx/common/core/src/ux_device_stack_initialize.c ****     {
 419:./Middlewares/ST/usbx/common/core/src/ux_device_stack_initialize.c **** 
ARM GAS  /tmp/cco9iSfq.s 			page 19


 420:./Middlewares/ST/usbx/common/core/src/ux_device_stack_initialize.c ****         /* In error cases creating endpoint resources, endpoints_pool is endpoint that failed.
 421:./Middlewares/ST/usbx/common/core/src/ux_device_stack_initialize.c ****          * Previously allocated things should be freed.  */
 422:./Middlewares/ST/usbx/common/core/src/ux_device_stack_initialize.c ****         while(endpoints_pool >= device -> ux_slave_device_endpoints_pool)
 423:./Middlewares/ST/usbx/common/core/src/ux_device_stack_initialize.c ****         {
 424:./Middlewares/ST/usbx/common/core/src/ux_device_stack_initialize.c **** 
 425:./Middlewares/ST/usbx/common/core/src/ux_device_stack_initialize.c ****             /* Delete ux_slave_transfer_request_semaphore.  */
 426:./Middlewares/ST/usbx/common/core/src/ux_device_stack_initialize.c ****             if (_ux_device_semaphore_created(&endpoints_pool -> ux_slave_endpoint_transfer_request.
 427:./Middlewares/ST/usbx/common/core/src/ux_device_stack_initialize.c ****                 _ux_device_semaphore_delete(&endpoints_pool -> ux_slave_endpoint_transfer_request.u
 509              		.loc 1 427 17 is_stmt 1 view .LVU201
 510 0194 04F16000 		add	r0, r4, #96
 511 0198 FFF7FEFF 		bl	_ux_utility_semaphore_delete
 512              	.LVL71:
 513 019c 07E0     		b	.L20
 514              	.L21:
 428:./Middlewares/ST/usbx/common/core/src/ux_device_stack_initialize.c **** 
 429:./Middlewares/ST/usbx/common/core/src/ux_device_stack_initialize.c ****             /* Free ux_slave_transfer_request_data_pointer buffer.  */
 430:./Middlewares/ST/usbx/common/core/src/ux_device_stack_initialize.c ****             if (endpoints_pool -> ux_slave_endpoint_transfer_request.ux_slave_transfer_request_data
 431:./Middlewares/ST/usbx/common/core/src/ux_device_stack_initialize.c ****                 _ux_utility_memory_free(endpoints_pool -> ux_slave_endpoint_transfer_request.ux_sla
 432:./Middlewares/ST/usbx/common/core/src/ux_device_stack_initialize.c **** 
 433:./Middlewares/ST/usbx/common/core/src/ux_device_stack_initialize.c ****             /* Move to previous endpoint.  */
 434:./Middlewares/ST/usbx/common/core/src/ux_device_stack_initialize.c ****             endpoints_pool --;
 515              		.loc 1 434 13 view .LVU202
 516              		.loc 1 434 28 is_stmt 0 view .LVU203
 517 019e 903C     		subs	r4, r4, #144
 518              	.LVL72:
 519              	.L18:
 422:./Middlewares/ST/usbx/common/core/src/ux_device_stack_initialize.c ****         {
 520              		.loc 1 422 30 is_stmt 1 view .LVU204
 422:./Middlewares/ST/usbx/common/core/src/ux_device_stack_initialize.c ****         {
 521              		.loc 1 422 40 is_stmt 0 view .LVU205
 522 01a0 D6F81C01 		ldr	r0, [r6, #284]
 422:./Middlewares/ST/usbx/common/core/src/ux_device_stack_initialize.c ****         {
 523              		.loc 1 422 30 view .LVU206
 524 01a4 A042     		cmp	r0, r4
 525 01a6 08D8     		bhi	.L44
 426:./Middlewares/ST/usbx/common/core/src/ux_device_stack_initialize.c ****                 _ux_device_semaphore_delete(&endpoints_pool -> ux_slave_endpoint_transfer_request.u
 526              		.loc 1 426 13 is_stmt 1 view .LVU207
 426:./Middlewares/ST/usbx/common/core/src/ux_device_stack_initialize.c ****                 _ux_device_semaphore_delete(&endpoints_pool -> ux_slave_endpoint_transfer_request.u
 527              		.loc 1 426 17 is_stmt 0 view .LVU208
 528 01a8 236E     		ldr	r3, [r4, #96]
 426:./Middlewares/ST/usbx/common/core/src/ux_device_stack_initialize.c ****                 _ux_device_semaphore_delete(&endpoints_pool -> ux_slave_endpoint_transfer_request.u
 529              		.loc 1 426 16 view .LVU209
 530 01aa 002B     		cmp	r3, #0
 531 01ac F2D1     		bne	.L45
 532              	.L20:
 430:./Middlewares/ST/usbx/common/core/src/ux_device_stack_initialize.c ****                 _ux_utility_memory_free(endpoints_pool -> ux_slave_endpoint_transfer_request.ux_sla
 533              		.loc 1 430 13 is_stmt 1 view .LVU210
 430:./Middlewares/ST/usbx/common/core/src/ux_device_stack_initialize.c ****                 _ux_utility_memory_free(endpoints_pool -> ux_slave_endpoint_transfer_request.ux_sla
 534              		.loc 1 430 69 is_stmt 0 view .LVU211
 535 01ae E06B     		ldr	r0, [r4, #60]
 430:./Middlewares/ST/usbx/common/core/src/ux_device_stack_initialize.c ****                 _ux_utility_memory_free(endpoints_pool -> ux_slave_endpoint_transfer_request.ux_sla
 536              		.loc 1 430 16 view .LVU212
 537 01b0 0028     		cmp	r0, #0
 538 01b2 F4D0     		beq	.L21
 431:./Middlewares/ST/usbx/common/core/src/ux_device_stack_initialize.c **** 
 539              		.loc 1 431 17 is_stmt 1 view .LVU213
 540 01b4 FFF7FEFF 		bl	_ux_utility_memory_free
ARM GAS  /tmp/cco9iSfq.s 			page 20


 541              	.LVL73:
 542 01b8 F1E7     		b	.L21
 543              	.L44:
 435:./Middlewares/ST/usbx/common/core/src/ux_device_stack_initialize.c ****         }
 436:./Middlewares/ST/usbx/common/core/src/ux_device_stack_initialize.c **** 
 437:./Middlewares/ST/usbx/common/core/src/ux_device_stack_initialize.c ****         _ux_utility_memory_free(device -> ux_slave_device_endpoints_pool);
 544              		.loc 1 437 9 view .LVU214
 545 01ba FFF7FEFF 		bl	_ux_utility_memory_free
 546              	.LVL74:
 547              	.L19:
 438:./Middlewares/ST/usbx/common/core/src/ux_device_stack_initialize.c ****     }
 439:./Middlewares/ST/usbx/common/core/src/ux_device_stack_initialize.c **** 
 440:./Middlewares/ST/usbx/common/core/src/ux_device_stack_initialize.c ****     /* Free device -> ux_slave_device_interfaces_pool.  */
 441:./Middlewares/ST/usbx/common/core/src/ux_device_stack_initialize.c ****     if (device -> ux_slave_device_interfaces_pool)
 548              		.loc 1 441 5 view .LVU215
 549              		.loc 1 441 16 is_stmt 0 view .LVU216
 550 01be D6F81401 		ldr	r0, [r6, #276]
 551              		.loc 1 441 8 view .LVU217
 552 01c2 08B1     		cbz	r0, .L23
 442:./Middlewares/ST/usbx/common/core/src/ux_device_stack_initialize.c ****         _ux_utility_memory_free(device -> ux_slave_device_interfaces_pool);
 553              		.loc 1 442 9 is_stmt 1 view .LVU218
 554 01c4 FFF7FEFF 		bl	_ux_utility_memory_free
 555              	.LVL75:
 556              	.L23:
 443:./Middlewares/ST/usbx/common/core/src/ux_device_stack_initialize.c **** 
 444:./Middlewares/ST/usbx/common/core/src/ux_device_stack_initialize.c ****     /* Free device -> ux_slave_device_control_endpoint.ux_slave_endpoint_transfer_request.ux_slave_
 445:./Middlewares/ST/usbx/common/core/src/ux_device_stack_initialize.c ****     if (device -> ux_slave_device_control_endpoint.ux_slave_endpoint_transfer_request.ux_slave_tran
 557              		.loc 1 445 5 view .LVU219
 558              		.loc 1 445 86 is_stmt 0 view .LVU220
 559 01c8 D6F89800 		ldr	r0, [r6, #152]
 560              		.loc 1 445 8 view .LVU221
 561 01cc 08B1     		cbz	r0, .L24
 446:./Middlewares/ST/usbx/common/core/src/ux_device_stack_initialize.c ****         _ux_utility_memory_free(device -> ux_slave_device_control_endpoint.ux_slave_endpoint_transf
 562              		.loc 1 446 9 is_stmt 1 view .LVU222
 563 01ce FFF7FEFF 		bl	_ux_utility_memory_free
 564              	.LVL76:
 565              	.L24:
 447:./Middlewares/ST/usbx/common/core/src/ux_device_stack_initialize.c **** 
 448:./Middlewares/ST/usbx/common/core/src/ux_device_stack_initialize.c ****     /* Free _ux_system_slave -> ux_system_slave_class_array.  */
 449:./Middlewares/ST/usbx/common/core/src/ux_device_stack_initialize.c ****     _ux_utility_memory_free(_ux_system_slave -> ux_system_slave_class_array);
 566              		.loc 1 449 5 view .LVU223
 567              		.loc 1 449 46 is_stmt 0 view .LVU224
 568 01d2 054B     		ldr	r3, .L46
 569 01d4 1B68     		ldr	r3, [r3]
 570              		.loc 1 449 5 view .LVU225
 571 01d6 D3F85801 		ldr	r0, [r3, #344]
 572 01da FFF7FEFF 		bl	_ux_utility_memory_free
 573              	.LVL77:
 450:./Middlewares/ST/usbx/common/core/src/ux_device_stack_initialize.c **** 
 451:./Middlewares/ST/usbx/common/core/src/ux_device_stack_initialize.c ****     /* Return completion status.  */
 452:./Middlewares/ST/usbx/common/core/src/ux_device_stack_initialize.c ****     return(status);
 574              		.loc 1 452 5 is_stmt 1 view .LVU226
 575              	.L1:
 453:./Middlewares/ST/usbx/common/core/src/ux_device_stack_initialize.c **** }
 576              		.loc 1 453 1 is_stmt 0 view .LVU227
 577 01de 2846     		mov	r0, r5
 578 01e0 BDE8F883 		pop	{r3, r4, r5, r6, r7, r8, r9, pc}
ARM GAS  /tmp/cco9iSfq.s 			page 21


 579              	.LVL78:
 580              	.L25:
 167:./Middlewares/ST/usbx/common/core/src/ux_device_stack_initialize.c ****     
 581              		.loc 1 167 15 view .LVU228
 582 01e4 1225     		movs	r5, #18
 583 01e6 FAE7     		b	.L1
 584              	.L47:
 585              		.align	2
 586              	.L46:
 587 01e8 00000000 		.word	_ux_system_slave
 588 01ec 00000000 		.word	.LC0
 589              		.cfi_endproc
 590              	.LFE11:
 592              		.global	_ux_system_slave
 593              		.section	.bss._ux_system_slave,"aw",%nobits
 594              		.align	2
 597              	_ux_system_slave:
 598 0000 00000000 		.space	4
 599              		.global	_ux_system_device_class_printer_name
 600              		.section	.data._ux_system_device_class_printer_name,"aw"
 601              		.align	2
 604              	_ux_system_device_class_printer_name:
 605 0000 75785F64 		.ascii	"ux_device_class_printer\000"
 605      65766963 
 605      655F636C 
 605      6173735F 
 605      7072696E 
 606              		.global	_ux_system_slave_class_audio_name
 607              		.section	.data._ux_system_slave_class_audio_name,"aw"
 608              		.align	2
 611              	_ux_system_slave_class_audio_name:
 612 0000 75785F73 		.ascii	"ux_slave_class_audio\000"
 612      6C617665 
 612      5F636C61 
 612      73735F61 
 612      7564696F 
 613              		.global	_ux_system_slave_class_dfu_name
 614              		.section	.data._ux_system_slave_class_dfu_name,"aw"
 615              		.align	2
 618              	_ux_system_slave_class_dfu_name:
 619 0000 75785F73 		.ascii	"ux_slave_class_dfu\000"
 619      6C617665 
 619      5F636C61 
 619      73735F64 
 619      667500
 620              		.global	_ux_system_slave_class_cdc_ecm_name
 621              		.section	.data._ux_system_slave_class_cdc_ecm_name,"aw"
 622              		.align	2
 625              	_ux_system_slave_class_cdc_ecm_name:
 626 0000 75785F73 		.ascii	"ux_slave_class_cdc_ecm\000"
 626      6C617665 
 626      5F636C61 
 626      73735F63 
 626      64635F65 
 627              		.global	_ux_system_slave_class_rndis_name
 628              		.section	.data._ux_system_slave_class_rndis_name,"aw"
 629              		.align	2
ARM GAS  /tmp/cco9iSfq.s 			page 22


 632              	_ux_system_slave_class_rndis_name:
 633 0000 75785F73 		.ascii	"ux_slave_class_rndis\000"
 633      6C617665 
 633      5F636C61 
 633      73735F72 
 633      6E646973 
 634              		.global	_ux_system_slave_class_hid_name
 635              		.section	.data._ux_system_slave_class_hid_name,"aw"
 636              		.align	2
 639              	_ux_system_slave_class_hid_name:
 640 0000 75785F73 		.ascii	"ux_slave_class_hid\000"
 640      6C617665 
 640      5F636C61 
 640      73735F68 
 640      696400
 641              		.global	_ux_system_slave_class_pima_name
 642              		.section	.data._ux_system_slave_class_pima_name,"aw"
 643              		.align	2
 646              	_ux_system_slave_class_pima_name:
 647 0000 75785F73 		.ascii	"ux_slave_class_pima\000"
 647      6C617665 
 647      5F636C61 
 647      73735F70 
 647      696D6100 
 648              		.global	_ux_system_slave_class_dpump_name
 649              		.section	.data._ux_system_slave_class_dpump_name,"aw"
 650              		.align	2
 653              	_ux_system_slave_class_dpump_name:
 654 0000 75785F73 		.ascii	"ux_slave_class_dpump\000"
 654      6C617665 
 654      5F636C61 
 654      73735F64 
 654      70756D70 
 655              		.global	_ux_system_slave_class_cdc_acm_name
 656              		.section	.data._ux_system_slave_class_cdc_acm_name,"aw"
 657              		.align	2
 660              	_ux_system_slave_class_cdc_acm_name:
 661 0000 75785F73 		.ascii	"ux_slave_class_cdc_acm\000"
 661      6C617665 
 661      5F636C61 
 661      73735F63 
 661      64635F61 
 662              		.global	_ux_system_slave_class_storage_name
 663              		.section	.data._ux_system_slave_class_storage_name,"aw"
 664              		.align	2
 667              	_ux_system_slave_class_storage_name:
 668 0000 75785F73 		.ascii	"ux_slave_class_storage\000"
 668      6C617665 
 668      5F636C61 
 668      73735F73 
 668      746F7261 
 669              		.text
 670              	.Letext0:
 671              		.file 2 "./Middlewares/ST/threadx/ports/cortex_m4/gnu/inc/tx_port.h"
 672              		.file 3 "./Middlewares/ST/threadx/common/inc/tx_api.h"
 673              		.file 4 "./Middlewares/ST/usbx/common/core/inc/ux_api.h"
 674              		.file 5 "./Middlewares/ST/usbx/common/core/inc/ux_system.h"
ARM GAS  /tmp/cco9iSfq.s 			page 23


 675              		.file 6 "./Middlewares/ST/usbx/common/core/inc/ux_utility.h"
ARM GAS  /tmp/cco9iSfq.s 			page 24

