ARM GAS  /tmp/cc4O54SH.s 			page 1


   1              		.cpu cortex-m4
   2              		.arch armv7e-m
   3              		.fpu fpv4-sp-d16
   4              		.eabi_attribute 27, 1
   5              		.eabi_attribute 28, 1
   6              		.eabi_attribute 20, 1
   7              		.eabi_attribute 21, 1
   8              		.eabi_attribute 23, 3
   9              		.eabi_attribute 24, 1
  10              		.eabi_attribute 25, 1
  11              		.eabi_attribute 26, 1
  12              		.eabi_attribute 30, 1
  13              		.eabi_attribute 34, 1
  14              		.eabi_attribute 18, 4
  15              		.file	"ux_device_stack_alternate_setting_get.c"
  16              		.text
  17              	.Ltext0:
  18              		.cfi_sections	.debug_frame
  19              		.file 1 "./Middlewares/ST/usbx/common/core/src/ux_device_stack_alternate_setting_get.c"
  20              		.section	.text._ux_device_stack_alternate_setting_get,"ax",%progbits
  21              		.align	1
  22              		.global	_ux_device_stack_alternate_setting_get
  23              		.syntax unified
  24              		.thumb
  25              		.thumb_func
  27              	_ux_device_stack_alternate_setting_get:
  28              	.LVL0:
  29              	.LFB11:
   1:./Middlewares/ST/usbx/common/core/src/ux_device_stack_alternate_setting_get.c **** /**************************************************************************/
   2:./Middlewares/ST/usbx/common/core/src/ux_device_stack_alternate_setting_get.c **** /*                                                                        */
   3:./Middlewares/ST/usbx/common/core/src/ux_device_stack_alternate_setting_get.c **** /*       Copyright (c) Microsoft Corporation. All rights reserved.        */
   4:./Middlewares/ST/usbx/common/core/src/ux_device_stack_alternate_setting_get.c **** /*                                                                        */
   5:./Middlewares/ST/usbx/common/core/src/ux_device_stack_alternate_setting_get.c **** /*       This software is licensed under the Microsoft Software License   */
   6:./Middlewares/ST/usbx/common/core/src/ux_device_stack_alternate_setting_get.c **** /*       Terms for Microsoft Azure RTOS. Full text of the license can be  */
   7:./Middlewares/ST/usbx/common/core/src/ux_device_stack_alternate_setting_get.c **** /*       found in the LICENSE file at https://aka.ms/AzureRTOS_EULA       */
   8:./Middlewares/ST/usbx/common/core/src/ux_device_stack_alternate_setting_get.c **** /*       and in the root directory of this software.                      */
   9:./Middlewares/ST/usbx/common/core/src/ux_device_stack_alternate_setting_get.c **** /*                                                                        */
  10:./Middlewares/ST/usbx/common/core/src/ux_device_stack_alternate_setting_get.c **** /**************************************************************************/
  11:./Middlewares/ST/usbx/common/core/src/ux_device_stack_alternate_setting_get.c **** 
  12:./Middlewares/ST/usbx/common/core/src/ux_device_stack_alternate_setting_get.c **** 
  13:./Middlewares/ST/usbx/common/core/src/ux_device_stack_alternate_setting_get.c **** /**************************************************************************/
  14:./Middlewares/ST/usbx/common/core/src/ux_device_stack_alternate_setting_get.c **** /**************************************************************************/
  15:./Middlewares/ST/usbx/common/core/src/ux_device_stack_alternate_setting_get.c **** /**                                                                       */ 
  16:./Middlewares/ST/usbx/common/core/src/ux_device_stack_alternate_setting_get.c **** /** USBX Component                                                        */ 
  17:./Middlewares/ST/usbx/common/core/src/ux_device_stack_alternate_setting_get.c **** /**                                                                       */
  18:./Middlewares/ST/usbx/common/core/src/ux_device_stack_alternate_setting_get.c **** /**   Device Stack                                                        */
  19:./Middlewares/ST/usbx/common/core/src/ux_device_stack_alternate_setting_get.c **** /**                                                                       */
  20:./Middlewares/ST/usbx/common/core/src/ux_device_stack_alternate_setting_get.c **** /**************************************************************************/
  21:./Middlewares/ST/usbx/common/core/src/ux_device_stack_alternate_setting_get.c **** /**************************************************************************/
  22:./Middlewares/ST/usbx/common/core/src/ux_device_stack_alternate_setting_get.c **** 
  23:./Middlewares/ST/usbx/common/core/src/ux_device_stack_alternate_setting_get.c **** #define UX_SOURCE_CODE
  24:./Middlewares/ST/usbx/common/core/src/ux_device_stack_alternate_setting_get.c **** 
  25:./Middlewares/ST/usbx/common/core/src/ux_device_stack_alternate_setting_get.c **** 
  26:./Middlewares/ST/usbx/common/core/src/ux_device_stack_alternate_setting_get.c **** /* Include necessary system files.  */
  27:./Middlewares/ST/usbx/common/core/src/ux_device_stack_alternate_setting_get.c **** 
  28:./Middlewares/ST/usbx/common/core/src/ux_device_stack_alternate_setting_get.c **** #include "ux_api.h"
  29:./Middlewares/ST/usbx/common/core/src/ux_device_stack_alternate_setting_get.c **** #include "ux_device_stack.h"
ARM GAS  /tmp/cc4O54SH.s 			page 2


  30:./Middlewares/ST/usbx/common/core/src/ux_device_stack_alternate_setting_get.c **** 
  31:./Middlewares/ST/usbx/common/core/src/ux_device_stack_alternate_setting_get.c **** 
  32:./Middlewares/ST/usbx/common/core/src/ux_device_stack_alternate_setting_get.c **** /**************************************************************************/
  33:./Middlewares/ST/usbx/common/core/src/ux_device_stack_alternate_setting_get.c **** /*                                                                        */
  34:./Middlewares/ST/usbx/common/core/src/ux_device_stack_alternate_setting_get.c **** /*    FUNCTION                                             RELEASE        */
  35:./Middlewares/ST/usbx/common/core/src/ux_device_stack_alternate_setting_get.c **** /*                                                                        */
  36:./Middlewares/ST/usbx/common/core/src/ux_device_stack_alternate_setting_get.c **** /*      _ux_device_stack_alternate_setting_get            PORTABLE C      */
  37:./Middlewares/ST/usbx/common/core/src/ux_device_stack_alternate_setting_get.c **** /*                                                           6.1          */
  38:./Middlewares/ST/usbx/common/core/src/ux_device_stack_alternate_setting_get.c **** /*  AUTHOR                                                                */
  39:./Middlewares/ST/usbx/common/core/src/ux_device_stack_alternate_setting_get.c **** /*                                                                        */
  40:./Middlewares/ST/usbx/common/core/src/ux_device_stack_alternate_setting_get.c **** /*    Chaoqiong Xiao, Microsoft Corporation                               */
  41:./Middlewares/ST/usbx/common/core/src/ux_device_stack_alternate_setting_get.c **** /*                                                                        */
  42:./Middlewares/ST/usbx/common/core/src/ux_device_stack_alternate_setting_get.c **** /*  DESCRIPTION                                                           */
  43:./Middlewares/ST/usbx/common/core/src/ux_device_stack_alternate_setting_get.c **** /*                                                                        */
  44:./Middlewares/ST/usbx/common/core/src/ux_device_stack_alternate_setting_get.c **** /*    This function gets the alternate setting for a specific interface.  */
  45:./Middlewares/ST/usbx/common/core/src/ux_device_stack_alternate_setting_get.c **** /*                                                                        */
  46:./Middlewares/ST/usbx/common/core/src/ux_device_stack_alternate_setting_get.c **** /*  INPUT                                                                 */
  47:./Middlewares/ST/usbx/common/core/src/ux_device_stack_alternate_setting_get.c **** /*                                                                        */
  48:./Middlewares/ST/usbx/common/core/src/ux_device_stack_alternate_setting_get.c **** /*    endpoint                              Pointer to endpoint           */
  49:./Middlewares/ST/usbx/common/core/src/ux_device_stack_alternate_setting_get.c **** /*    interface_value                       Interface value               */
  50:./Middlewares/ST/usbx/common/core/src/ux_device_stack_alternate_setting_get.c **** /*                                                                        */
  51:./Middlewares/ST/usbx/common/core/src/ux_device_stack_alternate_setting_get.c **** /*  OUTPUT                                                                */
  52:./Middlewares/ST/usbx/common/core/src/ux_device_stack_alternate_setting_get.c **** /*                                                                        */
  53:./Middlewares/ST/usbx/common/core/src/ux_device_stack_alternate_setting_get.c **** /*    Completion Status                                                   */ 
  54:./Middlewares/ST/usbx/common/core/src/ux_device_stack_alternate_setting_get.c **** /*                                                                        */
  55:./Middlewares/ST/usbx/common/core/src/ux_device_stack_alternate_setting_get.c **** /*  CALLS                                                                 */ 
  56:./Middlewares/ST/usbx/common/core/src/ux_device_stack_alternate_setting_get.c **** /*                                                                        */ 
  57:./Middlewares/ST/usbx/common/core/src/ux_device_stack_alternate_setting_get.c **** /*    _ux_device_stack_transfer_request     Process transfer request      */
  58:./Middlewares/ST/usbx/common/core/src/ux_device_stack_alternate_setting_get.c **** /*                                                                        */ 
  59:./Middlewares/ST/usbx/common/core/src/ux_device_stack_alternate_setting_get.c **** /*  CALLED BY                                                             */ 
  60:./Middlewares/ST/usbx/common/core/src/ux_device_stack_alternate_setting_get.c **** /*                                                                        */ 
  61:./Middlewares/ST/usbx/common/core/src/ux_device_stack_alternate_setting_get.c **** /*    Application                                                         */ 
  62:./Middlewares/ST/usbx/common/core/src/ux_device_stack_alternate_setting_get.c **** /*    Device Stack                                                        */
  63:./Middlewares/ST/usbx/common/core/src/ux_device_stack_alternate_setting_get.c **** /*                                                                        */ 
  64:./Middlewares/ST/usbx/common/core/src/ux_device_stack_alternate_setting_get.c **** /*  RELEASE HISTORY                                                       */ 
  65:./Middlewares/ST/usbx/common/core/src/ux_device_stack_alternate_setting_get.c **** /*                                                                        */ 
  66:./Middlewares/ST/usbx/common/core/src/ux_device_stack_alternate_setting_get.c **** /*    DATE              NAME                      DESCRIPTION             */ 
  67:./Middlewares/ST/usbx/common/core/src/ux_device_stack_alternate_setting_get.c **** /*                                                                        */ 
  68:./Middlewares/ST/usbx/common/core/src/ux_device_stack_alternate_setting_get.c **** /*  05-19-2020     Chaoqiong Xiao           Initial Version 6.0           */
  69:./Middlewares/ST/usbx/common/core/src/ux_device_stack_alternate_setting_get.c **** /*  09-30-2020     Chaoqiong Xiao           Modified comment(s),          */
  70:./Middlewares/ST/usbx/common/core/src/ux_device_stack_alternate_setting_get.c **** /*                                            optimized based on compile  */
  71:./Middlewares/ST/usbx/common/core/src/ux_device_stack_alternate_setting_get.c **** /*                                            definitions,                */
  72:./Middlewares/ST/usbx/common/core/src/ux_device_stack_alternate_setting_get.c **** /*                                            resulting in version 6.1    */
  73:./Middlewares/ST/usbx/common/core/src/ux_device_stack_alternate_setting_get.c **** /*                                                                        */
  74:./Middlewares/ST/usbx/common/core/src/ux_device_stack_alternate_setting_get.c **** /**************************************************************************/
  75:./Middlewares/ST/usbx/common/core/src/ux_device_stack_alternate_setting_get.c **** UINT  _ux_device_stack_alternate_setting_get(ULONG interface_value)
  76:./Middlewares/ST/usbx/common/core/src/ux_device_stack_alternate_setting_get.c **** {
  30              		.loc 1 76 1 view -0
  31              		.cfi_startproc
  32              		@ args = 0, pretend = 0, frame = 0
  33              		@ frame_needed = 0, uses_anonymous_args = 0
  34              		.loc 1 76 1 is_stmt 0 view .LVU1
  35 0000 10B5     		push	{r4, lr}
  36              	.LCFI0:
  37              		.cfi_def_cfa_offset 8
  38              		.cfi_offset 4, -8
  39              		.cfi_offset 14, -4
ARM GAS  /tmp/cc4O54SH.s 			page 3


  77:./Middlewares/ST/usbx/common/core/src/ux_device_stack_alternate_setting_get.c **** 
  78:./Middlewares/ST/usbx/common/core/src/ux_device_stack_alternate_setting_get.c **** UX_SLAVE_TRANSFER       *transfer_request;
  40              		.loc 1 78 1 is_stmt 1 view .LVU2
  79:./Middlewares/ST/usbx/common/core/src/ux_device_stack_alternate_setting_get.c **** UX_SLAVE_INTERFACE      *interface;
  41              		.loc 1 79 1 view .LVU3
  80:./Middlewares/ST/usbx/common/core/src/ux_device_stack_alternate_setting_get.c **** UX_SLAVE_DEVICE         *device;
  42              		.loc 1 80 1 view .LVU4
  81:./Middlewares/ST/usbx/common/core/src/ux_device_stack_alternate_setting_get.c **** UX_SLAVE_ENDPOINT       *endpoint;
  43              		.loc 1 81 1 view .LVU5
  82:./Middlewares/ST/usbx/common/core/src/ux_device_stack_alternate_setting_get.c **** UINT                    status;
  44              		.loc 1 82 1 view .LVU6
  83:./Middlewares/ST/usbx/common/core/src/ux_device_stack_alternate_setting_get.c ****                                 
  84:./Middlewares/ST/usbx/common/core/src/ux_device_stack_alternate_setting_get.c ****     /* If trace is enabled, insert this event into the trace buffer.  */
  85:./Middlewares/ST/usbx/common/core/src/ux_device_stack_alternate_setting_get.c ****     UX_TRACE_IN_LINE_INSERT(UX_TRACE_DEVICE_STACK_ALTERNATE_SETTING_GET, interface_value, 0, 0, 0, 
  86:./Middlewares/ST/usbx/common/core/src/ux_device_stack_alternate_setting_get.c **** 
  87:./Middlewares/ST/usbx/common/core/src/ux_device_stack_alternate_setting_get.c ****     /* Get the pointer to the device.  */
  88:./Middlewares/ST/usbx/common/core/src/ux_device_stack_alternate_setting_get.c ****     device =  &_ux_system_slave -> ux_system_slave_device;
  45              		.loc 1 88 5 view .LVU7
  46              		.loc 1 88 33 is_stmt 0 view .LVU8
  47 0002 104B     		ldr	r3, .L11
  48 0004 1C68     		ldr	r4, [r3]
  49              	.LVL1:
  89:./Middlewares/ST/usbx/common/core/src/ux_device_stack_alternate_setting_get.c **** 
  90:./Middlewares/ST/usbx/common/core/src/ux_device_stack_alternate_setting_get.c ****     /* If the device was in the configured state, there may be interfaces
  91:./Middlewares/ST/usbx/common/core/src/ux_device_stack_alternate_setting_get.c ****        attached to the configuration.  */
  92:./Middlewares/ST/usbx/common/core/src/ux_device_stack_alternate_setting_get.c ****     if (device -> ux_slave_device_state == UX_DEVICE_CONFIGURED)
  50              		.loc 1 92 5 is_stmt 1 view .LVU9
  51              		.loc 1 92 16 is_stmt 0 view .LVU10
  52 0006 236A     		ldr	r3, [r4, #32]
  53              		.loc 1 92 8 view .LVU11
  54 0008 032B     		cmp	r3, #3
  55 000a 01D0     		beq	.L8
  93:./Middlewares/ST/usbx/common/core/src/ux_device_stack_alternate_setting_get.c ****     {
  94:./Middlewares/ST/usbx/common/core/src/ux_device_stack_alternate_setting_get.c **** 
  95:./Middlewares/ST/usbx/common/core/src/ux_device_stack_alternate_setting_get.c ****         /* Obtain the pointer to the first interface attached.  */
  96:./Middlewares/ST/usbx/common/core/src/ux_device_stack_alternate_setting_get.c ****         interface =  device -> ux_slave_device_first_interface;
  97:./Middlewares/ST/usbx/common/core/src/ux_device_stack_alternate_setting_get.c **** 
  98:./Middlewares/ST/usbx/common/core/src/ux_device_stack_alternate_setting_get.c **** #if !defined(UX_DEVICE_INITIALIZE_FRAMEWORK_SCAN_DISABLE) || UX_MAX_DEVICE_INTERFACES > 1
  99:./Middlewares/ST/usbx/common/core/src/ux_device_stack_alternate_setting_get.c ****         /* Start parsing each interface.  */
 100:./Middlewares/ST/usbx/common/core/src/ux_device_stack_alternate_setting_get.c ****         while (interface != UX_NULL)
 101:./Middlewares/ST/usbx/common/core/src/ux_device_stack_alternate_setting_get.c **** #else
 102:./Middlewares/ST/usbx/common/core/src/ux_device_stack_alternate_setting_get.c ****         if (interface != UX_NULL)
 103:./Middlewares/ST/usbx/common/core/src/ux_device_stack_alternate_setting_get.c **** #endif
 104:./Middlewares/ST/usbx/common/core/src/ux_device_stack_alternate_setting_get.c ****         {
 105:./Middlewares/ST/usbx/common/core/src/ux_device_stack_alternate_setting_get.c **** 
 106:./Middlewares/ST/usbx/common/core/src/ux_device_stack_alternate_setting_get.c ****             /* Check if this is the interface we have an inquiry for.  */
 107:./Middlewares/ST/usbx/common/core/src/ux_device_stack_alternate_setting_get.c ****             if (interface -> ux_slave_interface_descriptor.bInterfaceNumber == interface_value)
 108:./Middlewares/ST/usbx/common/core/src/ux_device_stack_alternate_setting_get.c ****             {
 109:./Middlewares/ST/usbx/common/core/src/ux_device_stack_alternate_setting_get.c **** 
 110:./Middlewares/ST/usbx/common/core/src/ux_device_stack_alternate_setting_get.c ****                 /* Get the control endpoint of the device.  */                
 111:./Middlewares/ST/usbx/common/core/src/ux_device_stack_alternate_setting_get.c ****                 endpoint =  &device -> ux_slave_device_control_endpoint;
 112:./Middlewares/ST/usbx/common/core/src/ux_device_stack_alternate_setting_get.c **** 
 113:./Middlewares/ST/usbx/common/core/src/ux_device_stack_alternate_setting_get.c ****                 /* Get the pointer to the transfer request associated with the endpoint.  */
 114:./Middlewares/ST/usbx/common/core/src/ux_device_stack_alternate_setting_get.c ****                 transfer_request =  &endpoint -> ux_slave_endpoint_transfer_request;
 115:./Middlewares/ST/usbx/common/core/src/ux_device_stack_alternate_setting_get.c **** 
 116:./Middlewares/ST/usbx/common/core/src/ux_device_stack_alternate_setting_get.c ****                 /* Set the value of the alternate setting in the buffer.  */
 117:./Middlewares/ST/usbx/common/core/src/ux_device_stack_alternate_setting_get.c ****                 *transfer_request -> ux_slave_transfer_request_data_pointer =
ARM GAS  /tmp/cc4O54SH.s 			page 4


 118:./Middlewares/ST/usbx/common/core/src/ux_device_stack_alternate_setting_get.c ****                             (UCHAR) interface -> ux_slave_interface_descriptor.bAlternateSetting;
 119:./Middlewares/ST/usbx/common/core/src/ux_device_stack_alternate_setting_get.c **** 
 120:./Middlewares/ST/usbx/common/core/src/ux_device_stack_alternate_setting_get.c ****                 /* Setup the length appropriately.  */
 121:./Middlewares/ST/usbx/common/core/src/ux_device_stack_alternate_setting_get.c ****                 transfer_request -> ux_slave_transfer_request_requested_length =  1;
 122:./Middlewares/ST/usbx/common/core/src/ux_device_stack_alternate_setting_get.c **** 
 123:./Middlewares/ST/usbx/common/core/src/ux_device_stack_alternate_setting_get.c ****                 /* Set the phase of the transfer to data out.  */
 124:./Middlewares/ST/usbx/common/core/src/ux_device_stack_alternate_setting_get.c ****                 transfer_request -> ux_slave_transfer_request_phase =  UX_TRANSFER_PHASE_DATA_OUT;
 125:./Middlewares/ST/usbx/common/core/src/ux_device_stack_alternate_setting_get.c **** 
 126:./Middlewares/ST/usbx/common/core/src/ux_device_stack_alternate_setting_get.c ****                 /* Send the descriptor with the appropriate length to the host.  */
 127:./Middlewares/ST/usbx/common/core/src/ux_device_stack_alternate_setting_get.c ****                 status =  _ux_device_stack_transfer_request(transfer_request, 1, 1);
 128:./Middlewares/ST/usbx/common/core/src/ux_device_stack_alternate_setting_get.c **** 
 129:./Middlewares/ST/usbx/common/core/src/ux_device_stack_alternate_setting_get.c ****                 /* Return the function status.  */
 130:./Middlewares/ST/usbx/common/core/src/ux_device_stack_alternate_setting_get.c ****                 return(status);
 131:./Middlewares/ST/usbx/common/core/src/ux_device_stack_alternate_setting_get.c ****             }
 132:./Middlewares/ST/usbx/common/core/src/ux_device_stack_alternate_setting_get.c **** 
 133:./Middlewares/ST/usbx/common/core/src/ux_device_stack_alternate_setting_get.c **** #if !defined(UX_DEVICE_INITIALIZE_FRAMEWORK_SCAN_DISABLE) || UX_MAX_DEVICE_INTERFACES > 1
 134:./Middlewares/ST/usbx/common/core/src/ux_device_stack_alternate_setting_get.c ****             /* Get the next interface.  */
 135:./Middlewares/ST/usbx/common/core/src/ux_device_stack_alternate_setting_get.c ****             interface =  interface -> ux_slave_interface_next_interface;
 136:./Middlewares/ST/usbx/common/core/src/ux_device_stack_alternate_setting_get.c **** #endif
 137:./Middlewares/ST/usbx/common/core/src/ux_device_stack_alternate_setting_get.c ****         }
 138:./Middlewares/ST/usbx/common/core/src/ux_device_stack_alternate_setting_get.c ****     }
 139:./Middlewares/ST/usbx/common/core/src/ux_device_stack_alternate_setting_get.c **** 
 140:./Middlewares/ST/usbx/common/core/src/ux_device_stack_alternate_setting_get.c ****     /* Return error completion. */
 141:./Middlewares/ST/usbx/common/core/src/ux_device_stack_alternate_setting_get.c ****     return(UX_ERROR);
  56              		.loc 1 141 11 view .LVU12
  57 000c FF20     		movs	r0, #255
  58              	.LVL2:
  59              	.L1:
 142:./Middlewares/ST/usbx/common/core/src/ux_device_stack_alternate_setting_get.c **** }
  60              		.loc 1 142 1 view .LVU13
  61 000e 10BD     		pop	{r4, pc}
  62              	.LVL3:
  63              	.L8:
  96:./Middlewares/ST/usbx/common/core/src/ux_device_stack_alternate_setting_get.c **** 
  64              		.loc 1 96 9 is_stmt 1 view .LVU14
  96:./Middlewares/ST/usbx/common/core/src/ux_device_stack_alternate_setting_get.c **** 
  65              		.loc 1 96 19 is_stmt 0 view .LVU15
  66 0010 D4F81031 		ldr	r3, [r4, #272]
  67              	.LVL4:
 100:./Middlewares/ST/usbx/common/core/src/ux_device_stack_alternate_setting_get.c **** #else
  68              		.loc 1 100 9 is_stmt 1 view .LVU16
  69              	.L3:
 100:./Middlewares/ST/usbx/common/core/src/ux_device_stack_alternate_setting_get.c **** #else
  70              		.loc 1 100 26 view .LVU17
  71 0014 A3B1     		cbz	r3, .L9
 107:./Middlewares/ST/usbx/common/core/src/ux_device_stack_alternate_setting_get.c ****             {
  72              		.loc 1 107 13 view .LVU18
 107:./Middlewares/ST/usbx/common/core/src/ux_device_stack_alternate_setting_get.c ****             {
  73              		.loc 1 107 59 is_stmt 0 view .LVU19
  74 0016 5A69     		ldr	r2, [r3, #20]
 107:./Middlewares/ST/usbx/common/core/src/ux_device_stack_alternate_setting_get.c ****             {
  75              		.loc 1 107 16 view .LVU20
  76 0018 8242     		cmp	r2, r0
  77 001a 01D0     		beq	.L10
 135:./Middlewares/ST/usbx/common/core/src/ux_device_stack_alternate_setting_get.c **** #endif
  78              		.loc 1 135 13 is_stmt 1 view .LVU21
 135:./Middlewares/ST/usbx/common/core/src/ux_device_stack_alternate_setting_get.c **** #endif
ARM GAS  /tmp/cc4O54SH.s 			page 5


  79              		.loc 1 135 23 is_stmt 0 view .LVU22
  80 001c 1B6B     		ldr	r3, [r3, #48]
  81              	.LVL5:
 135:./Middlewares/ST/usbx/common/core/src/ux_device_stack_alternate_setting_get.c **** #endif
  82              		.loc 1 135 23 view .LVU23
  83 001e F9E7     		b	.L3
  84              	.L10:
 111:./Middlewares/ST/usbx/common/core/src/ux_device_stack_alternate_setting_get.c **** 
  85              		.loc 1 111 17 is_stmt 1 view .LVU24
  86              	.LVL6:
 114:./Middlewares/ST/usbx/common/core/src/ux_device_stack_alternate_setting_get.c **** 
  87              		.loc 1 114 17 view .LVU25
 117:./Middlewares/ST/usbx/common/core/src/ux_device_stack_alternate_setting_get.c ****                             (UCHAR) interface -> ux_slave_interface_descriptor.bAlternateSetting;
  88              		.loc 1 117 17 view .LVU26
 117:./Middlewares/ST/usbx/common/core/src/ux_device_stack_alternate_setting_get.c ****                             (UCHAR) interface -> ux_slave_interface_descriptor.bAlternateSetting;
  89              		.loc 1 117 35 is_stmt 0 view .LVU27
  90 0020 D4F89820 		ldr	r2, [r4, #152]
 118:./Middlewares/ST/usbx/common/core/src/ux_device_stack_alternate_setting_get.c **** 
  91              		.loc 1 118 29 view .LVU28
  92 0024 1B7E     		ldrb	r3, [r3, #24]	@ zero_extendqisi2
  93              	.LVL7:
 117:./Middlewares/ST/usbx/common/core/src/ux_device_stack_alternate_setting_get.c ****                             (UCHAR) interface -> ux_slave_interface_descriptor.bAlternateSetting;
  94              		.loc 1 117 77 view .LVU29
  95 0026 1370     		strb	r3, [r2]
 121:./Middlewares/ST/usbx/common/core/src/ux_device_stack_alternate_setting_get.c **** 
  96              		.loc 1 121 17 is_stmt 1 view .LVU30
 121:./Middlewares/ST/usbx/common/core/src/ux_device_stack_alternate_setting_get.c **** 
  97              		.loc 1 121 80 is_stmt 0 view .LVU31
  98 0028 0121     		movs	r1, #1
  99 002a C4F8A010 		str	r1, [r4, #160]
 124:./Middlewares/ST/usbx/common/core/src/ux_device_stack_alternate_setting_get.c **** 
 100              		.loc 1 124 17 is_stmt 1 view .LVU32
 124:./Middlewares/ST/usbx/common/core/src/ux_device_stack_alternate_setting_get.c **** 
 101              		.loc 1 124 69 is_stmt 0 view .LVU33
 102 002e 0323     		movs	r3, #3
 103 0030 C4F8B430 		str	r3, [r4, #180]
 127:./Middlewares/ST/usbx/common/core/src/ux_device_stack_alternate_setting_get.c **** 
 104              		.loc 1 127 17 is_stmt 1 view .LVU34
 127:./Middlewares/ST/usbx/common/core/src/ux_device_stack_alternate_setting_get.c **** 
 105              		.loc 1 127 27 is_stmt 0 view .LVU35
 106 0034 0A46     		mov	r2, r1
 107 0036 04F18C00 		add	r0, r4, #140
 108              	.LVL8:
 127:./Middlewares/ST/usbx/common/core/src/ux_device_stack_alternate_setting_get.c **** 
 109              		.loc 1 127 27 view .LVU36
 110 003a FFF7FEFF 		bl	_ux_device_stack_transfer_request
 111              	.LVL9:
 130:./Middlewares/ST/usbx/common/core/src/ux_device_stack_alternate_setting_get.c ****             }
 112              		.loc 1 130 17 is_stmt 1 view .LVU37
 130:./Middlewares/ST/usbx/common/core/src/ux_device_stack_alternate_setting_get.c ****             }
 113              		.loc 1 130 23 is_stmt 0 view .LVU38
 114 003e E6E7     		b	.L1
 115              	.LVL10:
 116              	.L9:
 141:./Middlewares/ST/usbx/common/core/src/ux_device_stack_alternate_setting_get.c **** }
 117              		.loc 1 141 11 view .LVU39
 118 0040 FF20     		movs	r0, #255
ARM GAS  /tmp/cc4O54SH.s 			page 6


 119              	.LVL11:
 141:./Middlewares/ST/usbx/common/core/src/ux_device_stack_alternate_setting_get.c **** }
 120              		.loc 1 141 11 view .LVU40
 121 0042 E4E7     		b	.L1
 122              	.L12:
 123              		.align	2
 124              	.L11:
 125 0044 00000000 		.word	_ux_system_slave
 126              		.cfi_endproc
 127              	.LFE11:
 129              		.text
 130              	.Letext0:
 131              		.file 2 "./Middlewares/ST/threadx/ports/cortex_m4/gnu/inc/tx_port.h"
 132              		.file 3 "./Middlewares/ST/threadx/common/inc/tx_api.h"
 133              		.file 4 "./Middlewares/ST/usbx/common/core/inc/ux_api.h"
 134              		.file 5 "./Middlewares/ST/usbx/common/core/inc/ux_system.h"
 135              		.file 6 "./Middlewares/ST/usbx/common/core/inc/ux_device_stack.h"
ARM GAS  /tmp/cc4O54SH.s 			page 7


DEFINED SYMBOLS
                            *ABS*:00000000 ux_device_stack_alternate_setting_get.c
     /tmp/cc4O54SH.s:21     .text._ux_device_stack_alternate_setting_get:00000000 $t
     /tmp/cc4O54SH.s:27     .text._ux_device_stack_alternate_setting_get:00000000 _ux_device_stack_alternate_setting_get
     /tmp/cc4O54SH.s:125    .text._ux_device_stack_alternate_setting_get:00000044 $d

UNDEFINED SYMBOLS
_ux_device_stack_transfer_request
_ux_system_slave
