ARM GAS  C:\Users\Dennis\AppData\Local\Temp\ccHbZS3M.s 			page 1


   1              		.cpu cortex-m4
   2              		.arch armv7e-m
   3              		.fpu fpv4-sp-d16
   4              		.eabi_attribute 27, 1
   5              		.eabi_attribute 28, 1
   6              		.eabi_attribute 20, 1
   7              		.eabi_attribute 21, 1
   8              		.eabi_attribute 23, 3
   9              		.eabi_attribute 24, 1
  10              		.eabi_attribute 25, 1
  11              		.eabi_attribute 26, 1
  12              		.eabi_attribute 30, 1
  13              		.eabi_attribute 34, 1
  14              		.eabi_attribute 18, 4
  15              		.file	"ux_device_class_cdc_acm_bulkin_thread.c"
  16              		.text
  17              	.Ltext0:
  18              		.cfi_sections	.debug_frame
  19              		.section	.text._ux_device_class_cdc_acm_bulkin_thread,"ax",%progbits
  20              		.align	1
  21              		.global	_ux_device_class_cdc_acm_bulkin_thread
  22              		.syntax unified
  23              		.thumb
  24              		.thumb_func
  26              	_ux_device_class_cdc_acm_bulkin_thread:
  27              	.LVL0:
  28              	.LFB11:
  29              		.file 1 "./Middlewares/ST/usbx/common/usbx_device_classes/src/ux_device_class_cdc_acm_bulkin_threa
   1:./Middlewares/ST/usbx/common/usbx_device_classes/src/ux_device_class_cdc_acm_bulkin_thread.c **** /**************************************************************************/
   2:./Middlewares/ST/usbx/common/usbx_device_classes/src/ux_device_class_cdc_acm_bulkin_thread.c **** /*                                                                        */
   3:./Middlewares/ST/usbx/common/usbx_device_classes/src/ux_device_class_cdc_acm_bulkin_thread.c **** /*       Copyright (c) Microsoft Corporation. All rights reserved.        */
   4:./Middlewares/ST/usbx/common/usbx_device_classes/src/ux_device_class_cdc_acm_bulkin_thread.c **** /*                                                                        */
   5:./Middlewares/ST/usbx/common/usbx_device_classes/src/ux_device_class_cdc_acm_bulkin_thread.c **** /*       This software is licensed under the Microsoft Software License   */
   6:./Middlewares/ST/usbx/common/usbx_device_classes/src/ux_device_class_cdc_acm_bulkin_thread.c **** /*       Terms for Microsoft Azure RTOS. Full text of the license can be  */
   7:./Middlewares/ST/usbx/common/usbx_device_classes/src/ux_device_class_cdc_acm_bulkin_thread.c **** /*       found in the LICENSE file at https://aka.ms/AzureRTOS_EULA       */
   8:./Middlewares/ST/usbx/common/usbx_device_classes/src/ux_device_class_cdc_acm_bulkin_thread.c **** /*       and in the root directory of this software.                      */
   9:./Middlewares/ST/usbx/common/usbx_device_classes/src/ux_device_class_cdc_acm_bulkin_thread.c **** /*                                                                        */
  10:./Middlewares/ST/usbx/common/usbx_device_classes/src/ux_device_class_cdc_acm_bulkin_thread.c **** /**************************************************************************/
  11:./Middlewares/ST/usbx/common/usbx_device_classes/src/ux_device_class_cdc_acm_bulkin_thread.c **** 
  12:./Middlewares/ST/usbx/common/usbx_device_classes/src/ux_device_class_cdc_acm_bulkin_thread.c **** /**************************************************************************/
  13:./Middlewares/ST/usbx/common/usbx_device_classes/src/ux_device_class_cdc_acm_bulkin_thread.c **** /**************************************************************************/
  14:./Middlewares/ST/usbx/common/usbx_device_classes/src/ux_device_class_cdc_acm_bulkin_thread.c **** /**                                                                       */
  15:./Middlewares/ST/usbx/common/usbx_device_classes/src/ux_device_class_cdc_acm_bulkin_thread.c **** /** USBX Component                                                        */
  16:./Middlewares/ST/usbx/common/usbx_device_classes/src/ux_device_class_cdc_acm_bulkin_thread.c **** /**                                                                       */
  17:./Middlewares/ST/usbx/common/usbx_device_classes/src/ux_device_class_cdc_acm_bulkin_thread.c **** /**   Device CDC_ACM Class                                                */
  18:./Middlewares/ST/usbx/common/usbx_device_classes/src/ux_device_class_cdc_acm_bulkin_thread.c **** /**                                                                       */
  19:./Middlewares/ST/usbx/common/usbx_device_classes/src/ux_device_class_cdc_acm_bulkin_thread.c **** /**************************************************************************/
  20:./Middlewares/ST/usbx/common/usbx_device_classes/src/ux_device_class_cdc_acm_bulkin_thread.c **** /**************************************************************************/
  21:./Middlewares/ST/usbx/common/usbx_device_classes/src/ux_device_class_cdc_acm_bulkin_thread.c **** 
  22:./Middlewares/ST/usbx/common/usbx_device_classes/src/ux_device_class_cdc_acm_bulkin_thread.c **** #define UX_SOURCE_CODE
  23:./Middlewares/ST/usbx/common/usbx_device_classes/src/ux_device_class_cdc_acm_bulkin_thread.c **** 
  24:./Middlewares/ST/usbx/common/usbx_device_classes/src/ux_device_class_cdc_acm_bulkin_thread.c **** 
  25:./Middlewares/ST/usbx/common/usbx_device_classes/src/ux_device_class_cdc_acm_bulkin_thread.c **** /* Include necessary system files.  */
  26:./Middlewares/ST/usbx/common/usbx_device_classes/src/ux_device_class_cdc_acm_bulkin_thread.c **** 
  27:./Middlewares/ST/usbx/common/usbx_device_classes/src/ux_device_class_cdc_acm_bulkin_thread.c **** #include "ux_api.h"
  28:./Middlewares/ST/usbx/common/usbx_device_classes/src/ux_device_class_cdc_acm_bulkin_thread.c **** #include "ux_device_class_cdc_acm.h"
  29:./Middlewares/ST/usbx/common/usbx_device_classes/src/ux_device_class_cdc_acm_bulkin_thread.c **** #include "ux_device_stack.h"
ARM GAS  C:\Users\Dennis\AppData\Local\Temp\ccHbZS3M.s 			page 2


  30:./Middlewares/ST/usbx/common/usbx_device_classes/src/ux_device_class_cdc_acm_bulkin_thread.c **** 
  31:./Middlewares/ST/usbx/common/usbx_device_classes/src/ux_device_class_cdc_acm_bulkin_thread.c **** 
  32:./Middlewares/ST/usbx/common/usbx_device_classes/src/ux_device_class_cdc_acm_bulkin_thread.c **** #if !defined(UX_DEVICE_CLASS_CDC_ACM_TRANSMISSION_DISABLE) && !defined(UX_DEVICE_STANDALONE)
  33:./Middlewares/ST/usbx/common/usbx_device_classes/src/ux_device_class_cdc_acm_bulkin_thread.c **** /**************************************************************************/
  34:./Middlewares/ST/usbx/common/usbx_device_classes/src/ux_device_class_cdc_acm_bulkin_thread.c **** /*                                                                        */
  35:./Middlewares/ST/usbx/common/usbx_device_classes/src/ux_device_class_cdc_acm_bulkin_thread.c **** /*  FUNCTION                                               RELEASE        */
  36:./Middlewares/ST/usbx/common/usbx_device_classes/src/ux_device_class_cdc_acm_bulkin_thread.c **** /*                                                                        */
  37:./Middlewares/ST/usbx/common/usbx_device_classes/src/ux_device_class_cdc_acm_bulkin_thread.c **** /*    _ux_device_class_cdc_acm_bulkin_thread              PORTABLE C      */
  38:./Middlewares/ST/usbx/common/usbx_device_classes/src/ux_device_class_cdc_acm_bulkin_thread.c **** /*                                                           6.1.10       */
  39:./Middlewares/ST/usbx/common/usbx_device_classes/src/ux_device_class_cdc_acm_bulkin_thread.c **** /*  AUTHOR                                                                */
  40:./Middlewares/ST/usbx/common/usbx_device_classes/src/ux_device_class_cdc_acm_bulkin_thread.c **** /*                                                                        */
  41:./Middlewares/ST/usbx/common/usbx_device_classes/src/ux_device_class_cdc_acm_bulkin_thread.c **** /*    Chaoqiong Xiao, Microsoft Corporation                               */
  42:./Middlewares/ST/usbx/common/usbx_device_classes/src/ux_device_class_cdc_acm_bulkin_thread.c **** /*                                                                        */
  43:./Middlewares/ST/usbx/common/usbx_device_classes/src/ux_device_class_cdc_acm_bulkin_thread.c **** /*  DESCRIPTION                                                           */
  44:./Middlewares/ST/usbx/common/usbx_device_classes/src/ux_device_class_cdc_acm_bulkin_thread.c **** /*                                                                        */
  45:./Middlewares/ST/usbx/common/usbx_device_classes/src/ux_device_class_cdc_acm_bulkin_thread.c **** /*    This function is the thread of the cdc_acm bulkin endpoint. The bulk*/
  46:./Middlewares/ST/usbx/common/usbx_device_classes/src/ux_device_class_cdc_acm_bulkin_thread.c **** /*    IN endpoint is used when the device wants to write data to be sent  */
  47:./Middlewares/ST/usbx/common/usbx_device_classes/src/ux_device_class_cdc_acm_bulkin_thread.c **** /*    to the host.                                                        */
  48:./Middlewares/ST/usbx/common/usbx_device_classes/src/ux_device_class_cdc_acm_bulkin_thread.c **** /*                                                                        */
  49:./Middlewares/ST/usbx/common/usbx_device_classes/src/ux_device_class_cdc_acm_bulkin_thread.c **** /*    It's for RTOS mode.                                                 */
  50:./Middlewares/ST/usbx/common/usbx_device_classes/src/ux_device_class_cdc_acm_bulkin_thread.c **** /*                                                                        */
  51:./Middlewares/ST/usbx/common/usbx_device_classes/src/ux_device_class_cdc_acm_bulkin_thread.c **** /*  INPUT                                                                 */
  52:./Middlewares/ST/usbx/common/usbx_device_classes/src/ux_device_class_cdc_acm_bulkin_thread.c **** /*                                                                        */
  53:./Middlewares/ST/usbx/common/usbx_device_classes/src/ux_device_class_cdc_acm_bulkin_thread.c **** /*    cdc_acm_class                             Address of cdc_acm class  */
  54:./Middlewares/ST/usbx/common/usbx_device_classes/src/ux_device_class_cdc_acm_bulkin_thread.c **** /*                                                container               */
  55:./Middlewares/ST/usbx/common/usbx_device_classes/src/ux_device_class_cdc_acm_bulkin_thread.c **** /*                                                                        */
  56:./Middlewares/ST/usbx/common/usbx_device_classes/src/ux_device_class_cdc_acm_bulkin_thread.c **** /*  OUTPUT                                                                */
  57:./Middlewares/ST/usbx/common/usbx_device_classes/src/ux_device_class_cdc_acm_bulkin_thread.c **** /*                                                                        */
  58:./Middlewares/ST/usbx/common/usbx_device_classes/src/ux_device_class_cdc_acm_bulkin_thread.c **** /*    None                                                                */
  59:./Middlewares/ST/usbx/common/usbx_device_classes/src/ux_device_class_cdc_acm_bulkin_thread.c **** /*                                                                        */
  60:./Middlewares/ST/usbx/common/usbx_device_classes/src/ux_device_class_cdc_acm_bulkin_thread.c **** /*  CALLS                                                                 */
  61:./Middlewares/ST/usbx/common/usbx_device_classes/src/ux_device_class_cdc_acm_bulkin_thread.c **** /*                                                                        */
  62:./Middlewares/ST/usbx/common/usbx_device_classes/src/ux_device_class_cdc_acm_bulkin_thread.c **** /*    _ux_device_stack_transfer_request     Request transfer              */
  63:./Middlewares/ST/usbx/common/usbx_device_classes/src/ux_device_class_cdc_acm_bulkin_thread.c **** /*                                                                        */
  64:./Middlewares/ST/usbx/common/usbx_device_classes/src/ux_device_class_cdc_acm_bulkin_thread.c **** /*  CALLED BY                                                             */
  65:./Middlewares/ST/usbx/common/usbx_device_classes/src/ux_device_class_cdc_acm_bulkin_thread.c **** /*                                                                        */
  66:./Middlewares/ST/usbx/common/usbx_device_classes/src/ux_device_class_cdc_acm_bulkin_thread.c **** /*    ThreadX                                                             */
  67:./Middlewares/ST/usbx/common/usbx_device_classes/src/ux_device_class_cdc_acm_bulkin_thread.c **** /*                                                                        */
  68:./Middlewares/ST/usbx/common/usbx_device_classes/src/ux_device_class_cdc_acm_bulkin_thread.c **** /*  RELEASE HISTORY                                                       */
  69:./Middlewares/ST/usbx/common/usbx_device_classes/src/ux_device_class_cdc_acm_bulkin_thread.c **** /*                                                                        */
  70:./Middlewares/ST/usbx/common/usbx_device_classes/src/ux_device_class_cdc_acm_bulkin_thread.c **** /*    DATE              NAME                      DESCRIPTION             */
  71:./Middlewares/ST/usbx/common/usbx_device_classes/src/ux_device_class_cdc_acm_bulkin_thread.c **** /*                                                                        */
  72:./Middlewares/ST/usbx/common/usbx_device_classes/src/ux_device_class_cdc_acm_bulkin_thread.c **** /*  05-19-2020     Chaoqiong Xiao           Initial Version 6.0           */
  73:./Middlewares/ST/usbx/common/usbx_device_classes/src/ux_device_class_cdc_acm_bulkin_thread.c **** /*  09-30-2020     Chaoqiong Xiao           Modified comment(s),          */
  74:./Middlewares/ST/usbx/common/usbx_device_classes/src/ux_device_class_cdc_acm_bulkin_thread.c **** /*                                            verified memset and memcpy  */
  75:./Middlewares/ST/usbx/common/usbx_device_classes/src/ux_device_class_cdc_acm_bulkin_thread.c **** /*                                            cases, used UX prefix to    */
  76:./Middlewares/ST/usbx/common/usbx_device_classes/src/ux_device_class_cdc_acm_bulkin_thread.c **** /*                                            refer to TX symbols instead */
  77:./Middlewares/ST/usbx/common/usbx_device_classes/src/ux_device_class_cdc_acm_bulkin_thread.c **** /*                                            of using them directly,     */
  78:./Middlewares/ST/usbx/common/usbx_device_classes/src/ux_device_class_cdc_acm_bulkin_thread.c **** /*                                            resulting in version 6.1    */
  79:./Middlewares/ST/usbx/common/usbx_device_classes/src/ux_device_class_cdc_acm_bulkin_thread.c **** /*  04-02-2021     Chaoqiong Xiao           Modified comment(s),          */
  80:./Middlewares/ST/usbx/common/usbx_device_classes/src/ux_device_class_cdc_acm_bulkin_thread.c **** /*                                            added macro to disable      */
  81:./Middlewares/ST/usbx/common/usbx_device_classes/src/ux_device_class_cdc_acm_bulkin_thread.c **** /*                                            transmission support,       */
  82:./Middlewares/ST/usbx/common/usbx_device_classes/src/ux_device_class_cdc_acm_bulkin_thread.c **** /*                                            resulting in version 6.1.6  */
  83:./Middlewares/ST/usbx/common/usbx_device_classes/src/ux_device_class_cdc_acm_bulkin_thread.c **** /*  01-31-2022     Chaoqiong Xiao           Modified comment(s),          */
  84:./Middlewares/ST/usbx/common/usbx_device_classes/src/ux_device_class_cdc_acm_bulkin_thread.c **** /*                                            refined macros names,       */
  85:./Middlewares/ST/usbx/common/usbx_device_classes/src/ux_device_class_cdc_acm_bulkin_thread.c **** /*                                            resulting in version 6.1.10 */
  86:./Middlewares/ST/usbx/common/usbx_device_classes/src/ux_device_class_cdc_acm_bulkin_thread.c **** /*                                                                        */
ARM GAS  C:\Users\Dennis\AppData\Local\Temp\ccHbZS3M.s 			page 3


  87:./Middlewares/ST/usbx/common/usbx_device_classes/src/ux_device_class_cdc_acm_bulkin_thread.c **** /**************************************************************************/
  88:./Middlewares/ST/usbx/common/usbx_device_classes/src/ux_device_class_cdc_acm_bulkin_thread.c **** VOID  _ux_device_class_cdc_acm_bulkin_thread(ULONG cdc_acm_class)
  89:./Middlewares/ST/usbx/common/usbx_device_classes/src/ux_device_class_cdc_acm_bulkin_thread.c **** {
  30              		.loc 1 89 1 view -0
  31              		.cfi_startproc
  32              		@ args = 0, pretend = 0, frame = 8
  33              		@ frame_needed = 0, uses_anonymous_args = 0
  34              		.loc 1 89 1 is_stmt 0 view .LVU1
  35 0000 2DE9F04F 		push	{r4, r5, r6, r7, r8, r9, r10, fp, lr}
  36              	.LCFI0:
  37              		.cfi_def_cfa_offset 36
  38              		.cfi_offset 4, -36
  39              		.cfi_offset 5, -32
  40              		.cfi_offset 6, -28
  41              		.cfi_offset 7, -24
  42              		.cfi_offset 8, -20
  43              		.cfi_offset 9, -16
  44              		.cfi_offset 10, -12
  45              		.cfi_offset 11, -8
  46              		.cfi_offset 14, -4
  47 0004 85B0     		sub	sp, sp, #20
  48              	.LCFI1:
  49              		.cfi_def_cfa_offset 56
  50 0006 0646     		mov	r6, r0
  90:./Middlewares/ST/usbx/common/usbx_device_classes/src/ux_device_class_cdc_acm_bulkin_thread.c **** 
  91:./Middlewares/ST/usbx/common/usbx_device_classes/src/ux_device_class_cdc_acm_bulkin_thread.c **** UX_SLAVE_CLASS_CDC_ACM          *cdc_acm;
  51              		.loc 1 91 1 is_stmt 1 view .LVU2
  92:./Middlewares/ST/usbx/common/usbx_device_classes/src/ux_device_class_cdc_acm_bulkin_thread.c **** UX_SLAVE_DEVICE                 *device;
  52              		.loc 1 92 1 view .LVU3
  93:./Middlewares/ST/usbx/common/usbx_device_classes/src/ux_device_class_cdc_acm_bulkin_thread.c **** UX_SLAVE_ENDPOINT               *endpoint;
  53              		.loc 1 93 1 view .LVU4
  94:./Middlewares/ST/usbx/common/usbx_device_classes/src/ux_device_class_cdc_acm_bulkin_thread.c **** UX_SLAVE_INTERFACE              *interface;
  54              		.loc 1 94 1 view .LVU5
  95:./Middlewares/ST/usbx/common/usbx_device_classes/src/ux_device_class_cdc_acm_bulkin_thread.c **** UX_SLAVE_TRANSFER               *transfer_request;
  55              		.loc 1 95 1 view .LVU6
  96:./Middlewares/ST/usbx/common/usbx_device_classes/src/ux_device_class_cdc_acm_bulkin_thread.c **** UINT                            status;
  56              		.loc 1 96 1 view .LVU7
  97:./Middlewares/ST/usbx/common/usbx_device_classes/src/ux_device_class_cdc_acm_bulkin_thread.c **** ULONG                           actual_flags;
  57              		.loc 1 97 1 view .LVU8
  98:./Middlewares/ST/usbx/common/usbx_device_classes/src/ux_device_class_cdc_acm_bulkin_thread.c **** ULONG                           transfer_length;
  58              		.loc 1 98 1 view .LVU9
  99:./Middlewares/ST/usbx/common/usbx_device_classes/src/ux_device_class_cdc_acm_bulkin_thread.c **** ULONG                           total_length;
  59              		.loc 1 99 1 view .LVU10
 100:./Middlewares/ST/usbx/common/usbx_device_classes/src/ux_device_class_cdc_acm_bulkin_thread.c **** ULONG                           sent_length;
  60              		.loc 1 100 1 view .LVU11
 101:./Middlewares/ST/usbx/common/usbx_device_classes/src/ux_device_class_cdc_acm_bulkin_thread.c **** 
 102:./Middlewares/ST/usbx/common/usbx_device_classes/src/ux_device_class_cdc_acm_bulkin_thread.c **** 
 103:./Middlewares/ST/usbx/common/usbx_device_classes/src/ux_device_class_cdc_acm_bulkin_thread.c ****     /* Get the cdc_acm instance from this class container.  */
 104:./Middlewares/ST/usbx/common/usbx_device_classes/src/ux_device_class_cdc_acm_bulkin_thread.c ****     UX_THREAD_EXTENSION_PTR_GET(cdc_acm, UX_SLAVE_CLASS_CDC_ACM, cdc_acm_class)
  61              		.loc 1 104 5 view .LVU12
  62              	.LVL1:
 105:./Middlewares/ST/usbx/common/usbx_device_classes/src/ux_device_class_cdc_acm_bulkin_thread.c **** 
 106:./Middlewares/ST/usbx/common/usbx_device_classes/src/ux_device_class_cdc_acm_bulkin_thread.c ****     /* Get the pointer to the device.  */
 107:./Middlewares/ST/usbx/common/usbx_device_classes/src/ux_device_class_cdc_acm_bulkin_thread.c ****     device =  &_ux_system_slave -> ux_system_slave_device;
  63              		.loc 1 107 5 view .LVU13
  64              		.loc 1 107 33 is_stmt 0 view .LVU14
  65 0008 2D4B     		ldr	r3, .L16
ARM GAS  C:\Users\Dennis\AppData\Local\Temp\ccHbZS3M.s 			page 4


  66 000a D3F800B0 		ldr	fp, [r3]
  67              	.LVL2:
 108:./Middlewares/ST/usbx/common/usbx_device_classes/src/ux_device_class_cdc_acm_bulkin_thread.c **** 
 109:./Middlewares/ST/usbx/common/usbx_device_classes/src/ux_device_class_cdc_acm_bulkin_thread.c ****     /* This is the first time we are activated. We need the interface to the class.  */
 110:./Middlewares/ST/usbx/common/usbx_device_classes/src/ux_device_class_cdc_acm_bulkin_thread.c ****     interface =  cdc_acm -> ux_slave_class_cdc_acm_interface;
  68              		.loc 1 110 5 is_stmt 1 view .LVU15
  69              		.loc 1 110 15 is_stmt 0 view .LVU16
  70 000e 0368     		ldr	r3, [r0]
  71              	.LVL3:
 111:./Middlewares/ST/usbx/common/usbx_device_classes/src/ux_device_class_cdc_acm_bulkin_thread.c **** 
 112:./Middlewares/ST/usbx/common/usbx_device_classes/src/ux_device_class_cdc_acm_bulkin_thread.c ****     /* Locate the endpoints.  */
 113:./Middlewares/ST/usbx/common/usbx_device_classes/src/ux_device_class_cdc_acm_bulkin_thread.c ****     endpoint =  interface -> ux_slave_interface_first_endpoint;
  72              		.loc 1 113 5 is_stmt 1 view .LVU17
  73              		.loc 1 113 14 is_stmt 0 view .LVU18
  74 0010 5F6B     		ldr	r7, [r3, #52]
  75              	.LVL4:
 114:./Middlewares/ST/usbx/common/usbx_device_classes/src/ux_device_class_cdc_acm_bulkin_thread.c **** 
 115:./Middlewares/ST/usbx/common/usbx_device_classes/src/ux_device_class_cdc_acm_bulkin_thread.c ****     /* Check the endpoint direction, if IN we have the correct endpoint.  */
 116:./Middlewares/ST/usbx/common/usbx_device_classes/src/ux_device_class_cdc_acm_bulkin_thread.c ****     if ((endpoint -> ux_slave_endpoint_descriptor.bEndpointAddress & UX_ENDPOINT_DIRECTION) != UX_E
  76              		.loc 1 116 5 is_stmt 1 view .LVU19
  77              		.loc 1 116 50 is_stmt 0 view .LVU20
  78 0012 7B69     		ldr	r3, [r7, #20]
  79              	.LVL5:
  80              		.loc 1 116 8 view .LVU21
  81 0014 13F0800F 		tst	r3, #128
  82 0018 25D1     		bne	.L12
 117:./Middlewares/ST/usbx/common/usbx_device_classes/src/ux_device_class_cdc_acm_bulkin_thread.c ****     {
 118:./Middlewares/ST/usbx/common/usbx_device_classes/src/ux_device_class_cdc_acm_bulkin_thread.c **** 
 119:./Middlewares/ST/usbx/common/usbx_device_classes/src/ux_device_class_cdc_acm_bulkin_thread.c ****         /* So the next endpoint has to be the IN endpoint.  */
 120:./Middlewares/ST/usbx/common/usbx_device_classes/src/ux_device_class_cdc_acm_bulkin_thread.c ****         endpoint =  endpoint -> ux_slave_endpoint_next_endpoint;
  83              		.loc 1 120 9 is_stmt 1 view .LVU22
  84              		.loc 1 120 18 is_stmt 0 view .LVU23
  85 001a 7F6A     		ldr	r7, [r7, #36]
  86              	.LVL6:
  87              		.loc 1 120 18 view .LVU24
  88 001c 23E0     		b	.L12
  89              	.LVL7:
  90              	.L14:
 121:./Middlewares/ST/usbx/common/usbx_device_classes/src/ux_device_class_cdc_acm_bulkin_thread.c ****     }
 122:./Middlewares/ST/usbx/common/usbx_device_classes/src/ux_device_class_cdc_acm_bulkin_thread.c **** 
 123:./Middlewares/ST/usbx/common/usbx_device_classes/src/ux_device_class_cdc_acm_bulkin_thread.c ****     /* This thread runs forever but can be suspended or resumed.  */
 124:./Middlewares/ST/usbx/common/usbx_device_classes/src/ux_device_class_cdc_acm_bulkin_thread.c ****     while(1)
 125:./Middlewares/ST/usbx/common/usbx_device_classes/src/ux_device_class_cdc_acm_bulkin_thread.c ****     {
 126:./Middlewares/ST/usbx/common/usbx_device_classes/src/ux_device_class_cdc_acm_bulkin_thread.c **** 
 127:./Middlewares/ST/usbx/common/usbx_device_classes/src/ux_device_class_cdc_acm_bulkin_thread.c ****         /* Get the transfer request for the bulk IN pipe.  */
 128:./Middlewares/ST/usbx/common/usbx_device_classes/src/ux_device_class_cdc_acm_bulkin_thread.c ****         transfer_request =  &endpoint -> ux_slave_endpoint_transfer_request;
 129:./Middlewares/ST/usbx/common/usbx_device_classes/src/ux_device_class_cdc_acm_bulkin_thread.c **** 
 130:./Middlewares/ST/usbx/common/usbx_device_classes/src/ux_device_class_cdc_acm_bulkin_thread.c ****         /* As long as the device is in the CONFIGURED state.  */
 131:./Middlewares/ST/usbx/common/usbx_device_classes/src/ux_device_class_cdc_acm_bulkin_thread.c ****         while (device -> ux_slave_device_state == UX_DEVICE_CONFIGURED)
 132:./Middlewares/ST/usbx/common/usbx_device_classes/src/ux_device_class_cdc_acm_bulkin_thread.c ****         {
 133:./Middlewares/ST/usbx/common/usbx_device_classes/src/ux_device_class_cdc_acm_bulkin_thread.c **** 
 134:./Middlewares/ST/usbx/common/usbx_device_classes/src/ux_device_class_cdc_acm_bulkin_thread.c ****             /* Wait until we have a event sent by the application. */
 135:./Middlewares/ST/usbx/common/usbx_device_classes/src/ux_device_class_cdc_acm_bulkin_thread.c ****             status =  _ux_utility_event_flags_get(&cdc_acm -> ux_slave_class_cdc_acm_event_flags_gr
 136:./Middlewares/ST/usbx/common/usbx_device_classes/src/ux_device_class_cdc_acm_bulkin_thread.c ****                                                                                             UX_OR_C
 137:./Middlewares/ST/usbx/common/usbx_device_classes/src/ux_device_class_cdc_acm_bulkin_thread.c **** 
 138:./Middlewares/ST/usbx/common/usbx_device_classes/src/ux_device_class_cdc_acm_bulkin_thread.c ****             /* Check the completion code. */
 139:./Middlewares/ST/usbx/common/usbx_device_classes/src/ux_device_class_cdc_acm_bulkin_thread.c ****             if (status == UX_SUCCESS)
ARM GAS  C:\Users\Dennis\AppData\Local\Temp\ccHbZS3M.s 			page 5


 140:./Middlewares/ST/usbx/common/usbx_device_classes/src/ux_device_class_cdc_acm_bulkin_thread.c ****             {
 141:./Middlewares/ST/usbx/common/usbx_device_classes/src/ux_device_class_cdc_acm_bulkin_thread.c **** 
 142:./Middlewares/ST/usbx/common/usbx_device_classes/src/ux_device_class_cdc_acm_bulkin_thread.c ****                 /* Get the length of the entire buffer to send.  */
 143:./Middlewares/ST/usbx/common/usbx_device_classes/src/ux_device_class_cdc_acm_bulkin_thread.c ****                 total_length = cdc_acm -> ux_slave_class_cdc_acm_callback_total_length;
 144:./Middlewares/ST/usbx/common/usbx_device_classes/src/ux_device_class_cdc_acm_bulkin_thread.c **** 
 145:./Middlewares/ST/usbx/common/usbx_device_classes/src/ux_device_class_cdc_acm_bulkin_thread.c ****                 /* Duplicate the data pointer to keep a current pointer.  */
 146:./Middlewares/ST/usbx/common/usbx_device_classes/src/ux_device_class_cdc_acm_bulkin_thread.c ****                 cdc_acm -> ux_slave_class_cdc_acm_callback_current_data_pointer = cdc_acm -> ux_sla
 147:./Middlewares/ST/usbx/common/usbx_device_classes/src/ux_device_class_cdc_acm_bulkin_thread.c **** 
 148:./Middlewares/ST/usbx/common/usbx_device_classes/src/ux_device_class_cdc_acm_bulkin_thread.c ****                 /* Reset sent length.  */
 149:./Middlewares/ST/usbx/common/usbx_device_classes/src/ux_device_class_cdc_acm_bulkin_thread.c ****                 sent_length = 0;
 150:./Middlewares/ST/usbx/common/usbx_device_classes/src/ux_device_class_cdc_acm_bulkin_thread.c **** 
 151:./Middlewares/ST/usbx/common/usbx_device_classes/src/ux_device_class_cdc_acm_bulkin_thread.c ****                 /* Special ZLP case.  */
 152:./Middlewares/ST/usbx/common/usbx_device_classes/src/ux_device_class_cdc_acm_bulkin_thread.c ****                 if (total_length == 0)
 153:./Middlewares/ST/usbx/common/usbx_device_classes/src/ux_device_class_cdc_acm_bulkin_thread.c **** 
 154:./Middlewares/ST/usbx/common/usbx_device_classes/src/ux_device_class_cdc_acm_bulkin_thread.c ****                     /* Send the zlp to the host.  */
 155:./Middlewares/ST/usbx/common/usbx_device_classes/src/ux_device_class_cdc_acm_bulkin_thread.c ****                     status =  _ux_device_stack_transfer_request(transfer_request, 0, 0);
 156:./Middlewares/ST/usbx/common/usbx_device_classes/src/ux_device_class_cdc_acm_bulkin_thread.c **** 
 157:./Middlewares/ST/usbx/common/usbx_device_classes/src/ux_device_class_cdc_acm_bulkin_thread.c ****                 else
 158:./Middlewares/ST/usbx/common/usbx_device_classes/src/ux_device_class_cdc_acm_bulkin_thread.c ****                 {
 159:./Middlewares/ST/usbx/common/usbx_device_classes/src/ux_device_class_cdc_acm_bulkin_thread.c **** 
 160:./Middlewares/ST/usbx/common/usbx_device_classes/src/ux_device_class_cdc_acm_bulkin_thread.c ****                     /* We should send the total length.  But we may have a case of ZLP. */
 161:./Middlewares/ST/usbx/common/usbx_device_classes/src/ux_device_class_cdc_acm_bulkin_thread.c ****                     while (total_length)
 162:./Middlewares/ST/usbx/common/usbx_device_classes/src/ux_device_class_cdc_acm_bulkin_thread.c ****                     {
 163:./Middlewares/ST/usbx/common/usbx_device_classes/src/ux_device_class_cdc_acm_bulkin_thread.c **** 
 164:./Middlewares/ST/usbx/common/usbx_device_classes/src/ux_device_class_cdc_acm_bulkin_thread.c ****                         /* Check the length remaining to send.  */
 165:./Middlewares/ST/usbx/common/usbx_device_classes/src/ux_device_class_cdc_acm_bulkin_thread.c ****                         if (total_length > endpoint -> ux_slave_endpoint_descriptor.wMaxPacketSize)
 166:./Middlewares/ST/usbx/common/usbx_device_classes/src/ux_device_class_cdc_acm_bulkin_thread.c **** 
 167:./Middlewares/ST/usbx/common/usbx_device_classes/src/ux_device_class_cdc_acm_bulkin_thread.c ****                             /* We can't fit all the length.  */
 168:./Middlewares/ST/usbx/common/usbx_device_classes/src/ux_device_class_cdc_acm_bulkin_thread.c ****                             transfer_length =  endpoint -> ux_slave_endpoint_descriptor.wMaxPacketS
 169:./Middlewares/ST/usbx/common/usbx_device_classes/src/ux_device_class_cdc_acm_bulkin_thread.c **** 
 170:./Middlewares/ST/usbx/common/usbx_device_classes/src/ux_device_class_cdc_acm_bulkin_thread.c ****                         else
 171:./Middlewares/ST/usbx/common/usbx_device_classes/src/ux_device_class_cdc_acm_bulkin_thread.c **** 
 172:./Middlewares/ST/usbx/common/usbx_device_classes/src/ux_device_class_cdc_acm_bulkin_thread.c ****                             /* We can send everything.  */
 173:./Middlewares/ST/usbx/common/usbx_device_classes/src/ux_device_class_cdc_acm_bulkin_thread.c ****                             transfer_length =  total_length;
 174:./Middlewares/ST/usbx/common/usbx_device_classes/src/ux_device_class_cdc_acm_bulkin_thread.c **** 
 175:./Middlewares/ST/usbx/common/usbx_device_classes/src/ux_device_class_cdc_acm_bulkin_thread.c ****                         /* Copy the payload locally.  */
 176:./Middlewares/ST/usbx/common/usbx_device_classes/src/ux_device_class_cdc_acm_bulkin_thread.c ****                         _ux_utility_memory_copy (transfer_request -> ux_slave_transfer_request_data
 177:./Middlewares/ST/usbx/common/usbx_device_classes/src/ux_device_class_cdc_acm_bulkin_thread.c ****                                                 cdc_acm -> ux_slave_class_cdc_acm_callback_current_
 178:./Middlewares/ST/usbx/common/usbx_device_classes/src/ux_device_class_cdc_acm_bulkin_thread.c ****                                                 transfer_length); /* Use case of memcpy is verified
 179:./Middlewares/ST/usbx/common/usbx_device_classes/src/ux_device_class_cdc_acm_bulkin_thread.c **** 
 180:./Middlewares/ST/usbx/common/usbx_device_classes/src/ux_device_class_cdc_acm_bulkin_thread.c ****                         /* Send the acm payload to the host.  */
 181:./Middlewares/ST/usbx/common/usbx_device_classes/src/ux_device_class_cdc_acm_bulkin_thread.c ****                         status =  _ux_device_stack_transfer_request(transfer_request, transfer_leng
 182:./Middlewares/ST/usbx/common/usbx_device_classes/src/ux_device_class_cdc_acm_bulkin_thread.c **** 
 183:./Middlewares/ST/usbx/common/usbx_device_classes/src/ux_device_class_cdc_acm_bulkin_thread.c ****                         /* Check the status.  */
 184:./Middlewares/ST/usbx/common/usbx_device_classes/src/ux_device_class_cdc_acm_bulkin_thread.c ****                         if (status != UX_SUCCESS)
 185:./Middlewares/ST/usbx/common/usbx_device_classes/src/ux_device_class_cdc_acm_bulkin_thread.c ****                         {
 186:./Middlewares/ST/usbx/common/usbx_device_classes/src/ux_device_class_cdc_acm_bulkin_thread.c **** 
 187:./Middlewares/ST/usbx/common/usbx_device_classes/src/ux_device_class_cdc_acm_bulkin_thread.c ****                             /* Reset total_length as we need to get out of loop. */
 188:./Middlewares/ST/usbx/common/usbx_device_classes/src/ux_device_class_cdc_acm_bulkin_thread.c ****                             total_length = 0;
  91              		.loc 1 188 42 view .LVU25
  92 001e 5546     		mov	r5, r10
  93              	.LVL8:
  94              	.L5:
 161:./Middlewares/ST/usbx/common/usbx_device_classes/src/ux_device_class_cdc_acm_bulkin_thread.c ****                     {
  95              		.loc 1 161 27 is_stmt 1 view .LVU26
  96 0020 002D     		cmp	r5, #0
  97 0022 42D0     		beq	.L6
ARM GAS  C:\Users\Dennis\AppData\Local\Temp\ccHbZS3M.s 			page 6


 165:./Middlewares/ST/usbx/common/usbx_device_classes/src/ux_device_class_cdc_acm_bulkin_thread.c **** 
  98              		.loc 1 165 25 view .LVU27
 165:./Middlewares/ST/usbx/common/usbx_device_classes/src/ux_device_class_cdc_acm_bulkin_thread.c **** 
  99              		.loc 1 165 84 is_stmt 0 view .LVU28
 100 0024 FC69     		ldr	r4, [r7, #28]
 165:./Middlewares/ST/usbx/common/usbx_device_classes/src/ux_device_class_cdc_acm_bulkin_thread.c **** 
 101              		.loc 1 165 28 view .LVU29
 102 0026 AC42     		cmp	r4, r5
 103 0028 00D3     		bcc	.L7
 173:./Middlewares/ST/usbx/common/usbx_device_classes/src/ux_device_class_cdc_acm_bulkin_thread.c **** 
 104              		.loc 1 173 45 view .LVU30
 105 002a 2C46     		mov	r4, r5
 106              	.L7:
 107              	.LVL9:
 176:./Middlewares/ST/usbx/common/usbx_device_classes/src/ux_device_class_cdc_acm_bulkin_thread.c ****                                                 cdc_acm -> ux_slave_class_cdc_acm_callback_current_
 108              		.loc 1 176 25 is_stmt 1 view .LVU31
 109 002c 2246     		mov	r2, r4
 110 002e D6F82812 		ldr	r1, [r6, #552]
 111 0032 F86B     		ldr	r0, [r7, #60]
 112              	.LVL10:
 176:./Middlewares/ST/usbx/common/usbx_device_classes/src/ux_device_class_cdc_acm_bulkin_thread.c ****                                                 cdc_acm -> ux_slave_class_cdc_acm_callback_current_
 113              		.loc 1 176 25 is_stmt 0 view .LVU32
 114 0034 FFF7FEFF 		bl	_ux_utility_memory_copy
 115              	.LVL11:
 181:./Middlewares/ST/usbx/common/usbx_device_classes/src/ux_device_class_cdc_acm_bulkin_thread.c **** 
 116              		.loc 1 181 25 is_stmt 1 view .LVU33
 181:./Middlewares/ST/usbx/common/usbx_device_classes/src/ux_device_class_cdc_acm_bulkin_thread.c **** 
 117              		.loc 1 181 35 is_stmt 0 view .LVU34
 118 0038 2246     		mov	r2, r4
 119 003a 2146     		mov	r1, r4
 120 003c 4046     		mov	r0, r8
 121 003e FFF7FEFF 		bl	_ux_device_stack_transfer_request
 122              	.LVL12:
 184:./Middlewares/ST/usbx/common/usbx_device_classes/src/ux_device_class_cdc_acm_bulkin_thread.c ****                         {
 123              		.loc 1 184 25 is_stmt 1 view .LVU35
 184:./Middlewares/ST/usbx/common/usbx_device_classes/src/ux_device_class_cdc_acm_bulkin_thread.c ****                         {
 124              		.loc 1 184 28 is_stmt 0 view .LVU36
 125 0042 0146     		mov	r1, r0
 126 0044 0028     		cmp	r0, #0
 127 0046 EAD1     		bne	.L14
 189:./Middlewares/ST/usbx/common/usbx_device_classes/src/ux_device_class_cdc_acm_bulkin_thread.c ****                         }
 190:./Middlewares/ST/usbx/common/usbx_device_classes/src/ux_device_class_cdc_acm_bulkin_thread.c ****                         else
 191:./Middlewares/ST/usbx/common/usbx_device_classes/src/ux_device_class_cdc_acm_bulkin_thread.c ****                         {
 192:./Middlewares/ST/usbx/common/usbx_device_classes/src/ux_device_class_cdc_acm_bulkin_thread.c **** 
 193:./Middlewares/ST/usbx/common/usbx_device_classes/src/ux_device_class_cdc_acm_bulkin_thread.c ****                             /* Update sent length.  */
 194:./Middlewares/ST/usbx/common/usbx_device_classes/src/ux_device_class_cdc_acm_bulkin_thread.c ****                             sent_length += transfer_length;
 128              		.loc 1 194 29 is_stmt 1 view .LVU37
 129              		.loc 1 194 41 is_stmt 0 view .LVU38
 130 0048 A144     		add	r9, r9, r4
 131              	.LVL13:
 195:./Middlewares/ST/usbx/common/usbx_device_classes/src/ux_device_class_cdc_acm_bulkin_thread.c **** 
 196:./Middlewares/ST/usbx/common/usbx_device_classes/src/ux_device_class_cdc_acm_bulkin_thread.c ****                             /* Decrement length to be sent.  */
 197:./Middlewares/ST/usbx/common/usbx_device_classes/src/ux_device_class_cdc_acm_bulkin_thread.c ****                             total_length -= transfer_length;
 132              		.loc 1 197 29 is_stmt 1 view .LVU39
 133              		.loc 1 197 42 is_stmt 0 view .LVU40
 134 004a 2D1B     		subs	r5, r5, r4
 135              	.LVL14:
ARM GAS  C:\Users\Dennis\AppData\Local\Temp\ccHbZS3M.s 			page 7


 198:./Middlewares/ST/usbx/common/usbx_device_classes/src/ux_device_class_cdc_acm_bulkin_thread.c **** 
 199:./Middlewares/ST/usbx/common/usbx_device_classes/src/ux_device_class_cdc_acm_bulkin_thread.c ****                             /* And update the current pointer.  */
 200:./Middlewares/ST/usbx/common/usbx_device_classes/src/ux_device_class_cdc_acm_bulkin_thread.c ****                             cdc_acm -> ux_slave_class_cdc_acm_callback_current_data_pointer += tran
 136              		.loc 1 200 29 is_stmt 1 view .LVU41
 137              		.loc 1 200 93 is_stmt 0 view .LVU42
 138 004c D6F82832 		ldr	r3, [r6, #552]
 139 0050 2344     		add	r3, r3, r4
 140 0052 C6F82832 		str	r3, [r6, #552]
 141 0056 E3E7     		b	.L5
 142              	.LVL15:
 143              	.L13:
 149:./Middlewares/ST/usbx/common/usbx_device_classes/src/ux_device_class_cdc_acm_bulkin_thread.c **** 
 144              		.loc 1 149 29 view .LVU43
 145 0058 8146     		mov	r9, r0
 135:./Middlewares/ST/usbx/common/usbx_device_classes/src/ux_device_class_cdc_acm_bulkin_thread.c ****                                                                                             UX_OR_C
 146              		.loc 1 135 23 view .LVU44
 147 005a 0146     		mov	r1, r0
 148 005c E0E7     		b	.L5
 149              	.LVL16:
 150              	.L4:
 201:./Middlewares/ST/usbx/common/usbx_device_classes/src/ux_device_class_cdc_acm_bulkin_thread.c ****                         }
 202:./Middlewares/ST/usbx/common/usbx_device_classes/src/ux_device_class_cdc_acm_bulkin_thread.c ****                     }
 203:./Middlewares/ST/usbx/common/usbx_device_classes/src/ux_device_class_cdc_acm_bulkin_thread.c ****                 }
 204:./Middlewares/ST/usbx/common/usbx_device_classes/src/ux_device_class_cdc_acm_bulkin_thread.c **** 
 205:./Middlewares/ST/usbx/common/usbx_device_classes/src/ux_device_class_cdc_acm_bulkin_thread.c ****                 /* Schedule of transmission was completed.  */
 206:./Middlewares/ST/usbx/common/usbx_device_classes/src/ux_device_class_cdc_acm_bulkin_thread.c ****                 cdc_acm -> ux_slave_class_cdc_acm_scheduled_write = UX_FALSE;
 207:./Middlewares/ST/usbx/common/usbx_device_classes/src/ux_device_class_cdc_acm_bulkin_thread.c **** 
 208:./Middlewares/ST/usbx/common/usbx_device_classes/src/ux_device_class_cdc_acm_bulkin_thread.c ****                 /* We get here when the entire user data payload has been sent or if there is an er
 209:./Middlewares/ST/usbx/common/usbx_device_classes/src/ux_device_class_cdc_acm_bulkin_thread.c ****                 /* If there is a callback defined by the application, send the transaction event to
 210:./Middlewares/ST/usbx/common/usbx_device_classes/src/ux_device_class_cdc_acm_bulkin_thread.c ****                 if (cdc_acm -> ux_device_class_cdc_acm_write_callback != UX_NULL)
 211:./Middlewares/ST/usbx/common/usbx_device_classes/src/ux_device_class_cdc_acm_bulkin_thread.c **** 
 212:./Middlewares/ST/usbx/common/usbx_device_classes/src/ux_device_class_cdc_acm_bulkin_thread.c ****                     /* Callback exists. */
 213:./Middlewares/ST/usbx/common/usbx_device_classes/src/ux_device_class_cdc_acm_bulkin_thread.c ****                     cdc_acm -> ux_device_class_cdc_acm_write_callback(cdc_acm, status, sent_length)
 214:./Middlewares/ST/usbx/common/usbx_device_classes/src/ux_device_class_cdc_acm_bulkin_thread.c **** 
 215:./Middlewares/ST/usbx/common/usbx_device_classes/src/ux_device_class_cdc_acm_bulkin_thread.c ****                 /* Now we return to wait for an event from the application or the user to stop the 
 216:./Middlewares/ST/usbx/common/usbx_device_classes/src/ux_device_class_cdc_acm_bulkin_thread.c ****             }
 217:./Middlewares/ST/usbx/common/usbx_device_classes/src/ux_device_class_cdc_acm_bulkin_thread.c ****             else
 218:./Middlewares/ST/usbx/common/usbx_device_classes/src/ux_device_class_cdc_acm_bulkin_thread.c ****             {
 219:./Middlewares/ST/usbx/common/usbx_device_classes/src/ux_device_class_cdc_acm_bulkin_thread.c ****                 break;
 220:./Middlewares/ST/usbx/common/usbx_device_classes/src/ux_device_class_cdc_acm_bulkin_thread.c ****             }
 221:./Middlewares/ST/usbx/common/usbx_device_classes/src/ux_device_class_cdc_acm_bulkin_thread.c ****         }
 222:./Middlewares/ST/usbx/common/usbx_device_classes/src/ux_device_class_cdc_acm_bulkin_thread.c **** 
 223:./Middlewares/ST/usbx/common/usbx_device_classes/src/ux_device_class_cdc_acm_bulkin_thread.c ****     /* We need to suspend ourselves. We will be resumed by the device enumeration module or when a 
 224:./Middlewares/ST/usbx/common/usbx_device_classes/src/ux_device_class_cdc_acm_bulkin_thread.c ****     _ux_device_thread_suspend(&cdc_acm -> ux_slave_class_cdc_acm_bulkin_thread);
 151              		.loc 1 224 5 is_stmt 1 view .LVU45
 152 005e 06F18400 		add	r0, r6, #132
 153 0062 FFF7FEFF 		bl	_ux_utility_thread_suspend
 154              	.LVL17:
 124:./Middlewares/ST/usbx/common/usbx_device_classes/src/ux_device_class_cdc_acm_bulkin_thread.c ****     {
 155              		.loc 1 124 10 view .LVU46
 156              	.L12:
 124:./Middlewares/ST/usbx/common/usbx_device_classes/src/ux_device_class_cdc_acm_bulkin_thread.c ****     {
 157              		.loc 1 124 5 view .LVU47
 128:./Middlewares/ST/usbx/common/usbx_device_classes/src/ux_device_class_cdc_acm_bulkin_thread.c **** 
 158              		.loc 1 128 9 view .LVU48
 128:./Middlewares/ST/usbx/common/usbx_device_classes/src/ux_device_class_cdc_acm_bulkin_thread.c **** 
 159              		.loc 1 128 26 is_stmt 0 view .LVU49
ARM GAS  C:\Users\Dennis\AppData\Local\Temp\ccHbZS3M.s 			page 8


 160 0066 07F13008 		add	r8, r7, #48
 161              	.LVL18:
 131:./Middlewares/ST/usbx/common/usbx_device_classes/src/ux_device_class_cdc_acm_bulkin_thread.c ****         {
 162              		.loc 1 131 9 is_stmt 1 view .LVU50
 163              	.L10:
 131:./Middlewares/ST/usbx/common/usbx_device_classes/src/ux_device_class_cdc_acm_bulkin_thread.c ****         {
 164              		.loc 1 131 15 view .LVU51
 131:./Middlewares/ST/usbx/common/usbx_device_classes/src/ux_device_class_cdc_acm_bulkin_thread.c ****         {
 165              		.loc 1 131 23 is_stmt 0 view .LVU52
 166 006a DBF82030 		ldr	r3, [fp, #32]
 131:./Middlewares/ST/usbx/common/usbx_device_classes/src/ux_device_class_cdc_acm_bulkin_thread.c ****         {
 167              		.loc 1 131 15 view .LVU53
 168 006e 032B     		cmp	r3, #3
 169 0070 F5D1     		bne	.L4
 135:./Middlewares/ST/usbx/common/usbx_device_classes/src/ux_device_class_cdc_acm_bulkin_thread.c ****                                                                                             UX_OR_C
 170              		.loc 1 135 13 is_stmt 1 view .LVU54
 135:./Middlewares/ST/usbx/common/usbx_device_classes/src/ux_device_class_cdc_acm_bulkin_thread.c ****                                                                                             UX_OR_C
 171              		.loc 1 135 23 is_stmt 0 view .LVU55
 172 0072 4FF0FF33 		mov	r3, #-1
 173 0076 0093     		str	r3, [sp]
 174 0078 03AB     		add	r3, sp, #12
 175 007a 0122     		movs	r2, #1
 176 007c 1146     		mov	r1, r2
 177 007e 06F5F270 		add	r0, r6, #484
 178 0082 FFF7FEFF 		bl	_ux_utility_event_flags_get
 179              	.LVL19:
 139:./Middlewares/ST/usbx/common/usbx_device_classes/src/ux_device_class_cdc_acm_bulkin_thread.c ****             {
 180              		.loc 1 139 13 is_stmt 1 view .LVU56
 139:./Middlewares/ST/usbx/common/usbx_device_classes/src/ux_device_class_cdc_acm_bulkin_thread.c ****             {
 181              		.loc 1 139 16 is_stmt 0 view .LVU57
 182 0086 8246     		mov	r10, r0
 183 0088 0028     		cmp	r0, #0
 184 008a E8D1     		bne	.L4
 143:./Middlewares/ST/usbx/common/usbx_device_classes/src/ux_device_class_cdc_acm_bulkin_thread.c **** 
 185              		.loc 1 143 17 is_stmt 1 view .LVU58
 143:./Middlewares/ST/usbx/common/usbx_device_classes/src/ux_device_class_cdc_acm_bulkin_thread.c **** 
 186              		.loc 1 143 30 is_stmt 0 view .LVU59
 187 008c D6F82052 		ldr	r5, [r6, #544]
 188              	.LVL20:
 146:./Middlewares/ST/usbx/common/usbx_device_classes/src/ux_device_class_cdc_acm_bulkin_thread.c **** 
 189              		.loc 1 146 17 is_stmt 1 view .LVU60
 146:./Middlewares/ST/usbx/common/usbx_device_classes/src/ux_device_class_cdc_acm_bulkin_thread.c **** 
 190              		.loc 1 146 91 is_stmt 0 view .LVU61
 191 0090 D6F82432 		ldr	r3, [r6, #548]
 146:./Middlewares/ST/usbx/common/usbx_device_classes/src/ux_device_class_cdc_acm_bulkin_thread.c **** 
 192              		.loc 1 146 81 view .LVU62
 193 0094 C6F82832 		str	r3, [r6, #552]
 149:./Middlewares/ST/usbx/common/usbx_device_classes/src/ux_device_class_cdc_acm_bulkin_thread.c **** 
 194              		.loc 1 149 17 is_stmt 1 view .LVU63
 195              	.LVL21:
 152:./Middlewares/ST/usbx/common/usbx_device_classes/src/ux_device_class_cdc_acm_bulkin_thread.c **** 
 196              		.loc 1 152 17 view .LVU64
 152:./Middlewares/ST/usbx/common/usbx_device_classes/src/ux_device_class_cdc_acm_bulkin_thread.c **** 
 197              		.loc 1 152 20 is_stmt 0 view .LVU65
 198 0098 002D     		cmp	r5, #0
 199 009a DDD1     		bne	.L13
 155:./Middlewares/ST/usbx/common/usbx_device_classes/src/ux_device_class_cdc_acm_bulkin_thread.c **** 
ARM GAS  C:\Users\Dennis\AppData\Local\Temp\ccHbZS3M.s 			page 9


 200              		.loc 1 155 21 is_stmt 1 view .LVU66
 155:./Middlewares/ST/usbx/common/usbx_device_classes/src/ux_device_class_cdc_acm_bulkin_thread.c **** 
 201              		.loc 1 155 31 is_stmt 0 view .LVU67
 202 009c 0022     		movs	r2, #0
 203 009e 1146     		mov	r1, r2
 204 00a0 4046     		mov	r0, r8
 205              	.LVL22:
 155:./Middlewares/ST/usbx/common/usbx_device_classes/src/ux_device_class_cdc_acm_bulkin_thread.c **** 
 206              		.loc 1 155 31 view .LVU68
 207 00a2 FFF7FEFF 		bl	_ux_device_stack_transfer_request
 208              	.LVL23:
 209 00a6 0146     		mov	r1, r0
 210              	.LVL24:
 149:./Middlewares/ST/usbx/common/usbx_device_classes/src/ux_device_class_cdc_acm_bulkin_thread.c **** 
 211              		.loc 1 149 29 view .LVU69
 212 00a8 A946     		mov	r9, r5
 213              	.LVL25:
 214              	.L6:
 206:./Middlewares/ST/usbx/common/usbx_device_classes/src/ux_device_class_cdc_acm_bulkin_thread.c **** 
 215              		.loc 1 206 17 is_stmt 1 view .LVU70
 206:./Middlewares/ST/usbx/common/usbx_device_classes/src/ux_device_class_cdc_acm_bulkin_thread.c **** 
 216              		.loc 1 206 67 is_stmt 0 view .LVU71
 217 00aa 0023     		movs	r3, #0
 218 00ac C6F81C32 		str	r3, [r6, #540]
 210:./Middlewares/ST/usbx/common/usbx_device_classes/src/ux_device_class_cdc_acm_bulkin_thread.c **** 
 219              		.loc 1 210 17 is_stmt 1 view .LVU72
 210:./Middlewares/ST/usbx/common/usbx_device_classes/src/ux_device_class_cdc_acm_bulkin_thread.c **** 
 220              		.loc 1 210 29 is_stmt 0 view .LVU73
 221 00b0 D6F81032 		ldr	r3, [r6, #528]
 210:./Middlewares/ST/usbx/common/usbx_device_classes/src/ux_device_class_cdc_acm_bulkin_thread.c **** 
 222              		.loc 1 210 20 view .LVU74
 223 00b4 002B     		cmp	r3, #0
 224 00b6 D8D0     		beq	.L10
 213:./Middlewares/ST/usbx/common/usbx_device_classes/src/ux_device_class_cdc_acm_bulkin_thread.c **** 
 225              		.loc 1 213 21 is_stmt 1 view .LVU75
 226 00b8 4A46     		mov	r2, r9
 227 00ba 3046     		mov	r0, r6
 228              	.LVL26:
 213:./Middlewares/ST/usbx/common/usbx_device_classes/src/ux_device_class_cdc_acm_bulkin_thread.c **** 
 229              		.loc 1 213 21 is_stmt 0 view .LVU76
 230 00bc 9847     		blx	r3
 231              	.LVL27:
 213:./Middlewares/ST/usbx/common/usbx_device_classes/src/ux_device_class_cdc_acm_bulkin_thread.c **** 
 232              		.loc 1 213 21 view .LVU77
 233 00be D4E7     		b	.L10
 234              	.L17:
 235              		.align	2
 236              	.L16:
 237 00c0 00000000 		.word	_ux_system_slave
 238              		.cfi_endproc
 239              	.LFE11:
 241              		.text
 242              	.Letext0:
 243              		.file 2 "./Middlewares/ST/threadx/ports/cortex_m4/gnu/inc/tx_port.h"
 244              		.file 3 "./Middlewares/ST/threadx/common/inc/tx_api.h"
 245              		.file 4 "./Middlewares/ST/usbx/common/core/inc/ux_api.h"
 246              		.file 5 "./Middlewares/ST/usbx/common/usbx_device_classes/inc/ux_device_class_cdc_acm.h"
ARM GAS  C:\Users\Dennis\AppData\Local\Temp\ccHbZS3M.s 			page 10


 247              		.file 6 "./Middlewares/ST/usbx/common/core/inc/ux_system.h"
 248              		.file 7 "./Middlewares/ST/usbx/common/core/inc/ux_utility.h"
 249              		.file 8 "./Middlewares/ST/usbx/common/core/inc/ux_device_stack.h"
ARM GAS  C:\Users\Dennis\AppData\Local\Temp\ccHbZS3M.s 			page 11

