ARM GAS  C:\Users\Dennis\AppData\Local\Temp\ccBniDNq.s 			page 1


   1              		.cpu cortex-m4
   2              		.arch armv7e-m
   3              		.fpu fpv4-sp-d16
   4              		.eabi_attribute 27, 1
   5              		.eabi_attribute 28, 1
   6              		.eabi_attribute 20, 1
   7              		.eabi_attribute 21, 1
   8              		.eabi_attribute 23, 3
   9              		.eabi_attribute 24, 1
  10              		.eabi_attribute 25, 1
  11              		.eabi_attribute 26, 1
  12              		.eabi_attribute 30, 1
  13              		.eabi_attribute 34, 1
  14              		.eabi_attribute 18, 4
  15              		.file	"ux_device_stack_interface_start.c"
  16              		.text
  17              	.Ltext0:
  18              		.cfi_sections	.debug_frame
  19              		.section	.text._ux_device_stack_interface_start,"ax",%progbits
  20              		.align	1
  21              		.global	_ux_device_stack_interface_start
  22              		.syntax unified
  23              		.thumb
  24              		.thumb_func
  26              	_ux_device_stack_interface_start:
  27              	.LVL0:
  28              	.LFB11:
  29              		.file 1 "./Middlewares/ST/usbx/common/core/src/ux_device_stack_interface_start.c"
   1:./Middlewares/ST/usbx/common/core/src/ux_device_stack_interface_start.c **** /**************************************************************************/
   2:./Middlewares/ST/usbx/common/core/src/ux_device_stack_interface_start.c **** /*                                                                        */
   3:./Middlewares/ST/usbx/common/core/src/ux_device_stack_interface_start.c **** /*       Copyright (c) Microsoft Corporation. All rights reserved.        */
   4:./Middlewares/ST/usbx/common/core/src/ux_device_stack_interface_start.c **** /*                                                                        */
   5:./Middlewares/ST/usbx/common/core/src/ux_device_stack_interface_start.c **** /*       This software is licensed under the Microsoft Software License   */
   6:./Middlewares/ST/usbx/common/core/src/ux_device_stack_interface_start.c **** /*       Terms for Microsoft Azure RTOS. Full text of the license can be  */
   7:./Middlewares/ST/usbx/common/core/src/ux_device_stack_interface_start.c **** /*       found in the LICENSE file at https://aka.ms/AzureRTOS_EULA       */
   8:./Middlewares/ST/usbx/common/core/src/ux_device_stack_interface_start.c **** /*       and in the root directory of this software.                      */
   9:./Middlewares/ST/usbx/common/core/src/ux_device_stack_interface_start.c **** /*                                                                        */
  10:./Middlewares/ST/usbx/common/core/src/ux_device_stack_interface_start.c **** /**************************************************************************/
  11:./Middlewares/ST/usbx/common/core/src/ux_device_stack_interface_start.c **** 
  12:./Middlewares/ST/usbx/common/core/src/ux_device_stack_interface_start.c **** 
  13:./Middlewares/ST/usbx/common/core/src/ux_device_stack_interface_start.c **** /**************************************************************************/
  14:./Middlewares/ST/usbx/common/core/src/ux_device_stack_interface_start.c **** /**************************************************************************/
  15:./Middlewares/ST/usbx/common/core/src/ux_device_stack_interface_start.c **** /**                                                                       */ 
  16:./Middlewares/ST/usbx/common/core/src/ux_device_stack_interface_start.c **** /** USBX Component                                                        */ 
  17:./Middlewares/ST/usbx/common/core/src/ux_device_stack_interface_start.c **** /**                                                                       */
  18:./Middlewares/ST/usbx/common/core/src/ux_device_stack_interface_start.c **** /**   Device Stack                                                        */
  19:./Middlewares/ST/usbx/common/core/src/ux_device_stack_interface_start.c **** /**                                                                       */
  20:./Middlewares/ST/usbx/common/core/src/ux_device_stack_interface_start.c **** /**************************************************************************/
  21:./Middlewares/ST/usbx/common/core/src/ux_device_stack_interface_start.c **** /**************************************************************************/
  22:./Middlewares/ST/usbx/common/core/src/ux_device_stack_interface_start.c **** 
  23:./Middlewares/ST/usbx/common/core/src/ux_device_stack_interface_start.c **** #define UX_SOURCE_CODE
  24:./Middlewares/ST/usbx/common/core/src/ux_device_stack_interface_start.c **** 
  25:./Middlewares/ST/usbx/common/core/src/ux_device_stack_interface_start.c **** 
  26:./Middlewares/ST/usbx/common/core/src/ux_device_stack_interface_start.c **** /* Include necessary system files.  */
  27:./Middlewares/ST/usbx/common/core/src/ux_device_stack_interface_start.c **** 
  28:./Middlewares/ST/usbx/common/core/src/ux_device_stack_interface_start.c **** #include "ux_api.h"
  29:./Middlewares/ST/usbx/common/core/src/ux_device_stack_interface_start.c **** #include "ux_device_stack.h"
ARM GAS  C:\Users\Dennis\AppData\Local\Temp\ccBniDNq.s 			page 2


  30:./Middlewares/ST/usbx/common/core/src/ux_device_stack_interface_start.c **** 
  31:./Middlewares/ST/usbx/common/core/src/ux_device_stack_interface_start.c **** 
  32:./Middlewares/ST/usbx/common/core/src/ux_device_stack_interface_start.c **** /**************************************************************************/
  33:./Middlewares/ST/usbx/common/core/src/ux_device_stack_interface_start.c **** /*                                                                        */
  34:./Middlewares/ST/usbx/common/core/src/ux_device_stack_interface_start.c **** /*  FUNCTION                                               RELEASE        */
  35:./Middlewares/ST/usbx/common/core/src/ux_device_stack_interface_start.c **** /*                                                                        */
  36:./Middlewares/ST/usbx/common/core/src/ux_device_stack_interface_start.c **** /*    _ux_device_stack_interface_start                    PORTABLE C      */
  37:./Middlewares/ST/usbx/common/core/src/ux_device_stack_interface_start.c **** /*                                                           6.1          */
  38:./Middlewares/ST/usbx/common/core/src/ux_device_stack_interface_start.c **** /*  AUTHOR                                                                */
  39:./Middlewares/ST/usbx/common/core/src/ux_device_stack_interface_start.c **** /*                                                                        */
  40:./Middlewares/ST/usbx/common/core/src/ux_device_stack_interface_start.c **** /*    Chaoqiong Xiao, Microsoft Corporation                               */
  41:./Middlewares/ST/usbx/common/core/src/ux_device_stack_interface_start.c **** /*                                                                        */
  42:./Middlewares/ST/usbx/common/core/src/ux_device_stack_interface_start.c **** /*  DESCRIPTION                                                           */
  43:./Middlewares/ST/usbx/common/core/src/ux_device_stack_interface_start.c **** /*                                                                        */
  44:./Middlewares/ST/usbx/common/core/src/ux_device_stack_interface_start.c **** /*    This function starts an interface associated with the enabled       */
  45:./Middlewares/ST/usbx/common/core/src/ux_device_stack_interface_start.c **** /*    configuration.                                                      */
  46:./Middlewares/ST/usbx/common/core/src/ux_device_stack_interface_start.c **** /*                                                                        */
  47:./Middlewares/ST/usbx/common/core/src/ux_device_stack_interface_start.c **** /*  INPUT                                                                 */
  48:./Middlewares/ST/usbx/common/core/src/ux_device_stack_interface_start.c **** /*                                                                        */
  49:./Middlewares/ST/usbx/common/core/src/ux_device_stack_interface_start.c **** /*    interface                             Pointer to interface          */ 
  50:./Middlewares/ST/usbx/common/core/src/ux_device_stack_interface_start.c **** /*                                                                        */
  51:./Middlewares/ST/usbx/common/core/src/ux_device_stack_interface_start.c **** /*  OUTPUT                                                                */
  52:./Middlewares/ST/usbx/common/core/src/ux_device_stack_interface_start.c **** /*                                                                        */
  53:./Middlewares/ST/usbx/common/core/src/ux_device_stack_interface_start.c **** /*    Completion Status                                                   */ 
  54:./Middlewares/ST/usbx/common/core/src/ux_device_stack_interface_start.c **** /*                                                                        */
  55:./Middlewares/ST/usbx/common/core/src/ux_device_stack_interface_start.c **** /*  CALLS                                                                 */ 
  56:./Middlewares/ST/usbx/common/core/src/ux_device_stack_interface_start.c **** /*                                                                        */ 
  57:./Middlewares/ST/usbx/common/core/src/ux_device_stack_interface_start.c **** /*    (ux_slave_class_entry_function)       Device class entry function   */ 
  58:./Middlewares/ST/usbx/common/core/src/ux_device_stack_interface_start.c **** /*                                                                        */ 
  59:./Middlewares/ST/usbx/common/core/src/ux_device_stack_interface_start.c **** /*  CALLED BY                                                             */ 
  60:./Middlewares/ST/usbx/common/core/src/ux_device_stack_interface_start.c **** /*                                                                        */ 
  61:./Middlewares/ST/usbx/common/core/src/ux_device_stack_interface_start.c **** /*    Application                                                         */ 
  62:./Middlewares/ST/usbx/common/core/src/ux_device_stack_interface_start.c **** /*    Device Stack                                                        */
  63:./Middlewares/ST/usbx/common/core/src/ux_device_stack_interface_start.c **** /*                                                                        */ 
  64:./Middlewares/ST/usbx/common/core/src/ux_device_stack_interface_start.c **** /*  RELEASE HISTORY                                                       */ 
  65:./Middlewares/ST/usbx/common/core/src/ux_device_stack_interface_start.c **** /*                                                                        */ 
  66:./Middlewares/ST/usbx/common/core/src/ux_device_stack_interface_start.c **** /*    DATE              NAME                      DESCRIPTION             */ 
  67:./Middlewares/ST/usbx/common/core/src/ux_device_stack_interface_start.c **** /*                                                                        */ 
  68:./Middlewares/ST/usbx/common/core/src/ux_device_stack_interface_start.c **** /*  05-19-2020     Chaoqiong Xiao           Initial Version 6.0           */
  69:./Middlewares/ST/usbx/common/core/src/ux_device_stack_interface_start.c **** /*  09-30-2020     Chaoqiong Xiao           Modified comment(s),          */
  70:./Middlewares/ST/usbx/common/core/src/ux_device_stack_interface_start.c **** /*                                            resulting in version 6.1    */
  71:./Middlewares/ST/usbx/common/core/src/ux_device_stack_interface_start.c **** /*                                                                        */
  72:./Middlewares/ST/usbx/common/core/src/ux_device_stack_interface_start.c **** /**************************************************************************/
  73:./Middlewares/ST/usbx/common/core/src/ux_device_stack_interface_start.c **** UINT  _ux_device_stack_interface_start(UX_SLAVE_INTERFACE *interface)
  74:./Middlewares/ST/usbx/common/core/src/ux_device_stack_interface_start.c **** {
  30              		.loc 1 74 1 view -0
  31              		.cfi_startproc
  32              		@ args = 0, pretend = 0, frame = 48
  33              		@ frame_needed = 0, uses_anonymous_args = 0
  34              		.loc 1 74 1 is_stmt 0 view .LVU1
  35 0000 30B5     		push	{r4, r5, lr}
  36              	.LCFI0:
  37              		.cfi_def_cfa_offset 12
  38              		.cfi_offset 4, -12
  39              		.cfi_offset 5, -8
  40              		.cfi_offset 14, -4
  41 0002 8DB0     		sub	sp, sp, #52
ARM GAS  C:\Users\Dennis\AppData\Local\Temp\ccBniDNq.s 			page 3


  42              	.LCFI1:
  43              		.cfi_def_cfa_offset 64
  75:./Middlewares/ST/usbx/common/core/src/ux_device_stack_interface_start.c **** 
  76:./Middlewares/ST/usbx/common/core/src/ux_device_stack_interface_start.c **** UX_SLAVE_DEVICE             *device;
  44              		.loc 1 76 1 is_stmt 1 view .LVU2
  77:./Middlewares/ST/usbx/common/core/src/ux_device_stack_interface_start.c **** UX_SLAVE_CLASS              *class;
  45              		.loc 1 77 1 view .LVU3
  78:./Middlewares/ST/usbx/common/core/src/ux_device_stack_interface_start.c **** UINT                        status;
  46              		.loc 1 78 1 view .LVU4
  79:./Middlewares/ST/usbx/common/core/src/ux_device_stack_interface_start.c **** UX_SLAVE_CLASS_COMMAND      class_command;
  47              		.loc 1 79 1 view .LVU5
  80:./Middlewares/ST/usbx/common/core/src/ux_device_stack_interface_start.c **** 
  81:./Middlewares/ST/usbx/common/core/src/ux_device_stack_interface_start.c **** 
  82:./Middlewares/ST/usbx/common/core/src/ux_device_stack_interface_start.c ****     /* Get the class for the interface.  */
  83:./Middlewares/ST/usbx/common/core/src/ux_device_stack_interface_start.c ****     class =  _ux_system_slave -> ux_system_slave_interface_class_array[interface -> ux_slave_interf
  48              		.loc 1 83 5 view .LVU6
  49              		.loc 1 83 31 is_stmt 0 view .LVU7
  50 0004 154B     		ldr	r3, .L8
  51 0006 1A68     		ldr	r2, [r3]
  52              		.loc 1 83 114 view .LVU8
  53 0008 4369     		ldr	r3, [r0, #20]
  54              		.loc 1 83 11 view .LVU9
  55 000a 5633     		adds	r3, r3, #86
  56 000c 02EB8303 		add	r3, r2, r3, lsl #2
  57 0010 5D68     		ldr	r5, [r3, #4]
  58              	.LVL1:
  84:./Middlewares/ST/usbx/common/core/src/ux_device_stack_interface_start.c **** 
  85:./Middlewares/ST/usbx/common/core/src/ux_device_stack_interface_start.c ****     /* Check if class driver is available. */
  86:./Middlewares/ST/usbx/common/core/src/ux_device_stack_interface_start.c ****     if (class == UX_NULL)
  59              		.loc 1 86 5 is_stmt 1 view .LVU10
  60              		.loc 1 86 8 is_stmt 0 view .LVU11
  61 0012 05B3     		cbz	r5, .L4
  62 0014 0446     		mov	r4, r0
  87:./Middlewares/ST/usbx/common/core/src/ux_device_stack_interface_start.c **** 
  88:./Middlewares/ST/usbx/common/core/src/ux_device_stack_interface_start.c ****         /* There is no class driver supported. */
  89:./Middlewares/ST/usbx/common/core/src/ux_device_stack_interface_start.c ****         return (UX_NO_CLASS_MATCH);
  90:./Middlewares/ST/usbx/common/core/src/ux_device_stack_interface_start.c **** 
  91:./Middlewares/ST/usbx/common/core/src/ux_device_stack_interface_start.c ****     /* Get the pointer to the device.  */
  92:./Middlewares/ST/usbx/common/core/src/ux_device_stack_interface_start.c ****     device =  &_ux_system_slave -> ux_system_slave_device;
  63              		.loc 1 92 5 is_stmt 1 view .LVU12
  64              	.LVL2:
  93:./Middlewares/ST/usbx/common/core/src/ux_device_stack_interface_start.c **** 
  94:./Middlewares/ST/usbx/common/core/src/ux_device_stack_interface_start.c ****     /* Build all the fields of the Class Command.  */
  95:./Middlewares/ST/usbx/common/core/src/ux_device_stack_interface_start.c ****     class_command.ux_slave_class_command_request   =    UX_SLAVE_CLASS_COMMAND_QUERY;
  65              		.loc 1 95 5 view .LVU13
  66              		.loc 1 95 52 is_stmt 0 view .LVU14
  67 0016 0123     		movs	r3, #1
  68 0018 0193     		str	r3, [sp, #4]
  96:./Middlewares/ST/usbx/common/core/src/ux_device_stack_interface_start.c ****     class_command.ux_slave_class_command_interface =   (VOID *)interface;
  69              		.loc 1 96 5 is_stmt 1 view .LVU15
  70              		.loc 1 96 52 is_stmt 0 view .LVU16
  71 001a 0390     		str	r0, [sp, #12]
  97:./Middlewares/ST/usbx/common/core/src/ux_device_stack_interface_start.c ****     class_command.ux_slave_class_command_class     =   interface -> ux_slave_interface_descriptor.b
  72              		.loc 1 97 5 is_stmt 1 view .LVU17
  73              		.loc 1 97 98 is_stmt 0 view .LVU18
  74 001c 036A     		ldr	r3, [r0, #32]
  75              		.loc 1 97 52 view .LVU19
ARM GAS  C:\Users\Dennis\AppData\Local\Temp\ccBniDNq.s 			page 4


  76 001e 0693     		str	r3, [sp, #24]
  98:./Middlewares/ST/usbx/common/core/src/ux_device_stack_interface_start.c ****     class_command.ux_slave_class_command_subclass  =   interface -> ux_slave_interface_descriptor.b
  77              		.loc 1 98 5 is_stmt 1 view .LVU20
  78              		.loc 1 98 98 is_stmt 0 view .LVU21
  79 0020 436A     		ldr	r3, [r0, #36]
  80              		.loc 1 98 52 view .LVU22
  81 0022 0793     		str	r3, [sp, #28]
  99:./Middlewares/ST/usbx/common/core/src/ux_device_stack_interface_start.c ****     class_command.ux_slave_class_command_protocol  =   interface -> ux_slave_interface_descriptor.b
  82              		.loc 1 99 5 is_stmt 1 view .LVU23
  83              		.loc 1 99 98 is_stmt 0 view .LVU24
  84 0024 836A     		ldr	r3, [r0, #40]
  85              		.loc 1 99 52 view .LVU25
  86 0026 0893     		str	r3, [sp, #32]
 100:./Middlewares/ST/usbx/common/core/src/ux_device_stack_interface_start.c ****     class_command.ux_slave_class_command_vid       =   device -> ux_slave_device_descriptor.idVendo
  87              		.loc 1 100 5 is_stmt 1 view .LVU26
  88              		.loc 1 100 92 is_stmt 0 view .LVU27
  89 0028 136C     		ldr	r3, [r2, #64]
  90              		.loc 1 100 52 view .LVU28
  91 002a 0593     		str	r3, [sp, #20]
 101:./Middlewares/ST/usbx/common/core/src/ux_device_stack_interface_start.c ****     class_command.ux_slave_class_command_pid       =   device -> ux_slave_device_descriptor.idProdu
  92              		.loc 1 101 5 is_stmt 1 view .LVU29
  93              		.loc 1 101 92 is_stmt 0 view .LVU30
  94 002c 536C     		ldr	r3, [r2, #68]
  95              		.loc 1 101 52 view .LVU31
  96 002e 0493     		str	r3, [sp, #16]
 102:./Middlewares/ST/usbx/common/core/src/ux_device_stack_interface_start.c **** 
 103:./Middlewares/ST/usbx/common/core/src/ux_device_stack_interface_start.c ****     /* We can now memorize the interface pointer associated with this class.  */
 104:./Middlewares/ST/usbx/common/core/src/ux_device_stack_interface_start.c ****     class -> ux_slave_class_interface = interface;
  97              		.loc 1 104 5 is_stmt 1 view .LVU32
  98              		.loc 1 104 39 is_stmt 0 view .LVU33
  99 0030 C5F81001 		str	r0, [r5, #272]
 105:./Middlewares/ST/usbx/common/core/src/ux_device_stack_interface_start.c ****     
 106:./Middlewares/ST/usbx/common/core/src/ux_device_stack_interface_start.c ****     /* We have found a potential candidate. Call this registered class entry function.  */
 107:./Middlewares/ST/usbx/common/core/src/ux_device_stack_interface_start.c ****     status = class -> ux_slave_class_entry_function(&class_command);
 100              		.loc 1 107 5 is_stmt 1 view .LVU34
 101              		.loc 1 107 20 is_stmt 0 view .LVU35
 102 0034 6B6C     		ldr	r3, [r5, #68]
 103              		.loc 1 107 14 view .LVU36
 104 0036 01A8     		add	r0, sp, #4
 105              	.LVL3:
 106              		.loc 1 107 14 view .LVU37
 107 0038 9847     		blx	r3
 108              	.LVL4:
 108:./Middlewares/ST/usbx/common/core/src/ux_device_stack_interface_start.c **** 
 109:./Middlewares/ST/usbx/common/core/src/ux_device_stack_interface_start.c ****     /* The status tells us if the registered class wants to own this class.  */
 110:./Middlewares/ST/usbx/common/core/src/ux_device_stack_interface_start.c ****     if (status == UX_SUCCESS)
 109              		.loc 1 110 5 is_stmt 1 view .LVU38
 110              		.loc 1 110 8 is_stmt 0 view .LVU39
 111 003a 10B1     		cbz	r0, .L7
 111:./Middlewares/ST/usbx/common/core/src/ux_device_stack_interface_start.c ****     {
 112:./Middlewares/ST/usbx/common/core/src/ux_device_stack_interface_start.c **** 
 113:./Middlewares/ST/usbx/common/core/src/ux_device_stack_interface_start.c ****         /* Store the class container. */
 114:./Middlewares/ST/usbx/common/core/src/ux_device_stack_interface_start.c ****         class_command.ux_slave_class_command_class_ptr =  class;
 115:./Middlewares/ST/usbx/common/core/src/ux_device_stack_interface_start.c ****         
 116:./Middlewares/ST/usbx/common/core/src/ux_device_stack_interface_start.c ****         /* Store the command.  */
 117:./Middlewares/ST/usbx/common/core/src/ux_device_stack_interface_start.c ****         class_command.ux_slave_class_command_request =  UX_SLAVE_CLASS_COMMAND_ACTIVATE;
 118:./Middlewares/ST/usbx/common/core/src/ux_device_stack_interface_start.c ****         
ARM GAS  C:\Users\Dennis\AppData\Local\Temp\ccBniDNq.s 			page 5


 119:./Middlewares/ST/usbx/common/core/src/ux_device_stack_interface_start.c ****         /* Activate the class.  */
 120:./Middlewares/ST/usbx/common/core/src/ux_device_stack_interface_start.c ****         status = class -> ux_slave_class_entry_function(&class_command);
 121:./Middlewares/ST/usbx/common/core/src/ux_device_stack_interface_start.c **** 
 122:./Middlewares/ST/usbx/common/core/src/ux_device_stack_interface_start.c ****         /* If the class was successfully activated, set the class for the interface.  */
 123:./Middlewares/ST/usbx/common/core/src/ux_device_stack_interface_start.c ****         if(status == UX_SUCCESS)
 124:./Middlewares/ST/usbx/common/core/src/ux_device_stack_interface_start.c ****             interface -> ux_slave_interface_class =  class;
 125:./Middlewares/ST/usbx/common/core/src/ux_device_stack_interface_start.c **** 
 126:./Middlewares/ST/usbx/common/core/src/ux_device_stack_interface_start.c ****         return(status); 
 127:./Middlewares/ST/usbx/common/core/src/ux_device_stack_interface_start.c ****     }
 128:./Middlewares/ST/usbx/common/core/src/ux_device_stack_interface_start.c **** 
 129:./Middlewares/ST/usbx/common/core/src/ux_device_stack_interface_start.c ****     /* There is no driver who want to own this class!  */
 130:./Middlewares/ST/usbx/common/core/src/ux_device_stack_interface_start.c ****     return(UX_NO_CLASS_MATCH);
 112              		.loc 1 130 11 view .LVU40
 113 003c 5720     		movs	r0, #87
 114              	.LVL5:
 115              	.L1:
 131:./Middlewares/ST/usbx/common/core/src/ux_device_stack_interface_start.c **** }
 116              		.loc 1 131 1 view .LVU41
 117 003e 0DB0     		add	sp, sp, #52
 118              	.LCFI2:
 119              		.cfi_remember_state
 120              		.cfi_def_cfa_offset 12
 121              		@ sp needed
 122 0040 30BD     		pop	{r4, r5, pc}
 123              	.LVL6:
 124              	.L7:
 125              	.LCFI3:
 126              		.cfi_restore_state
 114:./Middlewares/ST/usbx/common/core/src/ux_device_stack_interface_start.c ****         
 127              		.loc 1 114 9 is_stmt 1 view .LVU42
 114:./Middlewares/ST/usbx/common/core/src/ux_device_stack_interface_start.c ****         
 128              		.loc 1 114 56 is_stmt 0 view .LVU43
 129 0042 0995     		str	r5, [sp, #36]
 117:./Middlewares/ST/usbx/common/core/src/ux_device_stack_interface_start.c ****         
 130              		.loc 1 117 9 is_stmt 1 view .LVU44
 117:./Middlewares/ST/usbx/common/core/src/ux_device_stack_interface_start.c ****         
 131              		.loc 1 117 54 is_stmt 0 view .LVU45
 132 0044 0223     		movs	r3, #2
 133 0046 0193     		str	r3, [sp, #4]
 120:./Middlewares/ST/usbx/common/core/src/ux_device_stack_interface_start.c **** 
 134              		.loc 1 120 9 is_stmt 1 view .LVU46
 120:./Middlewares/ST/usbx/common/core/src/ux_device_stack_interface_start.c **** 
 135              		.loc 1 120 24 is_stmt 0 view .LVU47
 136 0048 6B6C     		ldr	r3, [r5, #68]
 120:./Middlewares/ST/usbx/common/core/src/ux_device_stack_interface_start.c **** 
 137              		.loc 1 120 18 view .LVU48
 138 004a 01A8     		add	r0, sp, #4
 139              	.LVL7:
 120:./Middlewares/ST/usbx/common/core/src/ux_device_stack_interface_start.c **** 
 140              		.loc 1 120 18 view .LVU49
 141 004c 9847     		blx	r3
 142              	.LVL8:
 123:./Middlewares/ST/usbx/common/core/src/ux_device_stack_interface_start.c ****             interface -> ux_slave_interface_class =  class;
 143              		.loc 1 123 9 is_stmt 1 view .LVU50
 123:./Middlewares/ST/usbx/common/core/src/ux_device_stack_interface_start.c ****             interface -> ux_slave_interface_class =  class;
 144              		.loc 1 123 11 is_stmt 0 view .LVU51
 145 004e 0028     		cmp	r0, #0
ARM GAS  C:\Users\Dennis\AppData\Local\Temp\ccBniDNq.s 			page 6


 146 0050 F5D1     		bne	.L1
 124:./Middlewares/ST/usbx/common/core/src/ux_device_stack_interface_start.c **** 
 147              		.loc 1 124 13 is_stmt 1 view .LVU52
 124:./Middlewares/ST/usbx/common/core/src/ux_device_stack_interface_start.c **** 
 148              		.loc 1 124 51 is_stmt 0 view .LVU53
 149 0052 6560     		str	r5, [r4, #4]
 126:./Middlewares/ST/usbx/common/core/src/ux_device_stack_interface_start.c ****     }
 150              		.loc 1 126 9 is_stmt 1 view .LVU54
 126:./Middlewares/ST/usbx/common/core/src/ux_device_stack_interface_start.c ****     }
 151              		.loc 1 126 15 is_stmt 0 view .LVU55
 152 0054 F3E7     		b	.L1
 153              	.LVL9:
 154              	.L4:
  89:./Middlewares/ST/usbx/common/core/src/ux_device_stack_interface_start.c **** 
 155              		.loc 1 89 16 view .LVU56
 156 0056 5720     		movs	r0, #87
 157              	.LVL10:
  89:./Middlewares/ST/usbx/common/core/src/ux_device_stack_interface_start.c **** 
 158              		.loc 1 89 16 view .LVU57
 159 0058 F1E7     		b	.L1
 160              	.L9:
 161 005a 00BF     		.align	2
 162              	.L8:
 163 005c 00000000 		.word	_ux_system_slave
 164              		.cfi_endproc
 165              	.LFE11:
 167              		.text
 168              	.Letext0:
 169              		.file 2 "./Middlewares/ST/threadx/ports/cortex_m4/gnu/inc/tx_port.h"
 170              		.file 3 "./Middlewares/ST/threadx/common/inc/tx_api.h"
 171              		.file 4 "./Middlewares/ST/usbx/common/core/inc/ux_api.h"
 172              		.file 5 "./Middlewares/ST/usbx/common/core/inc/ux_system.h"
ARM GAS  C:\Users\Dennis\AppData\Local\Temp\ccBniDNq.s 			page 7

