ARM GAS  C:\Users\Dennis\AppData\Local\Temp\ccZtSXG7.s 			page 1


   1              		.cpu cortex-m4
   2              		.arch armv7e-m
   3              		.fpu fpv4-sp-d16
   4              		.eabi_attribute 27, 1
   5              		.eabi_attribute 28, 1
   6              		.eabi_attribute 20, 1
   7              		.eabi_attribute 21, 1
   8              		.eabi_attribute 23, 3
   9              		.eabi_attribute 24, 1
  10              		.eabi_attribute 25, 1
  11              		.eabi_attribute 26, 1
  12              		.eabi_attribute 30, 1
  13              		.eabi_attribute 34, 1
  14              		.eabi_attribute 18, 4
  15              		.file	"ux_device_class_cdc_acm_write.c"
  16              		.text
  17              	.Ltext0:
  18              		.cfi_sections	.debug_frame
  19              		.section	.text._ux_device_class_cdc_acm_write,"ax",%progbits
  20              		.align	1
  21              		.global	_ux_device_class_cdc_acm_write
  22              		.syntax unified
  23              		.thumb
  24              		.thumb_func
  26              	_ux_device_class_cdc_acm_write:
  27              	.LVL0:
  28              	.LFB11:
  29              		.file 1 "./Middlewares/ST/usbx/common/usbx_device_classes/src/ux_device_class_cdc_acm_write.c"
   1:./Middlewares/ST/usbx/common/usbx_device_classes/src/ux_device_class_cdc_acm_write.c **** /**************************************************************************/
   2:./Middlewares/ST/usbx/common/usbx_device_classes/src/ux_device_class_cdc_acm_write.c **** /*                                                                        */
   3:./Middlewares/ST/usbx/common/usbx_device_classes/src/ux_device_class_cdc_acm_write.c **** /*       Copyright (c) Microsoft Corporation. All rights reserved.        */
   4:./Middlewares/ST/usbx/common/usbx_device_classes/src/ux_device_class_cdc_acm_write.c **** /*                                                                        */
   5:./Middlewares/ST/usbx/common/usbx_device_classes/src/ux_device_class_cdc_acm_write.c **** /*       This software is licensed under the Microsoft Software License   */
   6:./Middlewares/ST/usbx/common/usbx_device_classes/src/ux_device_class_cdc_acm_write.c **** /*       Terms for Microsoft Azure RTOS. Full text of the license can be  */
   7:./Middlewares/ST/usbx/common/usbx_device_classes/src/ux_device_class_cdc_acm_write.c **** /*       found in the LICENSE file at https://aka.ms/AzureRTOS_EULA       */
   8:./Middlewares/ST/usbx/common/usbx_device_classes/src/ux_device_class_cdc_acm_write.c **** /*       and in the root directory of this software.                      */
   9:./Middlewares/ST/usbx/common/usbx_device_classes/src/ux_device_class_cdc_acm_write.c **** /*                                                                        */
  10:./Middlewares/ST/usbx/common/usbx_device_classes/src/ux_device_class_cdc_acm_write.c **** /**************************************************************************/
  11:./Middlewares/ST/usbx/common/usbx_device_classes/src/ux_device_class_cdc_acm_write.c **** 
  12:./Middlewares/ST/usbx/common/usbx_device_classes/src/ux_device_class_cdc_acm_write.c **** /**************************************************************************/
  13:./Middlewares/ST/usbx/common/usbx_device_classes/src/ux_device_class_cdc_acm_write.c **** /**************************************************************************/
  14:./Middlewares/ST/usbx/common/usbx_device_classes/src/ux_device_class_cdc_acm_write.c **** /**                                                                       */ 
  15:./Middlewares/ST/usbx/common/usbx_device_classes/src/ux_device_class_cdc_acm_write.c **** /** USBX Component                                                        */ 
  16:./Middlewares/ST/usbx/common/usbx_device_classes/src/ux_device_class_cdc_acm_write.c **** /**                                                                       */
  17:./Middlewares/ST/usbx/common/usbx_device_classes/src/ux_device_class_cdc_acm_write.c **** /**   Device CDC Class                                                    */
  18:./Middlewares/ST/usbx/common/usbx_device_classes/src/ux_device_class_cdc_acm_write.c **** /**                                                                       */
  19:./Middlewares/ST/usbx/common/usbx_device_classes/src/ux_device_class_cdc_acm_write.c **** /**************************************************************************/
  20:./Middlewares/ST/usbx/common/usbx_device_classes/src/ux_device_class_cdc_acm_write.c **** /**************************************************************************/
  21:./Middlewares/ST/usbx/common/usbx_device_classes/src/ux_device_class_cdc_acm_write.c **** 
  22:./Middlewares/ST/usbx/common/usbx_device_classes/src/ux_device_class_cdc_acm_write.c **** #define UX_SOURCE_CODE
  23:./Middlewares/ST/usbx/common/usbx_device_classes/src/ux_device_class_cdc_acm_write.c **** 
  24:./Middlewares/ST/usbx/common/usbx_device_classes/src/ux_device_class_cdc_acm_write.c **** 
  25:./Middlewares/ST/usbx/common/usbx_device_classes/src/ux_device_class_cdc_acm_write.c **** /* Include necessary system files.  */
  26:./Middlewares/ST/usbx/common/usbx_device_classes/src/ux_device_class_cdc_acm_write.c **** 
  27:./Middlewares/ST/usbx/common/usbx_device_classes/src/ux_device_class_cdc_acm_write.c **** #include "ux_api.h"
  28:./Middlewares/ST/usbx/common/usbx_device_classes/src/ux_device_class_cdc_acm_write.c **** #include "ux_device_class_cdc_acm.h"
  29:./Middlewares/ST/usbx/common/usbx_device_classes/src/ux_device_class_cdc_acm_write.c **** #include "ux_device_stack.h"
ARM GAS  C:\Users\Dennis\AppData\Local\Temp\ccZtSXG7.s 			page 2


  30:./Middlewares/ST/usbx/common/usbx_device_classes/src/ux_device_class_cdc_acm_write.c **** 
  31:./Middlewares/ST/usbx/common/usbx_device_classes/src/ux_device_class_cdc_acm_write.c **** 
  32:./Middlewares/ST/usbx/common/usbx_device_classes/src/ux_device_class_cdc_acm_write.c **** #if !defined(UX_DEVICE_STANDALONE)
  33:./Middlewares/ST/usbx/common/usbx_device_classes/src/ux_device_class_cdc_acm_write.c **** /**************************************************************************/ 
  34:./Middlewares/ST/usbx/common/usbx_device_classes/src/ux_device_class_cdc_acm_write.c **** /*                                                                        */ 
  35:./Middlewares/ST/usbx/common/usbx_device_classes/src/ux_device_class_cdc_acm_write.c **** /*  FUNCTION                                               RELEASE        */ 
  36:./Middlewares/ST/usbx/common/usbx_device_classes/src/ux_device_class_cdc_acm_write.c **** /*                                                                        */ 
  37:./Middlewares/ST/usbx/common/usbx_device_classes/src/ux_device_class_cdc_acm_write.c **** /*    _ux_device_class_cdc_acm_write                      PORTABLE C      */ 
  38:./Middlewares/ST/usbx/common/usbx_device_classes/src/ux_device_class_cdc_acm_write.c **** /*                                                           6.1.10       */
  39:./Middlewares/ST/usbx/common/usbx_device_classes/src/ux_device_class_cdc_acm_write.c **** /*  AUTHOR                                                                */
  40:./Middlewares/ST/usbx/common/usbx_device_classes/src/ux_device_class_cdc_acm_write.c **** /*                                                                        */
  41:./Middlewares/ST/usbx/common/usbx_device_classes/src/ux_device_class_cdc_acm_write.c **** /*    Chaoqiong Xiao, Microsoft Corporation                               */
  42:./Middlewares/ST/usbx/common/usbx_device_classes/src/ux_device_class_cdc_acm_write.c **** /*                                                                        */
  43:./Middlewares/ST/usbx/common/usbx_device_classes/src/ux_device_class_cdc_acm_write.c **** /*  DESCRIPTION                                                           */
  44:./Middlewares/ST/usbx/common/usbx_device_classes/src/ux_device_class_cdc_acm_write.c **** /*                                                                        */ 
  45:./Middlewares/ST/usbx/common/usbx_device_classes/src/ux_device_class_cdc_acm_write.c **** /*    This function writes to  the CDC class.                             */ 
  46:./Middlewares/ST/usbx/common/usbx_device_classes/src/ux_device_class_cdc_acm_write.c **** /*                                                                        */ 
  47:./Middlewares/ST/usbx/common/usbx_device_classes/src/ux_device_class_cdc_acm_write.c **** /*    It's for RTOS mode.                                                 */
  48:./Middlewares/ST/usbx/common/usbx_device_classes/src/ux_device_class_cdc_acm_write.c **** /*                                                                        */ 
  49:./Middlewares/ST/usbx/common/usbx_device_classes/src/ux_device_class_cdc_acm_write.c **** /*  INPUT                                                                 */ 
  50:./Middlewares/ST/usbx/common/usbx_device_classes/src/ux_device_class_cdc_acm_write.c **** /*                                                                        */ 
  51:./Middlewares/ST/usbx/common/usbx_device_classes/src/ux_device_class_cdc_acm_write.c **** /*    cdc_acm                               Address of cdc_acm class      */ 
  52:./Middlewares/ST/usbx/common/usbx_device_classes/src/ux_device_class_cdc_acm_write.c **** /*                                                instance                */ 
  53:./Middlewares/ST/usbx/common/usbx_device_classes/src/ux_device_class_cdc_acm_write.c **** /*    buffer                                Pointer to data to write      */
  54:./Middlewares/ST/usbx/common/usbx_device_classes/src/ux_device_class_cdc_acm_write.c **** /*    requested_length                      Length of bytes to write      */
  55:./Middlewares/ST/usbx/common/usbx_device_classes/src/ux_device_class_cdc_acm_write.c **** /*    actual_length                         Pointer to save number of     */
  56:./Middlewares/ST/usbx/common/usbx_device_classes/src/ux_device_class_cdc_acm_write.c **** /*                                                bytes written           */
  57:./Middlewares/ST/usbx/common/usbx_device_classes/src/ux_device_class_cdc_acm_write.c **** /*                                                                        */ 
  58:./Middlewares/ST/usbx/common/usbx_device_classes/src/ux_device_class_cdc_acm_write.c **** /*  OUTPUT                                                                */ 
  59:./Middlewares/ST/usbx/common/usbx_device_classes/src/ux_device_class_cdc_acm_write.c **** /*                                                                        */ 
  60:./Middlewares/ST/usbx/common/usbx_device_classes/src/ux_device_class_cdc_acm_write.c **** /*    None                                                                */ 
  61:./Middlewares/ST/usbx/common/usbx_device_classes/src/ux_device_class_cdc_acm_write.c **** /*                                                                        */ 
  62:./Middlewares/ST/usbx/common/usbx_device_classes/src/ux_device_class_cdc_acm_write.c **** /*  CALLS                                                                 */ 
  63:./Middlewares/ST/usbx/common/usbx_device_classes/src/ux_device_class_cdc_acm_write.c **** /*                                                                        */ 
  64:./Middlewares/ST/usbx/common/usbx_device_classes/src/ux_device_class_cdc_acm_write.c **** /*   _ux_utility_memory_copy                Copy memory                   */ 
  65:./Middlewares/ST/usbx/common/usbx_device_classes/src/ux_device_class_cdc_acm_write.c **** /*   _ux_device_stack_transfer_request      Transfer request              */ 
  66:./Middlewares/ST/usbx/common/usbx_device_classes/src/ux_device_class_cdc_acm_write.c **** /*   _ux_utility_mutex_on                   Take Mutex                    */ 
  67:./Middlewares/ST/usbx/common/usbx_device_classes/src/ux_device_class_cdc_acm_write.c **** /*   _ux_utility_mutex_off                  Release Mutex                 */ 
  68:./Middlewares/ST/usbx/common/usbx_device_classes/src/ux_device_class_cdc_acm_write.c **** /*                                                                        */ 
  69:./Middlewares/ST/usbx/common/usbx_device_classes/src/ux_device_class_cdc_acm_write.c **** /*  CALLED BY                                                             */ 
  70:./Middlewares/ST/usbx/common/usbx_device_classes/src/ux_device_class_cdc_acm_write.c **** /*                                                                        */ 
  71:./Middlewares/ST/usbx/common/usbx_device_classes/src/ux_device_class_cdc_acm_write.c **** /*    ThreadX                                                             */ 
  72:./Middlewares/ST/usbx/common/usbx_device_classes/src/ux_device_class_cdc_acm_write.c **** /*                                                                        */ 
  73:./Middlewares/ST/usbx/common/usbx_device_classes/src/ux_device_class_cdc_acm_write.c **** /*  RELEASE HISTORY                                                       */ 
  74:./Middlewares/ST/usbx/common/usbx_device_classes/src/ux_device_class_cdc_acm_write.c **** /*                                                                        */ 
  75:./Middlewares/ST/usbx/common/usbx_device_classes/src/ux_device_class_cdc_acm_write.c **** /*    DATE              NAME                      DESCRIPTION             */ 
  76:./Middlewares/ST/usbx/common/usbx_device_classes/src/ux_device_class_cdc_acm_write.c **** /*                                                                        */ 
  77:./Middlewares/ST/usbx/common/usbx_device_classes/src/ux_device_class_cdc_acm_write.c **** /*  05-19-2020     Chaoqiong Xiao           Initial Version 6.0           */
  78:./Middlewares/ST/usbx/common/usbx_device_classes/src/ux_device_class_cdc_acm_write.c **** /*  09-30-2020     Chaoqiong Xiao           Modified comment(s),          */
  79:./Middlewares/ST/usbx/common/usbx_device_classes/src/ux_device_class_cdc_acm_write.c **** /*                                            verified memset and memcpy  */
  80:./Middlewares/ST/usbx/common/usbx_device_classes/src/ux_device_class_cdc_acm_write.c **** /*                                            cases,                      */
  81:./Middlewares/ST/usbx/common/usbx_device_classes/src/ux_device_class_cdc_acm_write.c **** /*                                            resulting in version 6.1    */
  82:./Middlewares/ST/usbx/common/usbx_device_classes/src/ux_device_class_cdc_acm_write.c **** /*  10-15-2021     Chaoqiong Xiao           Modified comment(s),          */
  83:./Middlewares/ST/usbx/common/usbx_device_classes/src/ux_device_class_cdc_acm_write.c **** /*                                            fixed compile issue,        */
  84:./Middlewares/ST/usbx/common/usbx_device_classes/src/ux_device_class_cdc_acm_write.c **** /*                                            resulting in version 6.1.9  */
  85:./Middlewares/ST/usbx/common/usbx_device_classes/src/ux_device_class_cdc_acm_write.c **** /*  01-31-2022x    Chaoqiong Xiao           Modified comment(s),          */
  86:./Middlewares/ST/usbx/common/usbx_device_classes/src/ux_device_class_cdc_acm_write.c **** /*                                            resulting in version 6.1.10 */
ARM GAS  C:\Users\Dennis\AppData\Local\Temp\ccZtSXG7.s 			page 3


  87:./Middlewares/ST/usbx/common/usbx_device_classes/src/ux_device_class_cdc_acm_write.c **** /*                                                                        */
  88:./Middlewares/ST/usbx/common/usbx_device_classes/src/ux_device_class_cdc_acm_write.c **** /**************************************************************************/
  89:./Middlewares/ST/usbx/common/usbx_device_classes/src/ux_device_class_cdc_acm_write.c **** UINT _ux_device_class_cdc_acm_write(UX_SLAVE_CLASS_CDC_ACM *cdc_acm, UCHAR *buffer, 
  90:./Middlewares/ST/usbx/common/usbx_device_classes/src/ux_device_class_cdc_acm_write.c ****                                 ULONG requested_length, ULONG *actual_length)
  91:./Middlewares/ST/usbx/common/usbx_device_classes/src/ux_device_class_cdc_acm_write.c **** {
  30              		.loc 1 91 1 view -0
  31              		.cfi_startproc
  32              		@ args = 0, pretend = 0, frame = 0
  33              		@ frame_needed = 0, uses_anonymous_args = 0
  34              		.loc 1 91 1 is_stmt 0 view .LVU1
  35 0000 2DE9F84F 		push	{r3, r4, r5, r6, r7, r8, r9, r10, fp, lr}
  36              	.LCFI0:
  37              		.cfi_def_cfa_offset 40
  38              		.cfi_offset 3, -40
  39              		.cfi_offset 4, -36
  40              		.cfi_offset 5, -32
  41              		.cfi_offset 6, -28
  42              		.cfi_offset 7, -24
  43              		.cfi_offset 8, -20
  44              		.cfi_offset 9, -16
  45              		.cfi_offset 10, -12
  46              		.cfi_offset 11, -8
  47              		.cfi_offset 14, -4
  48 0004 9846     		mov	r8, r3
  92:./Middlewares/ST/usbx/common/usbx_device_classes/src/ux_device_class_cdc_acm_write.c **** 
  93:./Middlewares/ST/usbx/common/usbx_device_classes/src/ux_device_class_cdc_acm_write.c **** UX_SLAVE_ENDPOINT           *endpoint;
  49              		.loc 1 93 1 is_stmt 1 view .LVU2
  94:./Middlewares/ST/usbx/common/usbx_device_classes/src/ux_device_class_cdc_acm_write.c **** UX_SLAVE_DEVICE             *device;
  50              		.loc 1 94 1 view .LVU3
  95:./Middlewares/ST/usbx/common/usbx_device_classes/src/ux_device_class_cdc_acm_write.c **** UX_SLAVE_INTERFACE          *interface;
  51              		.loc 1 95 1 view .LVU4
  96:./Middlewares/ST/usbx/common/usbx_device_classes/src/ux_device_class_cdc_acm_write.c **** UX_SLAVE_TRANSFER           *transfer_request;
  52              		.loc 1 96 1 view .LVU5
  97:./Middlewares/ST/usbx/common/usbx_device_classes/src/ux_device_class_cdc_acm_write.c **** ULONG                       local_requested_length;
  53              		.loc 1 97 1 view .LVU6
  98:./Middlewares/ST/usbx/common/usbx_device_classes/src/ux_device_class_cdc_acm_write.c **** UINT                        status = 0;
  54              		.loc 1 98 1 view .LVU7
  55              	.LVL1:
  99:./Middlewares/ST/usbx/common/usbx_device_classes/src/ux_device_class_cdc_acm_write.c **** 
 100:./Middlewares/ST/usbx/common/usbx_device_classes/src/ux_device_class_cdc_acm_write.c ****     /* If trace is enabled, insert this event into the trace buffer.  */
 101:./Middlewares/ST/usbx/common/usbx_device_classes/src/ux_device_class_cdc_acm_write.c ****     UX_TRACE_IN_LINE_INSERT(UX_TRACE_DEVICE_CLASS_CDC_ACM_WRITE, cdc_acm, buffer, requested_length,
 102:./Middlewares/ST/usbx/common/usbx_device_classes/src/ux_device_class_cdc_acm_write.c **** 
 103:./Middlewares/ST/usbx/common/usbx_device_classes/src/ux_device_class_cdc_acm_write.c **** #ifndef UX_DEVICE_CLASS_CDC_ACM_TRANSMISSION_DISABLE
 104:./Middlewares/ST/usbx/common/usbx_device_classes/src/ux_device_class_cdc_acm_write.c **** 
 105:./Middlewares/ST/usbx/common/usbx_device_classes/src/ux_device_class_cdc_acm_write.c ****     /* Check if current cdc-acm is using callback or not. We cannot use direct reads with callback 
 106:./Middlewares/ST/usbx/common/usbx_device_classes/src/ux_device_class_cdc_acm_write.c ****     if (cdc_acm -> ux_slave_class_cdc_acm_transmission_status == UX_TRUE)
  56              		.loc 1 106 5 view .LVU8
  57              		.loc 1 106 17 is_stmt 0 view .LVU9
  58 0006 D0F81832 		ldr	r3, [r0, #536]
  59              	.LVL2:
  60              		.loc 1 106 8 view .LVU10
  61 000a 012B     		cmp	r3, #1
  62 000c 69D0     		beq	.L11
  63 000e 0E46     		mov	r6, r1
  64 0010 1446     		mov	r4, r2
 107:./Middlewares/ST/usbx/common/usbx_device_classes/src/ux_device_class_cdc_acm_write.c ****     
 108:./Middlewares/ST/usbx/common/usbx_device_classes/src/ux_device_class_cdc_acm_write.c ****         /* Not allowed. */
ARM GAS  C:\Users\Dennis\AppData\Local\Temp\ccZtSXG7.s 			page 4


 109:./Middlewares/ST/usbx/common/usbx_device_classes/src/ux_device_class_cdc_acm_write.c ****         return(UX_ERROR);
 110:./Middlewares/ST/usbx/common/usbx_device_classes/src/ux_device_class_cdc_acm_write.c **** #endif
 111:./Middlewares/ST/usbx/common/usbx_device_classes/src/ux_device_class_cdc_acm_write.c **** 
 112:./Middlewares/ST/usbx/common/usbx_device_classes/src/ux_device_class_cdc_acm_write.c ****     /* Get the pointer to the device.  */
 113:./Middlewares/ST/usbx/common/usbx_device_classes/src/ux_device_class_cdc_acm_write.c ****     device =  &_ux_system_slave -> ux_system_slave_device;
  65              		.loc 1 113 5 is_stmt 1 view .LVU11
  66              		.loc 1 113 33 is_stmt 0 view .LVU12
  67 0012 354B     		ldr	r3, .L20
  68 0014 D3F80090 		ldr	r9, [r3]
  69              	.LVL3:
 114:./Middlewares/ST/usbx/common/usbx_device_classes/src/ux_device_class_cdc_acm_write.c ****     
 115:./Middlewares/ST/usbx/common/usbx_device_classes/src/ux_device_class_cdc_acm_write.c ****     /* As long as the device is in the CONFIGURED state.  */
 116:./Middlewares/ST/usbx/common/usbx_device_classes/src/ux_device_class_cdc_acm_write.c ****     if (device -> ux_slave_device_state != UX_DEVICE_CONFIGURED)
  70              		.loc 1 116 5 is_stmt 1 view .LVU13
  71              		.loc 1 116 16 is_stmt 0 view .LVU14
  72 0018 D9F82030 		ldr	r3, [r9, #32]
  73              		.loc 1 116 8 view .LVU15
  74 001c 032B     		cmp	r3, #3
  75 001e 16D1     		bne	.L16
 117:./Middlewares/ST/usbx/common/usbx_device_classes/src/ux_device_class_cdc_acm_write.c ****     {
 118:./Middlewares/ST/usbx/common/usbx_device_classes/src/ux_device_class_cdc_acm_write.c ****             
 119:./Middlewares/ST/usbx/common/usbx_device_classes/src/ux_device_class_cdc_acm_write.c ****         /* Error trap. */
 120:./Middlewares/ST/usbx/common/usbx_device_classes/src/ux_device_class_cdc_acm_write.c ****         _ux_system_error_handler(UX_SYSTEM_LEVEL_THREAD, UX_SYSTEM_CONTEXT_CLASS, UX_CONFIGURATION_
 121:./Middlewares/ST/usbx/common/usbx_device_classes/src/ux_device_class_cdc_acm_write.c **** 
 122:./Middlewares/ST/usbx/common/usbx_device_classes/src/ux_device_class_cdc_acm_write.c ****         /* If trace is enabled, insert this event into the trace buffer.  */
 123:./Middlewares/ST/usbx/common/usbx_device_classes/src/ux_device_class_cdc_acm_write.c ****         UX_TRACE_IN_LINE_INSERT(UX_TRACE_ERROR, UX_CONFIGURATION_HANDLE_UNKNOWN, device, 0, 0, UX_T
 124:./Middlewares/ST/usbx/common/usbx_device_classes/src/ux_device_class_cdc_acm_write.c ****     
 125:./Middlewares/ST/usbx/common/usbx_device_classes/src/ux_device_class_cdc_acm_write.c ****         /* Cannot proceed with command, the interface is down.  */
 126:./Middlewares/ST/usbx/common/usbx_device_classes/src/ux_device_class_cdc_acm_write.c ****         return(UX_CONFIGURATION_HANDLE_UNKNOWN);
 127:./Middlewares/ST/usbx/common/usbx_device_classes/src/ux_device_class_cdc_acm_write.c ****     }
 128:./Middlewares/ST/usbx/common/usbx_device_classes/src/ux_device_class_cdc_acm_write.c ****         
 129:./Middlewares/ST/usbx/common/usbx_device_classes/src/ux_device_class_cdc_acm_write.c ****     /* We need the interface to the class.  */
 130:./Middlewares/ST/usbx/common/usbx_device_classes/src/ux_device_class_cdc_acm_write.c ****     interface =  cdc_acm -> ux_slave_class_cdc_acm_interface;
  76              		.loc 1 130 5 is_stmt 1 view .LVU16
  77              		.loc 1 130 15 is_stmt 0 view .LVU17
  78 0020 0368     		ldr	r3, [r0]
  79              	.LVL4:
 131:./Middlewares/ST/usbx/common/usbx_device_classes/src/ux_device_class_cdc_acm_write.c ****     
 132:./Middlewares/ST/usbx/common/usbx_device_classes/src/ux_device_class_cdc_acm_write.c ****     /* Locate the endpoints.  */
 133:./Middlewares/ST/usbx/common/usbx_device_classes/src/ux_device_class_cdc_acm_write.c ****     endpoint =  interface -> ux_slave_interface_first_endpoint;
  80              		.loc 1 133 5 is_stmt 1 view .LVU18
  81              		.loc 1 133 14 is_stmt 0 view .LVU19
  82 0022 5F6B     		ldr	r7, [r3, #52]
  83              	.LVL5:
 134:./Middlewares/ST/usbx/common/usbx_device_classes/src/ux_device_class_cdc_acm_write.c ****     
 135:./Middlewares/ST/usbx/common/usbx_device_classes/src/ux_device_class_cdc_acm_write.c ****     /* Check the endpoint direction, if IN we have the correct endpoint.  */
 136:./Middlewares/ST/usbx/common/usbx_device_classes/src/ux_device_class_cdc_acm_write.c ****     if ((endpoint -> ux_slave_endpoint_descriptor.bEndpointAddress & UX_ENDPOINT_DIRECTION) != UX_E
  84              		.loc 1 136 5 is_stmt 1 view .LVU20
  85              		.loc 1 136 50 is_stmt 0 view .LVU21
  86 0024 7B69     		ldr	r3, [r7, #20]
  87              	.LVL6:
  88              		.loc 1 136 8 view .LVU22
  89 0026 13F0800F 		tst	r3, #128
  90 002a 00D1     		bne	.L4
 137:./Middlewares/ST/usbx/common/usbx_device_classes/src/ux_device_class_cdc_acm_write.c ****     {
 138:./Middlewares/ST/usbx/common/usbx_device_classes/src/ux_device_class_cdc_acm_write.c **** 
 139:./Middlewares/ST/usbx/common/usbx_device_classes/src/ux_device_class_cdc_acm_write.c ****         /* So the next endpoint has to be the IN endpoint.  */
ARM GAS  C:\Users\Dennis\AppData\Local\Temp\ccZtSXG7.s 			page 5


 140:./Middlewares/ST/usbx/common/usbx_device_classes/src/ux_device_class_cdc_acm_write.c ****         endpoint =  endpoint -> ux_slave_endpoint_next_endpoint;
  91              		.loc 1 140 9 is_stmt 1 view .LVU23
  92              		.loc 1 140 18 is_stmt 0 view .LVU24
  93 002c 7F6A     		ldr	r7, [r7, #36]
  94              	.LVL7:
  95              	.L4:
 141:./Middlewares/ST/usbx/common/usbx_device_classes/src/ux_device_class_cdc_acm_write.c ****     }
 142:./Middlewares/ST/usbx/common/usbx_device_classes/src/ux_device_class_cdc_acm_write.c **** 
 143:./Middlewares/ST/usbx/common/usbx_device_classes/src/ux_device_class_cdc_acm_write.c ****     /* Protect this thread.  */
 144:./Middlewares/ST/usbx/common/usbx_device_classes/src/ux_device_class_cdc_acm_write.c ****     _ux_utility_mutex_on(&cdc_acm -> ux_slave_class_cdc_acm_endpoint_in_mutex);
  96              		.loc 1 144 5 is_stmt 1 view .LVU25
  97 002e 00F1100A 		add	r10, r0, #16
  98 0032 5046     		mov	r0, r10
  99              	.LVL8:
 100              		.loc 1 144 5 is_stmt 0 view .LVU26
 101 0034 FFF7FEFF 		bl	_ux_utility_mutex_on
 102              	.LVL9:
 145:./Middlewares/ST/usbx/common/usbx_device_classes/src/ux_device_class_cdc_acm_write.c ****         
 146:./Middlewares/ST/usbx/common/usbx_device_classes/src/ux_device_class_cdc_acm_write.c ****     /* We are writing to the IN endpoint.  */
 147:./Middlewares/ST/usbx/common/usbx_device_classes/src/ux_device_class_cdc_acm_write.c ****     transfer_request =  &endpoint -> ux_slave_endpoint_transfer_request;
 103              		.loc 1 147 5 is_stmt 1 view .LVU27
 104              		.loc 1 147 22 is_stmt 0 view .LVU28
 105 0038 07F1300B 		add	fp, r7, #48
 106              	.LVL10:
 148:./Middlewares/ST/usbx/common/usbx_device_classes/src/ux_device_class_cdc_acm_write.c **** 
 149:./Middlewares/ST/usbx/common/usbx_device_classes/src/ux_device_class_cdc_acm_write.c ****     /* Reset the actual length.  */
 150:./Middlewares/ST/usbx/common/usbx_device_classes/src/ux_device_class_cdc_acm_write.c ****     *actual_length =  0;
 107              		.loc 1 150 5 is_stmt 1 view .LVU29
 108              		.loc 1 150 20 is_stmt 0 view .LVU30
 109 003c 0023     		movs	r3, #0
 110 003e C8F80030 		str	r3, [r8]
 151:./Middlewares/ST/usbx/common/usbx_device_classes/src/ux_device_class_cdc_acm_write.c **** 
 152:./Middlewares/ST/usbx/common/usbx_device_classes/src/ux_device_class_cdc_acm_write.c ****     /* Check if the application forces a 0 length packet.  */
 153:./Middlewares/ST/usbx/common/usbx_device_classes/src/ux_device_class_cdc_acm_write.c ****     if (device -> ux_slave_device_state == UX_DEVICE_CONFIGURED && requested_length == 0)
 111              		.loc 1 153 5 is_stmt 1 view .LVU31
 112              		.loc 1 153 16 is_stmt 0 view .LVU32
 113 0042 D9F82030 		ldr	r3, [r9, #32]
 114              		.loc 1 153 8 view .LVU33
 115 0046 032B     		cmp	r3, #3
 116 0048 08D0     		beq	.L17
 117              		.loc 1 153 8 view .LVU34
 118 004a 0025     		movs	r5, #0
 119 004c 29E0     		b	.L8
 120              	.LVL11:
 121              	.L16:
 120:./Middlewares/ST/usbx/common/usbx_device_classes/src/ux_device_class_cdc_acm_write.c **** 
 122              		.loc 1 120 9 is_stmt 1 view .LVU35
 123 004e 5122     		movs	r2, #81
 124              	.LVL12:
 120:./Middlewares/ST/usbx/common/usbx_device_classes/src/ux_device_class_cdc_acm_write.c **** 
 125              		.loc 1 120 9 is_stmt 0 view .LVU36
 126 0050 0721     		movs	r1, #7
 127              	.LVL13:
 120:./Middlewares/ST/usbx/common/usbx_device_classes/src/ux_device_class_cdc_acm_write.c **** 
 128              		.loc 1 120 9 view .LVU37
 129 0052 0220     		movs	r0, #2
 130              	.LVL14:
ARM GAS  C:\Users\Dennis\AppData\Local\Temp\ccZtSXG7.s 			page 6


 120:./Middlewares/ST/usbx/common/usbx_device_classes/src/ux_device_class_cdc_acm_write.c **** 
 131              		.loc 1 120 9 view .LVU38
 132 0054 FFF7FEFF 		bl	_ux_system_error_handler
 133              	.LVL15:
 126:./Middlewares/ST/usbx/common/usbx_device_classes/src/ux_device_class_cdc_acm_write.c ****     }
 134              		.loc 1 126 9 is_stmt 1 view .LVU39
 126:./Middlewares/ST/usbx/common/usbx_device_classes/src/ux_device_class_cdc_acm_write.c ****     }
 135              		.loc 1 126 15 is_stmt 0 view .LVU40
 136 0058 5125     		movs	r5, #81
 137 005a 38E0     		b	.L1
 138              	.LVL16:
 139              	.L17:
 140              		.loc 1 153 65 discriminator 1 view .LVU41
 141 005c 0CB1     		cbz	r4, .L18
 142 005e 0025     		movs	r5, #0
 143 0060 1FE0     		b	.L8
 144              	.L18:
 154:./Middlewares/ST/usbx/common/usbx_device_classes/src/ux_device_class_cdc_acm_write.c ****     {
 155:./Middlewares/ST/usbx/common/usbx_device_classes/src/ux_device_class_cdc_acm_write.c ****         
 156:./Middlewares/ST/usbx/common/usbx_device_classes/src/ux_device_class_cdc_acm_write.c ****         /* Send the request for 0 byte packet to the device controller.  */
 157:./Middlewares/ST/usbx/common/usbx_device_classes/src/ux_device_class_cdc_acm_write.c ****         status =  _ux_device_stack_transfer_request(transfer_request, 0, 0);
 145              		.loc 1 157 9 is_stmt 1 view .LVU42
 146              		.loc 1 157 19 is_stmt 0 view .LVU43
 147 0062 0022     		movs	r2, #0
 148 0064 1146     		mov	r1, r2
 149 0066 5846     		mov	r0, fp
 150 0068 FFF7FEFF 		bl	_ux_device_stack_transfer_request
 151              	.LVL17:
 152 006c 0546     		mov	r5, r0
 153              	.LVL18:
 158:./Middlewares/ST/usbx/common/usbx_device_classes/src/ux_device_class_cdc_acm_write.c **** 
 159:./Middlewares/ST/usbx/common/usbx_device_classes/src/ux_device_class_cdc_acm_write.c ****         /* Free Mutex resource.  */
 160:./Middlewares/ST/usbx/common/usbx_device_classes/src/ux_device_class_cdc_acm_write.c ****         _ux_utility_mutex_off(&cdc_acm -> ux_slave_class_cdc_acm_endpoint_in_mutex);
 154              		.loc 1 160 9 is_stmt 1 view .LVU44
 155 006e 5046     		mov	r0, r10
 156              	.LVL19:
 157              		.loc 1 160 9 is_stmt 0 view .LVU45
 158 0070 FFF7FEFF 		bl	_ux_utility_mutex_off
 159              	.LVL20:
 161:./Middlewares/ST/usbx/common/usbx_device_classes/src/ux_device_class_cdc_acm_write.c **** 
 162:./Middlewares/ST/usbx/common/usbx_device_classes/src/ux_device_class_cdc_acm_write.c ****         /* Return the status.  */
 163:./Middlewares/ST/usbx/common/usbx_device_classes/src/ux_device_class_cdc_acm_write.c ****         return(status);
 160              		.loc 1 163 9 is_stmt 1 view .LVU46
 161              		.loc 1 163 15 is_stmt 0 view .LVU47
 162 0074 2BE0     		b	.L1
 163              	.L14:
 164:./Middlewares/ST/usbx/common/usbx_device_classes/src/ux_device_class_cdc_acm_write.c ****         
 165:./Middlewares/ST/usbx/common/usbx_device_classes/src/ux_device_class_cdc_acm_write.c **** 
 166:./Middlewares/ST/usbx/common/usbx_device_classes/src/ux_device_class_cdc_acm_write.c ****     }
 167:./Middlewares/ST/usbx/common/usbx_device_classes/src/ux_device_class_cdc_acm_write.c ****     else
 168:./Middlewares/ST/usbx/common/usbx_device_classes/src/ux_device_class_cdc_acm_write.c ****     {    
 169:./Middlewares/ST/usbx/common/usbx_device_classes/src/ux_device_class_cdc_acm_write.c ****         /* Check if we need more transactions.  */
 170:./Middlewares/ST/usbx/common/usbx_device_classes/src/ux_device_class_cdc_acm_write.c ****         while (device -> ux_slave_device_state == UX_DEVICE_CONFIGURED && requested_length != 0)
 171:./Middlewares/ST/usbx/common/usbx_device_classes/src/ux_device_class_cdc_acm_write.c ****         { 
 172:./Middlewares/ST/usbx/common/usbx_device_classes/src/ux_device_class_cdc_acm_write.c ****     
 173:./Middlewares/ST/usbx/common/usbx_device_classes/src/ux_device_class_cdc_acm_write.c ****             /* Check if we have enough in the local buffer.  */
 174:./Middlewares/ST/usbx/common/usbx_device_classes/src/ux_device_class_cdc_acm_write.c ****             if (requested_length > UX_SLAVE_REQUEST_DATA_MAX_LENGTH)
ARM GAS  C:\Users\Dennis\AppData\Local\Temp\ccZtSXG7.s 			page 7


 175:./Middlewares/ST/usbx/common/usbx_device_classes/src/ux_device_class_cdc_acm_write.c ****     
 176:./Middlewares/ST/usbx/common/usbx_device_classes/src/ux_device_class_cdc_acm_write.c ****                 /* We have too much to transfer.  */
 177:./Middlewares/ST/usbx/common/usbx_device_classes/src/ux_device_class_cdc_acm_write.c ****                 local_requested_length = UX_SLAVE_REQUEST_DATA_MAX_LENGTH;
 178:./Middlewares/ST/usbx/common/usbx_device_classes/src/ux_device_class_cdc_acm_write.c ****                 
 179:./Middlewares/ST/usbx/common/usbx_device_classes/src/ux_device_class_cdc_acm_write.c ****             else
 180:./Middlewares/ST/usbx/common/usbx_device_classes/src/ux_device_class_cdc_acm_write.c ****             
 181:./Middlewares/ST/usbx/common/usbx_device_classes/src/ux_device_class_cdc_acm_write.c ****                 /* We can proceed with the demanded length.  */
 182:./Middlewares/ST/usbx/common/usbx_device_classes/src/ux_device_class_cdc_acm_write.c ****                 local_requested_length = requested_length;
 164              		.loc 1 182 40 view .LVU48
 165 0076 2546     		mov	r5, r4
 166              	.LVL21:
 167              	.L6:
 183:./Middlewares/ST/usbx/common/usbx_device_classes/src/ux_device_class_cdc_acm_write.c ****                             
 184:./Middlewares/ST/usbx/common/usbx_device_classes/src/ux_device_class_cdc_acm_write.c ****             /* On a out, we copy the buffer to the caller. Not very efficient but it makes the API
 185:./Middlewares/ST/usbx/common/usbx_device_classes/src/ux_device_class_cdc_acm_write.c ****                easier.  */
 186:./Middlewares/ST/usbx/common/usbx_device_classes/src/ux_device_class_cdc_acm_write.c ****             _ux_utility_memory_copy(transfer_request -> ux_slave_transfer_request_data_pointer,
 168              		.loc 1 186 13 is_stmt 1 view .LVU49
 169 0078 2A46     		mov	r2, r5
 170 007a 3146     		mov	r1, r6
 171 007c F86B     		ldr	r0, [r7, #60]
 172 007e FFF7FEFF 		bl	_ux_utility_memory_copy
 173              	.LVL22:
 187:./Middlewares/ST/usbx/common/usbx_device_classes/src/ux_device_class_cdc_acm_write.c ****                                 buffer, local_requested_length); /* Use case of memcpy is verified.
 188:./Middlewares/ST/usbx/common/usbx_device_classes/src/ux_device_class_cdc_acm_write.c ****         
 189:./Middlewares/ST/usbx/common/usbx_device_classes/src/ux_device_class_cdc_acm_write.c ****             /* Send the request to the device controller.  */
 190:./Middlewares/ST/usbx/common/usbx_device_classes/src/ux_device_class_cdc_acm_write.c ****             status =  _ux_device_stack_transfer_request(transfer_request, local_requested_length, l
 174              		.loc 1 190 13 view .LVU50
 175              		.loc 1 190 23 is_stmt 0 view .LVU51
 176 0082 2A46     		mov	r2, r5
 177 0084 2946     		mov	r1, r5
 178 0086 5846     		mov	r0, fp
 179 0088 FFF7FEFF 		bl	_ux_device_stack_transfer_request
 180              	.LVL23:
 191:./Middlewares/ST/usbx/common/usbx_device_classes/src/ux_device_class_cdc_acm_write.c ****         
 192:./Middlewares/ST/usbx/common/usbx_device_classes/src/ux_device_class_cdc_acm_write.c ****             /* Check the status */    
 193:./Middlewares/ST/usbx/common/usbx_device_classes/src/ux_device_class_cdc_acm_write.c ****             if (status == UX_SUCCESS)
 181              		.loc 1 193 13 is_stmt 1 view .LVU52
 182              		.loc 1 193 16 is_stmt 0 view .LVU53
 183 008c 0546     		mov	r5, r0
 184              	.LVL24:
 185              		.loc 1 193 16 view .LVU54
 186 008e 98B9     		cbnz	r0, .L7
 194:./Middlewares/ST/usbx/common/usbx_device_classes/src/ux_device_class_cdc_acm_write.c ****             {
 195:./Middlewares/ST/usbx/common/usbx_device_classes/src/ux_device_class_cdc_acm_write.c ****     
 196:./Middlewares/ST/usbx/common/usbx_device_classes/src/ux_device_class_cdc_acm_write.c ****                 /* Next buffer address.  */
 197:./Middlewares/ST/usbx/common/usbx_device_classes/src/ux_device_class_cdc_acm_write.c ****                 buffer += transfer_request -> ux_slave_transfer_request_actual_length;
 187              		.loc 1 197 17 is_stmt 1 view .LVU55
 188              		.loc 1 197 44 is_stmt 0 view .LVU56
 189 0090 BA6C     		ldr	r2, [r7, #72]
 190              		.loc 1 197 24 view .LVU57
 191 0092 1644     		add	r6, r6, r2
 192              	.LVL25:
 198:./Middlewares/ST/usbx/common/usbx_device_classes/src/ux_device_class_cdc_acm_write.c ****     
 199:./Middlewares/ST/usbx/common/usbx_device_classes/src/ux_device_class_cdc_acm_write.c ****                 /* Set the length actually received. */
 200:./Middlewares/ST/usbx/common/usbx_device_classes/src/ux_device_class_cdc_acm_write.c ****                 *actual_length += transfer_request -> ux_slave_transfer_request_actual_length; 
 193              		.loc 1 200 17 is_stmt 1 view .LVU58
 194              		.loc 1 200 32 is_stmt 0 view .LVU59
ARM GAS  C:\Users\Dennis\AppData\Local\Temp\ccZtSXG7.s 			page 8


 195 0094 D8F80030 		ldr	r3, [r8]
 196 0098 1344     		add	r3, r3, r2
 197 009a C8F80030 		str	r3, [r8]
 201:./Middlewares/ST/usbx/common/usbx_device_classes/src/ux_device_class_cdc_acm_write.c ****     
 202:./Middlewares/ST/usbx/common/usbx_device_classes/src/ux_device_class_cdc_acm_write.c ****                 /* Decrement what left has to be done.  */
 203:./Middlewares/ST/usbx/common/usbx_device_classes/src/ux_device_class_cdc_acm_write.c ****                 requested_length -= transfer_request -> ux_slave_transfer_request_actual_length;
 198              		.loc 1 203 17 is_stmt 1 view .LVU60
 199              		.loc 1 203 54 is_stmt 0 view .LVU61
 200 009e BB6C     		ldr	r3, [r7, #72]
 201              		.loc 1 203 34 view .LVU62
 202 00a0 E41A     		subs	r4, r4, r3
 203              	.LVL26:
 204              	.L8:
 170:./Middlewares/ST/usbx/common/usbx_device_classes/src/ux_device_class_cdc_acm_write.c ****         { 
 205              		.loc 1 170 15 is_stmt 1 view .LVU63
 170:./Middlewares/ST/usbx/common/usbx_device_classes/src/ux_device_class_cdc_acm_write.c ****         { 
 206              		.loc 1 170 23 is_stmt 0 view .LVU64
 207 00a2 D9F82030 		ldr	r3, [r9, #32]
 170:./Middlewares/ST/usbx/common/usbx_device_classes/src/ux_device_class_cdc_acm_write.c ****         { 
 208              		.loc 1 170 15 view .LVU65
 209 00a6 032B     		cmp	r3, #3
 210 00a8 0AD1     		bne	.L9
 170:./Middlewares/ST/usbx/common/usbx_device_classes/src/ux_device_class_cdc_acm_write.c ****         { 
 211              		.loc 1 170 72 discriminator 1 view .LVU66
 212 00aa 4CB1     		cbz	r4, .L9
 174:./Middlewares/ST/usbx/common/usbx_device_classes/src/ux_device_class_cdc_acm_write.c ****     
 213              		.loc 1 174 13 is_stmt 1 view .LVU67
 174:./Middlewares/ST/usbx/common/usbx_device_classes/src/ux_device_class_cdc_acm_write.c ****     
 214              		.loc 1 174 16 is_stmt 0 view .LVU68
 215 00ac B4F5006F 		cmp	r4, #2048
 216 00b0 E1D9     		bls	.L14
 177:./Middlewares/ST/usbx/common/usbx_device_classes/src/ux_device_class_cdc_acm_write.c ****                 
 217              		.loc 1 177 40 view .LVU69
 218 00b2 4FF40065 		mov	r5, #2048
 219              	.LVL27:
 177:./Middlewares/ST/usbx/common/usbx_device_classes/src/ux_device_class_cdc_acm_write.c ****                 
 220              		.loc 1 177 40 view .LVU70
 221 00b6 DFE7     		b	.L6
 222              	.LVL28:
 223              	.L7:
 204:./Middlewares/ST/usbx/common/usbx_device_classes/src/ux_device_class_cdc_acm_write.c ****     
 205:./Middlewares/ST/usbx/common/usbx_device_classes/src/ux_device_class_cdc_acm_write.c ****             }
 206:./Middlewares/ST/usbx/common/usbx_device_classes/src/ux_device_class_cdc_acm_write.c ****             
 207:./Middlewares/ST/usbx/common/usbx_device_classes/src/ux_device_class_cdc_acm_write.c ****             else
 208:./Middlewares/ST/usbx/common/usbx_device_classes/src/ux_device_class_cdc_acm_write.c ****             {
 209:./Middlewares/ST/usbx/common/usbx_device_classes/src/ux_device_class_cdc_acm_write.c ****              
 210:./Middlewares/ST/usbx/common/usbx_device_classes/src/ux_device_class_cdc_acm_write.c ****                 /* Free Mutex resource.  */
 211:./Middlewares/ST/usbx/common/usbx_device_classes/src/ux_device_class_cdc_acm_write.c ****                 _ux_utility_mutex_off(&cdc_acm -> ux_slave_class_cdc_acm_endpoint_in_mutex);
 224              		.loc 1 211 17 is_stmt 1 view .LVU71
 225 00b8 5046     		mov	r0, r10
 226              	.LVL29:
 227              		.loc 1 211 17 is_stmt 0 view .LVU72
 228 00ba FFF7FEFF 		bl	_ux_utility_mutex_off
 229              	.LVL30:
 212:./Middlewares/ST/usbx/common/usbx_device_classes/src/ux_device_class_cdc_acm_write.c ****                 
 213:./Middlewares/ST/usbx/common/usbx_device_classes/src/ux_device_class_cdc_acm_write.c ****                 /* We had an error, abort.  */
 214:./Middlewares/ST/usbx/common/usbx_device_classes/src/ux_device_class_cdc_acm_write.c ****                 return(status);
ARM GAS  C:\Users\Dennis\AppData\Local\Temp\ccZtSXG7.s 			page 9


 230              		.loc 1 214 17 is_stmt 1 view .LVU73
 231              		.loc 1 214 23 is_stmt 0 view .LVU74
 232 00be 06E0     		b	.L1
 233              	.L9:
 215:./Middlewares/ST/usbx/common/usbx_device_classes/src/ux_device_class_cdc_acm_write.c ****             }
 216:./Middlewares/ST/usbx/common/usbx_device_classes/src/ux_device_class_cdc_acm_write.c ****         }
 217:./Middlewares/ST/usbx/common/usbx_device_classes/src/ux_device_class_cdc_acm_write.c ****     }
 218:./Middlewares/ST/usbx/common/usbx_device_classes/src/ux_device_class_cdc_acm_write.c **** 
 219:./Middlewares/ST/usbx/common/usbx_device_classes/src/ux_device_class_cdc_acm_write.c ****     
 220:./Middlewares/ST/usbx/common/usbx_device_classes/src/ux_device_class_cdc_acm_write.c ****     /* Free Mutex resource.  */
 221:./Middlewares/ST/usbx/common/usbx_device_classes/src/ux_device_class_cdc_acm_write.c ****     _ux_utility_mutex_off(&cdc_acm -> ux_slave_class_cdc_acm_endpoint_in_mutex);
 234              		.loc 1 221 5 is_stmt 1 view .LVU75
 235 00c0 5046     		mov	r0, r10
 236 00c2 FFF7FEFF 		bl	_ux_utility_mutex_off
 237              	.LVL31:
 222:./Middlewares/ST/usbx/common/usbx_device_classes/src/ux_device_class_cdc_acm_write.c **** 
 223:./Middlewares/ST/usbx/common/usbx_device_classes/src/ux_device_class_cdc_acm_write.c ****     /* Check why we got here, either completion or device was extracted.  */
 224:./Middlewares/ST/usbx/common/usbx_device_classes/src/ux_device_class_cdc_acm_write.c ****     if (device -> ux_slave_device_state != UX_DEVICE_CONFIGURED)
 238              		.loc 1 224 5 view .LVU76
 239              		.loc 1 224 16 is_stmt 0 view .LVU77
 240 00c6 D9F82030 		ldr	r3, [r9, #32]
 241              		.loc 1 224 8 view .LVU78
 242 00ca 032B     		cmp	r3, #3
 243 00cc 02D1     		bne	.L19
 244              	.LVL32:
 245              	.L1:
 225:./Middlewares/ST/usbx/common/usbx_device_classes/src/ux_device_class_cdc_acm_write.c ****     {
 226:./Middlewares/ST/usbx/common/usbx_device_classes/src/ux_device_class_cdc_acm_write.c ****             
 227:./Middlewares/ST/usbx/common/usbx_device_classes/src/ux_device_class_cdc_acm_write.c ****         /* Error trap. */
 228:./Middlewares/ST/usbx/common/usbx_device_classes/src/ux_device_class_cdc_acm_write.c ****         _ux_system_error_handler(UX_SYSTEM_LEVEL_THREAD, UX_SYSTEM_CONTEXT_CLASS, UX_TRANSFER_NO_AN
 229:./Middlewares/ST/usbx/common/usbx_device_classes/src/ux_device_class_cdc_acm_write.c **** 
 230:./Middlewares/ST/usbx/common/usbx_device_classes/src/ux_device_class_cdc_acm_write.c ****         /* If trace is enabled, insert this event into the trace buffer.  */
 231:./Middlewares/ST/usbx/common/usbx_device_classes/src/ux_device_class_cdc_acm_write.c ****         UX_TRACE_IN_LINE_INSERT(UX_TRACE_ERROR, UX_TRANSFER_NO_ANSWER, transfer_request, 0, 0, UX_T
 232:./Middlewares/ST/usbx/common/usbx_device_classes/src/ux_device_class_cdc_acm_write.c **** 
 233:./Middlewares/ST/usbx/common/usbx_device_classes/src/ux_device_class_cdc_acm_write.c ****         /* Device must have been extracted.  */
 234:./Middlewares/ST/usbx/common/usbx_device_classes/src/ux_device_class_cdc_acm_write.c ****         return (UX_TRANSFER_NO_ANSWER);
 235:./Middlewares/ST/usbx/common/usbx_device_classes/src/ux_device_class_cdc_acm_write.c ****     }
 236:./Middlewares/ST/usbx/common/usbx_device_classes/src/ux_device_class_cdc_acm_write.c ****     else
 237:./Middlewares/ST/usbx/common/usbx_device_classes/src/ux_device_class_cdc_acm_write.c ****     
 238:./Middlewares/ST/usbx/common/usbx_device_classes/src/ux_device_class_cdc_acm_write.c ****         /* Simply return the last transaction result.  */
 239:./Middlewares/ST/usbx/common/usbx_device_classes/src/ux_device_class_cdc_acm_write.c ****         return(status);        
 240:./Middlewares/ST/usbx/common/usbx_device_classes/src/ux_device_class_cdc_acm_write.c ****           
 241:./Middlewares/ST/usbx/common/usbx_device_classes/src/ux_device_class_cdc_acm_write.c **** }
 246              		.loc 1 241 1 view .LVU79
 247 00ce 2846     		mov	r0, r5
 248 00d0 BDE8F88F 		pop	{r3, r4, r5, r6, r7, r8, r9, r10, fp, pc}
 249              	.LVL33:
 250              	.L19:
 228:./Middlewares/ST/usbx/common/usbx_device_classes/src/ux_device_class_cdc_acm_write.c **** 
 251              		.loc 1 228 9 is_stmt 1 view .LVU80
 252 00d4 2222     		movs	r2, #34
 253 00d6 0721     		movs	r1, #7
 254 00d8 0220     		movs	r0, #2
 255 00da FFF7FEFF 		bl	_ux_system_error_handler
 256              	.LVL34:
 234:./Middlewares/ST/usbx/common/usbx_device_classes/src/ux_device_class_cdc_acm_write.c ****     }
 257              		.loc 1 234 9 view .LVU81
ARM GAS  C:\Users\Dennis\AppData\Local\Temp\ccZtSXG7.s 			page 10


 234:./Middlewares/ST/usbx/common/usbx_device_classes/src/ux_device_class_cdc_acm_write.c ****     }
 258              		.loc 1 234 16 is_stmt 0 view .LVU82
 259 00de 2225     		movs	r5, #34
 260              	.LVL35:
 234:./Middlewares/ST/usbx/common/usbx_device_classes/src/ux_device_class_cdc_acm_write.c ****     }
 261              		.loc 1 234 16 view .LVU83
 262 00e0 F5E7     		b	.L1
 263              	.LVL36:
 264              	.L11:
 109:./Middlewares/ST/usbx/common/usbx_device_classes/src/ux_device_class_cdc_acm_write.c **** #endif
 265              		.loc 1 109 15 view .LVU84
 266 00e2 FF25     		movs	r5, #255
 267 00e4 F3E7     		b	.L1
 268              	.L21:
 269 00e6 00BF     		.align	2
 270              	.L20:
 271 00e8 00000000 		.word	_ux_system_slave
 272              		.cfi_endproc
 273              	.LFE11:
 275              		.text
 276              	.Letext0:
 277              		.file 2 "./Middlewares/ST/threadx/ports/cortex_m4/gnu/inc/tx_port.h"
 278              		.file 3 "./Middlewares/ST/threadx/common/inc/tx_api.h"
 279              		.file 4 "./Middlewares/ST/usbx/common/core/inc/ux_api.h"
 280              		.file 5 "./Middlewares/ST/usbx/common/usbx_device_classes/inc/ux_device_class_cdc_acm.h"
 281              		.file 6 "./Middlewares/ST/usbx/common/core/inc/ux_system.h"
 282              		.file 7 "./Middlewares/ST/usbx/common/core/inc/ux_utility.h"
 283              		.file 8 "./Middlewares/ST/usbx/common/core/inc/ux_device_stack.h"
ARM GAS  C:\Users\Dennis\AppData\Local\Temp\ccZtSXG7.s 			page 11

