ARM GAS  C:\Users\Dennis\AppData\Local\Temp\ccRIAR9S.s 			page 1


   1              		.cpu cortex-m4
   2              		.arch armv7e-m
   3              		.fpu fpv4-sp-d16
   4              		.eabi_attribute 27, 1
   5              		.eabi_attribute 28, 1
   6              		.eabi_attribute 20, 1
   7              		.eabi_attribute 21, 1
   8              		.eabi_attribute 23, 3
   9              		.eabi_attribute 24, 1
  10              		.eabi_attribute 25, 1
  11              		.eabi_attribute 26, 1
  12              		.eabi_attribute 30, 1
  13              		.eabi_attribute 34, 1
  14              		.eabi_attribute 18, 4
  15              		.file	"ux_device_class_cdc_acm_control_request.c"
  16              		.text
  17              	.Ltext0:
  18              		.cfi_sections	.debug_frame
  19              		.section	.text._ux_device_class_cdc_acm_control_request,"ax",%progbits
  20              		.align	1
  21              		.global	_ux_device_class_cdc_acm_control_request
  22              		.syntax unified
  23              		.thumb
  24              		.thumb_func
  26              	_ux_device_class_cdc_acm_control_request:
  27              	.LVL0:
  28              	.LFB11:
  29              		.file 1 "./Middlewares/ST/usbx/common/usbx_device_classes/src/ux_device_class_cdc_acm_control_requ
   1:./Middlewares/ST/usbx/common/usbx_device_classes/src/ux_device_class_cdc_acm_control_request.c **** /**************************************************************************/
   2:./Middlewares/ST/usbx/common/usbx_device_classes/src/ux_device_class_cdc_acm_control_request.c **** /*                                                                        */
   3:./Middlewares/ST/usbx/common/usbx_device_classes/src/ux_device_class_cdc_acm_control_request.c **** /*       Copyright (c) Microsoft Corporation. All rights reserved.        */
   4:./Middlewares/ST/usbx/common/usbx_device_classes/src/ux_device_class_cdc_acm_control_request.c **** /*                                                                        */
   5:./Middlewares/ST/usbx/common/usbx_device_classes/src/ux_device_class_cdc_acm_control_request.c **** /*       This software is licensed under the Microsoft Software License   */
   6:./Middlewares/ST/usbx/common/usbx_device_classes/src/ux_device_class_cdc_acm_control_request.c **** /*       Terms for Microsoft Azure RTOS. Full text of the license can be  */
   7:./Middlewares/ST/usbx/common/usbx_device_classes/src/ux_device_class_cdc_acm_control_request.c **** /*       found in the LICENSE file at https://aka.ms/AzureRTOS_EULA       */
   8:./Middlewares/ST/usbx/common/usbx_device_classes/src/ux_device_class_cdc_acm_control_request.c **** /*       and in the root directory of this software.                      */
   9:./Middlewares/ST/usbx/common/usbx_device_classes/src/ux_device_class_cdc_acm_control_request.c **** /*                                                                        */
  10:./Middlewares/ST/usbx/common/usbx_device_classes/src/ux_device_class_cdc_acm_control_request.c **** /**************************************************************************/
  11:./Middlewares/ST/usbx/common/usbx_device_classes/src/ux_device_class_cdc_acm_control_request.c **** 
  12:./Middlewares/ST/usbx/common/usbx_device_classes/src/ux_device_class_cdc_acm_control_request.c **** /**************************************************************************/
  13:./Middlewares/ST/usbx/common/usbx_device_classes/src/ux_device_class_cdc_acm_control_request.c **** /**************************************************************************/
  14:./Middlewares/ST/usbx/common/usbx_device_classes/src/ux_device_class_cdc_acm_control_request.c **** /**                                                                       */ 
  15:./Middlewares/ST/usbx/common/usbx_device_classes/src/ux_device_class_cdc_acm_control_request.c **** /** USBX Component                                                        */ 
  16:./Middlewares/ST/usbx/common/usbx_device_classes/src/ux_device_class_cdc_acm_control_request.c **** /**                                                                       */
  17:./Middlewares/ST/usbx/common/usbx_device_classes/src/ux_device_class_cdc_acm_control_request.c **** /**   Device CDC Class                                                    */
  18:./Middlewares/ST/usbx/common/usbx_device_classes/src/ux_device_class_cdc_acm_control_request.c **** /**                                                                       */
  19:./Middlewares/ST/usbx/common/usbx_device_classes/src/ux_device_class_cdc_acm_control_request.c **** /**************************************************************************/
  20:./Middlewares/ST/usbx/common/usbx_device_classes/src/ux_device_class_cdc_acm_control_request.c **** /**************************************************************************/
  21:./Middlewares/ST/usbx/common/usbx_device_classes/src/ux_device_class_cdc_acm_control_request.c **** 
  22:./Middlewares/ST/usbx/common/usbx_device_classes/src/ux_device_class_cdc_acm_control_request.c **** #define UX_SOURCE_CODE
  23:./Middlewares/ST/usbx/common/usbx_device_classes/src/ux_device_class_cdc_acm_control_request.c **** 
  24:./Middlewares/ST/usbx/common/usbx_device_classes/src/ux_device_class_cdc_acm_control_request.c **** 
  25:./Middlewares/ST/usbx/common/usbx_device_classes/src/ux_device_class_cdc_acm_control_request.c **** /* Include necessary system files.  */
  26:./Middlewares/ST/usbx/common/usbx_device_classes/src/ux_device_class_cdc_acm_control_request.c **** 
  27:./Middlewares/ST/usbx/common/usbx_device_classes/src/ux_device_class_cdc_acm_control_request.c **** #include "ux_api.h"
  28:./Middlewares/ST/usbx/common/usbx_device_classes/src/ux_device_class_cdc_acm_control_request.c **** #include "ux_device_class_cdc_acm.h"
  29:./Middlewares/ST/usbx/common/usbx_device_classes/src/ux_device_class_cdc_acm_control_request.c **** #include "ux_device_stack.h"
ARM GAS  C:\Users\Dennis\AppData\Local\Temp\ccRIAR9S.s 			page 2


  30:./Middlewares/ST/usbx/common/usbx_device_classes/src/ux_device_class_cdc_acm_control_request.c **** 
  31:./Middlewares/ST/usbx/common/usbx_device_classes/src/ux_device_class_cdc_acm_control_request.c **** 
  32:./Middlewares/ST/usbx/common/usbx_device_classes/src/ux_device_class_cdc_acm_control_request.c **** /**************************************************************************/ 
  33:./Middlewares/ST/usbx/common/usbx_device_classes/src/ux_device_class_cdc_acm_control_request.c **** /*                                                                        */ 
  34:./Middlewares/ST/usbx/common/usbx_device_classes/src/ux_device_class_cdc_acm_control_request.c **** /*  FUNCTION                                               RELEASE        */ 
  35:./Middlewares/ST/usbx/common/usbx_device_classes/src/ux_device_class_cdc_acm_control_request.c **** /*                                                                        */ 
  36:./Middlewares/ST/usbx/common/usbx_device_classes/src/ux_device_class_cdc_acm_control_request.c **** /*    _ux_device_class_cdc_acm_control_request            PORTABLE C      */ 
  37:./Middlewares/ST/usbx/common/usbx_device_classes/src/ux_device_class_cdc_acm_control_request.c **** /*                                                           6.1          */
  38:./Middlewares/ST/usbx/common/usbx_device_classes/src/ux_device_class_cdc_acm_control_request.c **** /*  AUTHOR                                                                */
  39:./Middlewares/ST/usbx/common/usbx_device_classes/src/ux_device_class_cdc_acm_control_request.c **** /*                                                                        */
  40:./Middlewares/ST/usbx/common/usbx_device_classes/src/ux_device_class_cdc_acm_control_request.c **** /*    Chaoqiong Xiao, Microsoft Corporation                               */
  41:./Middlewares/ST/usbx/common/usbx_device_classes/src/ux_device_class_cdc_acm_control_request.c **** /*                                                                        */
  42:./Middlewares/ST/usbx/common/usbx_device_classes/src/ux_device_class_cdc_acm_control_request.c **** /*  DESCRIPTION                                                           */
  43:./Middlewares/ST/usbx/common/usbx_device_classes/src/ux_device_class_cdc_acm_control_request.c **** /*                                                                        */ 
  44:./Middlewares/ST/usbx/common/usbx_device_classes/src/ux_device_class_cdc_acm_control_request.c **** /*    This function manages the based sent by the host on the control     */ 
  45:./Middlewares/ST/usbx/common/usbx_device_classes/src/ux_device_class_cdc_acm_control_request.c **** /*    endpoints with a CLASS or VENDOR SPECIFIC type.                     */ 
  46:./Middlewares/ST/usbx/common/usbx_device_classes/src/ux_device_class_cdc_acm_control_request.c **** /*                                                                        */ 
  47:./Middlewares/ST/usbx/common/usbx_device_classes/src/ux_device_class_cdc_acm_control_request.c **** /*  INPUT                                                                 */ 
  48:./Middlewares/ST/usbx/common/usbx_device_classes/src/ux_device_class_cdc_acm_control_request.c **** /*                                                                        */ 
  49:./Middlewares/ST/usbx/common/usbx_device_classes/src/ux_device_class_cdc_acm_control_request.c **** /*    cdc_acm                               Pointer to cdc_acm class      */ 
  50:./Middlewares/ST/usbx/common/usbx_device_classes/src/ux_device_class_cdc_acm_control_request.c **** /*                                                                        */ 
  51:./Middlewares/ST/usbx/common/usbx_device_classes/src/ux_device_class_cdc_acm_control_request.c **** /*  OUTPUT                                                                */ 
  52:./Middlewares/ST/usbx/common/usbx_device_classes/src/ux_device_class_cdc_acm_control_request.c **** /*                                                                        */ 
  53:./Middlewares/ST/usbx/common/usbx_device_classes/src/ux_device_class_cdc_acm_control_request.c **** /*    None                                                                */ 
  54:./Middlewares/ST/usbx/common/usbx_device_classes/src/ux_device_class_cdc_acm_control_request.c **** /*                                                                        */ 
  55:./Middlewares/ST/usbx/common/usbx_device_classes/src/ux_device_class_cdc_acm_control_request.c **** /*  CALLS                                                                 */ 
  56:./Middlewares/ST/usbx/common/usbx_device_classes/src/ux_device_class_cdc_acm_control_request.c **** /*                                                                        */ 
  57:./Middlewares/ST/usbx/common/usbx_device_classes/src/ux_device_class_cdc_acm_control_request.c **** /*    _ux_device_stack_transfer_request     Transfer request              */ 
  58:./Middlewares/ST/usbx/common/usbx_device_classes/src/ux_device_class_cdc_acm_control_request.c **** /*                                                                        */ 
  59:./Middlewares/ST/usbx/common/usbx_device_classes/src/ux_device_class_cdc_acm_control_request.c **** /*  CALLED BY                                                             */ 
  60:./Middlewares/ST/usbx/common/usbx_device_classes/src/ux_device_class_cdc_acm_control_request.c **** /*                                                                        */ 
  61:./Middlewares/ST/usbx/common/usbx_device_classes/src/ux_device_class_cdc_acm_control_request.c **** /*    CDC Class                                                           */
  62:./Middlewares/ST/usbx/common/usbx_device_classes/src/ux_device_class_cdc_acm_control_request.c **** /*                                                                        */ 
  63:./Middlewares/ST/usbx/common/usbx_device_classes/src/ux_device_class_cdc_acm_control_request.c **** /*  RELEASE HISTORY                                                       */ 
  64:./Middlewares/ST/usbx/common/usbx_device_classes/src/ux_device_class_cdc_acm_control_request.c **** /*                                                                        */ 
  65:./Middlewares/ST/usbx/common/usbx_device_classes/src/ux_device_class_cdc_acm_control_request.c **** /*    DATE              NAME                      DESCRIPTION             */ 
  66:./Middlewares/ST/usbx/common/usbx_device_classes/src/ux_device_class_cdc_acm_control_request.c **** /*                                                                        */ 
  67:./Middlewares/ST/usbx/common/usbx_device_classes/src/ux_device_class_cdc_acm_control_request.c **** /*  05-19-2020     Chaoqiong Xiao           Initial Version 6.0           */
  68:./Middlewares/ST/usbx/common/usbx_device_classes/src/ux_device_class_cdc_acm_control_request.c **** /*  09-30-2020     Chaoqiong Xiao           Modified comment(s),          */
  69:./Middlewares/ST/usbx/common/usbx_device_classes/src/ux_device_class_cdc_acm_control_request.c **** /*                                            resulting in version 6.1    */
  70:./Middlewares/ST/usbx/common/usbx_device_classes/src/ux_device_class_cdc_acm_control_request.c **** /*                                                                        */
  71:./Middlewares/ST/usbx/common/usbx_device_classes/src/ux_device_class_cdc_acm_control_request.c **** /**************************************************************************/
  72:./Middlewares/ST/usbx/common/usbx_device_classes/src/ux_device_class_cdc_acm_control_request.c **** UINT  _ux_device_class_cdc_acm_control_request(UX_SLAVE_CLASS_COMMAND *command)
  73:./Middlewares/ST/usbx/common/usbx_device_classes/src/ux_device_class_cdc_acm_control_request.c **** {
  30              		.loc 1 73 1 view -0
  31              		.cfi_startproc
  32              		@ args = 0, pretend = 0, frame = 0
  33              		@ frame_needed = 0, uses_anonymous_args = 0
  34              		.loc 1 73 1 is_stmt 0 view .LVU1
  35 0000 2DE9F843 		push	{r3, r4, r5, r6, r7, r8, r9, lr}
  36              	.LCFI0:
  37              		.cfi_def_cfa_offset 32
  38              		.cfi_offset 3, -32
  39              		.cfi_offset 4, -28
  40              		.cfi_offset 5, -24
  41              		.cfi_offset 6, -20
  42              		.cfi_offset 7, -16
ARM GAS  C:\Users\Dennis\AppData\Local\Temp\ccRIAR9S.s 			page 3


  43              		.cfi_offset 8, -12
  44              		.cfi_offset 9, -8
  45              		.cfi_offset 14, -4
  74:./Middlewares/ST/usbx/common/usbx_device_classes/src/ux_device_class_cdc_acm_control_request.c **** UX_SLAVE_CLASS_CDC_ACM                  *cdc_acm;
  46              		.loc 1 74 1 is_stmt 1 view .LVU2
  75:./Middlewares/ST/usbx/common/usbx_device_classes/src/ux_device_class_cdc_acm_control_request.c **** UX_SLAVE_CLASS                          *class;
  47              		.loc 1 75 1 view .LVU3
  76:./Middlewares/ST/usbx/common/usbx_device_classes/src/ux_device_class_cdc_acm_control_request.c **** UX_SLAVE_TRANSFER                       *transfer_request;
  48              		.loc 1 76 1 view .LVU4
  77:./Middlewares/ST/usbx/common/usbx_device_classes/src/ux_device_class_cdc_acm_control_request.c **** UX_SLAVE_DEVICE                         *device;
  49              		.loc 1 77 1 view .LVU5
  78:./Middlewares/ST/usbx/common/usbx_device_classes/src/ux_device_class_cdc_acm_control_request.c **** ULONG                                   request;
  50              		.loc 1 78 1 view .LVU6
  79:./Middlewares/ST/usbx/common/usbx_device_classes/src/ux_device_class_cdc_acm_control_request.c **** ULONG                                   value;
  51              		.loc 1 79 1 view .LVU7
  80:./Middlewares/ST/usbx/common/usbx_device_classes/src/ux_device_class_cdc_acm_control_request.c **** ULONG                                   request_length;
  52              		.loc 1 80 1 view .LVU8
  81:./Middlewares/ST/usbx/common/usbx_device_classes/src/ux_device_class_cdc_acm_control_request.c **** ULONG                                   transmit_length;
  53              		.loc 1 81 1 view .LVU9
  82:./Middlewares/ST/usbx/common/usbx_device_classes/src/ux_device_class_cdc_acm_control_request.c **** 
  83:./Middlewares/ST/usbx/common/usbx_device_classes/src/ux_device_class_cdc_acm_control_request.c ****     /* Get the class container.  */
  84:./Middlewares/ST/usbx/common/usbx_device_classes/src/ux_device_class_cdc_acm_control_request.c ****     class =  command -> ux_slave_class_command_class_ptr;
  54              		.loc 1 84 5 view .LVU10
  55              		.loc 1 84 11 is_stmt 0 view .LVU11
  56 0004 036A     		ldr	r3, [r0, #32]
  57              	.LVL1:
  85:./Middlewares/ST/usbx/common/usbx_device_classes/src/ux_device_class_cdc_acm_control_request.c **** 
  86:./Middlewares/ST/usbx/common/usbx_device_classes/src/ux_device_class_cdc_acm_control_request.c ****     /* Get the class instance in the container.  */
  87:./Middlewares/ST/usbx/common/usbx_device_classes/src/ux_device_class_cdc_acm_control_request.c ****     cdc_acm = (UX_SLAVE_CLASS_CDC_ACM *) class -> ux_slave_class_instance;
  58              		.loc 1 87 5 is_stmt 1 view .LVU12
  59              		.loc 1 87 13 is_stmt 0 view .LVU13
  60 0006 9D6C     		ldr	r5, [r3, #72]
  61              	.LVL2:
  88:./Middlewares/ST/usbx/common/usbx_device_classes/src/ux_device_class_cdc_acm_control_request.c **** 
  89:./Middlewares/ST/usbx/common/usbx_device_classes/src/ux_device_class_cdc_acm_control_request.c ****     /* Get the pointer to the device.  */
  90:./Middlewares/ST/usbx/common/usbx_device_classes/src/ux_device_class_cdc_acm_control_request.c ****     device =  &_ux_system_slave -> ux_system_slave_device;
  62              		.loc 1 90 5 is_stmt 1 view .LVU14
  63              		.loc 1 90 33 is_stmt 0 view .LVU15
  64 0008 384B     		ldr	r3, .L13
  65              	.LVL3:
  66              		.loc 1 90 33 view .LVU16
  67 000a 1C68     		ldr	r4, [r3]
  68              	.LVL4:
  91:./Middlewares/ST/usbx/common/usbx_device_classes/src/ux_device_class_cdc_acm_control_request.c **** 
  92:./Middlewares/ST/usbx/common/usbx_device_classes/src/ux_device_class_cdc_acm_control_request.c ****     /* Get the pointer to the transfer request associated with the control endpoint.  */
  93:./Middlewares/ST/usbx/common/usbx_device_classes/src/ux_device_class_cdc_acm_control_request.c ****     transfer_request =  &device -> ux_slave_device_control_endpoint.ux_slave_endpoint_transfer_requ
  69              		.loc 1 93 5 is_stmt 1 view .LVU17
  94:./Middlewares/ST/usbx/common/usbx_device_classes/src/ux_device_class_cdc_acm_control_request.c **** 
  95:./Middlewares/ST/usbx/common/usbx_device_classes/src/ux_device_class_cdc_acm_control_request.c ****     /* Extract all necessary fields of the request.  */
  96:./Middlewares/ST/usbx/common/usbx_device_classes/src/ux_device_class_cdc_acm_control_request.c ****     request =  *(transfer_request -> ux_slave_transfer_request_setup + UX_SETUP_REQUEST);
  70              		.loc 1 96 5 view .LVU18
  71              		.loc 1 96 16 is_stmt 0 view .LVU19
  72 000c 94F8E160 		ldrb	r6, [r4, #225]	@ zero_extendqisi2
  73              	.LVL5:
  97:./Middlewares/ST/usbx/common/usbx_device_classes/src/ux_device_class_cdc_acm_control_request.c **** 
  98:./Middlewares/ST/usbx/common/usbx_device_classes/src/ux_device_class_cdc_acm_control_request.c ****     /* Extract all necessary fields of the value.  */
  99:./Middlewares/ST/usbx/common/usbx_device_classes/src/ux_device_class_cdc_acm_control_request.c ****     value =  _ux_utility_short_get(transfer_request -> ux_slave_transfer_request_setup + UX_SETUP_V
ARM GAS  C:\Users\Dennis\AppData\Local\Temp\ccRIAR9S.s 			page 4


  74              		.loc 1 99 5 is_stmt 1 view .LVU20
  75              		.loc 1 99 14 is_stmt 0 view .LVU21
  76 0010 04F1E200 		add	r0, r4, #226
  77              	.LVL6:
  78              		.loc 1 99 14 view .LVU22
  79 0014 FFF7FEFF 		bl	_ux_utility_short_get
  80              	.LVL7:
  81              		.loc 1 99 14 view .LVU23
  82 0018 8046     		mov	r8, r0
  83              	.LVL8:
 100:./Middlewares/ST/usbx/common/usbx_device_classes/src/ux_device_class_cdc_acm_control_request.c **** 
 101:./Middlewares/ST/usbx/common/usbx_device_classes/src/ux_device_class_cdc_acm_control_request.c ****     /* Pickup the request length.  */
 102:./Middlewares/ST/usbx/common/usbx_device_classes/src/ux_device_class_cdc_acm_control_request.c ****     request_length =   _ux_utility_short_get(transfer_request -> ux_slave_transfer_request_setup + 
  84              		.loc 1 102 5 is_stmt 1 view .LVU24
  85              		.loc 1 102 24 is_stmt 0 view .LVU25
  86 001a 04F1E600 		add	r0, r4, #230
  87              	.LVL9:
  88              		.loc 1 102 24 view .LVU26
  89 001e FFF7FEFF 		bl	_ux_utility_short_get
  90              	.LVL10:
 103:./Middlewares/ST/usbx/common/usbx_device_classes/src/ux_device_class_cdc_acm_control_request.c **** 
 104:./Middlewares/ST/usbx/common/usbx_device_classes/src/ux_device_class_cdc_acm_control_request.c ****     transmit_length = request_length ;
  91              		.loc 1 104 5 is_stmt 1 view .LVU27
 105:./Middlewares/ST/usbx/common/usbx_device_classes/src/ux_device_class_cdc_acm_control_request.c ****     
 106:./Middlewares/ST/usbx/common/usbx_device_classes/src/ux_device_class_cdc_acm_control_request.c ****     /* Here we proceed only the standard request we know of at the device level.  */
 107:./Middlewares/ST/usbx/common/usbx_device_classes/src/ux_device_class_cdc_acm_control_request.c ****     switch (request)
  92              		.loc 1 107 5 view .LVU28
  93 0022 212E     		cmp	r6, #33
  94 0024 1ED0     		beq	.L2
  95 0026 222E     		cmp	r6, #34
  96 0028 04D0     		beq	.L3
  97 002a 202E     		cmp	r6, #32
  98 002c 40D0     		beq	.L4
  99 002e FF20     		movs	r0, #255
 100              	.LVL11:
 101              	.L1:
 108:./Middlewares/ST/usbx/common/usbx_device_classes/src/ux_device_class_cdc_acm_control_request.c ****     {
 109:./Middlewares/ST/usbx/common/usbx_device_classes/src/ux_device_class_cdc_acm_control_request.c **** 
 110:./Middlewares/ST/usbx/common/usbx_device_classes/src/ux_device_class_cdc_acm_control_request.c ****         case UX_SLAVE_CLASS_CDC_ACM_SET_CONTROL_LINE_STATE:
 111:./Middlewares/ST/usbx/common/usbx_device_classes/src/ux_device_class_cdc_acm_control_request.c **** 
 112:./Middlewares/ST/usbx/common/usbx_device_classes/src/ux_device_class_cdc_acm_control_request.c ****             /* Reset current line state values. */
 113:./Middlewares/ST/usbx/common/usbx_device_classes/src/ux_device_class_cdc_acm_control_request.c ****             cdc_acm -> ux_slave_class_cdc_acm_data_dtr_state = 0;
 114:./Middlewares/ST/usbx/common/usbx_device_classes/src/ux_device_class_cdc_acm_control_request.c ****             cdc_acm -> ux_slave_class_cdc_acm_data_rts_state = 0;
 115:./Middlewares/ST/usbx/common/usbx_device_classes/src/ux_device_class_cdc_acm_control_request.c **** 
 116:./Middlewares/ST/usbx/common/usbx_device_classes/src/ux_device_class_cdc_acm_control_request.c ****             /* Get the line state parameters from the host.  DTR signal. */
 117:./Middlewares/ST/usbx/common/usbx_device_classes/src/ux_device_class_cdc_acm_control_request.c ****             if (value & UX_SLAVE_CLASS_CDC_ACM_LINE_STATE_DTR)
 118:./Middlewares/ST/usbx/common/usbx_device_classes/src/ux_device_class_cdc_acm_control_request.c ****                 cdc_acm -> ux_slave_class_cdc_acm_data_dtr_state = UX_TRUE;               
 119:./Middlewares/ST/usbx/common/usbx_device_classes/src/ux_device_class_cdc_acm_control_request.c **** 
 120:./Middlewares/ST/usbx/common/usbx_device_classes/src/ux_device_class_cdc_acm_control_request.c ****             /* Get the line state parameters from the host.  RTS signal. */
 121:./Middlewares/ST/usbx/common/usbx_device_classes/src/ux_device_class_cdc_acm_control_request.c ****             if (value & UX_SLAVE_CLASS_CDC_ACM_LINE_STATE_RTS)
 122:./Middlewares/ST/usbx/common/usbx_device_classes/src/ux_device_class_cdc_acm_control_request.c ****                 cdc_acm -> ux_slave_class_cdc_acm_data_rts_state = UX_TRUE;               
 123:./Middlewares/ST/usbx/common/usbx_device_classes/src/ux_device_class_cdc_acm_control_request.c ****                 
 124:./Middlewares/ST/usbx/common/usbx_device_classes/src/ux_device_class_cdc_acm_control_request.c ****             /* If there is a parameter change function call it.  */
 125:./Middlewares/ST/usbx/common/usbx_device_classes/src/ux_device_class_cdc_acm_control_request.c ****             if (cdc_acm -> ux_slave_class_cdc_acm_parameter.ux_slave_class_cdc_acm_parameter_change
 126:./Middlewares/ST/usbx/common/usbx_device_classes/src/ux_device_class_cdc_acm_control_request.c ****             {        
 127:./Middlewares/ST/usbx/common/usbx_device_classes/src/ux_device_class_cdc_acm_control_request.c ****         
 128:./Middlewares/ST/usbx/common/usbx_device_classes/src/ux_device_class_cdc_acm_control_request.c ****                 /* Invoke the application.  */
ARM GAS  C:\Users\Dennis\AppData\Local\Temp\ccRIAR9S.s 			page 5


 129:./Middlewares/ST/usbx/common/usbx_device_classes/src/ux_device_class_cdc_acm_control_request.c ****                 cdc_acm -> ux_slave_class_cdc_acm_parameter.ux_slave_class_cdc_acm_parameter_change
 130:./Middlewares/ST/usbx/common/usbx_device_classes/src/ux_device_class_cdc_acm_control_request.c ****             }
 131:./Middlewares/ST/usbx/common/usbx_device_classes/src/ux_device_class_cdc_acm_control_request.c **** 
 132:./Middlewares/ST/usbx/common/usbx_device_classes/src/ux_device_class_cdc_acm_control_request.c ****             break ;
 133:./Middlewares/ST/usbx/common/usbx_device_classes/src/ux_device_class_cdc_acm_control_request.c **** 
 134:./Middlewares/ST/usbx/common/usbx_device_classes/src/ux_device_class_cdc_acm_control_request.c ****         case UX_SLAVE_CLASS_CDC_ACM_GET_LINE_CODING:
 135:./Middlewares/ST/usbx/common/usbx_device_classes/src/ux_device_class_cdc_acm_control_request.c **** 
 136:./Middlewares/ST/usbx/common/usbx_device_classes/src/ux_device_class_cdc_acm_control_request.c ****             /* Setup the length appropriately.  */
 137:./Middlewares/ST/usbx/common/usbx_device_classes/src/ux_device_class_cdc_acm_control_request.c ****             if (request_length >  UX_SLAVE_CLASS_CDC_ACM_LINE_CODING_RESPONSE_SIZE) 
 138:./Middlewares/ST/usbx/common/usbx_device_classes/src/ux_device_class_cdc_acm_control_request.c ****                 transmit_length = UX_SLAVE_CLASS_CDC_ACM_LINE_CODING_RESPONSE_SIZE;
 139:./Middlewares/ST/usbx/common/usbx_device_classes/src/ux_device_class_cdc_acm_control_request.c ****     
 140:./Middlewares/ST/usbx/common/usbx_device_classes/src/ux_device_class_cdc_acm_control_request.c ****             /* Send the line coding default parameters back to the host.  */
 141:./Middlewares/ST/usbx/common/usbx_device_classes/src/ux_device_class_cdc_acm_control_request.c ****             _ux_utility_long_put(transfer_request -> ux_slave_transfer_request_data_pointer + UX_SL
 142:./Middlewares/ST/usbx/common/usbx_device_classes/src/ux_device_class_cdc_acm_control_request.c ****                                     cdc_acm -> ux_slave_class_cdc_acm_baudrate);
 143:./Middlewares/ST/usbx/common/usbx_device_classes/src/ux_device_class_cdc_acm_control_request.c ****             *(transfer_request -> ux_slave_transfer_request_data_pointer + UX_SLAVE_CLASS_CDC_ACM_L
 144:./Middlewares/ST/usbx/common/usbx_device_classes/src/ux_device_class_cdc_acm_control_request.c ****             *(transfer_request -> ux_slave_transfer_request_data_pointer + UX_SLAVE_CLASS_CDC_ACM_L
 145:./Middlewares/ST/usbx/common/usbx_device_classes/src/ux_device_class_cdc_acm_control_request.c ****             *(transfer_request -> ux_slave_transfer_request_data_pointer + UX_SLAVE_CLASS_CDC_ACM_L
 146:./Middlewares/ST/usbx/common/usbx_device_classes/src/ux_device_class_cdc_acm_control_request.c **** 
 147:./Middlewares/ST/usbx/common/usbx_device_classes/src/ux_device_class_cdc_acm_control_request.c ****             /* Set the phase of the transfer to data out.  */
 148:./Middlewares/ST/usbx/common/usbx_device_classes/src/ux_device_class_cdc_acm_control_request.c ****             transfer_request -> ux_slave_transfer_request_phase =  UX_TRANSFER_PHASE_DATA_OUT;
 149:./Middlewares/ST/usbx/common/usbx_device_classes/src/ux_device_class_cdc_acm_control_request.c ****             
 150:./Middlewares/ST/usbx/common/usbx_device_classes/src/ux_device_class_cdc_acm_control_request.c ****             /* Perform the data transfer.  */
 151:./Middlewares/ST/usbx/common/usbx_device_classes/src/ux_device_class_cdc_acm_control_request.c ****             _ux_device_stack_transfer_request(transfer_request, transmit_length, request_length);
 152:./Middlewares/ST/usbx/common/usbx_device_classes/src/ux_device_class_cdc_acm_control_request.c ****             break; 
 153:./Middlewares/ST/usbx/common/usbx_device_classes/src/ux_device_class_cdc_acm_control_request.c ****             
 154:./Middlewares/ST/usbx/common/usbx_device_classes/src/ux_device_class_cdc_acm_control_request.c ****         case UX_SLAVE_CLASS_CDC_ACM_SET_LINE_CODING:
 155:./Middlewares/ST/usbx/common/usbx_device_classes/src/ux_device_class_cdc_acm_control_request.c **** 
 156:./Middlewares/ST/usbx/common/usbx_device_classes/src/ux_device_class_cdc_acm_control_request.c ****             /* Get the line coding parameters from the host.  */
 157:./Middlewares/ST/usbx/common/usbx_device_classes/src/ux_device_class_cdc_acm_control_request.c ****             cdc_acm -> ux_slave_class_cdc_acm_baudrate  = _ux_utility_long_get(transfer_request -> 
 158:./Middlewares/ST/usbx/common/usbx_device_classes/src/ux_device_class_cdc_acm_control_request.c ****             cdc_acm -> ux_slave_class_cdc_acm_stop_bit  = *(transfer_request -> ux_slave_transfer_r
 159:./Middlewares/ST/usbx/common/usbx_device_classes/src/ux_device_class_cdc_acm_control_request.c ****             cdc_acm -> ux_slave_class_cdc_acm_parity    = *(transfer_request -> ux_slave_transfer_r
 160:./Middlewares/ST/usbx/common/usbx_device_classes/src/ux_device_class_cdc_acm_control_request.c ****             cdc_acm -> ux_slave_class_cdc_acm_data_bit  = *(transfer_request -> ux_slave_transfer_r
 161:./Middlewares/ST/usbx/common/usbx_device_classes/src/ux_device_class_cdc_acm_control_request.c **** 
 162:./Middlewares/ST/usbx/common/usbx_device_classes/src/ux_device_class_cdc_acm_control_request.c ****             /* If there is a parameter change function call it.  */
 163:./Middlewares/ST/usbx/common/usbx_device_classes/src/ux_device_class_cdc_acm_control_request.c ****             if (cdc_acm -> ux_slave_class_cdc_acm_parameter.ux_slave_class_cdc_acm_parameter_change
 164:./Middlewares/ST/usbx/common/usbx_device_classes/src/ux_device_class_cdc_acm_control_request.c ****             {        
 165:./Middlewares/ST/usbx/common/usbx_device_classes/src/ux_device_class_cdc_acm_control_request.c ****         
 166:./Middlewares/ST/usbx/common/usbx_device_classes/src/ux_device_class_cdc_acm_control_request.c ****                 /* Invoke the application.  */
 167:./Middlewares/ST/usbx/common/usbx_device_classes/src/ux_device_class_cdc_acm_control_request.c ****                 cdc_acm -> ux_slave_class_cdc_acm_parameter.ux_slave_class_cdc_acm_parameter_change
 168:./Middlewares/ST/usbx/common/usbx_device_classes/src/ux_device_class_cdc_acm_control_request.c ****             }
 169:./Middlewares/ST/usbx/common/usbx_device_classes/src/ux_device_class_cdc_acm_control_request.c **** 
 170:./Middlewares/ST/usbx/common/usbx_device_classes/src/ux_device_class_cdc_acm_control_request.c ****             break ;
 171:./Middlewares/ST/usbx/common/usbx_device_classes/src/ux_device_class_cdc_acm_control_request.c **** 
 172:./Middlewares/ST/usbx/common/usbx_device_classes/src/ux_device_class_cdc_acm_control_request.c ****         default:
 173:./Middlewares/ST/usbx/common/usbx_device_classes/src/ux_device_class_cdc_acm_control_request.c **** 
 174:./Middlewares/ST/usbx/common/usbx_device_classes/src/ux_device_class_cdc_acm_control_request.c ****             /* Unknown function. It's not handled.  */
 175:./Middlewares/ST/usbx/common/usbx_device_classes/src/ux_device_class_cdc_acm_control_request.c ****             return(UX_ERROR);
 176:./Middlewares/ST/usbx/common/usbx_device_classes/src/ux_device_class_cdc_acm_control_request.c ****     }
 177:./Middlewares/ST/usbx/common/usbx_device_classes/src/ux_device_class_cdc_acm_control_request.c **** 
 178:./Middlewares/ST/usbx/common/usbx_device_classes/src/ux_device_class_cdc_acm_control_request.c ****     /* It's handled.  */
 179:./Middlewares/ST/usbx/common/usbx_device_classes/src/ux_device_class_cdc_acm_control_request.c ****     return(UX_SUCCESS);
 180:./Middlewares/ST/usbx/common/usbx_device_classes/src/ux_device_class_cdc_acm_control_request.c **** }
 102              		.loc 1 180 1 is_stmt 0 view .LVU29
 103 0030 BDE8F883 		pop	{r3, r4, r5, r6, r7, r8, r9, pc}
 104              	.LVL12:
 105              	.L3:
 113:./Middlewares/ST/usbx/common/usbx_device_classes/src/ux_device_class_cdc_acm_control_request.c ****             cdc_acm -> ux_slave_class_cdc_acm_data_rts_state = 0;
ARM GAS  C:\Users\Dennis\AppData\Local\Temp\ccRIAR9S.s 			page 6


 106              		.loc 1 113 13 is_stmt 1 view .LVU30
 113:./Middlewares/ST/usbx/common/usbx_device_classes/src/ux_device_class_cdc_acm_control_request.c ****             cdc_acm -> ux_slave_class_cdc_acm_data_rts_state = 0;
 107              		.loc 1 113 62 is_stmt 0 view .LVU31
 108 0034 0023     		movs	r3, #0
 109 0036 85F87F30 		strb	r3, [r5, #127]
 114:./Middlewares/ST/usbx/common/usbx_device_classes/src/ux_device_class_cdc_acm_control_request.c **** 
 110              		.loc 1 114 13 is_stmt 1 view .LVU32
 114:./Middlewares/ST/usbx/common/usbx_device_classes/src/ux_device_class_cdc_acm_control_request.c **** 
 111              		.loc 1 114 62 is_stmt 0 view .LVU33
 112 003a 85F88030 		strb	r3, [r5, #128]
 117:./Middlewares/ST/usbx/common/usbx_device_classes/src/ux_device_class_cdc_acm_control_request.c ****                 cdc_acm -> ux_slave_class_cdc_acm_data_dtr_state = UX_TRUE;               
 113              		.loc 1 117 13 is_stmt 1 view .LVU34
 117:./Middlewares/ST/usbx/common/usbx_device_classes/src/ux_device_class_cdc_acm_control_request.c ****                 cdc_acm -> ux_slave_class_cdc_acm_data_dtr_state = UX_TRUE;               
 114              		.loc 1 117 16 is_stmt 0 view .LVU35
 115 003e 18F0010F 		tst	r8, #1
 116 0042 02D0     		beq	.L6
 118:./Middlewares/ST/usbx/common/usbx_device_classes/src/ux_device_class_cdc_acm_control_request.c **** 
 117              		.loc 1 118 17 is_stmt 1 view .LVU36
 118:./Middlewares/ST/usbx/common/usbx_device_classes/src/ux_device_class_cdc_acm_control_request.c **** 
 118              		.loc 1 118 66 is_stmt 0 view .LVU37
 119 0044 0123     		movs	r3, #1
 120 0046 85F87F30 		strb	r3, [r5, #127]
 121              	.L6:
 121:./Middlewares/ST/usbx/common/usbx_device_classes/src/ux_device_class_cdc_acm_control_request.c ****                 cdc_acm -> ux_slave_class_cdc_acm_data_rts_state = UX_TRUE;               
 122              		.loc 1 121 13 is_stmt 1 view .LVU38
 121:./Middlewares/ST/usbx/common/usbx_device_classes/src/ux_device_class_cdc_acm_control_request.c ****                 cdc_acm -> ux_slave_class_cdc_acm_data_rts_state = UX_TRUE;               
 123              		.loc 1 121 16 is_stmt 0 view .LVU39
 124 004a 18F0020F 		tst	r8, #2
 125 004e 02D0     		beq	.L7
 122:./Middlewares/ST/usbx/common/usbx_device_classes/src/ux_device_class_cdc_acm_control_request.c ****                 
 126              		.loc 1 122 17 is_stmt 1 view .LVU40
 122:./Middlewares/ST/usbx/common/usbx_device_classes/src/ux_device_class_cdc_acm_control_request.c ****                 
 127              		.loc 1 122 66 is_stmt 0 view .LVU41
 128 0050 0123     		movs	r3, #1
 129 0052 85F88030 		strb	r3, [r5, #128]
 130              	.L7:
 125:./Middlewares/ST/usbx/common/usbx_device_classes/src/ux_device_class_cdc_acm_control_request.c ****             {        
 131              		.loc 1 125 13 is_stmt 1 view .LVU42
 125:./Middlewares/ST/usbx/common/usbx_device_classes/src/ux_device_class_cdc_acm_control_request.c ****             {        
 132              		.loc 1 125 60 is_stmt 0 view .LVU43
 133 0056 EB68     		ldr	r3, [r5, #12]
 125:./Middlewares/ST/usbx/common/usbx_device_classes/src/ux_device_class_cdc_acm_control_request.c ****             {        
 134              		.loc 1 125 16 view .LVU44
 135 0058 002B     		cmp	r3, #0
 136 005a 43D0     		beq	.L9
 129:./Middlewares/ST/usbx/common/usbx_device_classes/src/ux_device_class_cdc_acm_control_request.c ****             }
 137              		.loc 1 129 17 is_stmt 1 view .LVU45
 138 005c 2846     		mov	r0, r5
 139              	.LVL13:
 129:./Middlewares/ST/usbx/common/usbx_device_classes/src/ux_device_class_cdc_acm_control_request.c ****             }
 140              		.loc 1 129 17 is_stmt 0 view .LVU46
 141 005e 9847     		blx	r3
 142              	.LVL14:
 179:./Middlewares/ST/usbx/common/usbx_device_classes/src/ux_device_class_cdc_acm_control_request.c **** }
 143              		.loc 1 179 11 view .LVU47
 144 0060 0020     		movs	r0, #0
 145 0062 E5E7     		b	.L1
ARM GAS  C:\Users\Dennis\AppData\Local\Temp\ccRIAR9S.s 			page 7


 146              	.LVL15:
 147              	.L2:
 179:./Middlewares/ST/usbx/common/usbx_device_classes/src/ux_device_class_cdc_acm_control_request.c **** }
 148              		.loc 1 179 11 view .LVU48
 149 0064 04F18C09 		add	r9, r4, #140
 150 0068 0746     		mov	r7, r0
 137:./Middlewares/ST/usbx/common/usbx_device_classes/src/ux_device_class_cdc_acm_control_request.c ****                 transmit_length = UX_SLAVE_CLASS_CDC_ACM_LINE_CODING_RESPONSE_SIZE;
 151              		.loc 1 137 13 is_stmt 1 view .LVU49
 137:./Middlewares/ST/usbx/common/usbx_device_classes/src/ux_device_class_cdc_acm_control_request.c ****                 transmit_length = UX_SLAVE_CLASS_CDC_ACM_LINE_CODING_RESPONSE_SIZE;
 152              		.loc 1 137 16 is_stmt 0 view .LVU50
 153 006a 0728     		cmp	r0, #7
 154 006c 1ED8     		bhi	.L10
 104:./Middlewares/ST/usbx/common/usbx_device_classes/src/ux_device_class_cdc_acm_control_request.c ****     
 155              		.loc 1 104 21 view .LVU51
 156 006e 0646     		mov	r6, r0
 157              	.LVL16:
 158              	.L8:
 141:./Middlewares/ST/usbx/common/usbx_device_classes/src/ux_device_class_cdc_acm_control_request.c ****                                     cdc_acm -> ux_slave_class_cdc_acm_baudrate);
 159              		.loc 1 141 13 is_stmt 1 view .LVU52
 160 0070 A96F     		ldr	r1, [r5, #120]
 161 0072 D4F89800 		ldr	r0, [r4, #152]
 162              	.LVL17:
 141:./Middlewares/ST/usbx/common/usbx_device_classes/src/ux_device_class_cdc_acm_control_request.c ****                                     cdc_acm -> ux_slave_class_cdc_acm_baudrate);
 163              		.loc 1 141 13 is_stmt 0 view .LVU53
 164 0076 FFF7FEFF 		bl	_ux_utility_long_put
 165              	.LVL18:
 143:./Middlewares/ST/usbx/common/usbx_device_classes/src/ux_device_class_cdc_acm_control_request.c ****             *(transfer_request -> ux_slave_transfer_request_data_pointer + UX_SLAVE_CLASS_CDC_ACM_L
 166              		.loc 1 143 13 is_stmt 1 view .LVU54
 143:./Middlewares/ST/usbx/common/usbx_device_classes/src/ux_device_class_cdc_acm_control_request.c ****             *(transfer_request -> ux_slave_transfer_request_data_pointer + UX_SLAVE_CLASS_CDC_ACM_L
 167              		.loc 1 143 32 is_stmt 0 view .LVU55
 168 007a D4F89830 		ldr	r3, [r4, #152]
 143:./Middlewares/ST/usbx/common/usbx_device_classes/src/ux_device_class_cdc_acm_control_request.c ****             *(transfer_request -> ux_slave_transfer_request_data_pointer + UX_SLAVE_CLASS_CDC_ACM_L
 169              		.loc 1 143 138 view .LVU56
 170 007e 95F87C20 		ldrb	r2, [r5, #124]	@ zero_extendqisi2
 143:./Middlewares/ST/usbx/common/usbx_device_classes/src/ux_device_class_cdc_acm_control_request.c ****             *(transfer_request -> ux_slave_transfer_request_data_pointer + UX_SLAVE_CLASS_CDC_ACM_L
 171              		.loc 1 143 128 view .LVU57
 172 0082 1A71     		strb	r2, [r3, #4]
 144:./Middlewares/ST/usbx/common/usbx_device_classes/src/ux_device_class_cdc_acm_control_request.c ****             *(transfer_request -> ux_slave_transfer_request_data_pointer + UX_SLAVE_CLASS_CDC_ACM_L
 173              		.loc 1 144 13 is_stmt 1 view .LVU58
 144:./Middlewares/ST/usbx/common/usbx_device_classes/src/ux_device_class_cdc_acm_control_request.c ****             *(transfer_request -> ux_slave_transfer_request_data_pointer + UX_SLAVE_CLASS_CDC_ACM_L
 174              		.loc 1 144 32 is_stmt 0 view .LVU59
 175 0084 D4F89830 		ldr	r3, [r4, #152]
 144:./Middlewares/ST/usbx/common/usbx_device_classes/src/ux_device_class_cdc_acm_control_request.c ****             *(transfer_request -> ux_slave_transfer_request_data_pointer + UX_SLAVE_CLASS_CDC_ACM_L
 176              		.loc 1 144 138 view .LVU60
 177 0088 95F87D20 		ldrb	r2, [r5, #125]	@ zero_extendqisi2
 144:./Middlewares/ST/usbx/common/usbx_device_classes/src/ux_device_class_cdc_acm_control_request.c ****             *(transfer_request -> ux_slave_transfer_request_data_pointer + UX_SLAVE_CLASS_CDC_ACM_L
 178              		.loc 1 144 128 view .LVU61
 179 008c 5A71     		strb	r2, [r3, #5]
 145:./Middlewares/ST/usbx/common/usbx_device_classes/src/ux_device_class_cdc_acm_control_request.c **** 
 180              		.loc 1 145 13 is_stmt 1 view .LVU62
 145:./Middlewares/ST/usbx/common/usbx_device_classes/src/ux_device_class_cdc_acm_control_request.c **** 
 181              		.loc 1 145 32 is_stmt 0 view .LVU63
 182 008e D4F89830 		ldr	r3, [r4, #152]
 145:./Middlewares/ST/usbx/common/usbx_device_classes/src/ux_device_class_cdc_acm_control_request.c **** 
 183              		.loc 1 145 138 view .LVU64
 184 0092 95F87E20 		ldrb	r2, [r5, #126]	@ zero_extendqisi2
 145:./Middlewares/ST/usbx/common/usbx_device_classes/src/ux_device_class_cdc_acm_control_request.c **** 
ARM GAS  C:\Users\Dennis\AppData\Local\Temp\ccRIAR9S.s 			page 8


 185              		.loc 1 145 128 view .LVU65
 186 0096 9A71     		strb	r2, [r3, #6]
 148:./Middlewares/ST/usbx/common/usbx_device_classes/src/ux_device_class_cdc_acm_control_request.c ****             
 187              		.loc 1 148 13 is_stmt 1 view .LVU66
 148:./Middlewares/ST/usbx/common/usbx_device_classes/src/ux_device_class_cdc_acm_control_request.c ****             
 188              		.loc 1 148 65 is_stmt 0 view .LVU67
 189 0098 0323     		movs	r3, #3
 190 009a C4F8B430 		str	r3, [r4, #180]
 151:./Middlewares/ST/usbx/common/usbx_device_classes/src/ux_device_class_cdc_acm_control_request.c ****             break; 
 191              		.loc 1 151 13 is_stmt 1 view .LVU68
 192 009e 3A46     		mov	r2, r7
 193 00a0 3146     		mov	r1, r6
 194 00a2 4846     		mov	r0, r9
 195 00a4 FFF7FEFF 		bl	_ux_device_stack_transfer_request
 196              	.LVL19:
 152:./Middlewares/ST/usbx/common/usbx_device_classes/src/ux_device_class_cdc_acm_control_request.c ****             
 197              		.loc 1 152 13 view .LVU69
 179:./Middlewares/ST/usbx/common/usbx_device_classes/src/ux_device_class_cdc_acm_control_request.c **** }
 198              		.loc 1 179 11 is_stmt 0 view .LVU70
 199 00a8 0020     		movs	r0, #0
 152:./Middlewares/ST/usbx/common/usbx_device_classes/src/ux_device_class_cdc_acm_control_request.c ****             
 200              		.loc 1 152 13 view .LVU71
 201 00aa C1E7     		b	.L1
 202              	.LVL20:
 203              	.L10:
 138:./Middlewares/ST/usbx/common/usbx_device_classes/src/ux_device_class_cdc_acm_control_request.c ****     
 204              		.loc 1 138 33 view .LVU72
 205 00ac 0726     		movs	r6, #7
 206              	.LVL21:
 138:./Middlewares/ST/usbx/common/usbx_device_classes/src/ux_device_class_cdc_acm_control_request.c ****     
 207              		.loc 1 138 33 view .LVU73
 208 00ae DFE7     		b	.L8
 209              	.LVL22:
 210              	.L4:
 157:./Middlewares/ST/usbx/common/usbx_device_classes/src/ux_device_class_cdc_acm_control_request.c ****             cdc_acm -> ux_slave_class_cdc_acm_stop_bit  = *(transfer_request -> ux_slave_transfer_r
 211              		.loc 1 157 13 is_stmt 1 view .LVU74
 157:./Middlewares/ST/usbx/common/usbx_device_classes/src/ux_device_class_cdc_acm_control_request.c ****             cdc_acm -> ux_slave_class_cdc_acm_stop_bit  = *(transfer_request -> ux_slave_transfer_r
 212              		.loc 1 157 59 is_stmt 0 view .LVU75
 213 00b0 D4F89800 		ldr	r0, [r4, #152]
 214              	.LVL23:
 157:./Middlewares/ST/usbx/common/usbx_device_classes/src/ux_device_class_cdc_acm_control_request.c ****             cdc_acm -> ux_slave_class_cdc_acm_stop_bit  = *(transfer_request -> ux_slave_transfer_r
 215              		.loc 1 157 59 view .LVU76
 216 00b4 FFF7FEFF 		bl	_ux_utility_long_get
 217              	.LVL24:
 157:./Middlewares/ST/usbx/common/usbx_device_classes/src/ux_device_class_cdc_acm_control_request.c ****             cdc_acm -> ux_slave_class_cdc_acm_stop_bit  = *(transfer_request -> ux_slave_transfer_r
 218              		.loc 1 157 57 view .LVU77
 219 00b8 A867     		str	r0, [r5, #120]
 158:./Middlewares/ST/usbx/common/usbx_device_classes/src/ux_device_class_cdc_acm_control_request.c ****             cdc_acm -> ux_slave_class_cdc_acm_parity    = *(transfer_request -> ux_slave_transfer_r
 220              		.loc 1 158 13 is_stmt 1 view .LVU78
 158:./Middlewares/ST/usbx/common/usbx_device_classes/src/ux_device_class_cdc_acm_control_request.c ****             cdc_acm -> ux_slave_class_cdc_acm_parity    = *(transfer_request -> ux_slave_transfer_r
 221              		.loc 1 158 78 is_stmt 0 view .LVU79
 222 00ba D4F89830 		ldr	r3, [r4, #152]
 158:./Middlewares/ST/usbx/common/usbx_device_classes/src/ux_device_class_cdc_acm_control_request.c ****             cdc_acm -> ux_slave_class_cdc_acm_parity    = *(transfer_request -> ux_slave_transfer_r
 223              		.loc 1 158 57 view .LVU80
 224 00be 1B79     		ldrb	r3, [r3, #4]	@ zero_extendqisi2
 225 00c0 85F87C30 		strb	r3, [r5, #124]
 159:./Middlewares/ST/usbx/common/usbx_device_classes/src/ux_device_class_cdc_acm_control_request.c ****             cdc_acm -> ux_slave_class_cdc_acm_data_bit  = *(transfer_request -> ux_slave_transfer_r
ARM GAS  C:\Users\Dennis\AppData\Local\Temp\ccRIAR9S.s 			page 9


 226              		.loc 1 159 13 is_stmt 1 view .LVU81
 159:./Middlewares/ST/usbx/common/usbx_device_classes/src/ux_device_class_cdc_acm_control_request.c ****             cdc_acm -> ux_slave_class_cdc_acm_data_bit  = *(transfer_request -> ux_slave_transfer_r
 227              		.loc 1 159 78 is_stmt 0 view .LVU82
 228 00c4 D4F89830 		ldr	r3, [r4, #152]
 159:./Middlewares/ST/usbx/common/usbx_device_classes/src/ux_device_class_cdc_acm_control_request.c ****             cdc_acm -> ux_slave_class_cdc_acm_data_bit  = *(transfer_request -> ux_slave_transfer_r
 229              		.loc 1 159 57 view .LVU83
 230 00c8 5B79     		ldrb	r3, [r3, #5]	@ zero_extendqisi2
 231 00ca 85F87D30 		strb	r3, [r5, #125]
 160:./Middlewares/ST/usbx/common/usbx_device_classes/src/ux_device_class_cdc_acm_control_request.c **** 
 232              		.loc 1 160 13 is_stmt 1 view .LVU84
 160:./Middlewares/ST/usbx/common/usbx_device_classes/src/ux_device_class_cdc_acm_control_request.c **** 
 233              		.loc 1 160 78 is_stmt 0 view .LVU85
 234 00ce D4F89830 		ldr	r3, [r4, #152]
 160:./Middlewares/ST/usbx/common/usbx_device_classes/src/ux_device_class_cdc_acm_control_request.c **** 
 235              		.loc 1 160 57 view .LVU86
 236 00d2 9B79     		ldrb	r3, [r3, #6]	@ zero_extendqisi2
 237 00d4 85F87E30 		strb	r3, [r5, #126]
 163:./Middlewares/ST/usbx/common/usbx_device_classes/src/ux_device_class_cdc_acm_control_request.c ****             {        
 238              		.loc 1 163 13 is_stmt 1 view .LVU87
 163:./Middlewares/ST/usbx/common/usbx_device_classes/src/ux_device_class_cdc_acm_control_request.c ****             {        
 239              		.loc 1 163 60 is_stmt 0 view .LVU88
 240 00d8 EB68     		ldr	r3, [r5, #12]
 163:./Middlewares/ST/usbx/common/usbx_device_classes/src/ux_device_class_cdc_acm_control_request.c ****             {        
 241              		.loc 1 163 16 view .LVU89
 242 00da 2BB1     		cbz	r3, .L11
 167:./Middlewares/ST/usbx/common/usbx_device_classes/src/ux_device_class_cdc_acm_control_request.c ****             }
 243              		.loc 1 167 17 is_stmt 1 view .LVU90
 244 00dc 2846     		mov	r0, r5
 245 00de 9847     		blx	r3
 246              	.LVL25:
 179:./Middlewares/ST/usbx/common/usbx_device_classes/src/ux_device_class_cdc_acm_control_request.c **** }
 247              		.loc 1 179 11 is_stmt 0 view .LVU91
 248 00e0 0020     		movs	r0, #0
 249 00e2 A5E7     		b	.L1
 250              	.LVL26:
 251              	.L9:
 179:./Middlewares/ST/usbx/common/usbx_device_classes/src/ux_device_class_cdc_acm_control_request.c **** }
 252              		.loc 1 179 11 view .LVU92
 253 00e4 0020     		movs	r0, #0
 254              	.LVL27:
 179:./Middlewares/ST/usbx/common/usbx_device_classes/src/ux_device_class_cdc_acm_control_request.c **** }
 255              		.loc 1 179 11 view .LVU93
 256 00e6 A3E7     		b	.L1
 257              	.L11:
 179:./Middlewares/ST/usbx/common/usbx_device_classes/src/ux_device_class_cdc_acm_control_request.c **** }
 258              		.loc 1 179 11 view .LVU94
 259 00e8 0020     		movs	r0, #0
 260 00ea A1E7     		b	.L1
 261              	.L14:
 262              		.align	2
 263              	.L13:
 264 00ec 00000000 		.word	_ux_system_slave
 265              		.cfi_endproc
 266              	.LFE11:
 268              		.text
 269              	.Letext0:
 270              		.file 2 "./Middlewares/ST/threadx/ports/cortex_m4/gnu/inc/tx_port.h"
ARM GAS  C:\Users\Dennis\AppData\Local\Temp\ccRIAR9S.s 			page 10


 271              		.file 3 "./Middlewares/ST/threadx/common/inc/tx_api.h"
 272              		.file 4 "./Middlewares/ST/usbx/common/core/inc/ux_api.h"
 273              		.file 5 "./Middlewares/ST/usbx/common/usbx_device_classes/inc/ux_device_class_cdc_acm.h"
 274              		.file 6 "./Middlewares/ST/usbx/common/core/inc/ux_system.h"
 275              		.file 7 "./Middlewares/ST/usbx/common/core/inc/ux_utility.h"
 276              		.file 8 "./Middlewares/ST/usbx/common/core/inc/ux_device_stack.h"
ARM GAS  C:\Users\Dennis\AppData\Local\Temp\ccRIAR9S.s 			page 11

