ARM GAS  C:\Users\Dennis\AppData\Local\Temp\cczG0r8x.s 			page 1


   1              		.cpu cortex-m4
   2              		.arch armv7e-m
   3              		.fpu fpv4-sp-d16
   4              		.eabi_attribute 27, 1
   5              		.eabi_attribute 28, 1
   6              		.eabi_attribute 20, 1
   7              		.eabi_attribute 21, 1
   8              		.eabi_attribute 23, 3
   9              		.eabi_attribute 24, 1
  10              		.eabi_attribute 25, 1
  11              		.eabi_attribute 26, 1
  12              		.eabi_attribute 30, 1
  13              		.eabi_attribute 34, 1
  14              		.eabi_attribute 18, 4
  15              		.file	"ux_dcd_stm32_initialize.c"
  16              		.text
  17              	.Ltext0:
  18              		.cfi_sections	.debug_frame
  19              		.section	.text._ux_dcd_stm32_initialize,"ax",%progbits
  20              		.align	1
  21              		.global	_ux_dcd_stm32_initialize
  22              		.syntax unified
  23              		.thumb
  24              		.thumb_func
  26              	_ux_dcd_stm32_initialize:
  27              	.LVL0:
  28              	.LFB251:
  29              		.file 1 "./Middlewares/ST/usbx/common/usbx_stm32_device_controllers/ux_dcd_stm32_initialize.c"
   1:./Middlewares/ST/usbx/common/usbx_stm32_device_controllers/ux_dcd_stm32_initialize.c **** /**************************************************************************/
   2:./Middlewares/ST/usbx/common/usbx_stm32_device_controllers/ux_dcd_stm32_initialize.c **** /*                                                                        */
   3:./Middlewares/ST/usbx/common/usbx_stm32_device_controllers/ux_dcd_stm32_initialize.c **** /*       Copyright (c) Microsoft Corporation. All rights reserved.        */
   4:./Middlewares/ST/usbx/common/usbx_stm32_device_controllers/ux_dcd_stm32_initialize.c **** /*                                                                        */
   5:./Middlewares/ST/usbx/common/usbx_stm32_device_controllers/ux_dcd_stm32_initialize.c **** /*       This software is licensed under the Microsoft Software License   */
   6:./Middlewares/ST/usbx/common/usbx_stm32_device_controllers/ux_dcd_stm32_initialize.c **** /*       Terms for Microsoft Azure RTOS. Full text of the license can be  */
   7:./Middlewares/ST/usbx/common/usbx_stm32_device_controllers/ux_dcd_stm32_initialize.c **** /*       found in the LICENSE file at https://aka.ms/AzureRTOS_EULA       */
   8:./Middlewares/ST/usbx/common/usbx_stm32_device_controllers/ux_dcd_stm32_initialize.c **** /*       and in the root directory of this software.                      */
   9:./Middlewares/ST/usbx/common/usbx_stm32_device_controllers/ux_dcd_stm32_initialize.c **** /*                                                                        */
  10:./Middlewares/ST/usbx/common/usbx_stm32_device_controllers/ux_dcd_stm32_initialize.c **** /**************************************************************************/
  11:./Middlewares/ST/usbx/common/usbx_stm32_device_controllers/ux_dcd_stm32_initialize.c **** 
  12:./Middlewares/ST/usbx/common/usbx_stm32_device_controllers/ux_dcd_stm32_initialize.c **** 
  13:./Middlewares/ST/usbx/common/usbx_stm32_device_controllers/ux_dcd_stm32_initialize.c **** /**************************************************************************/
  14:./Middlewares/ST/usbx/common/usbx_stm32_device_controllers/ux_dcd_stm32_initialize.c **** /**************************************************************************/
  15:./Middlewares/ST/usbx/common/usbx_stm32_device_controllers/ux_dcd_stm32_initialize.c **** /**                                                                       */
  16:./Middlewares/ST/usbx/common/usbx_stm32_device_controllers/ux_dcd_stm32_initialize.c **** /** USBX Component                                                        */
  17:./Middlewares/ST/usbx/common/usbx_stm32_device_controllers/ux_dcd_stm32_initialize.c **** /**                                                                       */
  18:./Middlewares/ST/usbx/common/usbx_stm32_device_controllers/ux_dcd_stm32_initialize.c **** /**   STM32 Controller Driver                                             */
  19:./Middlewares/ST/usbx/common/usbx_stm32_device_controllers/ux_dcd_stm32_initialize.c **** /**                                                                       */
  20:./Middlewares/ST/usbx/common/usbx_stm32_device_controllers/ux_dcd_stm32_initialize.c **** /**************************************************************************/
  21:./Middlewares/ST/usbx/common/usbx_stm32_device_controllers/ux_dcd_stm32_initialize.c **** /**************************************************************************/
  22:./Middlewares/ST/usbx/common/usbx_stm32_device_controllers/ux_dcd_stm32_initialize.c **** 
  23:./Middlewares/ST/usbx/common/usbx_stm32_device_controllers/ux_dcd_stm32_initialize.c **** #define UX_SOURCE_CODE
  24:./Middlewares/ST/usbx/common/usbx_stm32_device_controllers/ux_dcd_stm32_initialize.c **** #define UX_DCD_STM32_SOURCE_CODE
  25:./Middlewares/ST/usbx/common/usbx_stm32_device_controllers/ux_dcd_stm32_initialize.c **** 
  26:./Middlewares/ST/usbx/common/usbx_stm32_device_controllers/ux_dcd_stm32_initialize.c **** 
  27:./Middlewares/ST/usbx/common/usbx_stm32_device_controllers/ux_dcd_stm32_initialize.c **** /* Include necessary system files.  */
  28:./Middlewares/ST/usbx/common/usbx_stm32_device_controllers/ux_dcd_stm32_initialize.c **** 
  29:./Middlewares/ST/usbx/common/usbx_stm32_device_controllers/ux_dcd_stm32_initialize.c **** #include "ux_api.h"
ARM GAS  C:\Users\Dennis\AppData\Local\Temp\cczG0r8x.s 			page 2


  30:./Middlewares/ST/usbx/common/usbx_stm32_device_controllers/ux_dcd_stm32_initialize.c **** #include "ux_dcd_stm32.h"
  31:./Middlewares/ST/usbx/common/usbx_stm32_device_controllers/ux_dcd_stm32_initialize.c **** #include "ux_device_stack.h"
  32:./Middlewares/ST/usbx/common/usbx_stm32_device_controllers/ux_dcd_stm32_initialize.c **** 
  33:./Middlewares/ST/usbx/common/usbx_stm32_device_controllers/ux_dcd_stm32_initialize.c **** 
  34:./Middlewares/ST/usbx/common/usbx_stm32_device_controllers/ux_dcd_stm32_initialize.c **** /**************************************************************************/
  35:./Middlewares/ST/usbx/common/usbx_stm32_device_controllers/ux_dcd_stm32_initialize.c **** /*                                                                        */
  36:./Middlewares/ST/usbx/common/usbx_stm32_device_controllers/ux_dcd_stm32_initialize.c **** /*  FUNCTION                                               RELEASE        */
  37:./Middlewares/ST/usbx/common/usbx_stm32_device_controllers/ux_dcd_stm32_initialize.c **** /*                                                                        */
  38:./Middlewares/ST/usbx/common/usbx_stm32_device_controllers/ux_dcd_stm32_initialize.c **** /*    _ux_dcd_stm32_initialize                            PORTABLE C      */
  39:./Middlewares/ST/usbx/common/usbx_stm32_device_controllers/ux_dcd_stm32_initialize.c **** /*                                                           6.1          */
  40:./Middlewares/ST/usbx/common/usbx_stm32_device_controllers/ux_dcd_stm32_initialize.c **** /*  AUTHOR                                                                */
  41:./Middlewares/ST/usbx/common/usbx_stm32_device_controllers/ux_dcd_stm32_initialize.c **** /*                                                                        */
  42:./Middlewares/ST/usbx/common/usbx_stm32_device_controllers/ux_dcd_stm32_initialize.c **** /*    Chaoqiong Xiao, Microsoft Corporation                               */
  43:./Middlewares/ST/usbx/common/usbx_stm32_device_controllers/ux_dcd_stm32_initialize.c **** /*                                                                        */
  44:./Middlewares/ST/usbx/common/usbx_stm32_device_controllers/ux_dcd_stm32_initialize.c **** /*  DESCRIPTION                                                           */
  45:./Middlewares/ST/usbx/common/usbx_stm32_device_controllers/ux_dcd_stm32_initialize.c **** /*                                                                        */
  46:./Middlewares/ST/usbx/common/usbx_stm32_device_controllers/ux_dcd_stm32_initialize.c **** /*    This function initializes the USB device controller of the STM32    */
  47:./Middlewares/ST/usbx/common/usbx_stm32_device_controllers/ux_dcd_stm32_initialize.c **** /*    microcontroller from ST.                                            */
  48:./Middlewares/ST/usbx/common/usbx_stm32_device_controllers/ux_dcd_stm32_initialize.c **** /*                                                                        */
  49:./Middlewares/ST/usbx/common/usbx_stm32_device_controllers/ux_dcd_stm32_initialize.c **** /*    Note: only software structures that are necessary for STM32 HAL to  */
  50:./Middlewares/ST/usbx/common/usbx_stm32_device_controllers/ux_dcd_stm32_initialize.c **** /*    work is initialized, STM32 HAL APIs should be used to initialize    */
  51:./Middlewares/ST/usbx/common/usbx_stm32_device_controllers/ux_dcd_stm32_initialize.c **** /*    controller hardware AFTER the function is invoked.                  */
  52:./Middlewares/ST/usbx/common/usbx_stm32_device_controllers/ux_dcd_stm32_initialize.c **** /*                                                                        */
  53:./Middlewares/ST/usbx/common/usbx_stm32_device_controllers/ux_dcd_stm32_initialize.c **** /*  INPUT                                                                 */
  54:./Middlewares/ST/usbx/common/usbx_stm32_device_controllers/ux_dcd_stm32_initialize.c **** /*                                                                        */
  55:./Middlewares/ST/usbx/common/usbx_stm32_device_controllers/ux_dcd_stm32_initialize.c **** /*    dcd_io                                Address of DCD, not used      */
  56:./Middlewares/ST/usbx/common/usbx_stm32_device_controllers/ux_dcd_stm32_initialize.c **** /*    parameter                             Parameter, STM32 HAL PCD      */
  57:./Middlewares/ST/usbx/common/usbx_stm32_device_controllers/ux_dcd_stm32_initialize.c **** /*                                            pointer is expected         */
  58:./Middlewares/ST/usbx/common/usbx_stm32_device_controllers/ux_dcd_stm32_initialize.c **** /*                                                                        */
  59:./Middlewares/ST/usbx/common/usbx_stm32_device_controllers/ux_dcd_stm32_initialize.c **** /*  OUTPUT                                                                */
  60:./Middlewares/ST/usbx/common/usbx_stm32_device_controllers/ux_dcd_stm32_initialize.c **** /*                                                                        */
  61:./Middlewares/ST/usbx/common/usbx_stm32_device_controllers/ux_dcd_stm32_initialize.c **** /*    Completion Status                                                   */
  62:./Middlewares/ST/usbx/common/usbx_stm32_device_controllers/ux_dcd_stm32_initialize.c **** /*                                                                        */
  63:./Middlewares/ST/usbx/common/usbx_stm32_device_controllers/ux_dcd_stm32_initialize.c **** /*  CALLS                                                                 */
  64:./Middlewares/ST/usbx/common/usbx_stm32_device_controllers/ux_dcd_stm32_initialize.c **** /*                                                                        */
  65:./Middlewares/ST/usbx/common/usbx_stm32_device_controllers/ux_dcd_stm32_initialize.c **** /*    HAL_PCD_Init                          Initialize LL driver          */
  66:./Middlewares/ST/usbx/common/usbx_stm32_device_controllers/ux_dcd_stm32_initialize.c **** /*    _ux_utility_memory_allocate           Allocate memory               */
  67:./Middlewares/ST/usbx/common/usbx_stm32_device_controllers/ux_dcd_stm32_initialize.c **** /*                                                                        */
  68:./Middlewares/ST/usbx/common/usbx_stm32_device_controllers/ux_dcd_stm32_initialize.c **** /*  CALLED BY                                                             */
  69:./Middlewares/ST/usbx/common/usbx_stm32_device_controllers/ux_dcd_stm32_initialize.c **** /*                                                                        */
  70:./Middlewares/ST/usbx/common/usbx_stm32_device_controllers/ux_dcd_stm32_initialize.c **** /*    USBX Device Stack                                                   */
  71:./Middlewares/ST/usbx/common/usbx_stm32_device_controllers/ux_dcd_stm32_initialize.c **** /*                                                                        */
  72:./Middlewares/ST/usbx/common/usbx_stm32_device_controllers/ux_dcd_stm32_initialize.c **** /*  RELEASE HISTORY                                                       */
  73:./Middlewares/ST/usbx/common/usbx_stm32_device_controllers/ux_dcd_stm32_initialize.c **** /*                                                                        */
  74:./Middlewares/ST/usbx/common/usbx_stm32_device_controllers/ux_dcd_stm32_initialize.c **** /*    DATE              NAME                      DESCRIPTION             */
  75:./Middlewares/ST/usbx/common/usbx_stm32_device_controllers/ux_dcd_stm32_initialize.c **** /*                                                                        */
  76:./Middlewares/ST/usbx/common/usbx_stm32_device_controllers/ux_dcd_stm32_initialize.c **** /*  05-19-2020     Chaoqiong Xiao           Initial Version 6.0           */
  77:./Middlewares/ST/usbx/common/usbx_stm32_device_controllers/ux_dcd_stm32_initialize.c **** /*  09-30-2020     Chaoqiong Xiao           Modified comment(s), used ST  */
  78:./Middlewares/ST/usbx/common/usbx_stm32_device_controllers/ux_dcd_stm32_initialize.c **** /*                                            HAL library to drive the    */
  79:./Middlewares/ST/usbx/common/usbx_stm32_device_controllers/ux_dcd_stm32_initialize.c **** /*                                            controller,                 */
  80:./Middlewares/ST/usbx/common/usbx_stm32_device_controllers/ux_dcd_stm32_initialize.c **** /*                                            resulting in version 6.1    */
  81:./Middlewares/ST/usbx/common/usbx_stm32_device_controllers/ux_dcd_stm32_initialize.c **** /*                                                                        */
  82:./Middlewares/ST/usbx/common/usbx_stm32_device_controllers/ux_dcd_stm32_initialize.c **** /**************************************************************************/
  83:./Middlewares/ST/usbx/common/usbx_stm32_device_controllers/ux_dcd_stm32_initialize.c **** UINT  _ux_dcd_stm32_initialize(ULONG dcd_io, ULONG parameter)
  84:./Middlewares/ST/usbx/common/usbx_stm32_device_controllers/ux_dcd_stm32_initialize.c **** {
  30              		.loc 1 84 1 view -0
  31              		.cfi_startproc
ARM GAS  C:\Users\Dennis\AppData\Local\Temp\cczG0r8x.s 			page 3


  32              		@ args = 0, pretend = 0, frame = 0
  33              		@ frame_needed = 0, uses_anonymous_args = 0
  34              		.loc 1 84 1 is_stmt 0 view .LVU1
  35 0000 38B5     		push	{r3, r4, r5, lr}
  36              	.LCFI0:
  37              		.cfi_def_cfa_offset 16
  38              		.cfi_offset 3, -16
  39              		.cfi_offset 4, -12
  40              		.cfi_offset 5, -8
  41              		.cfi_offset 14, -4
  42 0002 0D46     		mov	r5, r1
  85:./Middlewares/ST/usbx/common/usbx_stm32_device_controllers/ux_dcd_stm32_initialize.c **** 
  86:./Middlewares/ST/usbx/common/usbx_stm32_device_controllers/ux_dcd_stm32_initialize.c **** UX_SLAVE_DCD            *dcd;
  43              		.loc 1 86 1 is_stmt 1 view .LVU2
  87:./Middlewares/ST/usbx/common/usbx_stm32_device_controllers/ux_dcd_stm32_initialize.c **** UX_DCD_STM32            *dcd_stm32;
  44              		.loc 1 87 1 view .LVU3
  88:./Middlewares/ST/usbx/common/usbx_stm32_device_controllers/ux_dcd_stm32_initialize.c **** 
  89:./Middlewares/ST/usbx/common/usbx_stm32_device_controllers/ux_dcd_stm32_initialize.c **** 
  90:./Middlewares/ST/usbx/common/usbx_stm32_device_controllers/ux_dcd_stm32_initialize.c ****     UX_PARAMETER_NOT_USED(dcd_io);
  45              		.loc 1 90 5 view .LVU4
  91:./Middlewares/ST/usbx/common/usbx_stm32_device_controllers/ux_dcd_stm32_initialize.c **** 
  92:./Middlewares/ST/usbx/common/usbx_stm32_device_controllers/ux_dcd_stm32_initialize.c ****     /* Get the pointer to the DCD.  */
  93:./Middlewares/ST/usbx/common/usbx_stm32_device_controllers/ux_dcd_stm32_initialize.c ****     dcd =  &_ux_system_slave -> ux_system_slave_dcd;
  46              		.loc 1 93 5 view .LVU5
  47              		.loc 1 93 30 is_stmt 0 view .LVU6
  48 0004 0A4B     		ldr	r3, .L5
  49 0006 1C68     		ldr	r4, [r3]
  50              	.LVL1:
  94:./Middlewares/ST/usbx/common/usbx_stm32_device_controllers/ux_dcd_stm32_initialize.c **** 
  95:./Middlewares/ST/usbx/common/usbx_stm32_device_controllers/ux_dcd_stm32_initialize.c ****     /* The controller initialized here is of STM32 type.  */
  96:./Middlewares/ST/usbx/common/usbx_stm32_device_controllers/ux_dcd_stm32_initialize.c ****     dcd -> ux_slave_dcd_controller_type =  UX_DCD_STM32_SLAVE_CONTROLLER;
  51              		.loc 1 96 5 is_stmt 1 view .LVU7
  52              		.loc 1 96 41 is_stmt 0 view .LVU8
  53 0008 8023     		movs	r3, #128
  54 000a 6360     		str	r3, [r4, #4]
  97:./Middlewares/ST/usbx/common/usbx_stm32_device_controllers/ux_dcd_stm32_initialize.c **** 
  98:./Middlewares/ST/usbx/common/usbx_stm32_device_controllers/ux_dcd_stm32_initialize.c ****     /* Allocate memory for this STM32 DCD instance.  */
  99:./Middlewares/ST/usbx/common/usbx_stm32_device_controllers/ux_dcd_stm32_initialize.c ****     dcd_stm32 =  _ux_utility_memory_allocate(UX_NO_ALIGN, UX_REGULAR_MEMORY, sizeof(UX_DCD_STM32));
  55              		.loc 1 99 5 is_stmt 1 view .LVU9
  56              		.loc 1 99 18 is_stmt 0 view .LVU10
  57 000c 5022     		movs	r2, #80
  58 000e 0021     		movs	r1, #0
  59              	.LVL2:
  60              		.loc 1 99 18 view .LVU11
  61 0010 0846     		mov	r0, r1
  62              	.LVL3:
  63              		.loc 1 99 18 view .LVU12
  64 0012 FFF7FEFF 		bl	_ux_utility_memory_allocate
  65              	.LVL4:
 100:./Middlewares/ST/usbx/common/usbx_stm32_device_controllers/ux_dcd_stm32_initialize.c **** 
 101:./Middlewares/ST/usbx/common/usbx_stm32_device_controllers/ux_dcd_stm32_initialize.c ****     /* Check if memory was properly allocated.  */
 102:./Middlewares/ST/usbx/common/usbx_stm32_device_controllers/ux_dcd_stm32_initialize.c ****     if(dcd_stm32 == UX_NULL)
  66              		.loc 1 102 5 is_stmt 1 view .LVU13
  67              		.loc 1 102 7 is_stmt 0 view .LVU14
  68 0016 40B1     		cbz	r0, .L3
 103:./Middlewares/ST/usbx/common/usbx_stm32_device_controllers/ux_dcd_stm32_initialize.c ****         return(UX_MEMORY_INSUFFICIENT);
 104:./Middlewares/ST/usbx/common/usbx_stm32_device_controllers/ux_dcd_stm32_initialize.c **** 
ARM GAS  C:\Users\Dennis\AppData\Local\Temp\cczG0r8x.s 			page 4


 105:./Middlewares/ST/usbx/common/usbx_stm32_device_controllers/ux_dcd_stm32_initialize.c ****     /* Set the pointer to the STM32 DCD.  */
 106:./Middlewares/ST/usbx/common/usbx_stm32_device_controllers/ux_dcd_stm32_initialize.c ****     dcd -> ux_slave_dcd_controller_hardware =  (VOID *) dcd_stm32;
  69              		.loc 1 106 5 is_stmt 1 view .LVU15
  70              		.loc 1 106 45 is_stmt 0 view .LVU16
  71 0018 E061     		str	r0, [r4, #28]
 107:./Middlewares/ST/usbx/common/usbx_stm32_device_controllers/ux_dcd_stm32_initialize.c **** 
 108:./Middlewares/ST/usbx/common/usbx_stm32_device_controllers/ux_dcd_stm32_initialize.c ****     /* Set the generic DCD owner for the STM32 DCD.  */
 109:./Middlewares/ST/usbx/common/usbx_stm32_device_controllers/ux_dcd_stm32_initialize.c ****     dcd_stm32 -> ux_dcd_stm32_dcd_owner =  dcd;
  72              		.loc 1 109 5 is_stmt 1 view .LVU17
  73              		.loc 1 109 41 is_stmt 0 view .LVU18
  74 001a 0460     		str	r4, [r0]
 110:./Middlewares/ST/usbx/common/usbx_stm32_device_controllers/ux_dcd_stm32_initialize.c **** 
 111:./Middlewares/ST/usbx/common/usbx_stm32_device_controllers/ux_dcd_stm32_initialize.c ****     /* Initialize the function collector for this DCD.  */
 112:./Middlewares/ST/usbx/common/usbx_stm32_device_controllers/ux_dcd_stm32_initialize.c ****     dcd -> ux_slave_dcd_function =  _ux_dcd_stm32_function;
  75              		.loc 1 112 5 is_stmt 1 view .LVU19
  76              		.loc 1 112 34 is_stmt 0 view .LVU20
  77 001c 054A     		ldr	r2, .L5+4
  78 001e A261     		str	r2, [r4, #24]
 113:./Middlewares/ST/usbx/common/usbx_stm32_device_controllers/ux_dcd_stm32_initialize.c **** 
 114:./Middlewares/ST/usbx/common/usbx_stm32_device_controllers/ux_dcd_stm32_initialize.c ****     dcd_stm32 -> pcd_handle = (PCD_HandleTypeDef *)parameter;
  79              		.loc 1 114 5 is_stmt 1 view .LVU21
  80              		.loc 1 114 29 is_stmt 0 view .LVU22
  81 0020 C564     		str	r5, [r0, #76]
 115:./Middlewares/ST/usbx/common/usbx_stm32_device_controllers/ux_dcd_stm32_initialize.c **** 
 116:./Middlewares/ST/usbx/common/usbx_stm32_device_controllers/ux_dcd_stm32_initialize.c ****     /* Set the state of the controller to OPERATIONAL now.  */
 117:./Middlewares/ST/usbx/common/usbx_stm32_device_controllers/ux_dcd_stm32_initialize.c ****     dcd -> ux_slave_dcd_status =  UX_DCD_STATUS_OPERATIONAL;
  82              		.loc 1 117 5 is_stmt 1 view .LVU23
  83              		.loc 1 117 32 is_stmt 0 view .LVU24
  84 0022 0123     		movs	r3, #1
  85 0024 2360     		str	r3, [r4]
 118:./Middlewares/ST/usbx/common/usbx_stm32_device_controllers/ux_dcd_stm32_initialize.c **** 
 119:./Middlewares/ST/usbx/common/usbx_stm32_device_controllers/ux_dcd_stm32_initialize.c ****     /* Return successful completion.  */
 120:./Middlewares/ST/usbx/common/usbx_stm32_device_controllers/ux_dcd_stm32_initialize.c ****     return(UX_SUCCESS);
  86              		.loc 1 120 5 is_stmt 1 view .LVU25
  87              		.loc 1 120 11 is_stmt 0 view .LVU26
  88 0026 0020     		movs	r0, #0
  89              	.LVL5:
  90              	.L1:
 121:./Middlewares/ST/usbx/common/usbx_stm32_device_controllers/ux_dcd_stm32_initialize.c **** }
  91              		.loc 1 121 1 view .LVU27
  92 0028 38BD     		pop	{r3, r4, r5, pc}
  93              	.LVL6:
  94              	.L3:
 103:./Middlewares/ST/usbx/common/usbx_stm32_device_controllers/ux_dcd_stm32_initialize.c **** 
  95              		.loc 1 103 15 view .LVU28
  96 002a 1220     		movs	r0, #18
  97              	.LVL7:
 103:./Middlewares/ST/usbx/common/usbx_stm32_device_controllers/ux_dcd_stm32_initialize.c **** 
  98              		.loc 1 103 15 view .LVU29
  99 002c FCE7     		b	.L1
 100              	.L6:
 101 002e 00BF     		.align	2
 102              	.L5:
 103 0030 00000000 		.word	_ux_system_slave
 104 0034 00000000 		.word	_ux_dcd_stm32_function
 105              		.cfi_endproc
 106              	.LFE251:
ARM GAS  C:\Users\Dennis\AppData\Local\Temp\cczG0r8x.s 			page 5


 108              		.text
 109              	.Letext0:
 110              		.file 2 "c:\\software_user\\armgcc\\arm-none-eabi\\include\\machine\\_default_types.h"
 111              		.file 3 "c:\\software_user\\armgcc\\arm-none-eabi\\include\\sys\\_stdint.h"
 112              		.file 4 "./Middlewares/ST/threadx/ports/cortex_m4/gnu/inc/tx_port.h"
 113              		.file 5 "./Middlewares/ST/threadx/common/inc/tx_api.h"
 114              		.file 6 "./Middlewares/ST/usbx/common/core/inc/ux_api.h"
 115              		.file 7 "./Drivers/CMSIS/Device/ST/STM32F4xx/Include/stm32f407xx.h"
 116              		.file 8 "./Drivers/STM32F4xx_HAL_Driver/Inc/stm32f4xx_hal_def.h"
 117              		.file 9 "./Drivers/STM32F4xx_HAL_Driver/Inc/stm32f4xx_ll_usb.h"
 118              		.file 10 "./Drivers/STM32F4xx_HAL_Driver/Inc/stm32f4xx_hal_pcd.h"
 119              		.file 11 "./Middlewares/ST/usbx/common/usbx_stm32_device_controllers/ux_dcd_stm32.h"
 120              		.file 12 "./Middlewares/ST/usbx/common/core/inc/ux_system.h"
 121              		.file 13 "./Middlewares/ST/usbx/common/core/inc/ux_utility.h"
ARM GAS  C:\Users\Dennis\AppData\Local\Temp\cczG0r8x.s 			page 6

