ARM GAS  C:\Users\Dennis\AppData\Local\Temp\ccmm9cQc.s 			page 1


   1              		.cpu cortex-m4
   2              		.arch armv7e-m
   3              		.fpu fpv4-sp-d16
   4              		.eabi_attribute 27, 1
   5              		.eabi_attribute 28, 1
   6              		.eabi_attribute 20, 1
   7              		.eabi_attribute 21, 1
   8              		.eabi_attribute 23, 3
   9              		.eabi_attribute 24, 1
  10              		.eabi_attribute 25, 1
  11              		.eabi_attribute 26, 1
  12              		.eabi_attribute 30, 1
  13              		.eabi_attribute 34, 1
  14              		.eabi_attribute 18, 4
  15              		.file	"ux_device_class_dfu_control_request.c"
  16              		.text
  17              	.Ltext0:
  18              		.cfi_sections	.debug_frame
  19              		.section	.text._ux_device_class_dfu_control_request,"ax",%progbits
  20              		.align	1
  21              		.global	_ux_device_class_dfu_control_request
  22              		.syntax unified
  23              		.thumb
  24              		.thumb_func
  26              	_ux_device_class_dfu_control_request:
  27              	.LVL0:
  28              	.LFB11:
  29              		.file 1 "./Middlewares/ST/usbx/common/usbx_device_classes/src/ux_device_class_dfu_control_request.
   1:./Middlewares/ST/usbx/common/usbx_device_classes/src/ux_device_class_dfu_control_request.c **** /**************************************************************************/
   2:./Middlewares/ST/usbx/common/usbx_device_classes/src/ux_device_class_dfu_control_request.c **** /*                                                                        */
   3:./Middlewares/ST/usbx/common/usbx_device_classes/src/ux_device_class_dfu_control_request.c **** /*       Copyright (c) Microsoft Corporation. All rights reserved.        */
   4:./Middlewares/ST/usbx/common/usbx_device_classes/src/ux_device_class_dfu_control_request.c **** /*                                                                        */
   5:./Middlewares/ST/usbx/common/usbx_device_classes/src/ux_device_class_dfu_control_request.c **** /*       This software is licensed under the Microsoft Software License   */
   6:./Middlewares/ST/usbx/common/usbx_device_classes/src/ux_device_class_dfu_control_request.c **** /*       Terms for Microsoft Azure RTOS. Full text of the license can be  */
   7:./Middlewares/ST/usbx/common/usbx_device_classes/src/ux_device_class_dfu_control_request.c **** /*       found in the LICENSE file at https://aka.ms/AzureRTOS_EULA       */
   8:./Middlewares/ST/usbx/common/usbx_device_classes/src/ux_device_class_dfu_control_request.c **** /*       and in the root directory of this software.                      */
   9:./Middlewares/ST/usbx/common/usbx_device_classes/src/ux_device_class_dfu_control_request.c **** /*                                                                        */
  10:./Middlewares/ST/usbx/common/usbx_device_classes/src/ux_device_class_dfu_control_request.c **** /**************************************************************************/
  11:./Middlewares/ST/usbx/common/usbx_device_classes/src/ux_device_class_dfu_control_request.c **** 
  12:./Middlewares/ST/usbx/common/usbx_device_classes/src/ux_device_class_dfu_control_request.c **** /**************************************************************************/
  13:./Middlewares/ST/usbx/common/usbx_device_classes/src/ux_device_class_dfu_control_request.c **** /**************************************************************************/
  14:./Middlewares/ST/usbx/common/usbx_device_classes/src/ux_device_class_dfu_control_request.c **** /**                                                                       */
  15:./Middlewares/ST/usbx/common/usbx_device_classes/src/ux_device_class_dfu_control_request.c **** /** USBX Component                                                        */
  16:./Middlewares/ST/usbx/common/usbx_device_classes/src/ux_device_class_dfu_control_request.c **** /**                                                                       */
  17:./Middlewares/ST/usbx/common/usbx_device_classes/src/ux_device_class_dfu_control_request.c **** /**   Device DFU Class                                                    */
  18:./Middlewares/ST/usbx/common/usbx_device_classes/src/ux_device_class_dfu_control_request.c **** /**                                                                       */
  19:./Middlewares/ST/usbx/common/usbx_device_classes/src/ux_device_class_dfu_control_request.c **** /**************************************************************************/
  20:./Middlewares/ST/usbx/common/usbx_device_classes/src/ux_device_class_dfu_control_request.c **** /**************************************************************************/
  21:./Middlewares/ST/usbx/common/usbx_device_classes/src/ux_device_class_dfu_control_request.c **** 
  22:./Middlewares/ST/usbx/common/usbx_device_classes/src/ux_device_class_dfu_control_request.c **** #define UX_SOURCE_CODE
  23:./Middlewares/ST/usbx/common/usbx_device_classes/src/ux_device_class_dfu_control_request.c **** 
  24:./Middlewares/ST/usbx/common/usbx_device_classes/src/ux_device_class_dfu_control_request.c **** 
  25:./Middlewares/ST/usbx/common/usbx_device_classes/src/ux_device_class_dfu_control_request.c **** /* Include necessary system files.  */
  26:./Middlewares/ST/usbx/common/usbx_device_classes/src/ux_device_class_dfu_control_request.c **** 
  27:./Middlewares/ST/usbx/common/usbx_device_classes/src/ux_device_class_dfu_control_request.c **** #include "ux_api.h"
  28:./Middlewares/ST/usbx/common/usbx_device_classes/src/ux_device_class_dfu_control_request.c **** #include "ux_device_class_dfu.h"
  29:./Middlewares/ST/usbx/common/usbx_device_classes/src/ux_device_class_dfu_control_request.c **** #include "ux_device_stack.h"
ARM GAS  C:\Users\Dennis\AppData\Local\Temp\ccmm9cQc.s 			page 2


  30:./Middlewares/ST/usbx/common/usbx_device_classes/src/ux_device_class_dfu_control_request.c **** 
  31:./Middlewares/ST/usbx/common/usbx_device_classes/src/ux_device_class_dfu_control_request.c **** 
  32:./Middlewares/ST/usbx/common/usbx_device_classes/src/ux_device_class_dfu_control_request.c **** #if UX_DEVICE_CLASS_DFU_STATUS_MODE == 1
  33:./Middlewares/ST/usbx/common/usbx_device_classes/src/ux_device_class_dfu_control_request.c **** static inline VOID _ux_device_class_dfu_status_get(UX_SLAVE_CLASS_DFU *,
  34:./Middlewares/ST/usbx/common/usbx_device_classes/src/ux_device_class_dfu_control_request.c ****     UX_SLAVE_TRANSFER *, UCHAR, UCHAR, UCHAR, UCHAR);
  35:./Middlewares/ST/usbx/common/usbx_device_classes/src/ux_device_class_dfu_control_request.c **** #endif
  36:./Middlewares/ST/usbx/common/usbx_device_classes/src/ux_device_class_dfu_control_request.c **** 
  37:./Middlewares/ST/usbx/common/usbx_device_classes/src/ux_device_class_dfu_control_request.c **** 
  38:./Middlewares/ST/usbx/common/usbx_device_classes/src/ux_device_class_dfu_control_request.c **** /**************************************************************************/
  39:./Middlewares/ST/usbx/common/usbx_device_classes/src/ux_device_class_dfu_control_request.c **** /*                                                                        */
  40:./Middlewares/ST/usbx/common/usbx_device_classes/src/ux_device_class_dfu_control_request.c **** /*  FUNCTION                                               RELEASE        */
  41:./Middlewares/ST/usbx/common/usbx_device_classes/src/ux_device_class_dfu_control_request.c **** /*                                                                        */
  42:./Middlewares/ST/usbx/common/usbx_device_classes/src/ux_device_class_dfu_control_request.c **** /*    _ux_device_class_dfu_control_request                PORTABLE C      */
  43:./Middlewares/ST/usbx/common/usbx_device_classes/src/ux_device_class_dfu_control_request.c **** /*                                                           6.1.10       */
  44:./Middlewares/ST/usbx/common/usbx_device_classes/src/ux_device_class_dfu_control_request.c **** /*  AUTHOR                                                                */
  45:./Middlewares/ST/usbx/common/usbx_device_classes/src/ux_device_class_dfu_control_request.c **** /*                                                                        */
  46:./Middlewares/ST/usbx/common/usbx_device_classes/src/ux_device_class_dfu_control_request.c **** /*    Chaoqiong Xiao, Microsoft Corporation                               */
  47:./Middlewares/ST/usbx/common/usbx_device_classes/src/ux_device_class_dfu_control_request.c **** /*                                                                        */
  48:./Middlewares/ST/usbx/common/usbx_device_classes/src/ux_device_class_dfu_control_request.c **** /*  DESCRIPTION                                                           */
  49:./Middlewares/ST/usbx/common/usbx_device_classes/src/ux_device_class_dfu_control_request.c **** /*                                                                        */
  50:./Middlewares/ST/usbx/common/usbx_device_classes/src/ux_device_class_dfu_control_request.c **** /*    This function manages the based sent by the host on the control     */
  51:./Middlewares/ST/usbx/common/usbx_device_classes/src/ux_device_class_dfu_control_request.c **** /*    endpoints with a CLASS or VENDOR SPECIFIC type.                     */
  52:./Middlewares/ST/usbx/common/usbx_device_classes/src/ux_device_class_dfu_control_request.c **** /*                                                                        */
  53:./Middlewares/ST/usbx/common/usbx_device_classes/src/ux_device_class_dfu_control_request.c **** /*  INPUT                                                                 */
  54:./Middlewares/ST/usbx/common/usbx_device_classes/src/ux_device_class_dfu_control_request.c **** /*                                                                        */
  55:./Middlewares/ST/usbx/common/usbx_device_classes/src/ux_device_class_dfu_control_request.c **** /*    dfu                                       Pointer to dfu class      */
  56:./Middlewares/ST/usbx/common/usbx_device_classes/src/ux_device_class_dfu_control_request.c **** /*                                                                        */
  57:./Middlewares/ST/usbx/common/usbx_device_classes/src/ux_device_class_dfu_control_request.c **** /*  OUTPUT                                                                */
  58:./Middlewares/ST/usbx/common/usbx_device_classes/src/ux_device_class_dfu_control_request.c **** /*                                                                        */
  59:./Middlewares/ST/usbx/common/usbx_device_classes/src/ux_device_class_dfu_control_request.c **** /*    None                                                                */
  60:./Middlewares/ST/usbx/common/usbx_device_classes/src/ux_device_class_dfu_control_request.c **** /*                                                                        */
  61:./Middlewares/ST/usbx/common/usbx_device_classes/src/ux_device_class_dfu_control_request.c **** /*  CALLS                                                                 */
  62:./Middlewares/ST/usbx/common/usbx_device_classes/src/ux_device_class_dfu_control_request.c **** /*                                                                        */
  63:./Middlewares/ST/usbx/common/usbx_device_classes/src/ux_device_class_dfu_control_request.c **** /*    _ux_device_stack_endpoint_stall       Endpoint stall                */
  64:./Middlewares/ST/usbx/common/usbx_device_classes/src/ux_device_class_dfu_control_request.c **** /*    _ux_device_stack_transfer_request     Transfer request              */
  65:./Middlewares/ST/usbx/common/usbx_device_classes/src/ux_device_class_dfu_control_request.c **** /*                                                                        */
  66:./Middlewares/ST/usbx/common/usbx_device_classes/src/ux_device_class_dfu_control_request.c **** /*  CALLED BY                                                             */
  67:./Middlewares/ST/usbx/common/usbx_device_classes/src/ux_device_class_dfu_control_request.c **** /*                                                                        */
  68:./Middlewares/ST/usbx/common/usbx_device_classes/src/ux_device_class_dfu_control_request.c **** /*    DFU Class                                                           */
  69:./Middlewares/ST/usbx/common/usbx_device_classes/src/ux_device_class_dfu_control_request.c **** /*                                                                        */
  70:./Middlewares/ST/usbx/common/usbx_device_classes/src/ux_device_class_dfu_control_request.c **** /*  RELEASE HISTORY                                                       */
  71:./Middlewares/ST/usbx/common/usbx_device_classes/src/ux_device_class_dfu_control_request.c **** /*                                                                        */
  72:./Middlewares/ST/usbx/common/usbx_device_classes/src/ux_device_class_dfu_control_request.c **** /*    DATE              NAME                      DESCRIPTION             */
  73:./Middlewares/ST/usbx/common/usbx_device_classes/src/ux_device_class_dfu_control_request.c **** /*                                                                        */
  74:./Middlewares/ST/usbx/common/usbx_device_classes/src/ux_device_class_dfu_control_request.c **** /*  05-19-2020     Chaoqiong Xiao           Initial Version 6.0           */
  75:./Middlewares/ST/usbx/common/usbx_device_classes/src/ux_device_class_dfu_control_request.c **** /*  09-30-2020     Chaoqiong Xiao           Modified comment(s),          */
  76:./Middlewares/ST/usbx/common/usbx_device_classes/src/ux_device_class_dfu_control_request.c **** /*                                            used UX prefix to refer to  */
  77:./Middlewares/ST/usbx/common/usbx_device_classes/src/ux_device_class_dfu_control_request.c **** /*                                            TX symbols instead of using */
  78:./Middlewares/ST/usbx/common/usbx_device_classes/src/ux_device_class_dfu_control_request.c **** /*                                            them directly,              */
  79:./Middlewares/ST/usbx/common/usbx_device_classes/src/ux_device_class_dfu_control_request.c **** /*                                            resulting in version 6.1    */
  80:./Middlewares/ST/usbx/common/usbx_device_classes/src/ux_device_class_dfu_control_request.c **** /*  04-02-2021     Chaoqiong Xiao           Modified comment(s),          */
  81:./Middlewares/ST/usbx/common/usbx_device_classes/src/ux_device_class_dfu_control_request.c **** /*                                            added DFU_UPLOAD support,   */
  82:./Middlewares/ST/usbx/common/usbx_device_classes/src/ux_device_class_dfu_control_request.c **** /*                                            removed block count (it's   */
  83:./Middlewares/ST/usbx/common/usbx_device_classes/src/ux_device_class_dfu_control_request.c **** /*                                            from host request wValue),  */
  84:./Middlewares/ST/usbx/common/usbx_device_classes/src/ux_device_class_dfu_control_request.c **** /*                                            resulting in version 6.1.6  */
  85:./Middlewares/ST/usbx/common/usbx_device_classes/src/ux_device_class_dfu_control_request.c **** /*  10-15-2021     Chaoqiong Xiao           Modified comment(s),          */
  86:./Middlewares/ST/usbx/common/usbx_device_classes/src/ux_device_class_dfu_control_request.c **** /*                                            fixed compile warning,      */
ARM GAS  C:\Users\Dennis\AppData\Local\Temp\ccmm9cQc.s 			page 3


  87:./Middlewares/ST/usbx/common/usbx_device_classes/src/ux_device_class_dfu_control_request.c **** /*                                            resulting in version 6.1.9  */
  88:./Middlewares/ST/usbx/common/usbx_device_classes/src/ux_device_class_dfu_control_request.c **** /*  01-31-2022     Chaoqiong Xiao           Modified comment(s),          */
  89:./Middlewares/ST/usbx/common/usbx_device_classes/src/ux_device_class_dfu_control_request.c **** /*                                            added UPLOAD length check,  */
  90:./Middlewares/ST/usbx/common/usbx_device_classes/src/ux_device_class_dfu_control_request.c **** /*                                            added standalone support,   */
  91:./Middlewares/ST/usbx/common/usbx_device_classes/src/ux_device_class_dfu_control_request.c **** /*                                            resulting in version 6.1.10 */
  92:./Middlewares/ST/usbx/common/usbx_device_classes/src/ux_device_class_dfu_control_request.c **** /*                                                                        */
  93:./Middlewares/ST/usbx/common/usbx_device_classes/src/ux_device_class_dfu_control_request.c **** /**************************************************************************/
  94:./Middlewares/ST/usbx/common/usbx_device_classes/src/ux_device_class_dfu_control_request.c **** UINT  _ux_device_class_dfu_control_request(UX_SLAVE_CLASS_COMMAND *command)
  95:./Middlewares/ST/usbx/common/usbx_device_classes/src/ux_device_class_dfu_control_request.c **** {
  30              		.loc 1 95 1 view -0
  31              		.cfi_startproc
  32              		@ args = 0, pretend = 0, frame = 8
  33              		@ frame_needed = 0, uses_anonymous_args = 0
  34              		.loc 1 95 1 is_stmt 0 view .LVU1
  35 0000 2DE9F047 		push	{r4, r5, r6, r7, r8, r9, r10, lr}
  36              	.LCFI0:
  37              		.cfi_def_cfa_offset 32
  38              		.cfi_offset 4, -32
  39              		.cfi_offset 5, -28
  40              		.cfi_offset 6, -24
  41              		.cfi_offset 7, -20
  42              		.cfi_offset 8, -16
  43              		.cfi_offset 9, -12
  44              		.cfi_offset 10, -8
  45              		.cfi_offset 14, -4
  46 0004 84B0     		sub	sp, sp, #16
  47              	.LCFI1:
  48              		.cfi_def_cfa_offset 48
  96:./Middlewares/ST/usbx/common/usbx_device_classes/src/ux_device_class_dfu_control_request.c **** 
  97:./Middlewares/ST/usbx/common/usbx_device_classes/src/ux_device_class_dfu_control_request.c **** UX_SLAVE_TRANSFER       *transfer_request;
  49              		.loc 1 97 1 is_stmt 1 view .LVU2
  98:./Middlewares/ST/usbx/common/usbx_device_classes/src/ux_device_class_dfu_control_request.c **** UX_SLAVE_DEVICE         *device;
  50              		.loc 1 98 1 view .LVU3
  99:./Middlewares/ST/usbx/common/usbx_device_classes/src/ux_device_class_dfu_control_request.c **** UX_SLAVE_CLASS          *class;
  51              		.loc 1 99 1 view .LVU4
 100:./Middlewares/ST/usbx/common/usbx_device_classes/src/ux_device_class_dfu_control_request.c **** UX_SLAVE_CLASS_DFU      *dfu;
  52              		.loc 1 100 1 view .LVU5
 101:./Middlewares/ST/usbx/common/usbx_device_classes/src/ux_device_class_dfu_control_request.c **** 
 102:./Middlewares/ST/usbx/common/usbx_device_classes/src/ux_device_class_dfu_control_request.c **** ULONG                   request;
  53              		.loc 1 102 1 view .LVU6
 103:./Middlewares/ST/usbx/common/usbx_device_classes/src/ux_device_class_dfu_control_request.c **** ULONG                   request_value;
  54              		.loc 1 103 1 view .LVU7
 104:./Middlewares/ST/usbx/common/usbx_device_classes/src/ux_device_class_dfu_control_request.c **** ULONG                   request_length;
  55              		.loc 1 104 1 view .LVU8
 105:./Middlewares/ST/usbx/common/usbx_device_classes/src/ux_device_class_dfu_control_request.c **** ULONG                   actual_length;
  56              		.loc 1 105 1 view .LVU9
 106:./Middlewares/ST/usbx/common/usbx_device_classes/src/ux_device_class_dfu_control_request.c **** #if defined(UX_DEVICE_CLASS_DFU_CUSTOM_REQUEST_ENABLE) || (UX_DEVICE_CLASS_DFU_STATUS_MODE != 1)
 107:./Middlewares/ST/usbx/common/usbx_device_classes/src/ux_device_class_dfu_control_request.c **** ULONG                   media_status;
  57              		.loc 1 107 1 view .LVU10
 108:./Middlewares/ST/usbx/common/usbx_device_classes/src/ux_device_class_dfu_control_request.c **** #endif
 109:./Middlewares/ST/usbx/common/usbx_device_classes/src/ux_device_class_dfu_control_request.c **** 
 110:./Middlewares/ST/usbx/common/usbx_device_classes/src/ux_device_class_dfu_control_request.c **** 
 111:./Middlewares/ST/usbx/common/usbx_device_classes/src/ux_device_class_dfu_control_request.c ****     /* Get the pointer to the device.  */
 112:./Middlewares/ST/usbx/common/usbx_device_classes/src/ux_device_class_dfu_control_request.c ****     device =  &_ux_system_slave -> ux_system_slave_device;
  58              		.loc 1 112 5 view .LVU11
  59              		.loc 1 112 33 is_stmt 0 view .LVU12
  60 0006 AD4D     		ldr	r5, .L71
ARM GAS  C:\Users\Dennis\AppData\Local\Temp\ccmm9cQc.s 			page 4


  61 0008 2C68     		ldr	r4, [r5]
  62              	.LVL1:
 113:./Middlewares/ST/usbx/common/usbx_device_classes/src/ux_device_class_dfu_control_request.c **** 
 114:./Middlewares/ST/usbx/common/usbx_device_classes/src/ux_device_class_dfu_control_request.c ****      /* Get the class container.  */
 115:./Middlewares/ST/usbx/common/usbx_device_classes/src/ux_device_class_dfu_control_request.c ****     class =  command -> ux_slave_class_command_class_ptr;
  63              		.loc 1 115 5 is_stmt 1 view .LVU13
  64              		.loc 1 115 11 is_stmt 0 view .LVU14
  65 000a 036A     		ldr	r3, [r0, #32]
  66              	.LVL2:
 116:./Middlewares/ST/usbx/common/usbx_device_classes/src/ux_device_class_dfu_control_request.c **** 
 117:./Middlewares/ST/usbx/common/usbx_device_classes/src/ux_device_class_dfu_control_request.c ****     /* Get the storage instance from this class container.  */
 118:./Middlewares/ST/usbx/common/usbx_device_classes/src/ux_device_class_dfu_control_request.c ****     dfu =  (UX_SLAVE_CLASS_DFU *) class -> ux_slave_class_instance;
  67              		.loc 1 118 5 is_stmt 1 view .LVU15
  68              		.loc 1 118 9 is_stmt 0 view .LVU16
  69 000c D3F84890 		ldr	r9, [r3, #72]
  70              	.LVL3:
 119:./Middlewares/ST/usbx/common/usbx_device_classes/src/ux_device_class_dfu_control_request.c **** 
 120:./Middlewares/ST/usbx/common/usbx_device_classes/src/ux_device_class_dfu_control_request.c ****     /* Get the pointer to the transfer request associated with the control endpoint.  */
 121:./Middlewares/ST/usbx/common/usbx_device_classes/src/ux_device_class_dfu_control_request.c ****     transfer_request =  &device -> ux_slave_device_control_endpoint.ux_slave_endpoint_transfer_requ
  71              		.loc 1 121 5 is_stmt 1 view .LVU17
  72              		.loc 1 121 22 is_stmt 0 view .LVU18
  73 0010 04F18C0A 		add	r10, r4, #140
  74              	.LVL4:
 122:./Middlewares/ST/usbx/common/usbx_device_classes/src/ux_device_class_dfu_control_request.c **** 
 123:./Middlewares/ST/usbx/common/usbx_device_classes/src/ux_device_class_dfu_control_request.c **** #ifdef UX_DEVICE_CLASS_DFU_CUSTOM_REQUEST_ENABLE
 124:./Middlewares/ST/usbx/common/usbx_device_classes/src/ux_device_class_dfu_control_request.c ****     if (dfu -> ux_device_class_dfu_custom_request)
 125:./Middlewares/ST/usbx/common/usbx_device_classes/src/ux_device_class_dfu_control_request.c ****     {
 126:./Middlewares/ST/usbx/common/usbx_device_classes/src/ux_device_class_dfu_control_request.c **** 
 127:./Middlewares/ST/usbx/common/usbx_device_classes/src/ux_device_class_dfu_control_request.c ****         /* The status simply tells us if the registered callback handled the
 128:./Middlewares/ST/usbx/common/usbx_device_classes/src/ux_device_class_dfu_control_request.c ****             request - if there was an issue processing the request, it would've
 129:./Middlewares/ST/usbx/common/usbx_device_classes/src/ux_device_class_dfu_control_request.c ****             stalled the control endpoint, notifying the host (and not us).  */
 130:./Middlewares/ST/usbx/common/usbx_device_classes/src/ux_device_class_dfu_control_request.c ****         media_status = dfu -> ux_device_class_dfu_custom_request(dfu, transfer_request);
 131:./Middlewares/ST/usbx/common/usbx_device_classes/src/ux_device_class_dfu_control_request.c **** 
 132:./Middlewares/ST/usbx/common/usbx_device_classes/src/ux_device_class_dfu_control_request.c ****         /* Custom request handled.  */
 133:./Middlewares/ST/usbx/common/usbx_device_classes/src/ux_device_class_dfu_control_request.c ****         if (media_status == UX_SUCCESS)
 134:./Middlewares/ST/usbx/common/usbx_device_classes/src/ux_device_class_dfu_control_request.c ****             return(media_status);
 135:./Middlewares/ST/usbx/common/usbx_device_classes/src/ux_device_class_dfu_control_request.c **** 
 136:./Middlewares/ST/usbx/common/usbx_device_classes/src/ux_device_class_dfu_control_request.c ****         /* Try to handle with standard handler.  */
 137:./Middlewares/ST/usbx/common/usbx_device_classes/src/ux_device_class_dfu_control_request.c ****     }
 138:./Middlewares/ST/usbx/common/usbx_device_classes/src/ux_device_class_dfu_control_request.c **** #endif
 139:./Middlewares/ST/usbx/common/usbx_device_classes/src/ux_device_class_dfu_control_request.c **** 
 140:./Middlewares/ST/usbx/common/usbx_device_classes/src/ux_device_class_dfu_control_request.c ****     /* Extract all necessary fields of the request.  */
 141:./Middlewares/ST/usbx/common/usbx_device_classes/src/ux_device_class_dfu_control_request.c ****     request =  *(transfer_request -> ux_slave_transfer_request_setup + UX_SETUP_REQUEST);
  75              		.loc 1 141 5 is_stmt 1 view .LVU19
  76              		.loc 1 141 16 is_stmt 0 view .LVU20
  77 0014 94F8E160 		ldrb	r6, [r4, #225]	@ zero_extendqisi2
  78              	.LVL5:
 142:./Middlewares/ST/usbx/common/usbx_device_classes/src/ux_device_class_dfu_control_request.c **** 
 143:./Middlewares/ST/usbx/common/usbx_device_classes/src/ux_device_class_dfu_control_request.c ****     /* Pickup the request wValue.  */
 144:./Middlewares/ST/usbx/common/usbx_device_classes/src/ux_device_class_dfu_control_request.c ****     request_value =    _ux_utility_short_get(transfer_request -> ux_slave_transfer_request_setup + 
  79              		.loc 1 144 5 is_stmt 1 view .LVU21
  80              		.loc 1 144 24 is_stmt 0 view .LVU22
  81 0018 04F1E200 		add	r0, r4, #226
  82              	.LVL6:
  83              		.loc 1 144 24 view .LVU23
  84 001c FFF7FEFF 		bl	_ux_utility_short_get
  85              	.LVL7:
ARM GAS  C:\Users\Dennis\AppData\Local\Temp\ccmm9cQc.s 			page 5


  86              		.loc 1 144 24 view .LVU24
  87 0020 8046     		mov	r8, r0
  88              	.LVL8:
 145:./Middlewares/ST/usbx/common/usbx_device_classes/src/ux_device_class_dfu_control_request.c **** 
 146:./Middlewares/ST/usbx/common/usbx_device_classes/src/ux_device_class_dfu_control_request.c ****     /* Pickup the request wLength.  */
 147:./Middlewares/ST/usbx/common/usbx_device_classes/src/ux_device_class_dfu_control_request.c ****     request_length =   _ux_utility_short_get(transfer_request -> ux_slave_transfer_request_setup + 
  89              		.loc 1 147 5 is_stmt 1 view .LVU25
  90              		.loc 1 147 24 is_stmt 0 view .LVU26
  91 0022 04F1E600 		add	r0, r4, #230
  92              	.LVL9:
  93              		.loc 1 147 24 view .LVU27
  94 0026 FFF7FEFF 		bl	_ux_utility_short_get
  95              	.LVL10:
  96 002a 0746     		mov	r7, r0
  97              	.LVL11:
 148:./Middlewares/ST/usbx/common/usbx_device_classes/src/ux_device_class_dfu_control_request.c **** 
 149:./Middlewares/ST/usbx/common/usbx_device_classes/src/ux_device_class_dfu_control_request.c ****     /* What state are we in ? */
 150:./Middlewares/ST/usbx/common/usbx_device_classes/src/ux_device_class_dfu_control_request.c ****     switch (_ux_system_slave -> ux_system_slave_device_dfu_state_machine)
  98              		.loc 1 150 5 is_stmt 1 view .LVU28
  99              		.loc 1 150 30 is_stmt 0 view .LVU29
 100 002c 2B68     		ldr	r3, [r5]
 101 002e D3F8B851 		ldr	r5, [r3, #440]
 102              		.loc 1 150 5 view .LVU30
 103 0032 0A2D     		cmp	r5, #10
 104 0034 00F20783 		bhi	.L60
 105 0038 DFE815F0 		tbh	[pc, r5, lsl #1]
 106              	.L4:
 107 003c 0B00     		.2byte	(.L11-.L4)/2
 108 003e 5600     		.2byte	(.L10-.L4)/2
 109 0040 8A00     		.2byte	(.L9-.L4)/2
 110 0042 3101     		.2byte	(.L8-.L4)/2
 111 0044 0503     		.2byte	(.L60-.L4)/2
 112 0046 9101     		.2byte	(.L7-.L4)/2
 113 0048 F801     		.2byte	(.L6-.L4)/2
 114 004a 0503     		.2byte	(.L60-.L4)/2
 115 004c 0503     		.2byte	(.L60-.L4)/2
 116 004e 9902     		.2byte	(.L5-.L4)/2
 117 0050 5C02     		.2byte	(.L3-.L4)/2
 118              		.p2align 1
 119              	.L11:
 151:./Middlewares/ST/usbx/common/usbx_device_classes/src/ux_device_class_dfu_control_request.c ****     {
 152:./Middlewares/ST/usbx/common/usbx_device_classes/src/ux_device_class_dfu_control_request.c **** 
 153:./Middlewares/ST/usbx/common/usbx_device_classes/src/ux_device_class_dfu_control_request.c ****         case UX_SYSTEM_DFU_STATE_APP_IDLE         :
 154:./Middlewares/ST/usbx/common/usbx_device_classes/src/ux_device_class_dfu_control_request.c **** 
 155:./Middlewares/ST/usbx/common/usbx_device_classes/src/ux_device_class_dfu_control_request.c **** 
 156:./Middlewares/ST/usbx/common/usbx_device_classes/src/ux_device_class_dfu_control_request.c ****             /* Here we process only the request we can accept in the APP IDLE state.  */
 157:./Middlewares/ST/usbx/common/usbx_device_classes/src/ux_device_class_dfu_control_request.c ****             switch (request)
 120              		.loc 1 157 13 is_stmt 1 view .LVU31
 121 0052 032E     		cmp	r6, #3
 122 0054 1FD0     		beq	.L12
 123 0056 052E     		cmp	r6, #5
 124 0058 3DD0     		beq	.L13
 125 005a 26B1     		cbz	r6, .L66
 158:./Middlewares/ST/usbx/common/usbx_device_classes/src/ux_device_class_dfu_control_request.c ****             {
 159:./Middlewares/ST/usbx/common/usbx_device_classes/src/ux_device_class_dfu_control_request.c **** 
 160:./Middlewares/ST/usbx/common/usbx_device_classes/src/ux_device_class_dfu_control_request.c ****                 case UX_SLAVE_CLASS_DFU_COMMAND_DETACH :
 161:./Middlewares/ST/usbx/common/usbx_device_classes/src/ux_device_class_dfu_control_request.c **** 
ARM GAS  C:\Users\Dennis\AppData\Local\Temp\ccmm9cQc.s 			page 6


 162:./Middlewares/ST/usbx/common/usbx_device_classes/src/ux_device_class_dfu_control_request.c ****                     /* The host is asking for a Detach and switch to the DFU mode. Either we force 
 163:./Middlewares/ST/usbx/common/usbx_device_classes/src/ux_device_class_dfu_control_request.c ****                        we wait for a specified timer. If there is no reset while this timer is runn
 164:./Middlewares/ST/usbx/common/usbx_device_classes/src/ux_device_class_dfu_control_request.c ****                        the DFU Detach.*/
 165:./Middlewares/ST/usbx/common/usbx_device_classes/src/ux_device_class_dfu_control_request.c ****                     if (_ux_system_slave -> ux_system_slave_device_dfu_capabilities &  UX_SLAVE_CLA
 166:./Middlewares/ST/usbx/common/usbx_device_classes/src/ux_device_class_dfu_control_request.c ****                     {
 167:./Middlewares/ST/usbx/common/usbx_device_classes/src/ux_device_class_dfu_control_request.c **** 
 168:./Middlewares/ST/usbx/common/usbx_device_classes/src/ux_device_class_dfu_control_request.c ****                         /* Wake up the DFU thread and send a detach request..  */
 169:./Middlewares/ST/usbx/common/usbx_device_classes/src/ux_device_class_dfu_control_request.c ****                         _ux_device_class_dfu_event_flags_set(dfu, UX_DEVICE_CLASS_DFU_THREAD_EVENT_
 170:./Middlewares/ST/usbx/common/usbx_device_classes/src/ux_device_class_dfu_control_request.c ****                     }
 171:./Middlewares/ST/usbx/common/usbx_device_classes/src/ux_device_class_dfu_control_request.c ****                     else
 172:./Middlewares/ST/usbx/common/usbx_device_classes/src/ux_device_class_dfu_control_request.c ****                     {
 173:./Middlewares/ST/usbx/common/usbx_device_classes/src/ux_device_class_dfu_control_request.c **** 
 174:./Middlewares/ST/usbx/common/usbx_device_classes/src/ux_device_class_dfu_control_request.c ****                         /* We expect the host to issue a reset.  Arm a timer in the DFU thread.  */
 175:./Middlewares/ST/usbx/common/usbx_device_classes/src/ux_device_class_dfu_control_request.c ****                         _ux_device_class_dfu_event_flags_set(dfu, UX_DEVICE_CLASS_DFU_THREAD_EVENT_
 176:./Middlewares/ST/usbx/common/usbx_device_classes/src/ux_device_class_dfu_control_request.c ****                     }
 177:./Middlewares/ST/usbx/common/usbx_device_classes/src/ux_device_class_dfu_control_request.c **** 
 178:./Middlewares/ST/usbx/common/usbx_device_classes/src/ux_device_class_dfu_control_request.c ****                     /* We can switch dfu state machine.  */
 179:./Middlewares/ST/usbx/common/usbx_device_classes/src/ux_device_class_dfu_control_request.c ****                     _ux_system_slave -> ux_system_slave_device_dfu_state_machine = UX_SYSTEM_DFU_ST
 180:./Middlewares/ST/usbx/common/usbx_device_classes/src/ux_device_class_dfu_control_request.c **** 
 181:./Middlewares/ST/usbx/common/usbx_device_classes/src/ux_device_class_dfu_control_request.c ****                     break;
 182:./Middlewares/ST/usbx/common/usbx_device_classes/src/ux_device_class_dfu_control_request.c **** 
 183:./Middlewares/ST/usbx/common/usbx_device_classes/src/ux_device_class_dfu_control_request.c ****                 case UX_SLAVE_CLASS_DFU_COMMAND_GET_STATUS :
 184:./Middlewares/ST/usbx/common/usbx_device_classes/src/ux_device_class_dfu_control_request.c **** 
 185:./Middlewares/ST/usbx/common/usbx_device_classes/src/ux_device_class_dfu_control_request.c **** #if UX_DEVICE_CLASS_DFU_STATUS_MODE == 1
 186:./Middlewares/ST/usbx/common/usbx_device_classes/src/ux_device_class_dfu_control_request.c ****                     _ux_device_class_dfu_status_get(dfu, transfer_request, UX_FALSE, 0, 0, 0);
 187:./Middlewares/ST/usbx/common/usbx_device_classes/src/ux_device_class_dfu_control_request.c **** #else
 188:./Middlewares/ST/usbx/common/usbx_device_classes/src/ux_device_class_dfu_control_request.c ****                     /* Fill the status data payload.  First with status.  */
 189:./Middlewares/ST/usbx/common/usbx_device_classes/src/ux_device_class_dfu_control_request.c ****                     *transfer_request -> ux_slave_transfer_request_data_pointer = (UCHAR) dfu -> ux
 190:./Middlewares/ST/usbx/common/usbx_device_classes/src/ux_device_class_dfu_control_request.c **** 
 191:./Middlewares/ST/usbx/common/usbx_device_classes/src/ux_device_class_dfu_control_request.c ****                     /* Poll time out value is set to 1ms.  */
 192:./Middlewares/ST/usbx/common/usbx_device_classes/src/ux_device_class_dfu_control_request.c ****                     *(transfer_request -> ux_slave_transfer_request_data_pointer + UX_SLAVE_CLASS_D
 193:./Middlewares/ST/usbx/common/usbx_device_classes/src/ux_device_class_dfu_control_request.c ****                     *(transfer_request -> ux_slave_transfer_request_data_pointer + UX_SLAVE_CLASS_D
 194:./Middlewares/ST/usbx/common/usbx_device_classes/src/ux_device_class_dfu_control_request.c ****                     *(transfer_request -> ux_slave_transfer_request_data_pointer + UX_SLAVE_CLASS_D
 195:./Middlewares/ST/usbx/common/usbx_device_classes/src/ux_device_class_dfu_control_request.c **** 
 196:./Middlewares/ST/usbx/common/usbx_device_classes/src/ux_device_class_dfu_control_request.c ****                     /* Next state.  */
 197:./Middlewares/ST/usbx/common/usbx_device_classes/src/ux_device_class_dfu_control_request.c ****                     *(transfer_request -> ux_slave_transfer_request_data_pointer + UX_SLAVE_CLASS_D
 198:./Middlewares/ST/usbx/common/usbx_device_classes/src/ux_device_class_dfu_control_request.c **** 
 199:./Middlewares/ST/usbx/common/usbx_device_classes/src/ux_device_class_dfu_control_request.c ****                     /* String index set to 0.  */
 200:./Middlewares/ST/usbx/common/usbx_device_classes/src/ux_device_class_dfu_control_request.c ****                     *(transfer_request -> ux_slave_transfer_request_data_pointer + UX_SLAVE_CLASS_D
 201:./Middlewares/ST/usbx/common/usbx_device_classes/src/ux_device_class_dfu_control_request.c **** #endif
 202:./Middlewares/ST/usbx/common/usbx_device_classes/src/ux_device_class_dfu_control_request.c **** 
 203:./Middlewares/ST/usbx/common/usbx_device_classes/src/ux_device_class_dfu_control_request.c ****                     /* We have a request to obtain the status of the DFU instance. */
 204:./Middlewares/ST/usbx/common/usbx_device_classes/src/ux_device_class_dfu_control_request.c ****                     _ux_device_stack_transfer_request(transfer_request, UX_SLAVE_CLASS_DFU_GET_STAT
 205:./Middlewares/ST/usbx/common/usbx_device_classes/src/ux_device_class_dfu_control_request.c **** 
 206:./Middlewares/ST/usbx/common/usbx_device_classes/src/ux_device_class_dfu_control_request.c ****                     break;
 207:./Middlewares/ST/usbx/common/usbx_device_classes/src/ux_device_class_dfu_control_request.c **** 
 208:./Middlewares/ST/usbx/common/usbx_device_classes/src/ux_device_class_dfu_control_request.c ****                 case UX_SLAVE_CLASS_DFU_COMMAND_GET_STATE :
 209:./Middlewares/ST/usbx/common/usbx_device_classes/src/ux_device_class_dfu_control_request.c **** 
 210:./Middlewares/ST/usbx/common/usbx_device_classes/src/ux_device_class_dfu_control_request.c ****                     /* Fill the status data payload.  First with state.  */
 211:./Middlewares/ST/usbx/common/usbx_device_classes/src/ux_device_class_dfu_control_request.c ****                     *transfer_request -> ux_slave_transfer_request_data_pointer = (UCHAR) _ux_syste
 212:./Middlewares/ST/usbx/common/usbx_device_classes/src/ux_device_class_dfu_control_request.c **** 
 213:./Middlewares/ST/usbx/common/usbx_device_classes/src/ux_device_class_dfu_control_request.c ****                     /* We have a request to obtain the status of the DFU instance. */
 214:./Middlewares/ST/usbx/common/usbx_device_classes/src/ux_device_class_dfu_control_request.c ****                     _ux_device_stack_transfer_request(transfer_request, UX_SLAVE_CLASS_DFU_GET_STAT
 215:./Middlewares/ST/usbx/common/usbx_device_classes/src/ux_device_class_dfu_control_request.c **** 
 216:./Middlewares/ST/usbx/common/usbx_device_classes/src/ux_device_class_dfu_control_request.c ****                     break;
 217:./Middlewares/ST/usbx/common/usbx_device_classes/src/ux_device_class_dfu_control_request.c **** 
 218:./Middlewares/ST/usbx/common/usbx_device_classes/src/ux_device_class_dfu_control_request.c ****                 default:
ARM GAS  C:\Users\Dennis\AppData\Local\Temp\ccmm9cQc.s 			page 7


 219:./Middlewares/ST/usbx/common/usbx_device_classes/src/ux_device_class_dfu_control_request.c **** 
 220:./Middlewares/ST/usbx/common/usbx_device_classes/src/ux_device_class_dfu_control_request.c ****                     /* Unknown function. Stall the endpoint.  */
 221:./Middlewares/ST/usbx/common/usbx_device_classes/src/ux_device_class_dfu_control_request.c ****                     _ux_device_stack_endpoint_stall(&device -> ux_slave_device_control_endpoint);
 126              		.loc 1 221 21 view .LVU32
 127 005c 04F15C00 		add	r0, r4, #92
 128              	.LVL12:
 129              		.loc 1 221 21 is_stmt 0 view .LVU33
 130 0060 FFF7FEFF 		bl	_ux_device_stack_endpoint_stall
 131              	.LVL13:
 222:./Middlewares/ST/usbx/common/usbx_device_classes/src/ux_device_class_dfu_control_request.c ****                     break;
 132              		.loc 1 222 21 is_stmt 1 view .LVU34
 133 0064 F0E2     		b	.L1
 134              	.LVL14:
 135              	.L66:
 165:./Middlewares/ST/usbx/common/usbx_device_classes/src/ux_device_class_dfu_control_request.c ****                     {
 136              		.loc 1 165 21 view .LVU35
 165:./Middlewares/ST/usbx/common/usbx_device_classes/src/ux_device_class_dfu_control_request.c ****                     {
 137              		.loc 1 165 42 is_stmt 0 view .LVU36
 138 0066 D3F8AC31 		ldr	r3, [r3, #428]
 165:./Middlewares/ST/usbx/common/usbx_device_classes/src/ux_device_class_dfu_control_request.c ****                     {
 139              		.loc 1 165 24 view .LVU37
 140 006a 13F0080F 		tst	r3, #8
 141 006e 0BD0     		beq	.L15
 169:./Middlewares/ST/usbx/common/usbx_device_classes/src/ux_device_class_dfu_control_request.c ****                     }
 142              		.loc 1 169 25 is_stmt 1 view .LVU38
 169:./Middlewares/ST/usbx/common/usbx_device_classes/src/ux_device_class_dfu_control_request.c ****                     }
 143              		.loc 1 169 25 view .LVU39
 144 0070 0022     		movs	r2, #0
 145 0072 0121     		movs	r1, #1
 146 0074 09F1D400 		add	r0, r9, #212
 147              	.LVL15:
 169:./Middlewares/ST/usbx/common/usbx_device_classes/src/ux_device_class_dfu_control_request.c ****                     }
 148              		.loc 1 169 25 is_stmt 0 view .LVU40
 149 0078 FFF7FEFF 		bl	_ux_utility_event_flags_set
 150              	.LVL16:
 169:./Middlewares/ST/usbx/common/usbx_device_classes/src/ux_device_class_dfu_control_request.c ****                     }
 151              		.loc 1 169 25 is_stmt 1 view .LVU41
 152              	.L16:
 175:./Middlewares/ST/usbx/common/usbx_device_classes/src/ux_device_class_dfu_control_request.c ****                     }
 153              		.loc 1 175 25 discriminator 1 view .LVU42
 179:./Middlewares/ST/usbx/common/usbx_device_classes/src/ux_device_class_dfu_control_request.c **** 
 154              		.loc 1 179 21 discriminator 1 view .LVU43
 179:./Middlewares/ST/usbx/common/usbx_device_classes/src/ux_device_class_dfu_control_request.c **** 
 155              		.loc 1 179 38 is_stmt 0 discriminator 1 view .LVU44
 156 007c 8F4B     		ldr	r3, .L71
 157 007e 1B68     		ldr	r3, [r3]
 179:./Middlewares/ST/usbx/common/usbx_device_classes/src/ux_device_class_dfu_control_request.c **** 
 158              		.loc 1 179 82 discriminator 1 view .LVU45
 159 0080 0122     		movs	r2, #1
 160 0082 C3F8B821 		str	r2, [r3, #440]
 181:./Middlewares/ST/usbx/common/usbx_device_classes/src/ux_device_class_dfu_control_request.c **** 
 161              		.loc 1 181 21 is_stmt 1 discriminator 1 view .LVU46
 162 0086 DFE2     		b	.L1
 163              	.LVL17:
 164              	.L15:
 175:./Middlewares/ST/usbx/common/usbx_device_classes/src/ux_device_class_dfu_control_request.c ****                     }
 165              		.loc 1 175 25 view .LVU47
ARM GAS  C:\Users\Dennis\AppData\Local\Temp\ccmm9cQc.s 			page 8


 175:./Middlewares/ST/usbx/common/usbx_device_classes/src/ux_device_class_dfu_control_request.c ****                     }
 166              		.loc 1 175 25 view .LVU48
 167 0088 0022     		movs	r2, #0
 168 008a 0221     		movs	r1, #2
 169 008c 09F1D400 		add	r0, r9, #212
 170              	.LVL18:
 175:./Middlewares/ST/usbx/common/usbx_device_classes/src/ux_device_class_dfu_control_request.c ****                     }
 171              		.loc 1 175 25 is_stmt 0 view .LVU49
 172 0090 FFF7FEFF 		bl	_ux_utility_event_flags_set
 173              	.LVL19:
 174 0094 F2E7     		b	.L16
 175              	.LVL20:
 176              	.L12:
 189:./Middlewares/ST/usbx/common/usbx_device_classes/src/ux_device_class_dfu_control_request.c **** 
 177              		.loc 1 189 21 is_stmt 1 view .LVU50
 189:./Middlewares/ST/usbx/common/usbx_device_classes/src/ux_device_class_dfu_control_request.c **** 
 178              		.loc 1 189 39 is_stmt 0 view .LVU51
 179 0096 D4F89830 		ldr	r3, [r4, #152]
 189:./Middlewares/ST/usbx/common/usbx_device_classes/src/ux_device_class_dfu_control_request.c **** 
 180              		.loc 1 189 83 view .LVU52
 181 009a 99F80420 		ldrb	r2, [r9, #4]	@ zero_extendqisi2
 189:./Middlewares/ST/usbx/common/usbx_device_classes/src/ux_device_class_dfu_control_request.c **** 
 182              		.loc 1 189 81 view .LVU53
 183 009e 1A70     		strb	r2, [r3]
 192:./Middlewares/ST/usbx/common/usbx_device_classes/src/ux_device_class_dfu_control_request.c ****                     *(transfer_request -> ux_slave_transfer_request_data_pointer + UX_SLAVE_CLASS_D
 184              		.loc 1 192 21 is_stmt 1 view .LVU54
 192:./Middlewares/ST/usbx/common/usbx_device_classes/src/ux_device_class_dfu_control_request.c ****                     *(transfer_request -> ux_slave_transfer_request_data_pointer + UX_SLAVE_CLASS_D
 185              		.loc 1 192 40 is_stmt 0 view .LVU55
 186 00a0 D4F89830 		ldr	r3, [r4, #152]
 192:./Middlewares/ST/usbx/common/usbx_device_classes/src/ux_device_class_dfu_control_request.c ****                     *(transfer_request -> ux_slave_transfer_request_data_pointer + UX_SLAVE_CLASS_D
 187              		.loc 1 192 128 view .LVU56
 188 00a4 6422     		movs	r2, #100
 189 00a6 5A70     		strb	r2, [r3, #1]
 193:./Middlewares/ST/usbx/common/usbx_device_classes/src/ux_device_class_dfu_control_request.c ****                     *(transfer_request -> ux_slave_transfer_request_data_pointer + UX_SLAVE_CLASS_D
 190              		.loc 1 193 21 is_stmt 1 view .LVU57
 193:./Middlewares/ST/usbx/common/usbx_device_classes/src/ux_device_class_dfu_control_request.c ****                     *(transfer_request -> ux_slave_transfer_request_data_pointer + UX_SLAVE_CLASS_D
 191              		.loc 1 193 40 is_stmt 0 view .LVU58
 192 00a8 D4F89820 		ldr	r2, [r4, #152]
 193:./Middlewares/ST/usbx/common/usbx_device_classes/src/ux_device_class_dfu_control_request.c ****                     *(transfer_request -> ux_slave_transfer_request_data_pointer + UX_SLAVE_CLASS_D
 193              		.loc 1 193 132 view .LVU59
 194 00ac 0023     		movs	r3, #0
 195 00ae 9370     		strb	r3, [r2, #2]
 194:./Middlewares/ST/usbx/common/usbx_device_classes/src/ux_device_class_dfu_control_request.c **** 
 196              		.loc 1 194 21 is_stmt 1 view .LVU60
 194:./Middlewares/ST/usbx/common/usbx_device_classes/src/ux_device_class_dfu_control_request.c **** 
 197              		.loc 1 194 40 is_stmt 0 view .LVU61
 198 00b0 D4F89820 		ldr	r2, [r4, #152]
 194:./Middlewares/ST/usbx/common/usbx_device_classes/src/ux_device_class_dfu_control_request.c **** 
 199              		.loc 1 194 132 view .LVU62
 200 00b4 D370     		strb	r3, [r2, #3]
 197:./Middlewares/ST/usbx/common/usbx_device_classes/src/ux_device_class_dfu_control_request.c **** 
 201              		.loc 1 197 21 is_stmt 1 view .LVU63
 197:./Middlewares/ST/usbx/common/usbx_device_classes/src/ux_device_class_dfu_control_request.c **** 
 202              		.loc 1 197 148 is_stmt 0 view .LVU64
 203 00b6 814A     		ldr	r2, .L71
 204 00b8 1168     		ldr	r1, [r2]
 197:./Middlewares/ST/usbx/common/usbx_device_classes/src/ux_device_class_dfu_control_request.c **** 
ARM GAS  C:\Users\Dennis\AppData\Local\Temp\ccmm9cQc.s 			page 9


 205              		.loc 1 197 40 view .LVU65
 206 00ba D4F89820 		ldr	r2, [r4, #152]
 197:./Middlewares/ST/usbx/common/usbx_device_classes/src/ux_device_class_dfu_control_request.c **** 
 207              		.loc 1 197 123 view .LVU66
 208 00be 91F8B811 		ldrb	r1, [r1, #440]	@ zero_extendqisi2
 197:./Middlewares/ST/usbx/common/usbx_device_classes/src/ux_device_class_dfu_control_request.c **** 
 209              		.loc 1 197 121 view .LVU67
 210 00c2 1171     		strb	r1, [r2, #4]
 200:./Middlewares/ST/usbx/common/usbx_device_classes/src/ux_device_class_dfu_control_request.c **** #endif
 211              		.loc 1 200 21 is_stmt 1 view .LVU68
 200:./Middlewares/ST/usbx/common/usbx_device_classes/src/ux_device_class_dfu_control_request.c **** #endif
 212              		.loc 1 200 40 is_stmt 0 view .LVU69
 213 00c4 D4F89820 		ldr	r2, [r4, #152]
 200:./Middlewares/ST/usbx/common/usbx_device_classes/src/ux_device_class_dfu_control_request.c **** #endif
 214              		.loc 1 200 122 view .LVU70
 215 00c8 5371     		strb	r3, [r2, #5]
 204:./Middlewares/ST/usbx/common/usbx_device_classes/src/ux_device_class_dfu_control_request.c **** 
 216              		.loc 1 204 21 is_stmt 1 view .LVU71
 217 00ca 0622     		movs	r2, #6
 218 00cc 1146     		mov	r1, r2
 219 00ce 5046     		mov	r0, r10
 220              	.LVL21:
 204:./Middlewares/ST/usbx/common/usbx_device_classes/src/ux_device_class_dfu_control_request.c **** 
 221              		.loc 1 204 21 is_stmt 0 view .LVU72
 222 00d0 FFF7FEFF 		bl	_ux_device_stack_transfer_request
 223              	.LVL22:
 206:./Middlewares/ST/usbx/common/usbx_device_classes/src/ux_device_class_dfu_control_request.c **** 
 224              		.loc 1 206 21 is_stmt 1 view .LVU73
 225 00d4 B8E2     		b	.L1
 226              	.LVL23:
 227              	.L13:
 211:./Middlewares/ST/usbx/common/usbx_device_classes/src/ux_device_class_dfu_control_request.c **** 
 228              		.loc 1 211 21 view .LVU74
 211:./Middlewares/ST/usbx/common/usbx_device_classes/src/ux_device_class_dfu_control_request.c **** 
 229              		.loc 1 211 39 is_stmt 0 view .LVU75
 230 00d6 D4F89830 		ldr	r3, [r4, #152]
 211:./Middlewares/ST/usbx/common/usbx_device_classes/src/ux_device_class_dfu_control_request.c **** 
 231              		.loc 1 211 81 view .LVU76
 232 00da 1D70     		strb	r5, [r3]
 214:./Middlewares/ST/usbx/common/usbx_device_classes/src/ux_device_class_dfu_control_request.c **** 
 233              		.loc 1 214 21 is_stmt 1 view .LVU77
 234 00dc 0122     		movs	r2, #1
 235 00de 1146     		mov	r1, r2
 236 00e0 5046     		mov	r0, r10
 237              	.LVL24:
 214:./Middlewares/ST/usbx/common/usbx_device_classes/src/ux_device_class_dfu_control_request.c **** 
 238              		.loc 1 214 21 is_stmt 0 view .LVU78
 239 00e2 FFF7FEFF 		bl	_ux_device_stack_transfer_request
 240              	.LVL25:
 216:./Middlewares/ST/usbx/common/usbx_device_classes/src/ux_device_class_dfu_control_request.c **** 
 241              		.loc 1 216 21 is_stmt 1 view .LVU79
 242 00e6 AFE2     		b	.L1
 243              	.LVL26:
 244              	.L10:
 223:./Middlewares/ST/usbx/common/usbx_device_classes/src/ux_device_class_dfu_control_request.c ****             }
 224:./Middlewares/ST/usbx/common/usbx_device_classes/src/ux_device_class_dfu_control_request.c **** 
 225:./Middlewares/ST/usbx/common/usbx_device_classes/src/ux_device_class_dfu_control_request.c ****             break;
ARM GAS  C:\Users\Dennis\AppData\Local\Temp\ccmm9cQc.s 			page 10


 226:./Middlewares/ST/usbx/common/usbx_device_classes/src/ux_device_class_dfu_control_request.c **** 
 227:./Middlewares/ST/usbx/common/usbx_device_classes/src/ux_device_class_dfu_control_request.c ****         case UX_SYSTEM_DFU_STATE_APP_DETACH         :
 228:./Middlewares/ST/usbx/common/usbx_device_classes/src/ux_device_class_dfu_control_request.c **** 
 229:./Middlewares/ST/usbx/common/usbx_device_classes/src/ux_device_class_dfu_control_request.c ****             /* Here we process only the request we can accept in the APP DETACH state.  */
 230:./Middlewares/ST/usbx/common/usbx_device_classes/src/ux_device_class_dfu_control_request.c ****             switch (request)
 245              		.loc 1 230 13 view .LVU80
 246 00e8 032E     		cmp	r6, #3
 247 00ea 07D0     		beq	.L17
 248 00ec 052E     		cmp	r6, #5
 249 00ee 25D0     		beq	.L18
 231:./Middlewares/ST/usbx/common/usbx_device_classes/src/ux_device_class_dfu_control_request.c ****             {
 232:./Middlewares/ST/usbx/common/usbx_device_classes/src/ux_device_class_dfu_control_request.c **** 
 233:./Middlewares/ST/usbx/common/usbx_device_classes/src/ux_device_class_dfu_control_request.c ****                 case UX_SLAVE_CLASS_DFU_COMMAND_GET_STATUS :
 234:./Middlewares/ST/usbx/common/usbx_device_classes/src/ux_device_class_dfu_control_request.c **** 
 235:./Middlewares/ST/usbx/common/usbx_device_classes/src/ux_device_class_dfu_control_request.c **** #if UX_DEVICE_CLASS_DFU_STATUS_MODE == 1
 236:./Middlewares/ST/usbx/common/usbx_device_classes/src/ux_device_class_dfu_control_request.c ****                     _ux_device_class_dfu_status_get(dfu, transfer_request, UX_FALSE, 0, 0, 0);
 237:./Middlewares/ST/usbx/common/usbx_device_classes/src/ux_device_class_dfu_control_request.c **** #else
 238:./Middlewares/ST/usbx/common/usbx_device_classes/src/ux_device_class_dfu_control_request.c **** 
 239:./Middlewares/ST/usbx/common/usbx_device_classes/src/ux_device_class_dfu_control_request.c ****                     /* Fill the status data payload.  First with status.  */
 240:./Middlewares/ST/usbx/common/usbx_device_classes/src/ux_device_class_dfu_control_request.c ****                     *transfer_request -> ux_slave_transfer_request_data_pointer = (UCHAR) dfu -> ux
 241:./Middlewares/ST/usbx/common/usbx_device_classes/src/ux_device_class_dfu_control_request.c **** 
 242:./Middlewares/ST/usbx/common/usbx_device_classes/src/ux_device_class_dfu_control_request.c ****                     /* Poll time out value is set to 1ms.  */
 243:./Middlewares/ST/usbx/common/usbx_device_classes/src/ux_device_class_dfu_control_request.c ****                     *(transfer_request -> ux_slave_transfer_request_data_pointer + UX_SLAVE_CLASS_D
 244:./Middlewares/ST/usbx/common/usbx_device_classes/src/ux_device_class_dfu_control_request.c ****                     *(transfer_request -> ux_slave_transfer_request_data_pointer + UX_SLAVE_CLASS_D
 245:./Middlewares/ST/usbx/common/usbx_device_classes/src/ux_device_class_dfu_control_request.c ****                     *(transfer_request -> ux_slave_transfer_request_data_pointer + UX_SLAVE_CLASS_D
 246:./Middlewares/ST/usbx/common/usbx_device_classes/src/ux_device_class_dfu_control_request.c **** 
 247:./Middlewares/ST/usbx/common/usbx_device_classes/src/ux_device_class_dfu_control_request.c ****                     /* Next state.  */
 248:./Middlewares/ST/usbx/common/usbx_device_classes/src/ux_device_class_dfu_control_request.c ****                     *(transfer_request -> ux_slave_transfer_request_data_pointer + UX_SLAVE_CLASS_D
 249:./Middlewares/ST/usbx/common/usbx_device_classes/src/ux_device_class_dfu_control_request.c **** 
 250:./Middlewares/ST/usbx/common/usbx_device_classes/src/ux_device_class_dfu_control_request.c ****                     /* String index set to 0.  */
 251:./Middlewares/ST/usbx/common/usbx_device_classes/src/ux_device_class_dfu_control_request.c ****                     *(transfer_request -> ux_slave_transfer_request_data_pointer + UX_SLAVE_CLASS_D
 252:./Middlewares/ST/usbx/common/usbx_device_classes/src/ux_device_class_dfu_control_request.c **** #endif
 253:./Middlewares/ST/usbx/common/usbx_device_classes/src/ux_device_class_dfu_control_request.c **** 
 254:./Middlewares/ST/usbx/common/usbx_device_classes/src/ux_device_class_dfu_control_request.c ****                     /* We have a request to obtain the status of the DFU instance. */
 255:./Middlewares/ST/usbx/common/usbx_device_classes/src/ux_device_class_dfu_control_request.c ****                     _ux_device_stack_transfer_request(transfer_request, UX_SLAVE_CLASS_DFU_GET_STAT
 256:./Middlewares/ST/usbx/common/usbx_device_classes/src/ux_device_class_dfu_control_request.c **** 
 257:./Middlewares/ST/usbx/common/usbx_device_classes/src/ux_device_class_dfu_control_request.c ****                     break;
 258:./Middlewares/ST/usbx/common/usbx_device_classes/src/ux_device_class_dfu_control_request.c **** 
 259:./Middlewares/ST/usbx/common/usbx_device_classes/src/ux_device_class_dfu_control_request.c ****                 case UX_SLAVE_CLASS_DFU_COMMAND_GET_STATE :
 260:./Middlewares/ST/usbx/common/usbx_device_classes/src/ux_device_class_dfu_control_request.c **** 
 261:./Middlewares/ST/usbx/common/usbx_device_classes/src/ux_device_class_dfu_control_request.c ****                     /* Fill the status data payload.  First with state.  */
 262:./Middlewares/ST/usbx/common/usbx_device_classes/src/ux_device_class_dfu_control_request.c ****                     *transfer_request -> ux_slave_transfer_request_data_pointer = (UCHAR) _ux_syste
 263:./Middlewares/ST/usbx/common/usbx_device_classes/src/ux_device_class_dfu_control_request.c **** 
 264:./Middlewares/ST/usbx/common/usbx_device_classes/src/ux_device_class_dfu_control_request.c ****                     /* We have a request to obtain the status of the DFU instance. */
 265:./Middlewares/ST/usbx/common/usbx_device_classes/src/ux_device_class_dfu_control_request.c ****                     _ux_device_stack_transfer_request(transfer_request, UX_SLAVE_CLASS_DFU_GET_STAT
 266:./Middlewares/ST/usbx/common/usbx_device_classes/src/ux_device_class_dfu_control_request.c **** 
 267:./Middlewares/ST/usbx/common/usbx_device_classes/src/ux_device_class_dfu_control_request.c ****                     break;
 268:./Middlewares/ST/usbx/common/usbx_device_classes/src/ux_device_class_dfu_control_request.c **** 
 269:./Middlewares/ST/usbx/common/usbx_device_classes/src/ux_device_class_dfu_control_request.c ****                 default:
 270:./Middlewares/ST/usbx/common/usbx_device_classes/src/ux_device_class_dfu_control_request.c **** 
 271:./Middlewares/ST/usbx/common/usbx_device_classes/src/ux_device_class_dfu_control_request.c ****                     /* Unknown function. Stall the endpoint.  */
 272:./Middlewares/ST/usbx/common/usbx_device_classes/src/ux_device_class_dfu_control_request.c ****                     _ux_device_stack_endpoint_stall(&device -> ux_slave_device_control_endpoint);
 250              		.loc 1 272 21 view .LVU81
 251 00f0 04F15C00 		add	r0, r4, #92
 252              	.LVL27:
 253              		.loc 1 272 21 is_stmt 0 view .LVU82
 254 00f4 FFF7FEFF 		bl	_ux_device_stack_endpoint_stall
ARM GAS  C:\Users\Dennis\AppData\Local\Temp\ccmm9cQc.s 			page 11


 255              	.LVL28:
 273:./Middlewares/ST/usbx/common/usbx_device_classes/src/ux_device_class_dfu_control_request.c ****                     break;
 256              		.loc 1 273 21 is_stmt 1 view .LVU83
 274:./Middlewares/ST/usbx/common/usbx_device_classes/src/ux_device_class_dfu_control_request.c ****             }
 275:./Middlewares/ST/usbx/common/usbx_device_classes/src/ux_device_class_dfu_control_request.c **** 
 276:./Middlewares/ST/usbx/common/usbx_device_classes/src/ux_device_class_dfu_control_request.c ****             break;
 277:./Middlewares/ST/usbx/common/usbx_device_classes/src/ux_device_class_dfu_control_request.c **** 
 278:./Middlewares/ST/usbx/common/usbx_device_classes/src/ux_device_class_dfu_control_request.c ****         case UX_SYSTEM_DFU_STATE_DFU_IDLE         :
 279:./Middlewares/ST/usbx/common/usbx_device_classes/src/ux_device_class_dfu_control_request.c **** 
 280:./Middlewares/ST/usbx/common/usbx_device_classes/src/ux_device_class_dfu_control_request.c ****             /* Here we process only the request we can accept in the DFU mode IDLE state.  */
 281:./Middlewares/ST/usbx/common/usbx_device_classes/src/ux_device_class_dfu_control_request.c ****             switch (request)
 282:./Middlewares/ST/usbx/common/usbx_device_classes/src/ux_device_class_dfu_control_request.c ****             {
 283:./Middlewares/ST/usbx/common/usbx_device_classes/src/ux_device_class_dfu_control_request.c **** 
 284:./Middlewares/ST/usbx/common/usbx_device_classes/src/ux_device_class_dfu_control_request.c ****                 case UX_SLAVE_CLASS_DFU_COMMAND_DOWNLOAD :
 285:./Middlewares/ST/usbx/common/usbx_device_classes/src/ux_device_class_dfu_control_request.c **** 
 286:./Middlewares/ST/usbx/common/usbx_device_classes/src/ux_device_class_dfu_control_request.c ****                     /* We received a DOWNLOAD command. Check the length field of the request. It ca
 287:./Middlewares/ST/usbx/common/usbx_device_classes/src/ux_device_class_dfu_control_request.c ****                     if (request_length == 0)
 288:./Middlewares/ST/usbx/common/usbx_device_classes/src/ux_device_class_dfu_control_request.c ****                     {
 289:./Middlewares/ST/usbx/common/usbx_device_classes/src/ux_device_class_dfu_control_request.c **** 
 290:./Middlewares/ST/usbx/common/usbx_device_classes/src/ux_device_class_dfu_control_request.c ****                         /* Zero length download is not accepted. Stall the endpoint.  */
 291:./Middlewares/ST/usbx/common/usbx_device_classes/src/ux_device_class_dfu_control_request.c ****                         _ux_device_stack_endpoint_stall(&device -> ux_slave_device_control_endpoint
 292:./Middlewares/ST/usbx/common/usbx_device_classes/src/ux_device_class_dfu_control_request.c **** 
 293:./Middlewares/ST/usbx/common/usbx_device_classes/src/ux_device_class_dfu_control_request.c ****                         /* In the system, state the DFU state machine to dfu ERROR.  */
 294:./Middlewares/ST/usbx/common/usbx_device_classes/src/ux_device_class_dfu_control_request.c ****                         _ux_system_slave -> ux_system_slave_device_dfu_state_machine = UX_SYSTEM_DF
 295:./Middlewares/ST/usbx/common/usbx_device_classes/src/ux_device_class_dfu_control_request.c **** 
 296:./Middlewares/ST/usbx/common/usbx_device_classes/src/ux_device_class_dfu_control_request.c ****                     }
 297:./Middlewares/ST/usbx/common/usbx_device_classes/src/ux_device_class_dfu_control_request.c ****                     else
 298:./Middlewares/ST/usbx/common/usbx_device_classes/src/ux_device_class_dfu_control_request.c ****                     {
 299:./Middlewares/ST/usbx/common/usbx_device_classes/src/ux_device_class_dfu_control_request.c **** 
 300:./Middlewares/ST/usbx/common/usbx_device_classes/src/ux_device_class_dfu_control_request.c ****                         /* Have we declared a DOWNLOAD possible in our device framework ? */
 301:./Middlewares/ST/usbx/common/usbx_device_classes/src/ux_device_class_dfu_control_request.c ****                         if (_ux_system_slave -> ux_system_slave_device_dfu_capabilities & UX_SLAVE_
 302:./Middlewares/ST/usbx/common/usbx_device_classes/src/ux_device_class_dfu_control_request.c ****                         {
 303:./Middlewares/ST/usbx/common/usbx_device_classes/src/ux_device_class_dfu_control_request.c **** 
 304:./Middlewares/ST/usbx/common/usbx_device_classes/src/ux_device_class_dfu_control_request.c ****                             /* Send a notification to the application.  Begin of transfer.  */
 305:./Middlewares/ST/usbx/common/usbx_device_classes/src/ux_device_class_dfu_control_request.c ****                             dfu -> ux_slave_class_dfu_notify(dfu, UX_SLAVE_CLASS_DFU_NOTIFICATION_B
 306:./Middlewares/ST/usbx/common/usbx_device_classes/src/ux_device_class_dfu_control_request.c **** 
 307:./Middlewares/ST/usbx/common/usbx_device_classes/src/ux_device_class_dfu_control_request.c ****                             /* Write the first block to the firmware.  */
 308:./Middlewares/ST/usbx/common/usbx_device_classes/src/ux_device_class_dfu_control_request.c ****                             dfu -> ux_slave_class_dfu_write(dfu, request_value,
 309:./Middlewares/ST/usbx/common/usbx_device_classes/src/ux_device_class_dfu_control_request.c ****                                                                 transfer_request -> ux_slave_transf
 310:./Middlewares/ST/usbx/common/usbx_device_classes/src/ux_device_class_dfu_control_request.c ****                                                                 request_length,
 311:./Middlewares/ST/usbx/common/usbx_device_classes/src/ux_device_class_dfu_control_request.c ****                                                                 &actual_length);
 312:./Middlewares/ST/usbx/common/usbx_device_classes/src/ux_device_class_dfu_control_request.c **** 
 313:./Middlewares/ST/usbx/common/usbx_device_classes/src/ux_device_class_dfu_control_request.c ****                             /* In the system, state the DFU state machine to dfu DOWNLOAD SYNC.  */
 314:./Middlewares/ST/usbx/common/usbx_device_classes/src/ux_device_class_dfu_control_request.c ****                             _ux_system_slave -> ux_system_slave_device_dfu_state_machine = UX_SYSTE
 315:./Middlewares/ST/usbx/common/usbx_device_classes/src/ux_device_class_dfu_control_request.c **** 
 316:./Middlewares/ST/usbx/common/usbx_device_classes/src/ux_device_class_dfu_control_request.c ****                         }
 317:./Middlewares/ST/usbx/common/usbx_device_classes/src/ux_device_class_dfu_control_request.c ****                         else
 318:./Middlewares/ST/usbx/common/usbx_device_classes/src/ux_device_class_dfu_control_request.c ****                         {
 319:./Middlewares/ST/usbx/common/usbx_device_classes/src/ux_device_class_dfu_control_request.c **** 
 320:./Middlewares/ST/usbx/common/usbx_device_classes/src/ux_device_class_dfu_control_request.c ****                             /* Download is not accepted. Stall the endpoint.  */
 321:./Middlewares/ST/usbx/common/usbx_device_classes/src/ux_device_class_dfu_control_request.c ****                             _ux_device_stack_endpoint_stall(&device -> ux_slave_device_control_endp
 322:./Middlewares/ST/usbx/common/usbx_device_classes/src/ux_device_class_dfu_control_request.c **** 
 323:./Middlewares/ST/usbx/common/usbx_device_classes/src/ux_device_class_dfu_control_request.c ****                             /* In the system, state the DFU state machine to dfu ERROR.  */
 324:./Middlewares/ST/usbx/common/usbx_device_classes/src/ux_device_class_dfu_control_request.c ****                             _ux_system_slave -> ux_system_slave_device_dfu_state_machine = UX_SYSTE
 325:./Middlewares/ST/usbx/common/usbx_device_classes/src/ux_device_class_dfu_control_request.c **** 
 326:./Middlewares/ST/usbx/common/usbx_device_classes/src/ux_device_class_dfu_control_request.c ****                         }
 327:./Middlewares/ST/usbx/common/usbx_device_classes/src/ux_device_class_dfu_control_request.c **** 
ARM GAS  C:\Users\Dennis\AppData\Local\Temp\ccmm9cQc.s 			page 12


 328:./Middlewares/ST/usbx/common/usbx_device_classes/src/ux_device_class_dfu_control_request.c ****                     }
 329:./Middlewares/ST/usbx/common/usbx_device_classes/src/ux_device_class_dfu_control_request.c ****                     break;
 330:./Middlewares/ST/usbx/common/usbx_device_classes/src/ux_device_class_dfu_control_request.c **** 
 331:./Middlewares/ST/usbx/common/usbx_device_classes/src/ux_device_class_dfu_control_request.c ****                 case UX_SLAVE_CLASS_DFU_COMMAND_ABORT :
 332:./Middlewares/ST/usbx/common/usbx_device_classes/src/ux_device_class_dfu_control_request.c **** 
 333:./Middlewares/ST/usbx/common/usbx_device_classes/src/ux_device_class_dfu_control_request.c ****                         /* Send a notification to the application.  */
 334:./Middlewares/ST/usbx/common/usbx_device_classes/src/ux_device_class_dfu_control_request.c ****                         dfu -> ux_slave_class_dfu_notify(dfu, UX_SLAVE_CLASS_DFU_NOTIFICATION_ABORT
 335:./Middlewares/ST/usbx/common/usbx_device_classes/src/ux_device_class_dfu_control_request.c **** 
 336:./Middlewares/ST/usbx/common/usbx_device_classes/src/ux_device_class_dfu_control_request.c ****                         /* In the system, state the DFU state machine to dfu IDLE.  */
 337:./Middlewares/ST/usbx/common/usbx_device_classes/src/ux_device_class_dfu_control_request.c ****                         _ux_system_slave -> ux_system_slave_device_dfu_state_machine = UX_SYSTEM_DF
 338:./Middlewares/ST/usbx/common/usbx_device_classes/src/ux_device_class_dfu_control_request.c **** 
 339:./Middlewares/ST/usbx/common/usbx_device_classes/src/ux_device_class_dfu_control_request.c ****                     break;
 340:./Middlewares/ST/usbx/common/usbx_device_classes/src/ux_device_class_dfu_control_request.c **** 
 341:./Middlewares/ST/usbx/common/usbx_device_classes/src/ux_device_class_dfu_control_request.c ****                 case UX_SLAVE_CLASS_DFU_COMMAND_GET_STATUS :
 342:./Middlewares/ST/usbx/common/usbx_device_classes/src/ux_device_class_dfu_control_request.c **** 
 343:./Middlewares/ST/usbx/common/usbx_device_classes/src/ux_device_class_dfu_control_request.c **** #if UX_DEVICE_CLASS_DFU_STATUS_MODE == 1
 344:./Middlewares/ST/usbx/common/usbx_device_classes/src/ux_device_class_dfu_control_request.c ****                     _ux_device_class_dfu_status_get(dfu, transfer_request, UX_FALSE, 0, 0, 0);
 345:./Middlewares/ST/usbx/common/usbx_device_classes/src/ux_device_class_dfu_control_request.c **** #else
 346:./Middlewares/ST/usbx/common/usbx_device_classes/src/ux_device_class_dfu_control_request.c **** 
 347:./Middlewares/ST/usbx/common/usbx_device_classes/src/ux_device_class_dfu_control_request.c ****                     /* Fill the status data payload.  First with status.  */
 348:./Middlewares/ST/usbx/common/usbx_device_classes/src/ux_device_class_dfu_control_request.c ****                     *transfer_request -> ux_slave_transfer_request_data_pointer = (UCHAR) dfu -> ux
 349:./Middlewares/ST/usbx/common/usbx_device_classes/src/ux_device_class_dfu_control_request.c **** 
 350:./Middlewares/ST/usbx/common/usbx_device_classes/src/ux_device_class_dfu_control_request.c ****                     /* Poll time out value is set to 1ms.  */
 351:./Middlewares/ST/usbx/common/usbx_device_classes/src/ux_device_class_dfu_control_request.c ****                     *(transfer_request -> ux_slave_transfer_request_data_pointer + UX_SLAVE_CLASS_D
 352:./Middlewares/ST/usbx/common/usbx_device_classes/src/ux_device_class_dfu_control_request.c ****                     *(transfer_request -> ux_slave_transfer_request_data_pointer + UX_SLAVE_CLASS_D
 353:./Middlewares/ST/usbx/common/usbx_device_classes/src/ux_device_class_dfu_control_request.c ****                     *(transfer_request -> ux_slave_transfer_request_data_pointer + UX_SLAVE_CLASS_D
 354:./Middlewares/ST/usbx/common/usbx_device_classes/src/ux_device_class_dfu_control_request.c **** 
 355:./Middlewares/ST/usbx/common/usbx_device_classes/src/ux_device_class_dfu_control_request.c ****                     /* Next state.  */
 356:./Middlewares/ST/usbx/common/usbx_device_classes/src/ux_device_class_dfu_control_request.c ****                     *(transfer_request -> ux_slave_transfer_request_data_pointer + UX_SLAVE_CLASS_D
 357:./Middlewares/ST/usbx/common/usbx_device_classes/src/ux_device_class_dfu_control_request.c **** 
 358:./Middlewares/ST/usbx/common/usbx_device_classes/src/ux_device_class_dfu_control_request.c ****                     /* String index set to 0.  */
 359:./Middlewares/ST/usbx/common/usbx_device_classes/src/ux_device_class_dfu_control_request.c ****                     *(transfer_request -> ux_slave_transfer_request_data_pointer + UX_SLAVE_CLASS_D
 360:./Middlewares/ST/usbx/common/usbx_device_classes/src/ux_device_class_dfu_control_request.c **** #endif
 361:./Middlewares/ST/usbx/common/usbx_device_classes/src/ux_device_class_dfu_control_request.c **** 
 362:./Middlewares/ST/usbx/common/usbx_device_classes/src/ux_device_class_dfu_control_request.c ****                     /* We have a request to obtain the status of the DFU instance. */
 363:./Middlewares/ST/usbx/common/usbx_device_classes/src/ux_device_class_dfu_control_request.c ****                     _ux_device_stack_transfer_request(transfer_request, UX_SLAVE_CLASS_DFU_GET_STAT
 364:./Middlewares/ST/usbx/common/usbx_device_classes/src/ux_device_class_dfu_control_request.c **** 
 365:./Middlewares/ST/usbx/common/usbx_device_classes/src/ux_device_class_dfu_control_request.c ****                     break;
 366:./Middlewares/ST/usbx/common/usbx_device_classes/src/ux_device_class_dfu_control_request.c **** 
 367:./Middlewares/ST/usbx/common/usbx_device_classes/src/ux_device_class_dfu_control_request.c ****                 case UX_SLAVE_CLASS_DFU_COMMAND_GET_STATE :
 368:./Middlewares/ST/usbx/common/usbx_device_classes/src/ux_device_class_dfu_control_request.c **** 
 369:./Middlewares/ST/usbx/common/usbx_device_classes/src/ux_device_class_dfu_control_request.c ****                     /* Fill the status data payload.  First with state.  */
 370:./Middlewares/ST/usbx/common/usbx_device_classes/src/ux_device_class_dfu_control_request.c ****                     *transfer_request -> ux_slave_transfer_request_data_pointer = (UCHAR) _ux_syste
 371:./Middlewares/ST/usbx/common/usbx_device_classes/src/ux_device_class_dfu_control_request.c **** 
 372:./Middlewares/ST/usbx/common/usbx_device_classes/src/ux_device_class_dfu_control_request.c ****                     /* We have a request to obtain the status of the DFU instance. */
 373:./Middlewares/ST/usbx/common/usbx_device_classes/src/ux_device_class_dfu_control_request.c ****                     _ux_device_stack_transfer_request(transfer_request, UX_SLAVE_CLASS_DFU_GET_STAT
 374:./Middlewares/ST/usbx/common/usbx_device_classes/src/ux_device_class_dfu_control_request.c **** 
 375:./Middlewares/ST/usbx/common/usbx_device_classes/src/ux_device_class_dfu_control_request.c ****                     break;
 376:./Middlewares/ST/usbx/common/usbx_device_classes/src/ux_device_class_dfu_control_request.c **** 
 377:./Middlewares/ST/usbx/common/usbx_device_classes/src/ux_device_class_dfu_control_request.c **** #ifndef UX_DEVICE_CLASS_DFU_UPLOAD_DISABLE
 378:./Middlewares/ST/usbx/common/usbx_device_classes/src/ux_device_class_dfu_control_request.c ****                 case UX_SLAVE_CLASS_DFU_COMMAND_UPLOAD:
 379:./Middlewares/ST/usbx/common/usbx_device_classes/src/ux_device_class_dfu_control_request.c **** 
 380:./Middlewares/ST/usbx/common/usbx_device_classes/src/ux_device_class_dfu_control_request.c ****                     /* bitCanUpload != 1, or length = 0, or length > wTransferSize (we can support 
 381:./Middlewares/ST/usbx/common/usbx_device_classes/src/ux_device_class_dfu_control_request.c ****                     if (!(_ux_system_slave -> ux_system_slave_device_dfu_capabilities & UX_SLAVE_CL
 382:./Middlewares/ST/usbx/common/usbx_device_classes/src/ux_device_class_dfu_control_request.c ****                         (request_length == 0) ||
 383:./Middlewares/ST/usbx/common/usbx_device_classes/src/ux_device_class_dfu_control_request.c ****                         (request_length > UX_SLAVE_REQUEST_CONTROL_MAX_LENGTH))
 384:./Middlewares/ST/usbx/common/usbx_device_classes/src/ux_device_class_dfu_control_request.c ****                     {
ARM GAS  C:\Users\Dennis\AppData\Local\Temp\ccmm9cQc.s 			page 13


 385:./Middlewares/ST/usbx/common/usbx_device_classes/src/ux_device_class_dfu_control_request.c ****                         _ux_device_stack_endpoint_stall(&device -> ux_slave_device_control_endpoint
 386:./Middlewares/ST/usbx/common/usbx_device_classes/src/ux_device_class_dfu_control_request.c **** 
 387:./Middlewares/ST/usbx/common/usbx_device_classes/src/ux_device_class_dfu_control_request.c ****                         /* In the system, state the DFU state machine to dfu ERROR.  */
 388:./Middlewares/ST/usbx/common/usbx_device_classes/src/ux_device_class_dfu_control_request.c ****                         _ux_system_slave -> ux_system_slave_device_dfu_state_machine = UX_SYSTEM_DF
 389:./Middlewares/ST/usbx/common/usbx_device_classes/src/ux_device_class_dfu_control_request.c **** 
 390:./Middlewares/ST/usbx/common/usbx_device_classes/src/ux_device_class_dfu_control_request.c ****                         break;
 391:./Middlewares/ST/usbx/common/usbx_device_classes/src/ux_device_class_dfu_control_request.c ****                     }
 392:./Middlewares/ST/usbx/common/usbx_device_classes/src/ux_device_class_dfu_control_request.c **** 
 393:./Middlewares/ST/usbx/common/usbx_device_classes/src/ux_device_class_dfu_control_request.c ****                     /* bitCanUpload = 1.  */
 394:./Middlewares/ST/usbx/common/usbx_device_classes/src/ux_device_class_dfu_control_request.c **** 
 395:./Middlewares/ST/usbx/common/usbx_device_classes/src/ux_device_class_dfu_control_request.c ****                     /* Send a notification to the application.  Begin of transfer.  */
 396:./Middlewares/ST/usbx/common/usbx_device_classes/src/ux_device_class_dfu_control_request.c ****                     dfu -> ux_slave_class_dfu_notify(dfu, UX_SLAVE_CLASS_DFU_NOTIFICATION_BEGIN_UPL
 397:./Middlewares/ST/usbx/common/usbx_device_classes/src/ux_device_class_dfu_control_request.c **** 
 398:./Middlewares/ST/usbx/common/usbx_device_classes/src/ux_device_class_dfu_control_request.c ****                     /* Read the first block to the firmware.  */
 399:./Middlewares/ST/usbx/common/usbx_device_classes/src/ux_device_class_dfu_control_request.c ****                     dfu -> ux_slave_class_dfu_read(dfu, request_value,
 400:./Middlewares/ST/usbx/common/usbx_device_classes/src/ux_device_class_dfu_control_request.c ****                                                         transfer_request -> ux_slave_transfer_reque
 401:./Middlewares/ST/usbx/common/usbx_device_classes/src/ux_device_class_dfu_control_request.c ****                                                         request_length,
 402:./Middlewares/ST/usbx/common/usbx_device_classes/src/ux_device_class_dfu_control_request.c ****                                                         &actual_length);
 403:./Middlewares/ST/usbx/common/usbx_device_classes/src/ux_device_class_dfu_control_request.c **** 
 404:./Middlewares/ST/usbx/common/usbx_device_classes/src/ux_device_class_dfu_control_request.c ****                     /* In the system, state the DFU state machine to dfu UPLOAD IDLE.  */
 405:./Middlewares/ST/usbx/common/usbx_device_classes/src/ux_device_class_dfu_control_request.c ****                     _ux_system_slave -> ux_system_slave_device_dfu_state_machine = UX_SYSTEM_DFU_ST
 406:./Middlewares/ST/usbx/common/usbx_device_classes/src/ux_device_class_dfu_control_request.c **** 
 407:./Middlewares/ST/usbx/common/usbx_device_classes/src/ux_device_class_dfu_control_request.c ****                     /* We have a request to upload DFU firmware block. */
 408:./Middlewares/ST/usbx/common/usbx_device_classes/src/ux_device_class_dfu_control_request.c ****                     _ux_device_stack_transfer_request(transfer_request, actual_length, request_leng
 409:./Middlewares/ST/usbx/common/usbx_device_classes/src/ux_device_class_dfu_control_request.c **** 
 410:./Middlewares/ST/usbx/common/usbx_device_classes/src/ux_device_class_dfu_control_request.c ****                     break;
 411:./Middlewares/ST/usbx/common/usbx_device_classes/src/ux_device_class_dfu_control_request.c **** #endif
 412:./Middlewares/ST/usbx/common/usbx_device_classes/src/ux_device_class_dfu_control_request.c **** 
 413:./Middlewares/ST/usbx/common/usbx_device_classes/src/ux_device_class_dfu_control_request.c ****                 default:
 414:./Middlewares/ST/usbx/common/usbx_device_classes/src/ux_device_class_dfu_control_request.c **** 
 415:./Middlewares/ST/usbx/common/usbx_device_classes/src/ux_device_class_dfu_control_request.c ****                     /* Unknown function. Stall the endpoint.  */
 416:./Middlewares/ST/usbx/common/usbx_device_classes/src/ux_device_class_dfu_control_request.c ****                     _ux_device_stack_endpoint_stall(&device -> ux_slave_device_control_endpoint);
 417:./Middlewares/ST/usbx/common/usbx_device_classes/src/ux_device_class_dfu_control_request.c **** 
 418:./Middlewares/ST/usbx/common/usbx_device_classes/src/ux_device_class_dfu_control_request.c ****                     /* In the system, state the DFU state machine to dfu ERROR.  */
 419:./Middlewares/ST/usbx/common/usbx_device_classes/src/ux_device_class_dfu_control_request.c ****                        _ux_system_slave -> ux_system_slave_device_dfu_state_machine = UX_SYSTEM_DFU
 420:./Middlewares/ST/usbx/common/usbx_device_classes/src/ux_device_class_dfu_control_request.c **** 
 421:./Middlewares/ST/usbx/common/usbx_device_classes/src/ux_device_class_dfu_control_request.c ****                     break;
 422:./Middlewares/ST/usbx/common/usbx_device_classes/src/ux_device_class_dfu_control_request.c ****             }
 423:./Middlewares/ST/usbx/common/usbx_device_classes/src/ux_device_class_dfu_control_request.c **** 
 424:./Middlewares/ST/usbx/common/usbx_device_classes/src/ux_device_class_dfu_control_request.c ****             break;
 425:./Middlewares/ST/usbx/common/usbx_device_classes/src/ux_device_class_dfu_control_request.c **** 
 426:./Middlewares/ST/usbx/common/usbx_device_classes/src/ux_device_class_dfu_control_request.c **** 
 427:./Middlewares/ST/usbx/common/usbx_device_classes/src/ux_device_class_dfu_control_request.c ****         case UX_SYSTEM_DFU_STATE_DFU_DNLOAD_SYNC         :
 428:./Middlewares/ST/usbx/common/usbx_device_classes/src/ux_device_class_dfu_control_request.c **** 
 429:./Middlewares/ST/usbx/common/usbx_device_classes/src/ux_device_class_dfu_control_request.c ****             /* Here we process only the request we can accept in the DFU mode DOWNLOAD state.  */
 430:./Middlewares/ST/usbx/common/usbx_device_classes/src/ux_device_class_dfu_control_request.c ****             switch (request)
 431:./Middlewares/ST/usbx/common/usbx_device_classes/src/ux_device_class_dfu_control_request.c ****             {
 432:./Middlewares/ST/usbx/common/usbx_device_classes/src/ux_device_class_dfu_control_request.c **** 
 433:./Middlewares/ST/usbx/common/usbx_device_classes/src/ux_device_class_dfu_control_request.c ****                 case UX_SLAVE_CLASS_DFU_COMMAND_GET_STATUS :
 434:./Middlewares/ST/usbx/common/usbx_device_classes/src/ux_device_class_dfu_control_request.c **** 
 435:./Middlewares/ST/usbx/common/usbx_device_classes/src/ux_device_class_dfu_control_request.c **** #if UX_DEVICE_CLASS_DFU_STATUS_MODE == 1
 436:./Middlewares/ST/usbx/common/usbx_device_classes/src/ux_device_class_dfu_control_request.c ****                     _ux_device_class_dfu_status_get(dfu, transfer_request, UX_TRUE,
 437:./Middlewares/ST/usbx/common/usbx_device_classes/src/ux_device_class_dfu_control_request.c ****                             UX_SLAVE_CLASS_DFU_STATUS_STATE_DFU_DNLOAD_IDLE,
 438:./Middlewares/ST/usbx/common/usbx_device_classes/src/ux_device_class_dfu_control_request.c ****                             UX_SLAVE_CLASS_DFU_STATUS_STATE_DFU_DNBUSY,
 439:./Middlewares/ST/usbx/common/usbx_device_classes/src/ux_device_class_dfu_control_request.c ****                             UX_SLAVE_CLASS_DFU_STATUS_STATE_DFU_ERROR);
 440:./Middlewares/ST/usbx/common/usbx_device_classes/src/ux_device_class_dfu_control_request.c **** #else
 441:./Middlewares/ST/usbx/common/usbx_device_classes/src/ux_device_class_dfu_control_request.c **** 
ARM GAS  C:\Users\Dennis\AppData\Local\Temp\ccmm9cQc.s 			page 14


 442:./Middlewares/ST/usbx/common/usbx_device_classes/src/ux_device_class_dfu_control_request.c ****                     /* Check if the device is still buys performing the write. Write could be delay
 443:./Middlewares/ST/usbx/common/usbx_device_classes/src/ux_device_class_dfu_control_request.c ****                     dfu -> ux_slave_class_dfu_get_status(dfu, &media_status);
 444:./Middlewares/ST/usbx/common/usbx_device_classes/src/ux_device_class_dfu_control_request.c **** 
 445:./Middlewares/ST/usbx/common/usbx_device_classes/src/ux_device_class_dfu_control_request.c ****                     /* Check status of device.  */
 446:./Middlewares/ST/usbx/common/usbx_device_classes/src/ux_device_class_dfu_control_request.c ****                     switch (media_status)
 447:./Middlewares/ST/usbx/common/usbx_device_classes/src/ux_device_class_dfu_control_request.c ****                     {
 448:./Middlewares/ST/usbx/common/usbx_device_classes/src/ux_device_class_dfu_control_request.c **** 
 449:./Middlewares/ST/usbx/common/usbx_device_classes/src/ux_device_class_dfu_control_request.c ****                         case     UX_SLAVE_CLASS_DFU_MEDIA_STATUS_OK        :
 450:./Middlewares/ST/usbx/common/usbx_device_classes/src/ux_device_class_dfu_control_request.c **** 
 451:./Middlewares/ST/usbx/common/usbx_device_classes/src/ux_device_class_dfu_control_request.c ****                             /* Set the next state for idle and no error status.  */
 452:./Middlewares/ST/usbx/common/usbx_device_classes/src/ux_device_class_dfu_control_request.c ****                             dfu -> ux_slave_class_dfu_status = UX_SLAVE_CLASS_DFU_STATUS_OK ;
 453:./Middlewares/ST/usbx/common/usbx_device_classes/src/ux_device_class_dfu_control_request.c ****                                _ux_system_slave -> ux_system_slave_device_dfu_state_machine = UX_SL
 454:./Middlewares/ST/usbx/common/usbx_device_classes/src/ux_device_class_dfu_control_request.c ****                             break;
 455:./Middlewares/ST/usbx/common/usbx_device_classes/src/ux_device_class_dfu_control_request.c **** 
 456:./Middlewares/ST/usbx/common/usbx_device_classes/src/ux_device_class_dfu_control_request.c ****                         case     UX_SLAVE_CLASS_DFU_MEDIA_STATUS_BUSY    :
 457:./Middlewares/ST/usbx/common/usbx_device_classes/src/ux_device_class_dfu_control_request.c **** 
 458:./Middlewares/ST/usbx/common/usbx_device_classes/src/ux_device_class_dfu_control_request.c ****                             /* Set the next state for busy but no error status.  */
 459:./Middlewares/ST/usbx/common/usbx_device_classes/src/ux_device_class_dfu_control_request.c ****                             dfu -> ux_slave_class_dfu_status = UX_SLAVE_CLASS_DFU_STATUS_OK ;
 460:./Middlewares/ST/usbx/common/usbx_device_classes/src/ux_device_class_dfu_control_request.c ****                                _ux_system_slave -> ux_system_slave_device_dfu_state_machine = UX_SL
 461:./Middlewares/ST/usbx/common/usbx_device_classes/src/ux_device_class_dfu_control_request.c ****                             break;
 462:./Middlewares/ST/usbx/common/usbx_device_classes/src/ux_device_class_dfu_control_request.c **** 
 463:./Middlewares/ST/usbx/common/usbx_device_classes/src/ux_device_class_dfu_control_request.c ****                         case    UX_SLAVE_CLASS_DFU_MEDIA_STATUS_ERROR   :
 464:./Middlewares/ST/usbx/common/usbx_device_classes/src/ux_device_class_dfu_control_request.c **** 
 465:./Middlewares/ST/usbx/common/usbx_device_classes/src/ux_device_class_dfu_control_request.c ****                             /* Set the next state for busy and error status.  */
 466:./Middlewares/ST/usbx/common/usbx_device_classes/src/ux_device_class_dfu_control_request.c ****                             dfu -> ux_slave_class_dfu_status = UX_SLAVE_CLASS_DFU_STATUS_ERROR_WRIT
 467:./Middlewares/ST/usbx/common/usbx_device_classes/src/ux_device_class_dfu_control_request.c ****                                _ux_system_slave -> ux_system_slave_device_dfu_state_machine = UX_SL
 468:./Middlewares/ST/usbx/common/usbx_device_classes/src/ux_device_class_dfu_control_request.c ****                             break;
 469:./Middlewares/ST/usbx/common/usbx_device_classes/src/ux_device_class_dfu_control_request.c **** 
 470:./Middlewares/ST/usbx/common/usbx_device_classes/src/ux_device_class_dfu_control_request.c ****                     }
 471:./Middlewares/ST/usbx/common/usbx_device_classes/src/ux_device_class_dfu_control_request.c **** 
 472:./Middlewares/ST/usbx/common/usbx_device_classes/src/ux_device_class_dfu_control_request.c ****                     /* Fill the status data payload.  First with status.  */
 473:./Middlewares/ST/usbx/common/usbx_device_classes/src/ux_device_class_dfu_control_request.c ****                     *transfer_request -> ux_slave_transfer_request_data_pointer = (UCHAR) dfu -> ux
 474:./Middlewares/ST/usbx/common/usbx_device_classes/src/ux_device_class_dfu_control_request.c **** 
 475:./Middlewares/ST/usbx/common/usbx_device_classes/src/ux_device_class_dfu_control_request.c ****                     /* Poll time out value is set to 1ms.  */
 476:./Middlewares/ST/usbx/common/usbx_device_classes/src/ux_device_class_dfu_control_request.c ****                     *(transfer_request -> ux_slave_transfer_request_data_pointer + UX_SLAVE_CLASS_D
 477:./Middlewares/ST/usbx/common/usbx_device_classes/src/ux_device_class_dfu_control_request.c ****                     *(transfer_request -> ux_slave_transfer_request_data_pointer + UX_SLAVE_CLASS_D
 478:./Middlewares/ST/usbx/common/usbx_device_classes/src/ux_device_class_dfu_control_request.c ****                     *(transfer_request -> ux_slave_transfer_request_data_pointer + UX_SLAVE_CLASS_D
 479:./Middlewares/ST/usbx/common/usbx_device_classes/src/ux_device_class_dfu_control_request.c **** 
 480:./Middlewares/ST/usbx/common/usbx_device_classes/src/ux_device_class_dfu_control_request.c ****                     /* Next state.  */
 481:./Middlewares/ST/usbx/common/usbx_device_classes/src/ux_device_class_dfu_control_request.c ****                     *(transfer_request -> ux_slave_transfer_request_data_pointer + UX_SLAVE_CLASS_D
 482:./Middlewares/ST/usbx/common/usbx_device_classes/src/ux_device_class_dfu_control_request.c **** 
 483:./Middlewares/ST/usbx/common/usbx_device_classes/src/ux_device_class_dfu_control_request.c ****                     /* String index set to 0.  */
 484:./Middlewares/ST/usbx/common/usbx_device_classes/src/ux_device_class_dfu_control_request.c ****                     *(transfer_request -> ux_slave_transfer_request_data_pointer + UX_SLAVE_CLASS_D
 485:./Middlewares/ST/usbx/common/usbx_device_classes/src/ux_device_class_dfu_control_request.c **** #endif
 486:./Middlewares/ST/usbx/common/usbx_device_classes/src/ux_device_class_dfu_control_request.c **** 
 487:./Middlewares/ST/usbx/common/usbx_device_classes/src/ux_device_class_dfu_control_request.c ****                     /* We have a request to obtain the status of the DFU instance. */
 488:./Middlewares/ST/usbx/common/usbx_device_classes/src/ux_device_class_dfu_control_request.c ****                     _ux_device_stack_transfer_request(transfer_request, UX_SLAVE_CLASS_DFU_GET_STAT
 489:./Middlewares/ST/usbx/common/usbx_device_classes/src/ux_device_class_dfu_control_request.c **** 
 490:./Middlewares/ST/usbx/common/usbx_device_classes/src/ux_device_class_dfu_control_request.c ****                     break;
 491:./Middlewares/ST/usbx/common/usbx_device_classes/src/ux_device_class_dfu_control_request.c **** 
 492:./Middlewares/ST/usbx/common/usbx_device_classes/src/ux_device_class_dfu_control_request.c ****                 case UX_SLAVE_CLASS_DFU_COMMAND_GET_STATE :
 493:./Middlewares/ST/usbx/common/usbx_device_classes/src/ux_device_class_dfu_control_request.c **** 
 494:./Middlewares/ST/usbx/common/usbx_device_classes/src/ux_device_class_dfu_control_request.c ****                     /* Fill the status data payload.  First with state.  */
 495:./Middlewares/ST/usbx/common/usbx_device_classes/src/ux_device_class_dfu_control_request.c ****                     *transfer_request -> ux_slave_transfer_request_data_pointer = (UCHAR) _ux_syste
 496:./Middlewares/ST/usbx/common/usbx_device_classes/src/ux_device_class_dfu_control_request.c **** 
 497:./Middlewares/ST/usbx/common/usbx_device_classes/src/ux_device_class_dfu_control_request.c ****                     /* We have a request to obtain the status of the DFU instance. */
 498:./Middlewares/ST/usbx/common/usbx_device_classes/src/ux_device_class_dfu_control_request.c ****                     _ux_device_stack_transfer_request(transfer_request, UX_SLAVE_CLASS_DFU_GET_STAT
ARM GAS  C:\Users\Dennis\AppData\Local\Temp\ccmm9cQc.s 			page 15


 499:./Middlewares/ST/usbx/common/usbx_device_classes/src/ux_device_class_dfu_control_request.c **** 
 500:./Middlewares/ST/usbx/common/usbx_device_classes/src/ux_device_class_dfu_control_request.c ****                     break;
 501:./Middlewares/ST/usbx/common/usbx_device_classes/src/ux_device_class_dfu_control_request.c **** 
 502:./Middlewares/ST/usbx/common/usbx_device_classes/src/ux_device_class_dfu_control_request.c ****                 default:
 503:./Middlewares/ST/usbx/common/usbx_device_classes/src/ux_device_class_dfu_control_request.c **** 
 504:./Middlewares/ST/usbx/common/usbx_device_classes/src/ux_device_class_dfu_control_request.c ****                     /* Unknown function. Stall the endpoint.  */
 505:./Middlewares/ST/usbx/common/usbx_device_classes/src/ux_device_class_dfu_control_request.c ****                     _ux_device_stack_endpoint_stall(&device -> ux_slave_device_control_endpoint);
 506:./Middlewares/ST/usbx/common/usbx_device_classes/src/ux_device_class_dfu_control_request.c **** 
 507:./Middlewares/ST/usbx/common/usbx_device_classes/src/ux_device_class_dfu_control_request.c ****                     /* In the system, state the DFU state machine to dfu ERROR.  */
 508:./Middlewares/ST/usbx/common/usbx_device_classes/src/ux_device_class_dfu_control_request.c ****                        _ux_system_slave -> ux_system_slave_device_dfu_state_machine = UX_SYSTEM_DFU
 509:./Middlewares/ST/usbx/common/usbx_device_classes/src/ux_device_class_dfu_control_request.c **** 
 510:./Middlewares/ST/usbx/common/usbx_device_classes/src/ux_device_class_dfu_control_request.c ****                     break;
 511:./Middlewares/ST/usbx/common/usbx_device_classes/src/ux_device_class_dfu_control_request.c ****             }
 512:./Middlewares/ST/usbx/common/usbx_device_classes/src/ux_device_class_dfu_control_request.c **** 
 513:./Middlewares/ST/usbx/common/usbx_device_classes/src/ux_device_class_dfu_control_request.c ****             break;
 514:./Middlewares/ST/usbx/common/usbx_device_classes/src/ux_device_class_dfu_control_request.c **** 
 515:./Middlewares/ST/usbx/common/usbx_device_classes/src/ux_device_class_dfu_control_request.c ****         case UX_SLAVE_CLASS_DFU_STATUS_STATE_DFU_DNLOAD_IDLE         :
 516:./Middlewares/ST/usbx/common/usbx_device_classes/src/ux_device_class_dfu_control_request.c **** 
 517:./Middlewares/ST/usbx/common/usbx_device_classes/src/ux_device_class_dfu_control_request.c ****             /* Here we process only the request we can accept in the DFU mode DNLOAD state.  */
 518:./Middlewares/ST/usbx/common/usbx_device_classes/src/ux_device_class_dfu_control_request.c ****             switch (request)
 519:./Middlewares/ST/usbx/common/usbx_device_classes/src/ux_device_class_dfu_control_request.c ****             {
 520:./Middlewares/ST/usbx/common/usbx_device_classes/src/ux_device_class_dfu_control_request.c **** 
 521:./Middlewares/ST/usbx/common/usbx_device_classes/src/ux_device_class_dfu_control_request.c ****                 case UX_SLAVE_CLASS_DFU_COMMAND_DOWNLOAD :
 522:./Middlewares/ST/usbx/common/usbx_device_classes/src/ux_device_class_dfu_control_request.c **** 
 523:./Middlewares/ST/usbx/common/usbx_device_classes/src/ux_device_class_dfu_control_request.c ****                     /* We received a DOWNLOAD command. Check the length field of the request. If it
 524:./Middlewares/ST/usbx/common/usbx_device_classes/src/ux_device_class_dfu_control_request.c ****                        we are done with the transfer.  */
 525:./Middlewares/ST/usbx/common/usbx_device_classes/src/ux_device_class_dfu_control_request.c ****                     if (request_length == 0)
 526:./Middlewares/ST/usbx/common/usbx_device_classes/src/ux_device_class_dfu_control_request.c ****                     {
 527:./Middlewares/ST/usbx/common/usbx_device_classes/src/ux_device_class_dfu_control_request.c **** 
 528:./Middlewares/ST/usbx/common/usbx_device_classes/src/ux_device_class_dfu_control_request.c ****                         /* Send the notification of end of download to application.  */
 529:./Middlewares/ST/usbx/common/usbx_device_classes/src/ux_device_class_dfu_control_request.c ****                         dfu -> ux_slave_class_dfu_notify(dfu, UX_SLAVE_CLASS_DFU_NOTIFICATION_END_D
 530:./Middlewares/ST/usbx/common/usbx_device_classes/src/ux_device_class_dfu_control_request.c **** 
 531:./Middlewares/ST/usbx/common/usbx_device_classes/src/ux_device_class_dfu_control_request.c ****                         /* In the system, state the DFU state machine to DFU MANIFEST SYNCH.  */
 532:./Middlewares/ST/usbx/common/usbx_device_classes/src/ux_device_class_dfu_control_request.c ****                         _ux_system_slave -> ux_system_slave_device_dfu_state_machine = UX_SLAVE_CLA
 533:./Middlewares/ST/usbx/common/usbx_device_classes/src/ux_device_class_dfu_control_request.c **** 
 534:./Middlewares/ST/usbx/common/usbx_device_classes/src/ux_device_class_dfu_control_request.c ****                     }
 535:./Middlewares/ST/usbx/common/usbx_device_classes/src/ux_device_class_dfu_control_request.c **** 
 536:./Middlewares/ST/usbx/common/usbx_device_classes/src/ux_device_class_dfu_control_request.c ****                     else
 537:./Middlewares/ST/usbx/common/usbx_device_classes/src/ux_device_class_dfu_control_request.c ****                     {
 538:./Middlewares/ST/usbx/common/usbx_device_classes/src/ux_device_class_dfu_control_request.c **** 
 539:./Middlewares/ST/usbx/common/usbx_device_classes/src/ux_device_class_dfu_control_request.c ****                         /* Write the next block to the firmware.  */
 540:./Middlewares/ST/usbx/common/usbx_device_classes/src/ux_device_class_dfu_control_request.c ****                         dfu -> ux_slave_class_dfu_write(dfu, request_value,
 541:./Middlewares/ST/usbx/common/usbx_device_classes/src/ux_device_class_dfu_control_request.c ****                                                             transfer_request -> ux_slave_transfer_r
 542:./Middlewares/ST/usbx/common/usbx_device_classes/src/ux_device_class_dfu_control_request.c ****                                                             request_length,
 543:./Middlewares/ST/usbx/common/usbx_device_classes/src/ux_device_class_dfu_control_request.c ****                                                             &actual_length);
 544:./Middlewares/ST/usbx/common/usbx_device_classes/src/ux_device_class_dfu_control_request.c **** 
 545:./Middlewares/ST/usbx/common/usbx_device_classes/src/ux_device_class_dfu_control_request.c ****                         /* In the system, state the DFU state machine to dfu DOWNLOAD SYNC.  */
 546:./Middlewares/ST/usbx/common/usbx_device_classes/src/ux_device_class_dfu_control_request.c ****                         _ux_system_slave -> ux_system_slave_device_dfu_state_machine = UX_SYSTEM_DF
 547:./Middlewares/ST/usbx/common/usbx_device_classes/src/ux_device_class_dfu_control_request.c ****                     }
 548:./Middlewares/ST/usbx/common/usbx_device_classes/src/ux_device_class_dfu_control_request.c **** 
 549:./Middlewares/ST/usbx/common/usbx_device_classes/src/ux_device_class_dfu_control_request.c ****                     break;
 550:./Middlewares/ST/usbx/common/usbx_device_classes/src/ux_device_class_dfu_control_request.c **** 
 551:./Middlewares/ST/usbx/common/usbx_device_classes/src/ux_device_class_dfu_control_request.c ****                 case UX_SLAVE_CLASS_DFU_COMMAND_ABORT :
 552:./Middlewares/ST/usbx/common/usbx_device_classes/src/ux_device_class_dfu_control_request.c **** 
 553:./Middlewares/ST/usbx/common/usbx_device_classes/src/ux_device_class_dfu_control_request.c ****                     /* Send a notification to the application.  */
 554:./Middlewares/ST/usbx/common/usbx_device_classes/src/ux_device_class_dfu_control_request.c ****                     dfu -> ux_slave_class_dfu_notify(dfu, UX_SLAVE_CLASS_DFU_NOTIFICATION_ABORT_DOW
 555:./Middlewares/ST/usbx/common/usbx_device_classes/src/ux_device_class_dfu_control_request.c **** 
ARM GAS  C:\Users\Dennis\AppData\Local\Temp\ccmm9cQc.s 			page 16


 556:./Middlewares/ST/usbx/common/usbx_device_classes/src/ux_device_class_dfu_control_request.c ****                     /* In the system, state the DFU state machine to dfu IDLE.  */
 557:./Middlewares/ST/usbx/common/usbx_device_classes/src/ux_device_class_dfu_control_request.c ****                     _ux_system_slave -> ux_system_slave_device_dfu_state_machine = UX_SYSTEM_DFU_ST
 558:./Middlewares/ST/usbx/common/usbx_device_classes/src/ux_device_class_dfu_control_request.c **** 
 559:./Middlewares/ST/usbx/common/usbx_device_classes/src/ux_device_class_dfu_control_request.c ****                     break;
 560:./Middlewares/ST/usbx/common/usbx_device_classes/src/ux_device_class_dfu_control_request.c **** 
 561:./Middlewares/ST/usbx/common/usbx_device_classes/src/ux_device_class_dfu_control_request.c ****                 case UX_SLAVE_CLASS_DFU_COMMAND_GET_STATUS :
 562:./Middlewares/ST/usbx/common/usbx_device_classes/src/ux_device_class_dfu_control_request.c **** 
 563:./Middlewares/ST/usbx/common/usbx_device_classes/src/ux_device_class_dfu_control_request.c **** #if UX_DEVICE_CLASS_DFU_STATUS_MODE == 1
 564:./Middlewares/ST/usbx/common/usbx_device_classes/src/ux_device_class_dfu_control_request.c ****                     _ux_device_class_dfu_status_get(dfu, transfer_request, UX_FALSE, 0, 0, 0);
 565:./Middlewares/ST/usbx/common/usbx_device_classes/src/ux_device_class_dfu_control_request.c **** #else
 566:./Middlewares/ST/usbx/common/usbx_device_classes/src/ux_device_class_dfu_control_request.c **** 
 567:./Middlewares/ST/usbx/common/usbx_device_classes/src/ux_device_class_dfu_control_request.c ****                     /* Fill the status data payload.  First with status.  */
 568:./Middlewares/ST/usbx/common/usbx_device_classes/src/ux_device_class_dfu_control_request.c ****                     *transfer_request -> ux_slave_transfer_request_data_pointer = (UCHAR) dfu -> ux
 569:./Middlewares/ST/usbx/common/usbx_device_classes/src/ux_device_class_dfu_control_request.c **** 
 570:./Middlewares/ST/usbx/common/usbx_device_classes/src/ux_device_class_dfu_control_request.c ****                     /* Poll time out value is set to 1ms.  */
 571:./Middlewares/ST/usbx/common/usbx_device_classes/src/ux_device_class_dfu_control_request.c ****                     *(transfer_request -> ux_slave_transfer_request_data_pointer + UX_SLAVE_CLASS_D
 572:./Middlewares/ST/usbx/common/usbx_device_classes/src/ux_device_class_dfu_control_request.c ****                     *(transfer_request -> ux_slave_transfer_request_data_pointer + UX_SLAVE_CLASS_D
 573:./Middlewares/ST/usbx/common/usbx_device_classes/src/ux_device_class_dfu_control_request.c ****                     *(transfer_request -> ux_slave_transfer_request_data_pointer + UX_SLAVE_CLASS_D
 574:./Middlewares/ST/usbx/common/usbx_device_classes/src/ux_device_class_dfu_control_request.c **** 
 575:./Middlewares/ST/usbx/common/usbx_device_classes/src/ux_device_class_dfu_control_request.c ****                     /* Next state.  */
 576:./Middlewares/ST/usbx/common/usbx_device_classes/src/ux_device_class_dfu_control_request.c ****                     *(transfer_request -> ux_slave_transfer_request_data_pointer + UX_SLAVE_CLASS_D
 577:./Middlewares/ST/usbx/common/usbx_device_classes/src/ux_device_class_dfu_control_request.c **** 
 578:./Middlewares/ST/usbx/common/usbx_device_classes/src/ux_device_class_dfu_control_request.c ****                     /* String index set to 0.  */
 579:./Middlewares/ST/usbx/common/usbx_device_classes/src/ux_device_class_dfu_control_request.c ****                     *(transfer_request -> ux_slave_transfer_request_data_pointer + UX_SLAVE_CLASS_D
 580:./Middlewares/ST/usbx/common/usbx_device_classes/src/ux_device_class_dfu_control_request.c **** #endif
 581:./Middlewares/ST/usbx/common/usbx_device_classes/src/ux_device_class_dfu_control_request.c **** 
 582:./Middlewares/ST/usbx/common/usbx_device_classes/src/ux_device_class_dfu_control_request.c ****                     /* We have a request to obtain the status of the DFU instance. */
 583:./Middlewares/ST/usbx/common/usbx_device_classes/src/ux_device_class_dfu_control_request.c ****                     _ux_device_stack_transfer_request(transfer_request, UX_SLAVE_CLASS_DFU_GET_STAT
 584:./Middlewares/ST/usbx/common/usbx_device_classes/src/ux_device_class_dfu_control_request.c **** 
 585:./Middlewares/ST/usbx/common/usbx_device_classes/src/ux_device_class_dfu_control_request.c ****                     break;
 586:./Middlewares/ST/usbx/common/usbx_device_classes/src/ux_device_class_dfu_control_request.c **** 
 587:./Middlewares/ST/usbx/common/usbx_device_classes/src/ux_device_class_dfu_control_request.c ****                 case UX_SLAVE_CLASS_DFU_COMMAND_GET_STATE :
 588:./Middlewares/ST/usbx/common/usbx_device_classes/src/ux_device_class_dfu_control_request.c **** 
 589:./Middlewares/ST/usbx/common/usbx_device_classes/src/ux_device_class_dfu_control_request.c ****                     /* Fill the status data payload.  First with state.  */
 590:./Middlewares/ST/usbx/common/usbx_device_classes/src/ux_device_class_dfu_control_request.c ****                     *transfer_request -> ux_slave_transfer_request_data_pointer = (UCHAR) _ux_syste
 591:./Middlewares/ST/usbx/common/usbx_device_classes/src/ux_device_class_dfu_control_request.c **** 
 592:./Middlewares/ST/usbx/common/usbx_device_classes/src/ux_device_class_dfu_control_request.c ****                     /* We have a request to obtain the status of the DFU instance. */
 593:./Middlewares/ST/usbx/common/usbx_device_classes/src/ux_device_class_dfu_control_request.c ****                     _ux_device_stack_transfer_request(transfer_request, UX_SLAVE_CLASS_DFU_GET_STAT
 594:./Middlewares/ST/usbx/common/usbx_device_classes/src/ux_device_class_dfu_control_request.c **** 
 595:./Middlewares/ST/usbx/common/usbx_device_classes/src/ux_device_class_dfu_control_request.c ****                     break;
 596:./Middlewares/ST/usbx/common/usbx_device_classes/src/ux_device_class_dfu_control_request.c **** 
 597:./Middlewares/ST/usbx/common/usbx_device_classes/src/ux_device_class_dfu_control_request.c ****                 default:
 598:./Middlewares/ST/usbx/common/usbx_device_classes/src/ux_device_class_dfu_control_request.c **** 
 599:./Middlewares/ST/usbx/common/usbx_device_classes/src/ux_device_class_dfu_control_request.c ****                     /* Unknown function. Stall the endpoint.  */
 600:./Middlewares/ST/usbx/common/usbx_device_classes/src/ux_device_class_dfu_control_request.c ****                     _ux_device_stack_endpoint_stall(&device -> ux_slave_device_control_endpoint);
 601:./Middlewares/ST/usbx/common/usbx_device_classes/src/ux_device_class_dfu_control_request.c **** 
 602:./Middlewares/ST/usbx/common/usbx_device_classes/src/ux_device_class_dfu_control_request.c ****                     /* In the system, state the DFU state machine to dfu ERROR.  */
 603:./Middlewares/ST/usbx/common/usbx_device_classes/src/ux_device_class_dfu_control_request.c ****                        _ux_system_slave -> ux_system_slave_device_dfu_state_machine = UX_SYSTEM_DFU
 604:./Middlewares/ST/usbx/common/usbx_device_classes/src/ux_device_class_dfu_control_request.c **** 
 605:./Middlewares/ST/usbx/common/usbx_device_classes/src/ux_device_class_dfu_control_request.c ****                     break;
 606:./Middlewares/ST/usbx/common/usbx_device_classes/src/ux_device_class_dfu_control_request.c ****             }
 607:./Middlewares/ST/usbx/common/usbx_device_classes/src/ux_device_class_dfu_control_request.c **** 
 608:./Middlewares/ST/usbx/common/usbx_device_classes/src/ux_device_class_dfu_control_request.c ****             break;
 609:./Middlewares/ST/usbx/common/usbx_device_classes/src/ux_device_class_dfu_control_request.c **** 
 610:./Middlewares/ST/usbx/common/usbx_device_classes/src/ux_device_class_dfu_control_request.c ****         case UX_SLAVE_CLASS_DFU_STATUS_STATE_DFU_MANIFEST_SYNC         :
 611:./Middlewares/ST/usbx/common/usbx_device_classes/src/ux_device_class_dfu_control_request.c **** 
 612:./Middlewares/ST/usbx/common/usbx_device_classes/src/ux_device_class_dfu_control_request.c ****             /* Here we process only the request we can accept in the MANIFEST SYNCH state.  */
ARM GAS  C:\Users\Dennis\AppData\Local\Temp\ccmm9cQc.s 			page 17


 613:./Middlewares/ST/usbx/common/usbx_device_classes/src/ux_device_class_dfu_control_request.c ****             switch (request)
 614:./Middlewares/ST/usbx/common/usbx_device_classes/src/ux_device_class_dfu_control_request.c ****             {
 615:./Middlewares/ST/usbx/common/usbx_device_classes/src/ux_device_class_dfu_control_request.c **** 
 616:./Middlewares/ST/usbx/common/usbx_device_classes/src/ux_device_class_dfu_control_request.c ****                 case UX_SLAVE_CLASS_DFU_COMMAND_GET_STATUS :
 617:./Middlewares/ST/usbx/common/usbx_device_classes/src/ux_device_class_dfu_control_request.c **** 
 618:./Middlewares/ST/usbx/common/usbx_device_classes/src/ux_device_class_dfu_control_request.c **** #if UX_DEVICE_CLASS_DFU_STATUS_MODE == 1
 619:./Middlewares/ST/usbx/common/usbx_device_classes/src/ux_device_class_dfu_control_request.c ****                     _ux_device_class_dfu_status_get(dfu, transfer_request, UX_TRUE,
 620:./Middlewares/ST/usbx/common/usbx_device_classes/src/ux_device_class_dfu_control_request.c ****                             UX_SLAVE_CLASS_DFU_STATUS_STATE_DFU_MANIFEST_WAIT_RESET,
 621:./Middlewares/ST/usbx/common/usbx_device_classes/src/ux_device_class_dfu_control_request.c ****                             UX_SLAVE_CLASS_DFU_STATUS_STATE_DFU_MANIFEST,
 622:./Middlewares/ST/usbx/common/usbx_device_classes/src/ux_device_class_dfu_control_request.c ****                             UX_SLAVE_CLASS_DFU_STATUS_STATE_DFU_ERROR);
 623:./Middlewares/ST/usbx/common/usbx_device_classes/src/ux_device_class_dfu_control_request.c ****                     if ((_ux_system_slave -> ux_system_slave_device_dfu_state_machine ==
 624:./Middlewares/ST/usbx/common/usbx_device_classes/src/ux_device_class_dfu_control_request.c ****                             UX_SLAVE_CLASS_DFU_STATUS_STATE_DFU_MANIFEST_WAIT_RESET) &&
 625:./Middlewares/ST/usbx/common/usbx_device_classes/src/ux_device_class_dfu_control_request.c ****                         (_ux_system_slave -> ux_system_slave_device_dfu_capabilities &
 626:./Middlewares/ST/usbx/common/usbx_device_classes/src/ux_device_class_dfu_control_request.c ****                             UX_SLAVE_CLASS_DFU_CAPABILITY_WILL_DETACH))
 627:./Middlewares/ST/usbx/common/usbx_device_classes/src/ux_device_class_dfu_control_request.c ****                     {
 628:./Middlewares/ST/usbx/common/usbx_device_classes/src/ux_device_class_dfu_control_request.c **** 
 629:./Middlewares/ST/usbx/common/usbx_device_classes/src/ux_device_class_dfu_control_request.c ****                         /* Wake up the DFU thread and send a detach request..  */
 630:./Middlewares/ST/usbx/common/usbx_device_classes/src/ux_device_class_dfu_control_request.c ****                         _ux_device_class_dfu_event_flags_set(dfu, UX_DEVICE_CLASS_DFU_THREAD_EVENT_
 631:./Middlewares/ST/usbx/common/usbx_device_classes/src/ux_device_class_dfu_control_request.c ****                     }
 632:./Middlewares/ST/usbx/common/usbx_device_classes/src/ux_device_class_dfu_control_request.c **** #else
 633:./Middlewares/ST/usbx/common/usbx_device_classes/src/ux_device_class_dfu_control_request.c **** 
 634:./Middlewares/ST/usbx/common/usbx_device_classes/src/ux_device_class_dfu_control_request.c ****                     /* Check if the device is still buys performing the write. Write could be delay
 635:./Middlewares/ST/usbx/common/usbx_device_classes/src/ux_device_class_dfu_control_request.c ****                     dfu -> ux_slave_class_dfu_get_status(dfu, &media_status);
 636:./Middlewares/ST/usbx/common/usbx_device_classes/src/ux_device_class_dfu_control_request.c **** 
 637:./Middlewares/ST/usbx/common/usbx_device_classes/src/ux_device_class_dfu_control_request.c ****                     /* Check status of device.  */
 638:./Middlewares/ST/usbx/common/usbx_device_classes/src/ux_device_class_dfu_control_request.c ****                     switch (media_status)
 639:./Middlewares/ST/usbx/common/usbx_device_classes/src/ux_device_class_dfu_control_request.c ****                     {
 640:./Middlewares/ST/usbx/common/usbx_device_classes/src/ux_device_class_dfu_control_request.c **** 
 641:./Middlewares/ST/usbx/common/usbx_device_classes/src/ux_device_class_dfu_control_request.c ****                         case     UX_SLAVE_CLASS_DFU_MEDIA_STATUS_OK        :
 642:./Middlewares/ST/usbx/common/usbx_device_classes/src/ux_device_class_dfu_control_request.c **** 
 643:./Middlewares/ST/usbx/common/usbx_device_classes/src/ux_device_class_dfu_control_request.c ****                             /* Set the next state for wait reset and no error status.  */
 644:./Middlewares/ST/usbx/common/usbx_device_classes/src/ux_device_class_dfu_control_request.c ****                             dfu -> ux_slave_class_dfu_status = UX_SLAVE_CLASS_DFU_STATUS_OK ;
 645:./Middlewares/ST/usbx/common/usbx_device_classes/src/ux_device_class_dfu_control_request.c ****                                _ux_system_slave -> ux_system_slave_device_dfu_state_machine = UX_SL
 646:./Middlewares/ST/usbx/common/usbx_device_classes/src/ux_device_class_dfu_control_request.c **** 
 647:./Middlewares/ST/usbx/common/usbx_device_classes/src/ux_device_class_dfu_control_request.c ****                             /* Check who is responsible for the RESET.  */
 648:./Middlewares/ST/usbx/common/usbx_device_classes/src/ux_device_class_dfu_control_request.c ****                             if (_ux_system_slave -> ux_system_slave_device_dfu_capabilities &  UX_S
 649:./Middlewares/ST/usbx/common/usbx_device_classes/src/ux_device_class_dfu_control_request.c ****                             {
 650:./Middlewares/ST/usbx/common/usbx_device_classes/src/ux_device_class_dfu_control_request.c **** 
 651:./Middlewares/ST/usbx/common/usbx_device_classes/src/ux_device_class_dfu_control_request.c ****                                 /* Wake up the DFU thread and send a detach request..  */
 652:./Middlewares/ST/usbx/common/usbx_device_classes/src/ux_device_class_dfu_control_request.c ****                                 _ux_device_class_dfu_event_flags_set(dfu, UX_DEVICE_CLASS_DFU_THREA
 653:./Middlewares/ST/usbx/common/usbx_device_classes/src/ux_device_class_dfu_control_request.c **** 
 654:./Middlewares/ST/usbx/common/usbx_device_classes/src/ux_device_class_dfu_control_request.c ****                             }
 655:./Middlewares/ST/usbx/common/usbx_device_classes/src/ux_device_class_dfu_control_request.c **** 
 656:./Middlewares/ST/usbx/common/usbx_device_classes/src/ux_device_class_dfu_control_request.c ****                             break;
 657:./Middlewares/ST/usbx/common/usbx_device_classes/src/ux_device_class_dfu_control_request.c **** 
 658:./Middlewares/ST/usbx/common/usbx_device_classes/src/ux_device_class_dfu_control_request.c ****                         case     UX_SLAVE_CLASS_DFU_MEDIA_STATUS_BUSY    :
 659:./Middlewares/ST/usbx/common/usbx_device_classes/src/ux_device_class_dfu_control_request.c **** 
 660:./Middlewares/ST/usbx/common/usbx_device_classes/src/ux_device_class_dfu_control_request.c ****                             /* Set the next state for busy but no error status.  */
 661:./Middlewares/ST/usbx/common/usbx_device_classes/src/ux_device_class_dfu_control_request.c ****                             dfu -> ux_slave_class_dfu_status = UX_SLAVE_CLASS_DFU_STATUS_OK ;
 662:./Middlewares/ST/usbx/common/usbx_device_classes/src/ux_device_class_dfu_control_request.c ****                                _ux_system_slave -> ux_system_slave_device_dfu_state_machine = UX_SL
 663:./Middlewares/ST/usbx/common/usbx_device_classes/src/ux_device_class_dfu_control_request.c ****                             break;
 664:./Middlewares/ST/usbx/common/usbx_device_classes/src/ux_device_class_dfu_control_request.c **** 
 665:./Middlewares/ST/usbx/common/usbx_device_classes/src/ux_device_class_dfu_control_request.c ****                         case    UX_SLAVE_CLASS_DFU_MEDIA_STATUS_ERROR   :
 666:./Middlewares/ST/usbx/common/usbx_device_classes/src/ux_device_class_dfu_control_request.c **** 
 667:./Middlewares/ST/usbx/common/usbx_device_classes/src/ux_device_class_dfu_control_request.c ****                             /* Set the next state for busy and error status.  */
 668:./Middlewares/ST/usbx/common/usbx_device_classes/src/ux_device_class_dfu_control_request.c ****                             dfu -> ux_slave_class_dfu_status = UX_SLAVE_CLASS_DFU_STATUS_ERROR_WRIT
 669:./Middlewares/ST/usbx/common/usbx_device_classes/src/ux_device_class_dfu_control_request.c ****                                _ux_system_slave -> ux_system_slave_device_dfu_state_machine = UX_SL
ARM GAS  C:\Users\Dennis\AppData\Local\Temp\ccmm9cQc.s 			page 18


 670:./Middlewares/ST/usbx/common/usbx_device_classes/src/ux_device_class_dfu_control_request.c ****                             break;
 671:./Middlewares/ST/usbx/common/usbx_device_classes/src/ux_device_class_dfu_control_request.c ****                     }
 672:./Middlewares/ST/usbx/common/usbx_device_classes/src/ux_device_class_dfu_control_request.c **** 
 673:./Middlewares/ST/usbx/common/usbx_device_classes/src/ux_device_class_dfu_control_request.c ****                     /* Fill the status data payload.  First with status.  */
 674:./Middlewares/ST/usbx/common/usbx_device_classes/src/ux_device_class_dfu_control_request.c ****                     *transfer_request -> ux_slave_transfer_request_data_pointer = (UCHAR) dfu -> ux
 675:./Middlewares/ST/usbx/common/usbx_device_classes/src/ux_device_class_dfu_control_request.c **** 
 676:./Middlewares/ST/usbx/common/usbx_device_classes/src/ux_device_class_dfu_control_request.c ****                     /* Poll time out value is set to 1ms.  */
 677:./Middlewares/ST/usbx/common/usbx_device_classes/src/ux_device_class_dfu_control_request.c ****                     *(transfer_request -> ux_slave_transfer_request_data_pointer + UX_SLAVE_CLASS_D
 678:./Middlewares/ST/usbx/common/usbx_device_classes/src/ux_device_class_dfu_control_request.c ****                     *(transfer_request -> ux_slave_transfer_request_data_pointer + UX_SLAVE_CLASS_D
 679:./Middlewares/ST/usbx/common/usbx_device_classes/src/ux_device_class_dfu_control_request.c ****                     *(transfer_request -> ux_slave_transfer_request_data_pointer + UX_SLAVE_CLASS_D
 680:./Middlewares/ST/usbx/common/usbx_device_classes/src/ux_device_class_dfu_control_request.c **** 
 681:./Middlewares/ST/usbx/common/usbx_device_classes/src/ux_device_class_dfu_control_request.c ****                     /* Next state.  */
 682:./Middlewares/ST/usbx/common/usbx_device_classes/src/ux_device_class_dfu_control_request.c ****                     *(transfer_request -> ux_slave_transfer_request_data_pointer + UX_SLAVE_CLASS_D
 683:./Middlewares/ST/usbx/common/usbx_device_classes/src/ux_device_class_dfu_control_request.c **** 
 684:./Middlewares/ST/usbx/common/usbx_device_classes/src/ux_device_class_dfu_control_request.c ****                     /* String index set to 0.  */
 685:./Middlewares/ST/usbx/common/usbx_device_classes/src/ux_device_class_dfu_control_request.c ****                     *(transfer_request -> ux_slave_transfer_request_data_pointer + UX_SLAVE_CLASS_D
 686:./Middlewares/ST/usbx/common/usbx_device_classes/src/ux_device_class_dfu_control_request.c **** #endif
 687:./Middlewares/ST/usbx/common/usbx_device_classes/src/ux_device_class_dfu_control_request.c **** 
 688:./Middlewares/ST/usbx/common/usbx_device_classes/src/ux_device_class_dfu_control_request.c ****                     /* We have a request to obtain the status of the DFU instance. */
 689:./Middlewares/ST/usbx/common/usbx_device_classes/src/ux_device_class_dfu_control_request.c ****                     _ux_device_stack_transfer_request(transfer_request, UX_SLAVE_CLASS_DFU_GET_STAT
 690:./Middlewares/ST/usbx/common/usbx_device_classes/src/ux_device_class_dfu_control_request.c **** 
 691:./Middlewares/ST/usbx/common/usbx_device_classes/src/ux_device_class_dfu_control_request.c ****                     break;
 692:./Middlewares/ST/usbx/common/usbx_device_classes/src/ux_device_class_dfu_control_request.c **** 
 693:./Middlewares/ST/usbx/common/usbx_device_classes/src/ux_device_class_dfu_control_request.c ****                 case UX_SLAVE_CLASS_DFU_COMMAND_GET_STATE :
 694:./Middlewares/ST/usbx/common/usbx_device_classes/src/ux_device_class_dfu_control_request.c **** 
 695:./Middlewares/ST/usbx/common/usbx_device_classes/src/ux_device_class_dfu_control_request.c ****                     /* Fill the status data payload.  First with state.  */
 696:./Middlewares/ST/usbx/common/usbx_device_classes/src/ux_device_class_dfu_control_request.c ****                     *transfer_request -> ux_slave_transfer_request_data_pointer = (UCHAR) _ux_syste
 697:./Middlewares/ST/usbx/common/usbx_device_classes/src/ux_device_class_dfu_control_request.c **** 
 698:./Middlewares/ST/usbx/common/usbx_device_classes/src/ux_device_class_dfu_control_request.c ****                     /* We have a request to obtain the status of the DFU instance. */
 699:./Middlewares/ST/usbx/common/usbx_device_classes/src/ux_device_class_dfu_control_request.c ****                     _ux_device_stack_transfer_request(transfer_request, UX_SLAVE_CLASS_DFU_GET_STAT
 700:./Middlewares/ST/usbx/common/usbx_device_classes/src/ux_device_class_dfu_control_request.c **** 
 701:./Middlewares/ST/usbx/common/usbx_device_classes/src/ux_device_class_dfu_control_request.c ****                     break;
 702:./Middlewares/ST/usbx/common/usbx_device_classes/src/ux_device_class_dfu_control_request.c **** 
 703:./Middlewares/ST/usbx/common/usbx_device_classes/src/ux_device_class_dfu_control_request.c ****                 default:
 704:./Middlewares/ST/usbx/common/usbx_device_classes/src/ux_device_class_dfu_control_request.c **** 
 705:./Middlewares/ST/usbx/common/usbx_device_classes/src/ux_device_class_dfu_control_request.c ****                     /* Unknown function. Stall the endpoint.  */
 706:./Middlewares/ST/usbx/common/usbx_device_classes/src/ux_device_class_dfu_control_request.c ****                     _ux_device_stack_endpoint_stall(&device -> ux_slave_device_control_endpoint);
 707:./Middlewares/ST/usbx/common/usbx_device_classes/src/ux_device_class_dfu_control_request.c ****                     break;
 708:./Middlewares/ST/usbx/common/usbx_device_classes/src/ux_device_class_dfu_control_request.c ****             }
 709:./Middlewares/ST/usbx/common/usbx_device_classes/src/ux_device_class_dfu_control_request.c **** 
 710:./Middlewares/ST/usbx/common/usbx_device_classes/src/ux_device_class_dfu_control_request.c ****             break;
 711:./Middlewares/ST/usbx/common/usbx_device_classes/src/ux_device_class_dfu_control_request.c **** 
 712:./Middlewares/ST/usbx/common/usbx_device_classes/src/ux_device_class_dfu_control_request.c ****         case UX_SLAVE_CLASS_DFU_STATUS_STATE_DFU_ERROR         :
 713:./Middlewares/ST/usbx/common/usbx_device_classes/src/ux_device_class_dfu_control_request.c **** 
 714:./Middlewares/ST/usbx/common/usbx_device_classes/src/ux_device_class_dfu_control_request.c ****             /* Here we process only the request we can accept in the ERROR state.  */
 715:./Middlewares/ST/usbx/common/usbx_device_classes/src/ux_device_class_dfu_control_request.c ****             switch (request)
 716:./Middlewares/ST/usbx/common/usbx_device_classes/src/ux_device_class_dfu_control_request.c ****             {
 717:./Middlewares/ST/usbx/common/usbx_device_classes/src/ux_device_class_dfu_control_request.c **** 
 718:./Middlewares/ST/usbx/common/usbx_device_classes/src/ux_device_class_dfu_control_request.c **** #ifdef UX_DEVICE_CLASS_DFU_ERROR_GET_ENABLE
 719:./Middlewares/ST/usbx/common/usbx_device_classes/src/ux_device_class_dfu_control_request.c ****                 case UX_SLAVE_CLASS_DFU_COMMAND_GET_STATUS :
 720:./Middlewares/ST/usbx/common/usbx_device_classes/src/ux_device_class_dfu_control_request.c **** 
 721:./Middlewares/ST/usbx/common/usbx_device_classes/src/ux_device_class_dfu_control_request.c ****                     /* Fill the status data payload.  First with status.  */
 722:./Middlewares/ST/usbx/common/usbx_device_classes/src/ux_device_class_dfu_control_request.c ****                     *transfer_request -> ux_slave_transfer_request_data_pointer = (UCHAR) dfu -> ux
 723:./Middlewares/ST/usbx/common/usbx_device_classes/src/ux_device_class_dfu_control_request.c **** 
 724:./Middlewares/ST/usbx/common/usbx_device_classes/src/ux_device_class_dfu_control_request.c ****                     /* Poll time out value is set to 1ms.  */
 725:./Middlewares/ST/usbx/common/usbx_device_classes/src/ux_device_class_dfu_control_request.c ****                     *(transfer_request -> ux_slave_transfer_request_data_pointer + UX_SLAVE_CLASS_D
 726:./Middlewares/ST/usbx/common/usbx_device_classes/src/ux_device_class_dfu_control_request.c ****                     *(transfer_request -> ux_slave_transfer_request_data_pointer + UX_SLAVE_CLASS_D
ARM GAS  C:\Users\Dennis\AppData\Local\Temp\ccmm9cQc.s 			page 19


 727:./Middlewares/ST/usbx/common/usbx_device_classes/src/ux_device_class_dfu_control_request.c ****                     *(transfer_request -> ux_slave_transfer_request_data_pointer + UX_SLAVE_CLASS_D
 728:./Middlewares/ST/usbx/common/usbx_device_classes/src/ux_device_class_dfu_control_request.c **** 
 729:./Middlewares/ST/usbx/common/usbx_device_classes/src/ux_device_class_dfu_control_request.c ****                     /* Next state.  */
 730:./Middlewares/ST/usbx/common/usbx_device_classes/src/ux_device_class_dfu_control_request.c ****                     *(transfer_request -> ux_slave_transfer_request_data_pointer + UX_SLAVE_CLASS_D
 731:./Middlewares/ST/usbx/common/usbx_device_classes/src/ux_device_class_dfu_control_request.c **** 
 732:./Middlewares/ST/usbx/common/usbx_device_classes/src/ux_device_class_dfu_control_request.c ****                     /* String index set to 0.  */
 733:./Middlewares/ST/usbx/common/usbx_device_classes/src/ux_device_class_dfu_control_request.c ****                     *(transfer_request -> ux_slave_transfer_request_data_pointer + UX_SLAVE_CLASS_D
 734:./Middlewares/ST/usbx/common/usbx_device_classes/src/ux_device_class_dfu_control_request.c **** 
 735:./Middlewares/ST/usbx/common/usbx_device_classes/src/ux_device_class_dfu_control_request.c ****                     /* We have a request to obtain the status of the DFU instance. */
 736:./Middlewares/ST/usbx/common/usbx_device_classes/src/ux_device_class_dfu_control_request.c ****                     _ux_device_stack_transfer_request(transfer_request, UX_SLAVE_CLASS_DFU_GET_STAT
 737:./Middlewares/ST/usbx/common/usbx_device_classes/src/ux_device_class_dfu_control_request.c **** 
 738:./Middlewares/ST/usbx/common/usbx_device_classes/src/ux_device_class_dfu_control_request.c ****                     break;
 739:./Middlewares/ST/usbx/common/usbx_device_classes/src/ux_device_class_dfu_control_request.c **** 
 740:./Middlewares/ST/usbx/common/usbx_device_classes/src/ux_device_class_dfu_control_request.c ****                 case UX_SLAVE_CLASS_DFU_COMMAND_GET_STATE :
 741:./Middlewares/ST/usbx/common/usbx_device_classes/src/ux_device_class_dfu_control_request.c **** 
 742:./Middlewares/ST/usbx/common/usbx_device_classes/src/ux_device_class_dfu_control_request.c ****                     /* Fill the status data payload.  First with state.  */
 743:./Middlewares/ST/usbx/common/usbx_device_classes/src/ux_device_class_dfu_control_request.c ****                     *transfer_request -> ux_slave_transfer_request_data_pointer = (UCHAR) _ux_syste
 744:./Middlewares/ST/usbx/common/usbx_device_classes/src/ux_device_class_dfu_control_request.c **** 
 745:./Middlewares/ST/usbx/common/usbx_device_classes/src/ux_device_class_dfu_control_request.c ****                     /* We have a request to obtain the status of the DFU instance. */
 746:./Middlewares/ST/usbx/common/usbx_device_classes/src/ux_device_class_dfu_control_request.c ****                     _ux_device_stack_transfer_request(transfer_request, UX_SLAVE_CLASS_DFU_GET_STAT
 747:./Middlewares/ST/usbx/common/usbx_device_classes/src/ux_device_class_dfu_control_request.c **** 
 748:./Middlewares/ST/usbx/common/usbx_device_classes/src/ux_device_class_dfu_control_request.c ****                     break;
 749:./Middlewares/ST/usbx/common/usbx_device_classes/src/ux_device_class_dfu_control_request.c **** #endif
 750:./Middlewares/ST/usbx/common/usbx_device_classes/src/ux_device_class_dfu_control_request.c **** 
 751:./Middlewares/ST/usbx/common/usbx_device_classes/src/ux_device_class_dfu_control_request.c ****                 case UX_SLAVE_CLASS_DFU_COMMAND_CLEAR_STATUS :
 752:./Middlewares/ST/usbx/common/usbx_device_classes/src/ux_device_class_dfu_control_request.c **** 
 753:./Middlewares/ST/usbx/common/usbx_device_classes/src/ux_device_class_dfu_control_request.c ****                     /* In the system, state the DFU state machine to dfu IDLE.  */
 754:./Middlewares/ST/usbx/common/usbx_device_classes/src/ux_device_class_dfu_control_request.c ****                     dfu -> ux_slave_class_dfu_status = UX_SLAVE_CLASS_DFU_MEDIA_STATUS_OK;
 755:./Middlewares/ST/usbx/common/usbx_device_classes/src/ux_device_class_dfu_control_request.c ****                     _ux_system_slave -> ux_system_slave_device_dfu_state_machine = UX_SYSTEM_DFU_ST
 756:./Middlewares/ST/usbx/common/usbx_device_classes/src/ux_device_class_dfu_control_request.c **** 
 757:./Middlewares/ST/usbx/common/usbx_device_classes/src/ux_device_class_dfu_control_request.c ****                     break;
 758:./Middlewares/ST/usbx/common/usbx_device_classes/src/ux_device_class_dfu_control_request.c **** 
 759:./Middlewares/ST/usbx/common/usbx_device_classes/src/ux_device_class_dfu_control_request.c ****                 default:
 760:./Middlewares/ST/usbx/common/usbx_device_classes/src/ux_device_class_dfu_control_request.c **** 
 761:./Middlewares/ST/usbx/common/usbx_device_classes/src/ux_device_class_dfu_control_request.c ****                     /* Unknown function. Stall the endpoint.  */
 762:./Middlewares/ST/usbx/common/usbx_device_classes/src/ux_device_class_dfu_control_request.c ****                     _ux_device_stack_endpoint_stall(&device -> ux_slave_device_control_endpoint);
 763:./Middlewares/ST/usbx/common/usbx_device_classes/src/ux_device_class_dfu_control_request.c ****                     break;
 764:./Middlewares/ST/usbx/common/usbx_device_classes/src/ux_device_class_dfu_control_request.c **** 
 765:./Middlewares/ST/usbx/common/usbx_device_classes/src/ux_device_class_dfu_control_request.c ****             }
 766:./Middlewares/ST/usbx/common/usbx_device_classes/src/ux_device_class_dfu_control_request.c **** 
 767:./Middlewares/ST/usbx/common/usbx_device_classes/src/ux_device_class_dfu_control_request.c ****             break;
 768:./Middlewares/ST/usbx/common/usbx_device_classes/src/ux_device_class_dfu_control_request.c **** 
 769:./Middlewares/ST/usbx/common/usbx_device_classes/src/ux_device_class_dfu_control_request.c **** #ifndef UX_DEVICE_CLASS_DFU_UPLOAD_DISABLE
 770:./Middlewares/ST/usbx/common/usbx_device_classes/src/ux_device_class_dfu_control_request.c ****         case UX_SLAVE_CLASS_DFU_STATUS_STATE_DFU_UPLOAD_IDLE:
 771:./Middlewares/ST/usbx/common/usbx_device_classes/src/ux_device_class_dfu_control_request.c **** 
 772:./Middlewares/ST/usbx/common/usbx_device_classes/src/ux_device_class_dfu_control_request.c ****             /* Here we process only the request we can accept in the DFU mode UPLOAD IDLE state.  *
 773:./Middlewares/ST/usbx/common/usbx_device_classes/src/ux_device_class_dfu_control_request.c ****             switch (request)
 774:./Middlewares/ST/usbx/common/usbx_device_classes/src/ux_device_class_dfu_control_request.c ****             {
 775:./Middlewares/ST/usbx/common/usbx_device_classes/src/ux_device_class_dfu_control_request.c **** 
 776:./Middlewares/ST/usbx/common/usbx_device_classes/src/ux_device_class_dfu_control_request.c ****             case UX_SLAVE_CLASS_DFU_COMMAND_UPLOAD:
 777:./Middlewares/ST/usbx/common/usbx_device_classes/src/ux_device_class_dfu_control_request.c **** 
 778:./Middlewares/ST/usbx/common/usbx_device_classes/src/ux_device_class_dfu_control_request.c ****                 /* Length 0 case undefined, just keep state.  */
 779:./Middlewares/ST/usbx/common/usbx_device_classes/src/ux_device_class_dfu_control_request.c ****                 if (request_length == 0)
 780:./Middlewares/ST/usbx/common/usbx_device_classes/src/ux_device_class_dfu_control_request.c ****                     break;
 781:./Middlewares/ST/usbx/common/usbx_device_classes/src/ux_device_class_dfu_control_request.c **** 
 782:./Middlewares/ST/usbx/common/usbx_device_classes/src/ux_device_class_dfu_control_request.c ****                 /* We received a UPLOAD command with length > 0.  */
 783:./Middlewares/ST/usbx/common/usbx_device_classes/src/ux_device_class_dfu_control_request.c **** 
ARM GAS  C:\Users\Dennis\AppData\Local\Temp\ccmm9cQc.s 			page 20


 784:./Middlewares/ST/usbx/common/usbx_device_classes/src/ux_device_class_dfu_control_request.c ****                 /* Read the next block from the firmware.  */
 785:./Middlewares/ST/usbx/common/usbx_device_classes/src/ux_device_class_dfu_control_request.c ****                 dfu -> ux_slave_class_dfu_read(dfu, request_value,
 786:./Middlewares/ST/usbx/common/usbx_device_classes/src/ux_device_class_dfu_control_request.c ****                                                     transfer_request -> ux_slave_transfer_request_d
 787:./Middlewares/ST/usbx/common/usbx_device_classes/src/ux_device_class_dfu_control_request.c ****                                                     request_length,
 788:./Middlewares/ST/usbx/common/usbx_device_classes/src/ux_device_class_dfu_control_request.c ****                                                     &actual_length);
 789:./Middlewares/ST/usbx/common/usbx_device_classes/src/ux_device_class_dfu_control_request.c **** 
 790:./Middlewares/ST/usbx/common/usbx_device_classes/src/ux_device_class_dfu_control_request.c ****                 /* If it's short frame, switch to dfu IDLE.  */
 791:./Middlewares/ST/usbx/common/usbx_device_classes/src/ux_device_class_dfu_control_request.c ****                 if (actual_length < request_length)
 792:./Middlewares/ST/usbx/common/usbx_device_classes/src/ux_device_class_dfu_control_request.c ****                 {
 793:./Middlewares/ST/usbx/common/usbx_device_classes/src/ux_device_class_dfu_control_request.c **** 
 794:./Middlewares/ST/usbx/common/usbx_device_classes/src/ux_device_class_dfu_control_request.c ****                     /* Send a notification to the application.  */
 795:./Middlewares/ST/usbx/common/usbx_device_classes/src/ux_device_class_dfu_control_request.c ****                     dfu -> ux_slave_class_dfu_notify(dfu, UX_SLAVE_CLASS_DFU_NOTIFICATION_END_UPLOA
 796:./Middlewares/ST/usbx/common/usbx_device_classes/src/ux_device_class_dfu_control_request.c **** 
 797:./Middlewares/ST/usbx/common/usbx_device_classes/src/ux_device_class_dfu_control_request.c ****                     /* In the system, state the DFU state machine to dfu IDLE.  */
 798:./Middlewares/ST/usbx/common/usbx_device_classes/src/ux_device_class_dfu_control_request.c ****                     _ux_system_slave -> ux_system_slave_device_dfu_state_machine = UX_SYSTEM_DFU_ST
 799:./Middlewares/ST/usbx/common/usbx_device_classes/src/ux_device_class_dfu_control_request.c ****                 }
 800:./Middlewares/ST/usbx/common/usbx_device_classes/src/ux_device_class_dfu_control_request.c **** 
 801:./Middlewares/ST/usbx/common/usbx_device_classes/src/ux_device_class_dfu_control_request.c ****                 /* We have a request to upload DFU firmware block. */
 802:./Middlewares/ST/usbx/common/usbx_device_classes/src/ux_device_class_dfu_control_request.c ****                 _ux_device_stack_transfer_request(transfer_request, actual_length, request_length);
 803:./Middlewares/ST/usbx/common/usbx_device_classes/src/ux_device_class_dfu_control_request.c **** 
 804:./Middlewares/ST/usbx/common/usbx_device_classes/src/ux_device_class_dfu_control_request.c ****                 break;
 805:./Middlewares/ST/usbx/common/usbx_device_classes/src/ux_device_class_dfu_control_request.c **** 
 806:./Middlewares/ST/usbx/common/usbx_device_classes/src/ux_device_class_dfu_control_request.c ****             case UX_SLAVE_CLASS_DFU_COMMAND_ABORT :
 807:./Middlewares/ST/usbx/common/usbx_device_classes/src/ux_device_class_dfu_control_request.c **** 
 808:./Middlewares/ST/usbx/common/usbx_device_classes/src/ux_device_class_dfu_control_request.c ****                     /* Send a notification to the application.  */
 809:./Middlewares/ST/usbx/common/usbx_device_classes/src/ux_device_class_dfu_control_request.c ****                     dfu -> ux_slave_class_dfu_notify(dfu, UX_SLAVE_CLASS_DFU_NOTIFICATION_ABORT_UPL
 810:./Middlewares/ST/usbx/common/usbx_device_classes/src/ux_device_class_dfu_control_request.c **** 
 811:./Middlewares/ST/usbx/common/usbx_device_classes/src/ux_device_class_dfu_control_request.c ****                     /* In the system, state the DFU state machine to dfu IDLE.  */
 812:./Middlewares/ST/usbx/common/usbx_device_classes/src/ux_device_class_dfu_control_request.c ****                     _ux_system_slave -> ux_system_slave_device_dfu_state_machine = UX_SYSTEM_DFU_ST
 813:./Middlewares/ST/usbx/common/usbx_device_classes/src/ux_device_class_dfu_control_request.c **** 
 814:./Middlewares/ST/usbx/common/usbx_device_classes/src/ux_device_class_dfu_control_request.c ****                     break;
 815:./Middlewares/ST/usbx/common/usbx_device_classes/src/ux_device_class_dfu_control_request.c **** 
 816:./Middlewares/ST/usbx/common/usbx_device_classes/src/ux_device_class_dfu_control_request.c ****             case UX_SLAVE_CLASS_DFU_COMMAND_GET_STATUS :
 817:./Middlewares/ST/usbx/common/usbx_device_classes/src/ux_device_class_dfu_control_request.c **** 
 818:./Middlewares/ST/usbx/common/usbx_device_classes/src/ux_device_class_dfu_control_request.c **** #if UX_DEVICE_CLASS_DFU_STATUS_MODE == 1
 819:./Middlewares/ST/usbx/common/usbx_device_classes/src/ux_device_class_dfu_control_request.c ****                     _ux_device_class_dfu_status_get(dfu, transfer_request, UX_FALSE, 0, 0, 0);
 820:./Middlewares/ST/usbx/common/usbx_device_classes/src/ux_device_class_dfu_control_request.c **** #else
 821:./Middlewares/ST/usbx/common/usbx_device_classes/src/ux_device_class_dfu_control_request.c **** 
 822:./Middlewares/ST/usbx/common/usbx_device_classes/src/ux_device_class_dfu_control_request.c ****                 /* Fill the status data payload.  First with status.  */
 823:./Middlewares/ST/usbx/common/usbx_device_classes/src/ux_device_class_dfu_control_request.c ****                 *transfer_request -> ux_slave_transfer_request_data_pointer = (UCHAR) dfu -> ux_sla
 824:./Middlewares/ST/usbx/common/usbx_device_classes/src/ux_device_class_dfu_control_request.c **** 
 825:./Middlewares/ST/usbx/common/usbx_device_classes/src/ux_device_class_dfu_control_request.c ****                 /* Poll time out value is set to 1ms.  */
 826:./Middlewares/ST/usbx/common/usbx_device_classes/src/ux_device_class_dfu_control_request.c ****                 *(transfer_request -> ux_slave_transfer_request_data_pointer + UX_SLAVE_CLASS_DFU_G
 827:./Middlewares/ST/usbx/common/usbx_device_classes/src/ux_device_class_dfu_control_request.c ****                 *(transfer_request -> ux_slave_transfer_request_data_pointer + UX_SLAVE_CLASS_DFU_G
 828:./Middlewares/ST/usbx/common/usbx_device_classes/src/ux_device_class_dfu_control_request.c ****                 *(transfer_request -> ux_slave_transfer_request_data_pointer + UX_SLAVE_CLASS_DFU_G
 829:./Middlewares/ST/usbx/common/usbx_device_classes/src/ux_device_class_dfu_control_request.c **** 
 830:./Middlewares/ST/usbx/common/usbx_device_classes/src/ux_device_class_dfu_control_request.c ****                 /* Next state.  */
 831:./Middlewares/ST/usbx/common/usbx_device_classes/src/ux_device_class_dfu_control_request.c ****                 *(transfer_request -> ux_slave_transfer_request_data_pointer + UX_SLAVE_CLASS_DFU_G
 832:./Middlewares/ST/usbx/common/usbx_device_classes/src/ux_device_class_dfu_control_request.c **** 
 833:./Middlewares/ST/usbx/common/usbx_device_classes/src/ux_device_class_dfu_control_request.c ****                 /* String index set to 0.  */
 834:./Middlewares/ST/usbx/common/usbx_device_classes/src/ux_device_class_dfu_control_request.c ****                 *(transfer_request -> ux_slave_transfer_request_data_pointer + UX_SLAVE_CLASS_DFU_G
 835:./Middlewares/ST/usbx/common/usbx_device_classes/src/ux_device_class_dfu_control_request.c **** #endif
 836:./Middlewares/ST/usbx/common/usbx_device_classes/src/ux_device_class_dfu_control_request.c **** 
 837:./Middlewares/ST/usbx/common/usbx_device_classes/src/ux_device_class_dfu_control_request.c ****                 /* We have a request to obtain the status of the DFU instance. */
 838:./Middlewares/ST/usbx/common/usbx_device_classes/src/ux_device_class_dfu_control_request.c ****                 _ux_device_stack_transfer_request(transfer_request, UX_SLAVE_CLASS_DFU_GET_STATUS_L
 839:./Middlewares/ST/usbx/common/usbx_device_classes/src/ux_device_class_dfu_control_request.c **** 
 840:./Middlewares/ST/usbx/common/usbx_device_classes/src/ux_device_class_dfu_control_request.c ****                 break;
ARM GAS  C:\Users\Dennis\AppData\Local\Temp\ccmm9cQc.s 			page 21


 841:./Middlewares/ST/usbx/common/usbx_device_classes/src/ux_device_class_dfu_control_request.c **** 
 842:./Middlewares/ST/usbx/common/usbx_device_classes/src/ux_device_class_dfu_control_request.c ****             case UX_SLAVE_CLASS_DFU_COMMAND_GET_STATE :
 843:./Middlewares/ST/usbx/common/usbx_device_classes/src/ux_device_class_dfu_control_request.c **** 
 844:./Middlewares/ST/usbx/common/usbx_device_classes/src/ux_device_class_dfu_control_request.c ****                 /* Fill the status data payload.  First with state.  */
 845:./Middlewares/ST/usbx/common/usbx_device_classes/src/ux_device_class_dfu_control_request.c ****                 *transfer_request -> ux_slave_transfer_request_data_pointer = (UCHAR) _ux_system_sl
 846:./Middlewares/ST/usbx/common/usbx_device_classes/src/ux_device_class_dfu_control_request.c **** 
 847:./Middlewares/ST/usbx/common/usbx_device_classes/src/ux_device_class_dfu_control_request.c ****                 /* We have a request to obtain the status of the DFU instance. */
 848:./Middlewares/ST/usbx/common/usbx_device_classes/src/ux_device_class_dfu_control_request.c ****                 _ux_device_stack_transfer_request(transfer_request, UX_SLAVE_CLASS_DFU_GET_STATE_LE
 849:./Middlewares/ST/usbx/common/usbx_device_classes/src/ux_device_class_dfu_control_request.c **** 
 850:./Middlewares/ST/usbx/common/usbx_device_classes/src/ux_device_class_dfu_control_request.c ****                 break;
 851:./Middlewares/ST/usbx/common/usbx_device_classes/src/ux_device_class_dfu_control_request.c **** 
 852:./Middlewares/ST/usbx/common/usbx_device_classes/src/ux_device_class_dfu_control_request.c ****             default:
 853:./Middlewares/ST/usbx/common/usbx_device_classes/src/ux_device_class_dfu_control_request.c **** 
 854:./Middlewares/ST/usbx/common/usbx_device_classes/src/ux_device_class_dfu_control_request.c ****                 /* Unknown function. Stall the endpoint.  */
 855:./Middlewares/ST/usbx/common/usbx_device_classes/src/ux_device_class_dfu_control_request.c ****                 _ux_device_stack_endpoint_stall(&device -> ux_slave_device_control_endpoint);
 856:./Middlewares/ST/usbx/common/usbx_device_classes/src/ux_device_class_dfu_control_request.c **** 
 857:./Middlewares/ST/usbx/common/usbx_device_classes/src/ux_device_class_dfu_control_request.c ****                 /* In the system, state the DFU state machine to dfu ERROR.  */
 858:./Middlewares/ST/usbx/common/usbx_device_classes/src/ux_device_class_dfu_control_request.c ****                 _ux_system_slave -> ux_system_slave_device_dfu_state_machine = UX_SYSTEM_DFU_STATE_
 859:./Middlewares/ST/usbx/common/usbx_device_classes/src/ux_device_class_dfu_control_request.c **** 
 860:./Middlewares/ST/usbx/common/usbx_device_classes/src/ux_device_class_dfu_control_request.c ****                 break;
 861:./Middlewares/ST/usbx/common/usbx_device_classes/src/ux_device_class_dfu_control_request.c ****             }
 862:./Middlewares/ST/usbx/common/usbx_device_classes/src/ux_device_class_dfu_control_request.c **** 
 863:./Middlewares/ST/usbx/common/usbx_device_classes/src/ux_device_class_dfu_control_request.c ****             break;
 864:./Middlewares/ST/usbx/common/usbx_device_classes/src/ux_device_class_dfu_control_request.c **** #endif
 865:./Middlewares/ST/usbx/common/usbx_device_classes/src/ux_device_class_dfu_control_request.c **** 
 866:./Middlewares/ST/usbx/common/usbx_device_classes/src/ux_device_class_dfu_control_request.c ****         default:
 867:./Middlewares/ST/usbx/common/usbx_device_classes/src/ux_device_class_dfu_control_request.c **** 
 868:./Middlewares/ST/usbx/common/usbx_device_classes/src/ux_device_class_dfu_control_request.c ****             /* Unknown state. Should not happen.  */
 869:./Middlewares/ST/usbx/common/usbx_device_classes/src/ux_device_class_dfu_control_request.c ****             return(UX_ERROR);
 870:./Middlewares/ST/usbx/common/usbx_device_classes/src/ux_device_class_dfu_control_request.c ****     }
 871:./Middlewares/ST/usbx/common/usbx_device_classes/src/ux_device_class_dfu_control_request.c **** 
 872:./Middlewares/ST/usbx/common/usbx_device_classes/src/ux_device_class_dfu_control_request.c ****     return(UX_SUCCESS);
 257              		.loc 1 872 11 is_stmt 0 view .LVU84
 258 00f8 0025     		movs	r5, #0
 273:./Middlewares/ST/usbx/common/usbx_device_classes/src/ux_device_class_dfu_control_request.c ****                     break;
 259              		.loc 1 273 21 view .LVU85
 260 00fa A5E2     		b	.L1
 261              	.LVL29:
 262              	.L17:
 240:./Middlewares/ST/usbx/common/usbx_device_classes/src/ux_device_class_dfu_control_request.c **** 
 263              		.loc 1 240 21 is_stmt 1 view .LVU86
 240:./Middlewares/ST/usbx/common/usbx_device_classes/src/ux_device_class_dfu_control_request.c **** 
 264              		.loc 1 240 39 is_stmt 0 view .LVU87
 265 00fc D4F89830 		ldr	r3, [r4, #152]
 240:./Middlewares/ST/usbx/common/usbx_device_classes/src/ux_device_class_dfu_control_request.c **** 
 266              		.loc 1 240 83 view .LVU88
 267 0100 99F80420 		ldrb	r2, [r9, #4]	@ zero_extendqisi2
 240:./Middlewares/ST/usbx/common/usbx_device_classes/src/ux_device_class_dfu_control_request.c **** 
 268              		.loc 1 240 81 view .LVU89
 269 0104 1A70     		strb	r2, [r3]
 243:./Middlewares/ST/usbx/common/usbx_device_classes/src/ux_device_class_dfu_control_request.c ****                     *(transfer_request -> ux_slave_transfer_request_data_pointer + UX_SLAVE_CLASS_D
 270              		.loc 1 243 21 is_stmt 1 view .LVU90
 243:./Middlewares/ST/usbx/common/usbx_device_classes/src/ux_device_class_dfu_control_request.c ****                     *(transfer_request -> ux_slave_transfer_request_data_pointer + UX_SLAVE_CLASS_D
 271              		.loc 1 243 40 is_stmt 0 view .LVU91
 272 0106 D4F89830 		ldr	r3, [r4, #152]
 243:./Middlewares/ST/usbx/common/usbx_device_classes/src/ux_device_class_dfu_control_request.c ****                     *(transfer_request -> ux_slave_transfer_request_data_pointer + UX_SLAVE_CLASS_D
 273              		.loc 1 243 128 view .LVU92
ARM GAS  C:\Users\Dennis\AppData\Local\Temp\ccmm9cQc.s 			page 22


 274 010a 6422     		movs	r2, #100
 275 010c 5A70     		strb	r2, [r3, #1]
 244:./Middlewares/ST/usbx/common/usbx_device_classes/src/ux_device_class_dfu_control_request.c ****                     *(transfer_request -> ux_slave_transfer_request_data_pointer + UX_SLAVE_CLASS_D
 276              		.loc 1 244 21 is_stmt 1 view .LVU93
 244:./Middlewares/ST/usbx/common/usbx_device_classes/src/ux_device_class_dfu_control_request.c ****                     *(transfer_request -> ux_slave_transfer_request_data_pointer + UX_SLAVE_CLASS_D
 277              		.loc 1 244 40 is_stmt 0 view .LVU94
 278 010e D4F89830 		ldr	r3, [r4, #152]
 244:./Middlewares/ST/usbx/common/usbx_device_classes/src/ux_device_class_dfu_control_request.c ****                     *(transfer_request -> ux_slave_transfer_request_data_pointer + UX_SLAVE_CLASS_D
 279              		.loc 1 244 132 view .LVU95
 280 0112 0025     		movs	r5, #0
 281 0114 9D70     		strb	r5, [r3, #2]
 245:./Middlewares/ST/usbx/common/usbx_device_classes/src/ux_device_class_dfu_control_request.c **** 
 282              		.loc 1 245 21 is_stmt 1 view .LVU96
 245:./Middlewares/ST/usbx/common/usbx_device_classes/src/ux_device_class_dfu_control_request.c **** 
 283              		.loc 1 245 40 is_stmt 0 view .LVU97
 284 0116 D4F89830 		ldr	r3, [r4, #152]
 245:./Middlewares/ST/usbx/common/usbx_device_classes/src/ux_device_class_dfu_control_request.c **** 
 285              		.loc 1 245 132 view .LVU98
 286 011a DD70     		strb	r5, [r3, #3]
 248:./Middlewares/ST/usbx/common/usbx_device_classes/src/ux_device_class_dfu_control_request.c **** 
 287              		.loc 1 248 21 is_stmt 1 view .LVU99
 248:./Middlewares/ST/usbx/common/usbx_device_classes/src/ux_device_class_dfu_control_request.c **** 
 288              		.loc 1 248 148 is_stmt 0 view .LVU100
 289 011c 674B     		ldr	r3, .L71
 290 011e 1A68     		ldr	r2, [r3]
 248:./Middlewares/ST/usbx/common/usbx_device_classes/src/ux_device_class_dfu_control_request.c **** 
 291              		.loc 1 248 40 view .LVU101
 292 0120 D4F89830 		ldr	r3, [r4, #152]
 248:./Middlewares/ST/usbx/common/usbx_device_classes/src/ux_device_class_dfu_control_request.c **** 
 293              		.loc 1 248 123 view .LVU102
 294 0124 92F8B821 		ldrb	r2, [r2, #440]	@ zero_extendqisi2
 248:./Middlewares/ST/usbx/common/usbx_device_classes/src/ux_device_class_dfu_control_request.c **** 
 295              		.loc 1 248 121 view .LVU103
 296 0128 1A71     		strb	r2, [r3, #4]
 251:./Middlewares/ST/usbx/common/usbx_device_classes/src/ux_device_class_dfu_control_request.c **** #endif
 297              		.loc 1 251 21 is_stmt 1 view .LVU104
 251:./Middlewares/ST/usbx/common/usbx_device_classes/src/ux_device_class_dfu_control_request.c **** #endif
 298              		.loc 1 251 40 is_stmt 0 view .LVU105
 299 012a D4F89830 		ldr	r3, [r4, #152]
 251:./Middlewares/ST/usbx/common/usbx_device_classes/src/ux_device_class_dfu_control_request.c **** #endif
 300              		.loc 1 251 122 view .LVU106
 301 012e 5D71     		strb	r5, [r3, #5]
 255:./Middlewares/ST/usbx/common/usbx_device_classes/src/ux_device_class_dfu_control_request.c **** 
 302              		.loc 1 255 21 is_stmt 1 view .LVU107
 303 0130 0622     		movs	r2, #6
 304 0132 1146     		mov	r1, r2
 305 0134 5046     		mov	r0, r10
 306              	.LVL30:
 255:./Middlewares/ST/usbx/common/usbx_device_classes/src/ux_device_class_dfu_control_request.c **** 
 307              		.loc 1 255 21 is_stmt 0 view .LVU108
 308 0136 FFF7FEFF 		bl	_ux_device_stack_transfer_request
 309              	.LVL31:
 257:./Middlewares/ST/usbx/common/usbx_device_classes/src/ux_device_class_dfu_control_request.c **** 
 310              		.loc 1 257 21 is_stmt 1 view .LVU109
 311 013a 85E2     		b	.L1
 312              	.LVL32:
 313              	.L18:
ARM GAS  C:\Users\Dennis\AppData\Local\Temp\ccmm9cQc.s 			page 23


 262:./Middlewares/ST/usbx/common/usbx_device_classes/src/ux_device_class_dfu_control_request.c **** 
 314              		.loc 1 262 21 view .LVU110
 262:./Middlewares/ST/usbx/common/usbx_device_classes/src/ux_device_class_dfu_control_request.c **** 
 315              		.loc 1 262 39 is_stmt 0 view .LVU111
 316 013c D4F89830 		ldr	r3, [r4, #152]
 262:./Middlewares/ST/usbx/common/usbx_device_classes/src/ux_device_class_dfu_control_request.c **** 
 317              		.loc 1 262 81 view .LVU112
 318 0140 1D70     		strb	r5, [r3]
 265:./Middlewares/ST/usbx/common/usbx_device_classes/src/ux_device_class_dfu_control_request.c **** 
 319              		.loc 1 265 21 is_stmt 1 view .LVU113
 320 0142 0122     		movs	r2, #1
 321 0144 1146     		mov	r1, r2
 322 0146 5046     		mov	r0, r10
 323              	.LVL33:
 265:./Middlewares/ST/usbx/common/usbx_device_classes/src/ux_device_class_dfu_control_request.c **** 
 324              		.loc 1 265 21 is_stmt 0 view .LVU114
 325 0148 FFF7FEFF 		bl	_ux_device_stack_transfer_request
 326              	.LVL34:
 267:./Middlewares/ST/usbx/common/usbx_device_classes/src/ux_device_class_dfu_control_request.c **** 
 327              		.loc 1 267 21 is_stmt 1 view .LVU115
 328              		.loc 1 872 11 is_stmt 0 view .LVU116
 329 014c 0025     		movs	r5, #0
 267:./Middlewares/ST/usbx/common/usbx_device_classes/src/ux_device_class_dfu_control_request.c **** 
 330              		.loc 1 267 21 view .LVU117
 331 014e 7BE2     		b	.L1
 332              	.LVL35:
 333              	.L9:
 281:./Middlewares/ST/usbx/common/usbx_device_classes/src/ux_device_class_dfu_control_request.c ****             {
 334              		.loc 1 281 13 is_stmt 1 view .LVU118
 335 0150 013E     		subs	r6, r6, #1
 336              	.LVL36:
 281:./Middlewares/ST/usbx/common/usbx_device_classes/src/ux_device_class_dfu_control_request.c ****             {
 337              		.loc 1 281 13 is_stmt 0 view .LVU119
 338 0152 052E     		cmp	r6, #5
 339 0154 00F29880 		bhi	.L20
 340 0158 DFE806F0 		tbb	[pc, r6]
 341              	.L22:
 342 015c 03       		.byte	(.L26-.L22)/2
 343 015d 67       		.byte	(.L25-.L22)/2
 344 015e 40       		.byte	(.L24-.L22)/2
 345 015f 96       		.byte	(.L20-.L22)/2
 346 0160 5D       		.byte	(.L23-.L22)/2
 347 0161 34       		.byte	(.L21-.L22)/2
 348              		.p2align 1
 349              	.L26:
 287:./Middlewares/ST/usbx/common/usbx_device_classes/src/ux_device_class_dfu_control_request.c ****                     {
 350              		.loc 1 287 21 is_stmt 1 view .LVU120
 287:./Middlewares/ST/usbx/common/usbx_device_classes/src/ux_device_class_dfu_control_request.c ****                     {
 351              		.loc 1 287 24 is_stmt 0 view .LVU121
 352 0162 D0B1     		cbz	r0, .L67
 301:./Middlewares/ST/usbx/common/usbx_device_classes/src/ux_device_class_dfu_control_request.c ****                         {
 353              		.loc 1 301 25 is_stmt 1 view .LVU122
 301:./Middlewares/ST/usbx/common/usbx_device_classes/src/ux_device_class_dfu_control_request.c ****                         {
 354              		.loc 1 301 46 is_stmt 0 view .LVU123
 355 0164 D3F8AC51 		ldr	r5, [r3, #428]
 301:./Middlewares/ST/usbx/common/usbx_device_classes/src/ux_device_class_dfu_control_request.c ****                         {
 356              		.loc 1 301 28 view .LVU124
ARM GAS  C:\Users\Dennis\AppData\Local\Temp\ccmm9cQc.s 			page 24


 357 0168 15F00105 		ands	r5, r5, #1
 358 016c 20D0     		beq	.L28
 305:./Middlewares/ST/usbx/common/usbx_device_classes/src/ux_device_class_dfu_control_request.c **** 
 359              		.loc 1 305 29 is_stmt 1 view .LVU125
 305:./Middlewares/ST/usbx/common/usbx_device_classes/src/ux_device_class_dfu_control_request.c **** 
 360              		.loc 1 305 33 is_stmt 0 view .LVU126
 361 016e D9F81C30 		ldr	r3, [r9, #28]
 305:./Middlewares/ST/usbx/common/usbx_device_classes/src/ux_device_class_dfu_control_request.c **** 
 362              		.loc 1 305 29 view .LVU127
 363 0172 0121     		movs	r1, #1
 364 0174 4846     		mov	r0, r9
 365              	.LVL37:
 305:./Middlewares/ST/usbx/common/usbx_device_classes/src/ux_device_class_dfu_control_request.c **** 
 366              		.loc 1 305 29 view .LVU128
 367 0176 9847     		blx	r3
 368              	.LVL38:
 308:./Middlewares/ST/usbx/common/usbx_device_classes/src/ux_device_class_dfu_control_request.c ****                                                                 transfer_request -> ux_slave_transf
 369              		.loc 1 308 29 is_stmt 1 view .LVU129
 308:./Middlewares/ST/usbx/common/usbx_device_classes/src/ux_device_class_dfu_control_request.c ****                                                                 transfer_request -> ux_slave_transf
 370              		.loc 1 308 33 is_stmt 0 view .LVU130
 371 0178 D9F81450 		ldr	r5, [r9, #20]
 308:./Middlewares/ST/usbx/common/usbx_device_classes/src/ux_device_class_dfu_control_request.c ****                                                                 transfer_request -> ux_slave_transf
 372              		.loc 1 308 29 view .LVU131
 373 017c D4F89820 		ldr	r2, [r4, #152]
 374 0180 03AB     		add	r3, sp, #12
 375 0182 0093     		str	r3, [sp]
 376 0184 3B46     		mov	r3, r7
 377 0186 4146     		mov	r1, r8
 378 0188 4846     		mov	r0, r9
 379 018a A847     		blx	r5
 380              	.LVL39:
 314:./Middlewares/ST/usbx/common/usbx_device_classes/src/ux_device_class_dfu_control_request.c **** 
 381              		.loc 1 314 29 is_stmt 1 view .LVU132
 314:./Middlewares/ST/usbx/common/usbx_device_classes/src/ux_device_class_dfu_control_request.c **** 
 382              		.loc 1 314 46 is_stmt 0 view .LVU133
 383 018c 4B4B     		ldr	r3, .L71
 384 018e 1B68     		ldr	r3, [r3]
 314:./Middlewares/ST/usbx/common/usbx_device_classes/src/ux_device_class_dfu_control_request.c **** 
 385              		.loc 1 314 90 view .LVU134
 386 0190 0322     		movs	r2, #3
 387 0192 C3F8B821 		str	r2, [r3, #440]
 388              		.loc 1 872 11 view .LVU135
 389 0196 0025     		movs	r5, #0
 390 0198 56E2     		b	.L1
 391              	.LVL40:
 392              	.L67:
 291:./Middlewares/ST/usbx/common/usbx_device_classes/src/ux_device_class_dfu_control_request.c **** 
 393              		.loc 1 291 25 is_stmt 1 view .LVU136
 394 019a 04F15C00 		add	r0, r4, #92
 395              	.LVL41:
 291:./Middlewares/ST/usbx/common/usbx_device_classes/src/ux_device_class_dfu_control_request.c **** 
 396              		.loc 1 291 25 is_stmt 0 view .LVU137
 397 019e FFF7FEFF 		bl	_ux_device_stack_endpoint_stall
 398              	.LVL42:
 294:./Middlewares/ST/usbx/common/usbx_device_classes/src/ux_device_class_dfu_control_request.c **** 
 399              		.loc 1 294 25 is_stmt 1 view .LVU138
 294:./Middlewares/ST/usbx/common/usbx_device_classes/src/ux_device_class_dfu_control_request.c **** 
ARM GAS  C:\Users\Dennis\AppData\Local\Temp\ccmm9cQc.s 			page 25


 400              		.loc 1 294 42 is_stmt 0 view .LVU139
 401 01a2 464B     		ldr	r3, .L71
 402 01a4 1B68     		ldr	r3, [r3]
 294:./Middlewares/ST/usbx/common/usbx_device_classes/src/ux_device_class_dfu_control_request.c **** 
 403              		.loc 1 294 86 view .LVU140
 404 01a6 0A22     		movs	r2, #10
 405 01a8 C3F8B821 		str	r2, [r3, #440]
 406              		.loc 1 872 11 view .LVU141
 407 01ac 3D46     		mov	r5, r7
 408 01ae 4BE2     		b	.L1
 409              	.LVL43:
 410              	.L28:
 321:./Middlewares/ST/usbx/common/usbx_device_classes/src/ux_device_class_dfu_control_request.c **** 
 411              		.loc 1 321 29 is_stmt 1 view .LVU142
 412 01b0 04F15C00 		add	r0, r4, #92
 413              	.LVL44:
 321:./Middlewares/ST/usbx/common/usbx_device_classes/src/ux_device_class_dfu_control_request.c **** 
 414              		.loc 1 321 29 is_stmt 0 view .LVU143
 415 01b4 FFF7FEFF 		bl	_ux_device_stack_endpoint_stall
 416              	.LVL45:
 324:./Middlewares/ST/usbx/common/usbx_device_classes/src/ux_device_class_dfu_control_request.c **** 
 417              		.loc 1 324 29 is_stmt 1 view .LVU144
 324:./Middlewares/ST/usbx/common/usbx_device_classes/src/ux_device_class_dfu_control_request.c **** 
 418              		.loc 1 324 46 is_stmt 0 view .LVU145
 419 01b8 404B     		ldr	r3, .L71
 420 01ba 1B68     		ldr	r3, [r3]
 324:./Middlewares/ST/usbx/common/usbx_device_classes/src/ux_device_class_dfu_control_request.c **** 
 421              		.loc 1 324 90 view .LVU146
 422 01bc 0A22     		movs	r2, #10
 423 01be C3F8B821 		str	r2, [r3, #440]
 424 01c2 41E2     		b	.L1
 425              	.LVL46:
 426              	.L21:
 334:./Middlewares/ST/usbx/common/usbx_device_classes/src/ux_device_class_dfu_control_request.c **** 
 427              		.loc 1 334 25 is_stmt 1 view .LVU147
 334:./Middlewares/ST/usbx/common/usbx_device_classes/src/ux_device_class_dfu_control_request.c **** 
 428              		.loc 1 334 29 is_stmt 0 view .LVU148
 429 01c4 D9F81C30 		ldr	r3, [r9, #28]
 334:./Middlewares/ST/usbx/common/usbx_device_classes/src/ux_device_class_dfu_control_request.c **** 
 430              		.loc 1 334 25 view .LVU149
 431 01c8 0321     		movs	r1, #3
 432 01ca 4846     		mov	r0, r9
 433              	.LVL47:
 334:./Middlewares/ST/usbx/common/usbx_device_classes/src/ux_device_class_dfu_control_request.c **** 
 434              		.loc 1 334 25 view .LVU150
 435 01cc 9847     		blx	r3
 436              	.LVL48:
 337:./Middlewares/ST/usbx/common/usbx_device_classes/src/ux_device_class_dfu_control_request.c **** 
 437              		.loc 1 337 25 is_stmt 1 view .LVU151
 337:./Middlewares/ST/usbx/common/usbx_device_classes/src/ux_device_class_dfu_control_request.c **** 
 438              		.loc 1 337 42 is_stmt 0 view .LVU152
 439 01ce 3B4B     		ldr	r3, .L71
 440 01d0 1B68     		ldr	r3, [r3]
 337:./Middlewares/ST/usbx/common/usbx_device_classes/src/ux_device_class_dfu_control_request.c **** 
 441              		.loc 1 337 86 view .LVU153
 442 01d2 0222     		movs	r2, #2
 443 01d4 C3F8B821 		str	r2, [r3, #440]
ARM GAS  C:\Users\Dennis\AppData\Local\Temp\ccmm9cQc.s 			page 26


 339:./Middlewares/ST/usbx/common/usbx_device_classes/src/ux_device_class_dfu_control_request.c **** 
 444              		.loc 1 339 21 is_stmt 1 view .LVU154
 445              		.loc 1 872 11 is_stmt 0 view .LVU155
 446 01d8 0025     		movs	r5, #0
 339:./Middlewares/ST/usbx/common/usbx_device_classes/src/ux_device_class_dfu_control_request.c **** 
 447              		.loc 1 339 21 view .LVU156
 448 01da 35E2     		b	.L1
 449              	.LVL49:
 450              	.L24:
 348:./Middlewares/ST/usbx/common/usbx_device_classes/src/ux_device_class_dfu_control_request.c **** 
 451              		.loc 1 348 21 is_stmt 1 view .LVU157
 348:./Middlewares/ST/usbx/common/usbx_device_classes/src/ux_device_class_dfu_control_request.c **** 
 452              		.loc 1 348 39 is_stmt 0 view .LVU158
 453 01dc D4F89830 		ldr	r3, [r4, #152]
 348:./Middlewares/ST/usbx/common/usbx_device_classes/src/ux_device_class_dfu_control_request.c **** 
 454              		.loc 1 348 83 view .LVU159
 455 01e0 99F80420 		ldrb	r2, [r9, #4]	@ zero_extendqisi2
 348:./Middlewares/ST/usbx/common/usbx_device_classes/src/ux_device_class_dfu_control_request.c **** 
 456              		.loc 1 348 81 view .LVU160
 457 01e4 1A70     		strb	r2, [r3]
 351:./Middlewares/ST/usbx/common/usbx_device_classes/src/ux_device_class_dfu_control_request.c ****                     *(transfer_request -> ux_slave_transfer_request_data_pointer + UX_SLAVE_CLASS_D
 458              		.loc 1 351 21 is_stmt 1 view .LVU161
 351:./Middlewares/ST/usbx/common/usbx_device_classes/src/ux_device_class_dfu_control_request.c ****                     *(transfer_request -> ux_slave_transfer_request_data_pointer + UX_SLAVE_CLASS_D
 459              		.loc 1 351 40 is_stmt 0 view .LVU162
 460 01e6 D4F89830 		ldr	r3, [r4, #152]
 351:./Middlewares/ST/usbx/common/usbx_device_classes/src/ux_device_class_dfu_control_request.c ****                     *(transfer_request -> ux_slave_transfer_request_data_pointer + UX_SLAVE_CLASS_D
 461              		.loc 1 351 128 view .LVU163
 462 01ea 6422     		movs	r2, #100
 463 01ec 5A70     		strb	r2, [r3, #1]
 352:./Middlewares/ST/usbx/common/usbx_device_classes/src/ux_device_class_dfu_control_request.c ****                     *(transfer_request -> ux_slave_transfer_request_data_pointer + UX_SLAVE_CLASS_D
 464              		.loc 1 352 21 is_stmt 1 view .LVU164
 352:./Middlewares/ST/usbx/common/usbx_device_classes/src/ux_device_class_dfu_control_request.c ****                     *(transfer_request -> ux_slave_transfer_request_data_pointer + UX_SLAVE_CLASS_D
 465              		.loc 1 352 40 is_stmt 0 view .LVU165
 466 01ee D4F89830 		ldr	r3, [r4, #152]
 352:./Middlewares/ST/usbx/common/usbx_device_classes/src/ux_device_class_dfu_control_request.c ****                     *(transfer_request -> ux_slave_transfer_request_data_pointer + UX_SLAVE_CLASS_D
 467              		.loc 1 352 132 view .LVU166
 468 01f2 0025     		movs	r5, #0
 469 01f4 9D70     		strb	r5, [r3, #2]
 353:./Middlewares/ST/usbx/common/usbx_device_classes/src/ux_device_class_dfu_control_request.c **** 
 470              		.loc 1 353 21 is_stmt 1 view .LVU167
 353:./Middlewares/ST/usbx/common/usbx_device_classes/src/ux_device_class_dfu_control_request.c **** 
 471              		.loc 1 353 40 is_stmt 0 view .LVU168
 472 01f6 D4F89830 		ldr	r3, [r4, #152]
 353:./Middlewares/ST/usbx/common/usbx_device_classes/src/ux_device_class_dfu_control_request.c **** 
 473              		.loc 1 353 132 view .LVU169
 474 01fa DD70     		strb	r5, [r3, #3]
 356:./Middlewares/ST/usbx/common/usbx_device_classes/src/ux_device_class_dfu_control_request.c **** 
 475              		.loc 1 356 21 is_stmt 1 view .LVU170
 356:./Middlewares/ST/usbx/common/usbx_device_classes/src/ux_device_class_dfu_control_request.c **** 
 476              		.loc 1 356 40 is_stmt 0 view .LVU171
 477 01fc D4F89830 		ldr	r3, [r4, #152]
 356:./Middlewares/ST/usbx/common/usbx_device_classes/src/ux_device_class_dfu_control_request.c **** 
 478              		.loc 1 356 121 view .LVU172
 479 0200 0222     		movs	r2, #2
 480 0202 1A71     		strb	r2, [r3, #4]
 359:./Middlewares/ST/usbx/common/usbx_device_classes/src/ux_device_class_dfu_control_request.c **** #endif
 481              		.loc 1 359 21 is_stmt 1 view .LVU173
ARM GAS  C:\Users\Dennis\AppData\Local\Temp\ccmm9cQc.s 			page 27


 359:./Middlewares/ST/usbx/common/usbx_device_classes/src/ux_device_class_dfu_control_request.c **** #endif
 482              		.loc 1 359 40 is_stmt 0 view .LVU174
 483 0204 D4F89830 		ldr	r3, [r4, #152]
 359:./Middlewares/ST/usbx/common/usbx_device_classes/src/ux_device_class_dfu_control_request.c **** #endif
 484              		.loc 1 359 122 view .LVU175
 485 0208 5D71     		strb	r5, [r3, #5]
 363:./Middlewares/ST/usbx/common/usbx_device_classes/src/ux_device_class_dfu_control_request.c **** 
 486              		.loc 1 363 21 is_stmt 1 view .LVU176
 487 020a 0622     		movs	r2, #6
 488 020c 1146     		mov	r1, r2
 489 020e 5046     		mov	r0, r10
 490              	.LVL50:
 363:./Middlewares/ST/usbx/common/usbx_device_classes/src/ux_device_class_dfu_control_request.c **** 
 491              		.loc 1 363 21 is_stmt 0 view .LVU177
 492 0210 FFF7FEFF 		bl	_ux_device_stack_transfer_request
 493              	.LVL51:
 365:./Middlewares/ST/usbx/common/usbx_device_classes/src/ux_device_class_dfu_control_request.c **** 
 494              		.loc 1 365 21 is_stmt 1 view .LVU178
 495 0214 18E2     		b	.L1
 496              	.LVL52:
 497              	.L23:
 370:./Middlewares/ST/usbx/common/usbx_device_classes/src/ux_device_class_dfu_control_request.c **** 
 498              		.loc 1 370 21 view .LVU179
 370:./Middlewares/ST/usbx/common/usbx_device_classes/src/ux_device_class_dfu_control_request.c **** 
 499              		.loc 1 370 39 is_stmt 0 view .LVU180
 500 0216 D4F89830 		ldr	r3, [r4, #152]
 370:./Middlewares/ST/usbx/common/usbx_device_classes/src/ux_device_class_dfu_control_request.c **** 
 501              		.loc 1 370 81 view .LVU181
 502 021a 1D70     		strb	r5, [r3]
 373:./Middlewares/ST/usbx/common/usbx_device_classes/src/ux_device_class_dfu_control_request.c **** 
 503              		.loc 1 373 21 is_stmt 1 view .LVU182
 504 021c 0122     		movs	r2, #1
 505 021e 1146     		mov	r1, r2
 506 0220 5046     		mov	r0, r10
 507              	.LVL53:
 373:./Middlewares/ST/usbx/common/usbx_device_classes/src/ux_device_class_dfu_control_request.c **** 
 508              		.loc 1 373 21 is_stmt 0 view .LVU183
 509 0222 FFF7FEFF 		bl	_ux_device_stack_transfer_request
 510              	.LVL54:
 375:./Middlewares/ST/usbx/common/usbx_device_classes/src/ux_device_class_dfu_control_request.c **** 
 511              		.loc 1 375 21 is_stmt 1 view .LVU184
 512              		.loc 1 872 11 is_stmt 0 view .LVU185
 513 0226 0025     		movs	r5, #0
 375:./Middlewares/ST/usbx/common/usbx_device_classes/src/ux_device_class_dfu_control_request.c **** 
 514              		.loc 1 375 21 view .LVU186
 515 0228 0EE2     		b	.L1
 516              	.LVL55:
 517              	.L25:
 381:./Middlewares/ST/usbx/common/usbx_device_classes/src/ux_device_class_dfu_control_request.c ****                         (request_length == 0) ||
 518              		.loc 1 381 21 is_stmt 1 view .LVU187
 381:./Middlewares/ST/usbx/common/usbx_device_classes/src/ux_device_class_dfu_control_request.c ****                         (request_length == 0) ||
 519              		.loc 1 381 44 is_stmt 0 view .LVU188
 520 022a D3F8AC31 		ldr	r3, [r3, #428]
 381:./Middlewares/ST/usbx/common/usbx_device_classes/src/ux_device_class_dfu_control_request.c ****                         (request_length == 0) ||
 521              		.loc 1 381 24 view .LVU189
 522 022e 13F0020F 		tst	r3, #2
 523 0232 03D0     		beq	.L29
ARM GAS  C:\Users\Dennis\AppData\Local\Temp\ccmm9cQc.s 			page 28


 381:./Middlewares/ST/usbx/common/usbx_device_classes/src/ux_device_class_dfu_control_request.c ****                         (request_length == 0) ||
 524              		.loc 1 381 131 discriminator 1 view .LVU190
 525 0234 10B1     		cbz	r0, .L29
 382:./Middlewares/ST/usbx/common/usbx_device_classes/src/ux_device_class_dfu_control_request.c ****                         (request_length > UX_SLAVE_REQUEST_CONTROL_MAX_LENGTH))
 526              		.loc 1 382 47 view .LVU191
 527 0236 B0F5807F 		cmp	r0, #256
 528 023a 0AD9     		bls	.L30
 529              	.L29:
 385:./Middlewares/ST/usbx/common/usbx_device_classes/src/ux_device_class_dfu_control_request.c **** 
 530              		.loc 1 385 25 is_stmt 1 view .LVU192
 531 023c 04F15C00 		add	r0, r4, #92
 532              	.LVL56:
 385:./Middlewares/ST/usbx/common/usbx_device_classes/src/ux_device_class_dfu_control_request.c **** 
 533              		.loc 1 385 25 is_stmt 0 view .LVU193
 534 0240 FFF7FEFF 		bl	_ux_device_stack_endpoint_stall
 535              	.LVL57:
 388:./Middlewares/ST/usbx/common/usbx_device_classes/src/ux_device_class_dfu_control_request.c **** 
 536              		.loc 1 388 25 is_stmt 1 view .LVU194
 388:./Middlewares/ST/usbx/common/usbx_device_classes/src/ux_device_class_dfu_control_request.c **** 
 537              		.loc 1 388 42 is_stmt 0 view .LVU195
 538 0244 1D4B     		ldr	r3, .L71
 539 0246 1B68     		ldr	r3, [r3]
 388:./Middlewares/ST/usbx/common/usbx_device_classes/src/ux_device_class_dfu_control_request.c **** 
 540              		.loc 1 388 86 view .LVU196
 541 0248 0A22     		movs	r2, #10
 542 024a C3F8B821 		str	r2, [r3, #440]
 390:./Middlewares/ST/usbx/common/usbx_device_classes/src/ux_device_class_dfu_control_request.c ****                     }
 543              		.loc 1 390 25 is_stmt 1 view .LVU197
 544              		.loc 1 872 11 is_stmt 0 view .LVU198
 545 024e 0025     		movs	r5, #0
 390:./Middlewares/ST/usbx/common/usbx_device_classes/src/ux_device_class_dfu_control_request.c ****                     }
 546              		.loc 1 390 25 view .LVU199
 547 0250 FAE1     		b	.L1
 548              	.LVL58:
 549              	.L30:
 396:./Middlewares/ST/usbx/common/usbx_device_classes/src/ux_device_class_dfu_control_request.c **** 
 550              		.loc 1 396 21 is_stmt 1 view .LVU200
 396:./Middlewares/ST/usbx/common/usbx_device_classes/src/ux_device_class_dfu_control_request.c **** 
 551              		.loc 1 396 25 is_stmt 0 view .LVU201
 552 0252 D9F81C30 		ldr	r3, [r9, #28]
 396:./Middlewares/ST/usbx/common/usbx_device_classes/src/ux_device_class_dfu_control_request.c **** 
 553              		.loc 1 396 21 view .LVU202
 554 0256 0521     		movs	r1, #5
 555 0258 4846     		mov	r0, r9
 556              	.LVL59:
 396:./Middlewares/ST/usbx/common/usbx_device_classes/src/ux_device_class_dfu_control_request.c **** 
 557              		.loc 1 396 21 view .LVU203
 558 025a 9847     		blx	r3
 559              	.LVL60:
 399:./Middlewares/ST/usbx/common/usbx_device_classes/src/ux_device_class_dfu_control_request.c ****                                                         transfer_request -> ux_slave_transfer_reque
 560              		.loc 1 399 21 is_stmt 1 view .LVU204
 399:./Middlewares/ST/usbx/common/usbx_device_classes/src/ux_device_class_dfu_control_request.c ****                                                         transfer_request -> ux_slave_transfer_reque
 561              		.loc 1 399 25 is_stmt 0 view .LVU205
 562 025c D9F81050 		ldr	r5, [r9, #16]
 399:./Middlewares/ST/usbx/common/usbx_device_classes/src/ux_device_class_dfu_control_request.c ****                                                         transfer_request -> ux_slave_transfer_reque
 563              		.loc 1 399 21 view .LVU206
 564 0260 D4F89820 		ldr	r2, [r4, #152]
ARM GAS  C:\Users\Dennis\AppData\Local\Temp\ccmm9cQc.s 			page 29


 565 0264 03AB     		add	r3, sp, #12
 566 0266 0093     		str	r3, [sp]
 567 0268 3B46     		mov	r3, r7
 568 026a 4146     		mov	r1, r8
 569 026c 4846     		mov	r0, r9
 570 026e A847     		blx	r5
 571              	.LVL61:
 405:./Middlewares/ST/usbx/common/usbx_device_classes/src/ux_device_class_dfu_control_request.c **** 
 572              		.loc 1 405 21 is_stmt 1 view .LVU207
 405:./Middlewares/ST/usbx/common/usbx_device_classes/src/ux_device_class_dfu_control_request.c **** 
 573              		.loc 1 405 38 is_stmt 0 view .LVU208
 574 0270 124B     		ldr	r3, .L71
 575 0272 1B68     		ldr	r3, [r3]
 405:./Middlewares/ST/usbx/common/usbx_device_classes/src/ux_device_class_dfu_control_request.c **** 
 576              		.loc 1 405 82 view .LVU209
 577 0274 0922     		movs	r2, #9
 578 0276 C3F8B821 		str	r2, [r3, #440]
 408:./Middlewares/ST/usbx/common/usbx_device_classes/src/ux_device_class_dfu_control_request.c **** 
 579              		.loc 1 408 21 is_stmt 1 view .LVU210
 580 027a 3A46     		mov	r2, r7
 581 027c 0399     		ldr	r1, [sp, #12]
 582 027e 5046     		mov	r0, r10
 583 0280 FFF7FEFF 		bl	_ux_device_stack_transfer_request
 584              	.LVL62:
 410:./Middlewares/ST/usbx/common/usbx_device_classes/src/ux_device_class_dfu_control_request.c **** #endif
 585              		.loc 1 410 21 view .LVU211
 586              		.loc 1 872 11 is_stmt 0 view .LVU212
 587 0284 0025     		movs	r5, #0
 410:./Middlewares/ST/usbx/common/usbx_device_classes/src/ux_device_class_dfu_control_request.c **** #endif
 588              		.loc 1 410 21 view .LVU213
 589 0286 DFE1     		b	.L1
 590              	.LVL63:
 591              	.L20:
 416:./Middlewares/ST/usbx/common/usbx_device_classes/src/ux_device_class_dfu_control_request.c **** 
 592              		.loc 1 416 21 is_stmt 1 view .LVU214
 593 0288 04F15C00 		add	r0, r4, #92
 594              	.LVL64:
 416:./Middlewares/ST/usbx/common/usbx_device_classes/src/ux_device_class_dfu_control_request.c **** 
 595              		.loc 1 416 21 is_stmt 0 view .LVU215
 596 028c FFF7FEFF 		bl	_ux_device_stack_endpoint_stall
 597              	.LVL65:
 419:./Middlewares/ST/usbx/common/usbx_device_classes/src/ux_device_class_dfu_control_request.c **** 
 598              		.loc 1 419 24 is_stmt 1 view .LVU216
 419:./Middlewares/ST/usbx/common/usbx_device_classes/src/ux_device_class_dfu_control_request.c **** 
 599              		.loc 1 419 41 is_stmt 0 view .LVU217
 600 0290 0A4B     		ldr	r3, .L71
 601 0292 1B68     		ldr	r3, [r3]
 419:./Middlewares/ST/usbx/common/usbx_device_classes/src/ux_device_class_dfu_control_request.c **** 
 602              		.loc 1 419 85 view .LVU218
 603 0294 0A22     		movs	r2, #10
 604 0296 C3F8B821 		str	r2, [r3, #440]
 421:./Middlewares/ST/usbx/common/usbx_device_classes/src/ux_device_class_dfu_control_request.c ****             }
 605              		.loc 1 421 21 is_stmt 1 view .LVU219
 606              		.loc 1 872 11 is_stmt 0 view .LVU220
 607 029a 0025     		movs	r5, #0
 421:./Middlewares/ST/usbx/common/usbx_device_classes/src/ux_device_class_dfu_control_request.c ****             }
 608              		.loc 1 421 21 view .LVU221
ARM GAS  C:\Users\Dennis\AppData\Local\Temp\ccmm9cQc.s 			page 30


 609 029c D4E1     		b	.L1
 610              	.LVL66:
 611              	.L8:
 430:./Middlewares/ST/usbx/common/usbx_device_classes/src/ux_device_class_dfu_control_request.c ****             {
 612              		.loc 1 430 13 is_stmt 1 view .LVU222
 613 029e 032E     		cmp	r6, #3
 614 02a0 0ED0     		beq	.L31
 615 02a2 052E     		cmp	r6, #5
 616 02a4 51D0     		beq	.L32
 505:./Middlewares/ST/usbx/common/usbx_device_classes/src/ux_device_class_dfu_control_request.c **** 
 617              		.loc 1 505 21 view .LVU223
 618 02a6 04F15C00 		add	r0, r4, #92
 619              	.LVL67:
 505:./Middlewares/ST/usbx/common/usbx_device_classes/src/ux_device_class_dfu_control_request.c **** 
 620              		.loc 1 505 21 is_stmt 0 view .LVU224
 621 02aa FFF7FEFF 		bl	_ux_device_stack_endpoint_stall
 622              	.LVL68:
 508:./Middlewares/ST/usbx/common/usbx_device_classes/src/ux_device_class_dfu_control_request.c **** 
 623              		.loc 1 508 24 is_stmt 1 view .LVU225
 508:./Middlewares/ST/usbx/common/usbx_device_classes/src/ux_device_class_dfu_control_request.c **** 
 624              		.loc 1 508 41 is_stmt 0 view .LVU226
 625 02ae 034B     		ldr	r3, .L71
 626 02b0 1B68     		ldr	r3, [r3]
 508:./Middlewares/ST/usbx/common/usbx_device_classes/src/ux_device_class_dfu_control_request.c **** 
 627              		.loc 1 508 85 view .LVU227
 628 02b2 0A22     		movs	r2, #10
 629 02b4 C3F8B821 		str	r2, [r3, #440]
 510:./Middlewares/ST/usbx/common/usbx_device_classes/src/ux_device_class_dfu_control_request.c ****             }
 630              		.loc 1 510 21 is_stmt 1 view .LVU228
 631              		.loc 1 872 11 is_stmt 0 view .LVU229
 632 02b8 0025     		movs	r5, #0
 510:./Middlewares/ST/usbx/common/usbx_device_classes/src/ux_device_class_dfu_control_request.c ****             }
 633              		.loc 1 510 21 view .LVU230
 634 02ba C5E1     		b	.L1
 635              	.L72:
 636              		.align	2
 637              	.L71:
 638 02bc 00000000 		.word	_ux_system_slave
 639              	.LVL69:
 640              	.L31:
 443:./Middlewares/ST/usbx/common/usbx_device_classes/src/ux_device_class_dfu_control_request.c **** 
 641              		.loc 1 443 21 is_stmt 1 discriminator 1 view .LVU231
 443:./Middlewares/ST/usbx/common/usbx_device_classes/src/ux_device_class_dfu_control_request.c **** 
 642              		.loc 1 443 25 is_stmt 0 discriminator 1 view .LVU232
 643 02c0 D9F81830 		ldr	r3, [r9, #24]
 443:./Middlewares/ST/usbx/common/usbx_device_classes/src/ux_device_class_dfu_control_request.c **** 
 644              		.loc 1 443 21 discriminator 1 view .LVU233
 645 02c4 02A9     		add	r1, sp, #8
 646 02c6 4846     		mov	r0, r9
 647              	.LVL70:
 443:./Middlewares/ST/usbx/common/usbx_device_classes/src/ux_device_class_dfu_control_request.c **** 
 648              		.loc 1 443 21 discriminator 1 view .LVU234
 649 02c8 9847     		blx	r3
 650              	.LVL71:
 446:./Middlewares/ST/usbx/common/usbx_device_classes/src/ux_device_class_dfu_control_request.c ****                     {
 651              		.loc 1 446 21 is_stmt 1 discriminator 1 view .LVU235
 652 02ca 029B     		ldr	r3, [sp, #8]
ARM GAS  C:\Users\Dennis\AppData\Local\Temp\ccmm9cQc.s 			page 31


 653 02cc 012B     		cmp	r3, #1
 654 02ce 2AD0     		beq	.L34
 655 02d0 022B     		cmp	r3, #2
 656 02d2 31D0     		beq	.L35
 657 02d4 FBB1     		cbz	r3, .L68
 658              	.L36:
 473:./Middlewares/ST/usbx/common/usbx_device_classes/src/ux_device_class_dfu_control_request.c **** 
 659              		.loc 1 473 21 view .LVU236
 473:./Middlewares/ST/usbx/common/usbx_device_classes/src/ux_device_class_dfu_control_request.c **** 
 660              		.loc 1 473 39 is_stmt 0 view .LVU237
 661 02d6 D4F89830 		ldr	r3, [r4, #152]
 473:./Middlewares/ST/usbx/common/usbx_device_classes/src/ux_device_class_dfu_control_request.c **** 
 662              		.loc 1 473 83 view .LVU238
 663 02da 99F80420 		ldrb	r2, [r9, #4]	@ zero_extendqisi2
 473:./Middlewares/ST/usbx/common/usbx_device_classes/src/ux_device_class_dfu_control_request.c **** 
 664              		.loc 1 473 81 view .LVU239
 665 02de 1A70     		strb	r2, [r3]
 476:./Middlewares/ST/usbx/common/usbx_device_classes/src/ux_device_class_dfu_control_request.c ****                     *(transfer_request -> ux_slave_transfer_request_data_pointer + UX_SLAVE_CLASS_D
 666              		.loc 1 476 21 is_stmt 1 view .LVU240
 476:./Middlewares/ST/usbx/common/usbx_device_classes/src/ux_device_class_dfu_control_request.c ****                     *(transfer_request -> ux_slave_transfer_request_data_pointer + UX_SLAVE_CLASS_D
 667              		.loc 1 476 40 is_stmt 0 view .LVU241
 668 02e0 D4F89830 		ldr	r3, [r4, #152]
 476:./Middlewares/ST/usbx/common/usbx_device_classes/src/ux_device_class_dfu_control_request.c ****                     *(transfer_request -> ux_slave_transfer_request_data_pointer + UX_SLAVE_CLASS_D
 669              		.loc 1 476 128 view .LVU242
 670 02e4 6422     		movs	r2, #100
 671 02e6 5A70     		strb	r2, [r3, #1]
 477:./Middlewares/ST/usbx/common/usbx_device_classes/src/ux_device_class_dfu_control_request.c ****                     *(transfer_request -> ux_slave_transfer_request_data_pointer + UX_SLAVE_CLASS_D
 672              		.loc 1 477 21 is_stmt 1 view .LVU243
 477:./Middlewares/ST/usbx/common/usbx_device_classes/src/ux_device_class_dfu_control_request.c ****                     *(transfer_request -> ux_slave_transfer_request_data_pointer + UX_SLAVE_CLASS_D
 673              		.loc 1 477 40 is_stmt 0 view .LVU244
 674 02e8 D4F89830 		ldr	r3, [r4, #152]
 477:./Middlewares/ST/usbx/common/usbx_device_classes/src/ux_device_class_dfu_control_request.c ****                     *(transfer_request -> ux_slave_transfer_request_data_pointer + UX_SLAVE_CLASS_D
 675              		.loc 1 477 132 view .LVU245
 676 02ec 0025     		movs	r5, #0
 677 02ee 9D70     		strb	r5, [r3, #2]
 478:./Middlewares/ST/usbx/common/usbx_device_classes/src/ux_device_class_dfu_control_request.c **** 
 678              		.loc 1 478 21 is_stmt 1 view .LVU246
 478:./Middlewares/ST/usbx/common/usbx_device_classes/src/ux_device_class_dfu_control_request.c **** 
 679              		.loc 1 478 40 is_stmt 0 view .LVU247
 680 02f0 D4F89830 		ldr	r3, [r4, #152]
 478:./Middlewares/ST/usbx/common/usbx_device_classes/src/ux_device_class_dfu_control_request.c **** 
 681              		.loc 1 478 132 view .LVU248
 682 02f4 DD70     		strb	r5, [r3, #3]
 481:./Middlewares/ST/usbx/common/usbx_device_classes/src/ux_device_class_dfu_control_request.c **** 
 683              		.loc 1 481 21 is_stmt 1 view .LVU249
 481:./Middlewares/ST/usbx/common/usbx_device_classes/src/ux_device_class_dfu_control_request.c **** 
 684              		.loc 1 481 148 is_stmt 0 view .LVU250
 685 02f6 B84B     		ldr	r3, .L73
 686 02f8 1A68     		ldr	r2, [r3]
 481:./Middlewares/ST/usbx/common/usbx_device_classes/src/ux_device_class_dfu_control_request.c **** 
 687              		.loc 1 481 40 view .LVU251
 688 02fa D4F89830 		ldr	r3, [r4, #152]
 481:./Middlewares/ST/usbx/common/usbx_device_classes/src/ux_device_class_dfu_control_request.c **** 
 689              		.loc 1 481 123 view .LVU252
 690 02fe 92F8B821 		ldrb	r2, [r2, #440]	@ zero_extendqisi2
 481:./Middlewares/ST/usbx/common/usbx_device_classes/src/ux_device_class_dfu_control_request.c **** 
 691              		.loc 1 481 121 view .LVU253
ARM GAS  C:\Users\Dennis\AppData\Local\Temp\ccmm9cQc.s 			page 32


 692 0302 1A71     		strb	r2, [r3, #4]
 484:./Middlewares/ST/usbx/common/usbx_device_classes/src/ux_device_class_dfu_control_request.c **** #endif
 693              		.loc 1 484 21 is_stmt 1 view .LVU254
 484:./Middlewares/ST/usbx/common/usbx_device_classes/src/ux_device_class_dfu_control_request.c **** #endif
 694              		.loc 1 484 40 is_stmt 0 view .LVU255
 695 0304 D4F89830 		ldr	r3, [r4, #152]
 484:./Middlewares/ST/usbx/common/usbx_device_classes/src/ux_device_class_dfu_control_request.c **** #endif
 696              		.loc 1 484 122 view .LVU256
 697 0308 5D71     		strb	r5, [r3, #5]
 488:./Middlewares/ST/usbx/common/usbx_device_classes/src/ux_device_class_dfu_control_request.c **** 
 698              		.loc 1 488 21 is_stmt 1 view .LVU257
 699 030a 0622     		movs	r2, #6
 700 030c 1146     		mov	r1, r2
 701 030e 5046     		mov	r0, r10
 702 0310 FFF7FEFF 		bl	_ux_device_stack_transfer_request
 703              	.LVL72:
 490:./Middlewares/ST/usbx/common/usbx_device_classes/src/ux_device_class_dfu_control_request.c **** 
 704              		.loc 1 490 21 view .LVU258
 705 0314 98E1     		b	.L1
 706              	.L68:
 452:./Middlewares/ST/usbx/common/usbx_device_classes/src/ux_device_class_dfu_control_request.c ****                                _ux_system_slave -> ux_system_slave_device_dfu_state_machine = UX_SL
 707              		.loc 1 452 29 view .LVU259
 452:./Middlewares/ST/usbx/common/usbx_device_classes/src/ux_device_class_dfu_control_request.c ****                                _ux_system_slave -> ux_system_slave_device_dfu_state_machine = UX_SL
 708              		.loc 1 452 62 is_stmt 0 view .LVU260
 709 0316 C9F80430 		str	r3, [r9, #4]
 453:./Middlewares/ST/usbx/common/usbx_device_classes/src/ux_device_class_dfu_control_request.c ****                             break;
 710              		.loc 1 453 32 is_stmt 1 view .LVU261
 453:./Middlewares/ST/usbx/common/usbx_device_classes/src/ux_device_class_dfu_control_request.c ****                             break;
 711              		.loc 1 453 49 is_stmt 0 view .LVU262
 712 031a AF4B     		ldr	r3, .L73
 713 031c 1B68     		ldr	r3, [r3]
 453:./Middlewares/ST/usbx/common/usbx_device_classes/src/ux_device_class_dfu_control_request.c ****                             break;
 714              		.loc 1 453 93 view .LVU263
 715 031e 0522     		movs	r2, #5
 716 0320 C3F8B821 		str	r2, [r3, #440]
 454:./Middlewares/ST/usbx/common/usbx_device_classes/src/ux_device_class_dfu_control_request.c **** 
 717              		.loc 1 454 29 is_stmt 1 view .LVU264
 718 0324 D7E7     		b	.L36
 719              	.L34:
 459:./Middlewares/ST/usbx/common/usbx_device_classes/src/ux_device_class_dfu_control_request.c ****                                _ux_system_slave -> ux_system_slave_device_dfu_state_machine = UX_SL
 720              		.loc 1 459 29 view .LVU265
 459:./Middlewares/ST/usbx/common/usbx_device_classes/src/ux_device_class_dfu_control_request.c ****                                _ux_system_slave -> ux_system_slave_device_dfu_state_machine = UX_SL
 721              		.loc 1 459 62 is_stmt 0 view .LVU266
 722 0326 0023     		movs	r3, #0
 723 0328 C9F80430 		str	r3, [r9, #4]
 460:./Middlewares/ST/usbx/common/usbx_device_classes/src/ux_device_class_dfu_control_request.c ****                             break;
 724              		.loc 1 460 32 is_stmt 1 view .LVU267
 460:./Middlewares/ST/usbx/common/usbx_device_classes/src/ux_device_class_dfu_control_request.c ****                             break;
 725              		.loc 1 460 49 is_stmt 0 view .LVU268
 726 032c AA4B     		ldr	r3, .L73
 727 032e 1B68     		ldr	r3, [r3]
 460:./Middlewares/ST/usbx/common/usbx_device_classes/src/ux_device_class_dfu_control_request.c ****                             break;
 728              		.loc 1 460 93 view .LVU269
 729 0330 0422     		movs	r2, #4
 730 0332 C3F8B821 		str	r2, [r3, #440]
 461:./Middlewares/ST/usbx/common/usbx_device_classes/src/ux_device_class_dfu_control_request.c **** 
 731              		.loc 1 461 29 is_stmt 1 view .LVU270
ARM GAS  C:\Users\Dennis\AppData\Local\Temp\ccmm9cQc.s 			page 33


 732 0336 CEE7     		b	.L36
 733              	.L35:
 466:./Middlewares/ST/usbx/common/usbx_device_classes/src/ux_device_class_dfu_control_request.c ****                                _ux_system_slave -> ux_system_slave_device_dfu_state_machine = UX_SL
 734              		.loc 1 466 29 view .LVU271
 466:./Middlewares/ST/usbx/common/usbx_device_classes/src/ux_device_class_dfu_control_request.c ****                                _ux_system_slave -> ux_system_slave_device_dfu_state_machine = UX_SL
 735              		.loc 1 466 62 is_stmt 0 view .LVU272
 736 0338 0323     		movs	r3, #3
 737 033a C9F80430 		str	r3, [r9, #4]
 467:./Middlewares/ST/usbx/common/usbx_device_classes/src/ux_device_class_dfu_control_request.c ****                             break;
 738              		.loc 1 467 32 is_stmt 1 view .LVU273
 467:./Middlewares/ST/usbx/common/usbx_device_classes/src/ux_device_class_dfu_control_request.c ****                             break;
 739              		.loc 1 467 49 is_stmt 0 view .LVU274
 740 033e A64B     		ldr	r3, .L73
 741 0340 1B68     		ldr	r3, [r3]
 467:./Middlewares/ST/usbx/common/usbx_device_classes/src/ux_device_class_dfu_control_request.c ****                             break;
 742              		.loc 1 467 93 view .LVU275
 743 0342 0A22     		movs	r2, #10
 744 0344 C3F8B821 		str	r2, [r3, #440]
 468:./Middlewares/ST/usbx/common/usbx_device_classes/src/ux_device_class_dfu_control_request.c **** 
 745              		.loc 1 468 29 is_stmt 1 view .LVU276
 746 0348 C5E7     		b	.L36
 747              	.LVL73:
 748              	.L32:
 495:./Middlewares/ST/usbx/common/usbx_device_classes/src/ux_device_class_dfu_control_request.c **** 
 749              		.loc 1 495 21 view .LVU277
 495:./Middlewares/ST/usbx/common/usbx_device_classes/src/ux_device_class_dfu_control_request.c **** 
 750              		.loc 1 495 39 is_stmt 0 view .LVU278
 751 034a D4F89830 		ldr	r3, [r4, #152]
 495:./Middlewares/ST/usbx/common/usbx_device_classes/src/ux_device_class_dfu_control_request.c **** 
 752              		.loc 1 495 81 view .LVU279
 753 034e 1D70     		strb	r5, [r3]
 498:./Middlewares/ST/usbx/common/usbx_device_classes/src/ux_device_class_dfu_control_request.c **** 
 754              		.loc 1 498 21 is_stmt 1 view .LVU280
 755 0350 0122     		movs	r2, #1
 756 0352 1146     		mov	r1, r2
 757 0354 5046     		mov	r0, r10
 758              	.LVL74:
 498:./Middlewares/ST/usbx/common/usbx_device_classes/src/ux_device_class_dfu_control_request.c **** 
 759              		.loc 1 498 21 is_stmt 0 view .LVU281
 760 0356 FFF7FEFF 		bl	_ux_device_stack_transfer_request
 761              	.LVL75:
 500:./Middlewares/ST/usbx/common/usbx_device_classes/src/ux_device_class_dfu_control_request.c **** 
 762              		.loc 1 500 21 is_stmt 1 view .LVU282
 763              		.loc 1 872 11 is_stmt 0 view .LVU283
 764 035a 0025     		movs	r5, #0
 500:./Middlewares/ST/usbx/common/usbx_device_classes/src/ux_device_class_dfu_control_request.c **** 
 765              		.loc 1 500 21 view .LVU284
 766 035c 74E1     		b	.L1
 767              	.LVL76:
 768              	.L7:
 518:./Middlewares/ST/usbx/common/usbx_device_classes/src/ux_device_class_dfu_control_request.c ****             {
 769              		.loc 1 518 13 is_stmt 1 view .LVU285
 770 035e 013E     		subs	r6, r6, #1
 771              	.LVL77:
 518:./Middlewares/ST/usbx/common/usbx_device_classes/src/ux_device_class_dfu_control_request.c ****             {
 772              		.loc 1 518 13 is_stmt 0 view .LVU286
 773 0360 052E     		cmp	r6, #5
ARM GAS  C:\Users\Dennis\AppData\Local\Temp\ccmm9cQc.s 			page 34


 774 0362 58D8     		bhi	.L37
 775 0364 DFE806F0 		tbb	[pc, r6]
 776              	.L39:
 777 0368 03       		.byte	(.L42-.L39)/2
 778 0369 57       		.byte	(.L37-.L39)/2
 779 036a 2D       		.byte	(.L41-.L39)/2
 780 036b 57       		.byte	(.L37-.L39)/2
 781 036c 4D       		.byte	(.L40-.L39)/2
 782 036d 21       		.byte	(.L38-.L39)/2
 783              		.p2align 1
 784              	.L42:
 525:./Middlewares/ST/usbx/common/usbx_device_classes/src/ux_device_class_dfu_control_request.c ****                     {
 785              		.loc 1 525 21 is_stmt 1 view .LVU287
 525:./Middlewares/ST/usbx/common/usbx_device_classes/src/ux_device_class_dfu_control_request.c ****                     {
 786              		.loc 1 525 24 is_stmt 0 view .LVU288
 787 036e 58B9     		cbnz	r0, .L43
 529:./Middlewares/ST/usbx/common/usbx_device_classes/src/ux_device_class_dfu_control_request.c **** 
 788              		.loc 1 529 25 is_stmt 1 view .LVU289
 529:./Middlewares/ST/usbx/common/usbx_device_classes/src/ux_device_class_dfu_control_request.c **** 
 789              		.loc 1 529 29 is_stmt 0 view .LVU290
 790 0370 D9F81C30 		ldr	r3, [r9, #28]
 529:./Middlewares/ST/usbx/common/usbx_device_classes/src/ux_device_class_dfu_control_request.c **** 
 791              		.loc 1 529 25 view .LVU291
 792 0374 0221     		movs	r1, #2
 793 0376 4846     		mov	r0, r9
 794              	.LVL78:
 529:./Middlewares/ST/usbx/common/usbx_device_classes/src/ux_device_class_dfu_control_request.c **** 
 795              		.loc 1 529 25 view .LVU292
 796 0378 9847     		blx	r3
 797              	.LVL79:
 532:./Middlewares/ST/usbx/common/usbx_device_classes/src/ux_device_class_dfu_control_request.c **** 
 798              		.loc 1 532 25 is_stmt 1 view .LVU293
 532:./Middlewares/ST/usbx/common/usbx_device_classes/src/ux_device_class_dfu_control_request.c **** 
 799              		.loc 1 532 42 is_stmt 0 view .LVU294
 800 037a 974B     		ldr	r3, .L73
 801 037c 1B68     		ldr	r3, [r3]
 532:./Middlewares/ST/usbx/common/usbx_device_classes/src/ux_device_class_dfu_control_request.c **** 
 802              		.loc 1 532 86 view .LVU295
 803 037e 0622     		movs	r2, #6
 804 0380 C3F8B821 		str	r2, [r3, #440]
 805              		.loc 1 872 11 view .LVU296
 806 0384 3D46     		mov	r5, r7
 807 0386 5FE1     		b	.L1
 808              	.LVL80:
 809              	.L43:
 540:./Middlewares/ST/usbx/common/usbx_device_classes/src/ux_device_class_dfu_control_request.c ****                                                             transfer_request -> ux_slave_transfer_r
 810              		.loc 1 540 25 is_stmt 1 view .LVU297
 540:./Middlewares/ST/usbx/common/usbx_device_classes/src/ux_device_class_dfu_control_request.c ****                                                             transfer_request -> ux_slave_transfer_r
 811              		.loc 1 540 29 is_stmt 0 view .LVU298
 812 0388 D9F81450 		ldr	r5, [r9, #20]
 540:./Middlewares/ST/usbx/common/usbx_device_classes/src/ux_device_class_dfu_control_request.c ****                                                             transfer_request -> ux_slave_transfer_r
 813              		.loc 1 540 25 view .LVU299
 814 038c D4F89820 		ldr	r2, [r4, #152]
 815 0390 03AB     		add	r3, sp, #12
 816 0392 0093     		str	r3, [sp]
 817 0394 0346     		mov	r3, r0
 818 0396 4146     		mov	r1, r8
ARM GAS  C:\Users\Dennis\AppData\Local\Temp\ccmm9cQc.s 			page 35


 819 0398 4846     		mov	r0, r9
 820              	.LVL81:
 540:./Middlewares/ST/usbx/common/usbx_device_classes/src/ux_device_class_dfu_control_request.c ****                                                             transfer_request -> ux_slave_transfer_r
 821              		.loc 1 540 25 view .LVU300
 822 039a A847     		blx	r5
 823              	.LVL82:
 546:./Middlewares/ST/usbx/common/usbx_device_classes/src/ux_device_class_dfu_control_request.c ****                     }
 824              		.loc 1 546 25 is_stmt 1 view .LVU301
 546:./Middlewares/ST/usbx/common/usbx_device_classes/src/ux_device_class_dfu_control_request.c ****                     }
 825              		.loc 1 546 42 is_stmt 0 view .LVU302
 826 039c 8E4B     		ldr	r3, .L73
 827 039e 1B68     		ldr	r3, [r3]
 546:./Middlewares/ST/usbx/common/usbx_device_classes/src/ux_device_class_dfu_control_request.c ****                     }
 828              		.loc 1 546 86 view .LVU303
 829 03a0 0322     		movs	r2, #3
 830 03a2 C3F8B821 		str	r2, [r3, #440]
 831              		.loc 1 872 11 view .LVU304
 832 03a6 0025     		movs	r5, #0
 833 03a8 4EE1     		b	.L1
 834              	.LVL83:
 835              	.L38:
 554:./Middlewares/ST/usbx/common/usbx_device_classes/src/ux_device_class_dfu_control_request.c **** 
 836              		.loc 1 554 21 is_stmt 1 view .LVU305
 554:./Middlewares/ST/usbx/common/usbx_device_classes/src/ux_device_class_dfu_control_request.c **** 
 837              		.loc 1 554 25 is_stmt 0 view .LVU306
 838 03aa D9F81C30 		ldr	r3, [r9, #28]
 554:./Middlewares/ST/usbx/common/usbx_device_classes/src/ux_device_class_dfu_control_request.c **** 
 839              		.loc 1 554 21 view .LVU307
 840 03ae 0321     		movs	r1, #3
 841 03b0 4846     		mov	r0, r9
 842              	.LVL84:
 554:./Middlewares/ST/usbx/common/usbx_device_classes/src/ux_device_class_dfu_control_request.c **** 
 843              		.loc 1 554 21 view .LVU308
 844 03b2 9847     		blx	r3
 845              	.LVL85:
 557:./Middlewares/ST/usbx/common/usbx_device_classes/src/ux_device_class_dfu_control_request.c **** 
 846              		.loc 1 557 21 is_stmt 1 view .LVU309
 557:./Middlewares/ST/usbx/common/usbx_device_classes/src/ux_device_class_dfu_control_request.c **** 
 847              		.loc 1 557 38 is_stmt 0 view .LVU310
 848 03b4 884B     		ldr	r3, .L73
 849 03b6 1B68     		ldr	r3, [r3]
 557:./Middlewares/ST/usbx/common/usbx_device_classes/src/ux_device_class_dfu_control_request.c **** 
 850              		.loc 1 557 82 view .LVU311
 851 03b8 0222     		movs	r2, #2
 852 03ba C3F8B821 		str	r2, [r3, #440]
 559:./Middlewares/ST/usbx/common/usbx_device_classes/src/ux_device_class_dfu_control_request.c **** 
 853              		.loc 1 559 21 is_stmt 1 view .LVU312
 854              		.loc 1 872 11 is_stmt 0 view .LVU313
 855 03be 0025     		movs	r5, #0
 559:./Middlewares/ST/usbx/common/usbx_device_classes/src/ux_device_class_dfu_control_request.c **** 
 856              		.loc 1 559 21 view .LVU314
 857 03c0 42E1     		b	.L1
 858              	.LVL86:
 859              	.L41:
 568:./Middlewares/ST/usbx/common/usbx_device_classes/src/ux_device_class_dfu_control_request.c **** 
 860              		.loc 1 568 21 is_stmt 1 view .LVU315
 568:./Middlewares/ST/usbx/common/usbx_device_classes/src/ux_device_class_dfu_control_request.c **** 
ARM GAS  C:\Users\Dennis\AppData\Local\Temp\ccmm9cQc.s 			page 36


 861              		.loc 1 568 39 is_stmt 0 view .LVU316
 862 03c2 D4F89830 		ldr	r3, [r4, #152]
 568:./Middlewares/ST/usbx/common/usbx_device_classes/src/ux_device_class_dfu_control_request.c **** 
 863              		.loc 1 568 83 view .LVU317
 864 03c6 99F80420 		ldrb	r2, [r9, #4]	@ zero_extendqisi2
 568:./Middlewares/ST/usbx/common/usbx_device_classes/src/ux_device_class_dfu_control_request.c **** 
 865              		.loc 1 568 81 view .LVU318
 866 03ca 1A70     		strb	r2, [r3]
 571:./Middlewares/ST/usbx/common/usbx_device_classes/src/ux_device_class_dfu_control_request.c ****                     *(transfer_request -> ux_slave_transfer_request_data_pointer + UX_SLAVE_CLASS_D
 867              		.loc 1 571 21 is_stmt 1 view .LVU319
 571:./Middlewares/ST/usbx/common/usbx_device_classes/src/ux_device_class_dfu_control_request.c ****                     *(transfer_request -> ux_slave_transfer_request_data_pointer + UX_SLAVE_CLASS_D
 868              		.loc 1 571 40 is_stmt 0 view .LVU320
 869 03cc D4F89830 		ldr	r3, [r4, #152]
 571:./Middlewares/ST/usbx/common/usbx_device_classes/src/ux_device_class_dfu_control_request.c ****                     *(transfer_request -> ux_slave_transfer_request_data_pointer + UX_SLAVE_CLASS_D
 870              		.loc 1 571 128 view .LVU321
 871 03d0 6422     		movs	r2, #100
 872 03d2 5A70     		strb	r2, [r3, #1]
 572:./Middlewares/ST/usbx/common/usbx_device_classes/src/ux_device_class_dfu_control_request.c ****                     *(transfer_request -> ux_slave_transfer_request_data_pointer + UX_SLAVE_CLASS_D
 873              		.loc 1 572 21 is_stmt 1 view .LVU322
 572:./Middlewares/ST/usbx/common/usbx_device_classes/src/ux_device_class_dfu_control_request.c ****                     *(transfer_request -> ux_slave_transfer_request_data_pointer + UX_SLAVE_CLASS_D
 874              		.loc 1 572 40 is_stmt 0 view .LVU323
 875 03d4 D4F89830 		ldr	r3, [r4, #152]
 572:./Middlewares/ST/usbx/common/usbx_device_classes/src/ux_device_class_dfu_control_request.c ****                     *(transfer_request -> ux_slave_transfer_request_data_pointer + UX_SLAVE_CLASS_D
 876              		.loc 1 572 132 view .LVU324
 877 03d8 0025     		movs	r5, #0
 878 03da 9D70     		strb	r5, [r3, #2]
 573:./Middlewares/ST/usbx/common/usbx_device_classes/src/ux_device_class_dfu_control_request.c **** 
 879              		.loc 1 573 21 is_stmt 1 view .LVU325
 573:./Middlewares/ST/usbx/common/usbx_device_classes/src/ux_device_class_dfu_control_request.c **** 
 880              		.loc 1 573 40 is_stmt 0 view .LVU326
 881 03dc D4F89830 		ldr	r3, [r4, #152]
 573:./Middlewares/ST/usbx/common/usbx_device_classes/src/ux_device_class_dfu_control_request.c **** 
 882              		.loc 1 573 132 view .LVU327
 883 03e0 DD70     		strb	r5, [r3, #3]
 576:./Middlewares/ST/usbx/common/usbx_device_classes/src/ux_device_class_dfu_control_request.c **** 
 884              		.loc 1 576 21 is_stmt 1 view .LVU328
 576:./Middlewares/ST/usbx/common/usbx_device_classes/src/ux_device_class_dfu_control_request.c **** 
 885              		.loc 1 576 148 is_stmt 0 view .LVU329
 886 03e2 7D4B     		ldr	r3, .L73
 887 03e4 1A68     		ldr	r2, [r3]
 576:./Middlewares/ST/usbx/common/usbx_device_classes/src/ux_device_class_dfu_control_request.c **** 
 888              		.loc 1 576 40 view .LVU330
 889 03e6 D4F89830 		ldr	r3, [r4, #152]
 576:./Middlewares/ST/usbx/common/usbx_device_classes/src/ux_device_class_dfu_control_request.c **** 
 890              		.loc 1 576 123 view .LVU331
 891 03ea 92F8B821 		ldrb	r2, [r2, #440]	@ zero_extendqisi2
 576:./Middlewares/ST/usbx/common/usbx_device_classes/src/ux_device_class_dfu_control_request.c **** 
 892              		.loc 1 576 121 view .LVU332
 893 03ee 1A71     		strb	r2, [r3, #4]
 579:./Middlewares/ST/usbx/common/usbx_device_classes/src/ux_device_class_dfu_control_request.c **** #endif
 894              		.loc 1 579 21 is_stmt 1 view .LVU333
 579:./Middlewares/ST/usbx/common/usbx_device_classes/src/ux_device_class_dfu_control_request.c **** #endif
 895              		.loc 1 579 40 is_stmt 0 view .LVU334
 896 03f0 D4F89830 		ldr	r3, [r4, #152]
 579:./Middlewares/ST/usbx/common/usbx_device_classes/src/ux_device_class_dfu_control_request.c **** #endif
 897              		.loc 1 579 122 view .LVU335
 898 03f4 5D71     		strb	r5, [r3, #5]
ARM GAS  C:\Users\Dennis\AppData\Local\Temp\ccmm9cQc.s 			page 37


 583:./Middlewares/ST/usbx/common/usbx_device_classes/src/ux_device_class_dfu_control_request.c **** 
 899              		.loc 1 583 21 is_stmt 1 view .LVU336
 900 03f6 0622     		movs	r2, #6
 901 03f8 1146     		mov	r1, r2
 902 03fa 5046     		mov	r0, r10
 903              	.LVL87:
 583:./Middlewares/ST/usbx/common/usbx_device_classes/src/ux_device_class_dfu_control_request.c **** 
 904              		.loc 1 583 21 is_stmt 0 view .LVU337
 905 03fc FFF7FEFF 		bl	_ux_device_stack_transfer_request
 906              	.LVL88:
 585:./Middlewares/ST/usbx/common/usbx_device_classes/src/ux_device_class_dfu_control_request.c **** 
 907              		.loc 1 585 21 is_stmt 1 view .LVU338
 908 0400 22E1     		b	.L1
 909              	.LVL89:
 910              	.L40:
 590:./Middlewares/ST/usbx/common/usbx_device_classes/src/ux_device_class_dfu_control_request.c **** 
 911              		.loc 1 590 21 view .LVU339
 590:./Middlewares/ST/usbx/common/usbx_device_classes/src/ux_device_class_dfu_control_request.c **** 
 912              		.loc 1 590 39 is_stmt 0 view .LVU340
 913 0402 D4F89830 		ldr	r3, [r4, #152]
 590:./Middlewares/ST/usbx/common/usbx_device_classes/src/ux_device_class_dfu_control_request.c **** 
 914              		.loc 1 590 81 view .LVU341
 915 0406 1D70     		strb	r5, [r3]
 593:./Middlewares/ST/usbx/common/usbx_device_classes/src/ux_device_class_dfu_control_request.c **** 
 916              		.loc 1 593 21 is_stmt 1 view .LVU342
 917 0408 0122     		movs	r2, #1
 918 040a 1146     		mov	r1, r2
 919 040c 5046     		mov	r0, r10
 920              	.LVL90:
 593:./Middlewares/ST/usbx/common/usbx_device_classes/src/ux_device_class_dfu_control_request.c **** 
 921              		.loc 1 593 21 is_stmt 0 view .LVU343
 922 040e FFF7FEFF 		bl	_ux_device_stack_transfer_request
 923              	.LVL91:
 595:./Middlewares/ST/usbx/common/usbx_device_classes/src/ux_device_class_dfu_control_request.c **** 
 924              		.loc 1 595 21 is_stmt 1 view .LVU344
 925              		.loc 1 872 11 is_stmt 0 view .LVU345
 926 0412 0025     		movs	r5, #0
 595:./Middlewares/ST/usbx/common/usbx_device_classes/src/ux_device_class_dfu_control_request.c **** 
 927              		.loc 1 595 21 view .LVU346
 928 0414 18E1     		b	.L1
 929              	.LVL92:
 930              	.L37:
 600:./Middlewares/ST/usbx/common/usbx_device_classes/src/ux_device_class_dfu_control_request.c **** 
 931              		.loc 1 600 21 is_stmt 1 view .LVU347
 932 0416 04F15C00 		add	r0, r4, #92
 933              	.LVL93:
 600:./Middlewares/ST/usbx/common/usbx_device_classes/src/ux_device_class_dfu_control_request.c **** 
 934              		.loc 1 600 21 is_stmt 0 view .LVU348
 935 041a FFF7FEFF 		bl	_ux_device_stack_endpoint_stall
 936              	.LVL94:
 603:./Middlewares/ST/usbx/common/usbx_device_classes/src/ux_device_class_dfu_control_request.c **** 
 937              		.loc 1 603 24 is_stmt 1 view .LVU349
 603:./Middlewares/ST/usbx/common/usbx_device_classes/src/ux_device_class_dfu_control_request.c **** 
 938              		.loc 1 603 41 is_stmt 0 view .LVU350
 939 041e 6E4B     		ldr	r3, .L73
 940 0420 1B68     		ldr	r3, [r3]
 603:./Middlewares/ST/usbx/common/usbx_device_classes/src/ux_device_class_dfu_control_request.c **** 
ARM GAS  C:\Users\Dennis\AppData\Local\Temp\ccmm9cQc.s 			page 38


 941              		.loc 1 603 85 view .LVU351
 942 0422 0A22     		movs	r2, #10
 943 0424 C3F8B821 		str	r2, [r3, #440]
 605:./Middlewares/ST/usbx/common/usbx_device_classes/src/ux_device_class_dfu_control_request.c ****             }
 944              		.loc 1 605 21 is_stmt 1 view .LVU352
 945              		.loc 1 872 11 is_stmt 0 view .LVU353
 946 0428 0025     		movs	r5, #0
 605:./Middlewares/ST/usbx/common/usbx_device_classes/src/ux_device_class_dfu_control_request.c ****             }
 947              		.loc 1 605 21 view .LVU354
 948 042a 0DE1     		b	.L1
 949              	.LVL95:
 950              	.L6:
 613:./Middlewares/ST/usbx/common/usbx_device_classes/src/ux_device_class_dfu_control_request.c ****             {
 951              		.loc 1 613 13 is_stmt 1 view .LVU355
 952 042c 032E     		cmp	r6, #3
 953 042e 07D0     		beq	.L44
 954 0430 052E     		cmp	r6, #5
 955 0432 55D0     		beq	.L45
 706:./Middlewares/ST/usbx/common/usbx_device_classes/src/ux_device_class_dfu_control_request.c ****                     break;
 956              		.loc 1 706 21 view .LVU356
 957 0434 04F15C00 		add	r0, r4, #92
 958              	.LVL96:
 706:./Middlewares/ST/usbx/common/usbx_device_classes/src/ux_device_class_dfu_control_request.c ****                     break;
 959              		.loc 1 706 21 is_stmt 0 view .LVU357
 960 0438 FFF7FEFF 		bl	_ux_device_stack_endpoint_stall
 961              	.LVL97:
 707:./Middlewares/ST/usbx/common/usbx_device_classes/src/ux_device_class_dfu_control_request.c ****             }
 962              		.loc 1 707 21 is_stmt 1 view .LVU358
 963              		.loc 1 872 11 is_stmt 0 view .LVU359
 964 043c 0025     		movs	r5, #0
 707:./Middlewares/ST/usbx/common/usbx_device_classes/src/ux_device_class_dfu_control_request.c ****             }
 965              		.loc 1 707 21 view .LVU360
 966 043e 03E1     		b	.L1
 967              	.LVL98:
 968              	.L44:
 635:./Middlewares/ST/usbx/common/usbx_device_classes/src/ux_device_class_dfu_control_request.c **** 
 969              		.loc 1 635 21 is_stmt 1 discriminator 2 view .LVU361
 635:./Middlewares/ST/usbx/common/usbx_device_classes/src/ux_device_class_dfu_control_request.c **** 
 970              		.loc 1 635 25 is_stmt 0 discriminator 2 view .LVU362
 971 0440 D9F81830 		ldr	r3, [r9, #24]
 635:./Middlewares/ST/usbx/common/usbx_device_classes/src/ux_device_class_dfu_control_request.c **** 
 972              		.loc 1 635 21 discriminator 2 view .LVU363
 973 0444 02A9     		add	r1, sp, #8
 974 0446 4846     		mov	r0, r9
 975              	.LVL99:
 635:./Middlewares/ST/usbx/common/usbx_device_classes/src/ux_device_class_dfu_control_request.c **** 
 976              		.loc 1 635 21 discriminator 2 view .LVU364
 977 0448 9847     		blx	r3
 978              	.LVL100:
 638:./Middlewares/ST/usbx/common/usbx_device_classes/src/ux_device_class_dfu_control_request.c ****                     {
 979              		.loc 1 638 21 is_stmt 1 discriminator 2 view .LVU365
 980 044a 029B     		ldr	r3, [sp, #8]
 981 044c 012B     		cmp	r3, #1
 982 044e 35D0     		beq	.L47
 983 0450 022B     		cmp	r3, #2
 984 0452 3CD0     		beq	.L48
 985 0454 FBB1     		cbz	r3, .L69
ARM GAS  C:\Users\Dennis\AppData\Local\Temp\ccmm9cQc.s 			page 39


 986              	.L49:
 674:./Middlewares/ST/usbx/common/usbx_device_classes/src/ux_device_class_dfu_control_request.c **** 
 987              		.loc 1 674 21 view .LVU366
 674:./Middlewares/ST/usbx/common/usbx_device_classes/src/ux_device_class_dfu_control_request.c **** 
 988              		.loc 1 674 39 is_stmt 0 view .LVU367
 989 0456 D4F89830 		ldr	r3, [r4, #152]
 674:./Middlewares/ST/usbx/common/usbx_device_classes/src/ux_device_class_dfu_control_request.c **** 
 990              		.loc 1 674 83 view .LVU368
 991 045a 99F80420 		ldrb	r2, [r9, #4]	@ zero_extendqisi2
 674:./Middlewares/ST/usbx/common/usbx_device_classes/src/ux_device_class_dfu_control_request.c **** 
 992              		.loc 1 674 81 view .LVU369
 993 045e 1A70     		strb	r2, [r3]
 677:./Middlewares/ST/usbx/common/usbx_device_classes/src/ux_device_class_dfu_control_request.c ****                     *(transfer_request -> ux_slave_transfer_request_data_pointer + UX_SLAVE_CLASS_D
 994              		.loc 1 677 21 is_stmt 1 view .LVU370
 677:./Middlewares/ST/usbx/common/usbx_device_classes/src/ux_device_class_dfu_control_request.c ****                     *(transfer_request -> ux_slave_transfer_request_data_pointer + UX_SLAVE_CLASS_D
 995              		.loc 1 677 40 is_stmt 0 view .LVU371
 996 0460 D4F89830 		ldr	r3, [r4, #152]
 677:./Middlewares/ST/usbx/common/usbx_device_classes/src/ux_device_class_dfu_control_request.c ****                     *(transfer_request -> ux_slave_transfer_request_data_pointer + UX_SLAVE_CLASS_D
 997              		.loc 1 677 128 view .LVU372
 998 0464 6422     		movs	r2, #100
 999 0466 5A70     		strb	r2, [r3, #1]
 678:./Middlewares/ST/usbx/common/usbx_device_classes/src/ux_device_class_dfu_control_request.c ****                     *(transfer_request -> ux_slave_transfer_request_data_pointer + UX_SLAVE_CLASS_D
 1000              		.loc 1 678 21 is_stmt 1 view .LVU373
 678:./Middlewares/ST/usbx/common/usbx_device_classes/src/ux_device_class_dfu_control_request.c ****                     *(transfer_request -> ux_slave_transfer_request_data_pointer + UX_SLAVE_CLASS_D
 1001              		.loc 1 678 40 is_stmt 0 view .LVU374
 1002 0468 D4F89830 		ldr	r3, [r4, #152]
 678:./Middlewares/ST/usbx/common/usbx_device_classes/src/ux_device_class_dfu_control_request.c ****                     *(transfer_request -> ux_slave_transfer_request_data_pointer + UX_SLAVE_CLASS_D
 1003              		.loc 1 678 132 view .LVU375
 1004 046c 0025     		movs	r5, #0
 1005 046e 9D70     		strb	r5, [r3, #2]
 679:./Middlewares/ST/usbx/common/usbx_device_classes/src/ux_device_class_dfu_control_request.c **** 
 1006              		.loc 1 679 21 is_stmt 1 view .LVU376
 679:./Middlewares/ST/usbx/common/usbx_device_classes/src/ux_device_class_dfu_control_request.c **** 
 1007              		.loc 1 679 40 is_stmt 0 view .LVU377
 1008 0470 D4F89830 		ldr	r3, [r4, #152]
 679:./Middlewares/ST/usbx/common/usbx_device_classes/src/ux_device_class_dfu_control_request.c **** 
 1009              		.loc 1 679 132 view .LVU378
 1010 0474 DD70     		strb	r5, [r3, #3]
 682:./Middlewares/ST/usbx/common/usbx_device_classes/src/ux_device_class_dfu_control_request.c **** 
 1011              		.loc 1 682 21 is_stmt 1 view .LVU379
 682:./Middlewares/ST/usbx/common/usbx_device_classes/src/ux_device_class_dfu_control_request.c **** 
 1012              		.loc 1 682 148 is_stmt 0 view .LVU380
 1013 0476 584B     		ldr	r3, .L73
 1014 0478 1A68     		ldr	r2, [r3]
 682:./Middlewares/ST/usbx/common/usbx_device_classes/src/ux_device_class_dfu_control_request.c **** 
 1015              		.loc 1 682 40 view .LVU381
 1016 047a D4F89830 		ldr	r3, [r4, #152]
 682:./Middlewares/ST/usbx/common/usbx_device_classes/src/ux_device_class_dfu_control_request.c **** 
 1017              		.loc 1 682 123 view .LVU382
 1018 047e 92F8B821 		ldrb	r2, [r2, #440]	@ zero_extendqisi2
 682:./Middlewares/ST/usbx/common/usbx_device_classes/src/ux_device_class_dfu_control_request.c **** 
 1019              		.loc 1 682 121 view .LVU383
 1020 0482 1A71     		strb	r2, [r3, #4]
 685:./Middlewares/ST/usbx/common/usbx_device_classes/src/ux_device_class_dfu_control_request.c **** #endif
 1021              		.loc 1 685 21 is_stmt 1 view .LVU384
 685:./Middlewares/ST/usbx/common/usbx_device_classes/src/ux_device_class_dfu_control_request.c **** #endif
 1022              		.loc 1 685 40 is_stmt 0 view .LVU385
ARM GAS  C:\Users\Dennis\AppData\Local\Temp\ccmm9cQc.s 			page 40


 1023 0484 D4F89830 		ldr	r3, [r4, #152]
 685:./Middlewares/ST/usbx/common/usbx_device_classes/src/ux_device_class_dfu_control_request.c **** #endif
 1024              		.loc 1 685 122 view .LVU386
 1025 0488 5D71     		strb	r5, [r3, #5]
 689:./Middlewares/ST/usbx/common/usbx_device_classes/src/ux_device_class_dfu_control_request.c **** 
 1026              		.loc 1 689 21 is_stmt 1 view .LVU387
 1027 048a 0622     		movs	r2, #6
 1028 048c 1146     		mov	r1, r2
 1029 048e 5046     		mov	r0, r10
 1030 0490 FFF7FEFF 		bl	_ux_device_stack_transfer_request
 1031              	.LVL101:
 691:./Middlewares/ST/usbx/common/usbx_device_classes/src/ux_device_class_dfu_control_request.c **** 
 1032              		.loc 1 691 21 view .LVU388
 1033 0494 D8E0     		b	.L1
 1034              	.L69:
 644:./Middlewares/ST/usbx/common/usbx_device_classes/src/ux_device_class_dfu_control_request.c ****                                _ux_system_slave -> ux_system_slave_device_dfu_state_machine = UX_SL
 1035              		.loc 1 644 29 view .LVU389
 644:./Middlewares/ST/usbx/common/usbx_device_classes/src/ux_device_class_dfu_control_request.c ****                                _ux_system_slave -> ux_system_slave_device_dfu_state_machine = UX_SL
 1036              		.loc 1 644 62 is_stmt 0 view .LVU390
 1037 0496 C9F80430 		str	r3, [r9, #4]
 645:./Middlewares/ST/usbx/common/usbx_device_classes/src/ux_device_class_dfu_control_request.c **** 
 1038              		.loc 1 645 32 is_stmt 1 view .LVU391
 645:./Middlewares/ST/usbx/common/usbx_device_classes/src/ux_device_class_dfu_control_request.c **** 
 1039              		.loc 1 645 49 is_stmt 0 view .LVU392
 1040 049a 4F4B     		ldr	r3, .L73
 1041 049c 1B68     		ldr	r3, [r3]
 645:./Middlewares/ST/usbx/common/usbx_device_classes/src/ux_device_class_dfu_control_request.c **** 
 1042              		.loc 1 645 93 view .LVU393
 1043 049e 0822     		movs	r2, #8
 1044 04a0 C3F8B821 		str	r2, [r3, #440]
 648:./Middlewares/ST/usbx/common/usbx_device_classes/src/ux_device_class_dfu_control_request.c ****                             {
 1045              		.loc 1 648 29 is_stmt 1 view .LVU394
 648:./Middlewares/ST/usbx/common/usbx_device_classes/src/ux_device_class_dfu_control_request.c ****                             {
 1046              		.loc 1 648 50 is_stmt 0 view .LVU395
 1047 04a4 D3F8AC31 		ldr	r3, [r3, #428]
 648:./Middlewares/ST/usbx/common/usbx_device_classes/src/ux_device_class_dfu_control_request.c ****                             {
 1048              		.loc 1 648 32 view .LVU396
 1049 04a8 13F0080F 		tst	r3, #8
 1050 04ac D3D0     		beq	.L49
 652:./Middlewares/ST/usbx/common/usbx_device_classes/src/ux_device_class_dfu_control_request.c **** 
 1051              		.loc 1 652 33 is_stmt 1 view .LVU397
 652:./Middlewares/ST/usbx/common/usbx_device_classes/src/ux_device_class_dfu_control_request.c **** 
 1052              		.loc 1 652 33 view .LVU398
 1053 04ae 0022     		movs	r2, #0
 1054 04b0 0121     		movs	r1, #1
 1055 04b2 09F1D400 		add	r0, r9, #212
 1056 04b6 FFF7FEFF 		bl	_ux_utility_event_flags_set
 1057              	.LVL102:
 1058 04ba CCE7     		b	.L49
 1059              	.L47:
 661:./Middlewares/ST/usbx/common/usbx_device_classes/src/ux_device_class_dfu_control_request.c ****                                _ux_system_slave -> ux_system_slave_device_dfu_state_machine = UX_SL
 1060              		.loc 1 661 29 view .LVU399
 661:./Middlewares/ST/usbx/common/usbx_device_classes/src/ux_device_class_dfu_control_request.c ****                                _ux_system_slave -> ux_system_slave_device_dfu_state_machine = UX_SL
 1061              		.loc 1 661 62 is_stmt 0 view .LVU400
 1062 04bc 0023     		movs	r3, #0
 1063 04be C9F80430 		str	r3, [r9, #4]
 662:./Middlewares/ST/usbx/common/usbx_device_classes/src/ux_device_class_dfu_control_request.c ****                             break;
ARM GAS  C:\Users\Dennis\AppData\Local\Temp\ccmm9cQc.s 			page 41


 1064              		.loc 1 662 32 is_stmt 1 view .LVU401
 662:./Middlewares/ST/usbx/common/usbx_device_classes/src/ux_device_class_dfu_control_request.c ****                             break;
 1065              		.loc 1 662 49 is_stmt 0 view .LVU402
 1066 04c2 454B     		ldr	r3, .L73
 1067 04c4 1B68     		ldr	r3, [r3]
 662:./Middlewares/ST/usbx/common/usbx_device_classes/src/ux_device_class_dfu_control_request.c ****                             break;
 1068              		.loc 1 662 93 view .LVU403
 1069 04c6 0722     		movs	r2, #7
 1070 04c8 C3F8B821 		str	r2, [r3, #440]
 663:./Middlewares/ST/usbx/common/usbx_device_classes/src/ux_device_class_dfu_control_request.c **** 
 1071              		.loc 1 663 29 is_stmt 1 view .LVU404
 1072 04cc C3E7     		b	.L49
 1073              	.L48:
 668:./Middlewares/ST/usbx/common/usbx_device_classes/src/ux_device_class_dfu_control_request.c ****                                _ux_system_slave -> ux_system_slave_device_dfu_state_machine = UX_SL
 1074              		.loc 1 668 29 view .LVU405
 668:./Middlewares/ST/usbx/common/usbx_device_classes/src/ux_device_class_dfu_control_request.c ****                                _ux_system_slave -> ux_system_slave_device_dfu_state_machine = UX_SL
 1075              		.loc 1 668 62 is_stmt 0 view .LVU406
 1076 04ce 0323     		movs	r3, #3
 1077 04d0 C9F80430 		str	r3, [r9, #4]
 669:./Middlewares/ST/usbx/common/usbx_device_classes/src/ux_device_class_dfu_control_request.c ****                             break;
 1078              		.loc 1 669 32 is_stmt 1 view .LVU407
 669:./Middlewares/ST/usbx/common/usbx_device_classes/src/ux_device_class_dfu_control_request.c ****                             break;
 1079              		.loc 1 669 49 is_stmt 0 view .LVU408
 1080 04d4 404B     		ldr	r3, .L73
 1081 04d6 1B68     		ldr	r3, [r3]
 669:./Middlewares/ST/usbx/common/usbx_device_classes/src/ux_device_class_dfu_control_request.c ****                             break;
 1082              		.loc 1 669 93 view .LVU409
 1083 04d8 0A22     		movs	r2, #10
 1084 04da C3F8B821 		str	r2, [r3, #440]
 670:./Middlewares/ST/usbx/common/usbx_device_classes/src/ux_device_class_dfu_control_request.c ****                     }
 1085              		.loc 1 670 29 is_stmt 1 view .LVU410
 1086 04de BAE7     		b	.L49
 1087              	.LVL103:
 1088              	.L45:
 696:./Middlewares/ST/usbx/common/usbx_device_classes/src/ux_device_class_dfu_control_request.c **** 
 1089              		.loc 1 696 21 view .LVU411
 696:./Middlewares/ST/usbx/common/usbx_device_classes/src/ux_device_class_dfu_control_request.c **** 
 1090              		.loc 1 696 39 is_stmt 0 view .LVU412
 1091 04e0 D4F89830 		ldr	r3, [r4, #152]
 696:./Middlewares/ST/usbx/common/usbx_device_classes/src/ux_device_class_dfu_control_request.c **** 
 1092              		.loc 1 696 81 view .LVU413
 1093 04e4 1D70     		strb	r5, [r3]
 699:./Middlewares/ST/usbx/common/usbx_device_classes/src/ux_device_class_dfu_control_request.c **** 
 1094              		.loc 1 699 21 is_stmt 1 view .LVU414
 1095 04e6 0122     		movs	r2, #1
 1096 04e8 1146     		mov	r1, r2
 1097 04ea 5046     		mov	r0, r10
 1098              	.LVL104:
 699:./Middlewares/ST/usbx/common/usbx_device_classes/src/ux_device_class_dfu_control_request.c **** 
 1099              		.loc 1 699 21 is_stmt 0 view .LVU415
 1100 04ec FFF7FEFF 		bl	_ux_device_stack_transfer_request
 1101              	.LVL105:
 701:./Middlewares/ST/usbx/common/usbx_device_classes/src/ux_device_class_dfu_control_request.c **** 
 1102              		.loc 1 701 21 is_stmt 1 view .LVU416
 1103              		.loc 1 872 11 is_stmt 0 view .LVU417
 1104 04f0 0025     		movs	r5, #0
 701:./Middlewares/ST/usbx/common/usbx_device_classes/src/ux_device_class_dfu_control_request.c **** 
ARM GAS  C:\Users\Dennis\AppData\Local\Temp\ccmm9cQc.s 			page 42


 1105              		.loc 1 701 21 view .LVU418
 1106 04f2 A9E0     		b	.L1
 1107              	.LVL106:
 1108              	.L3:
 715:./Middlewares/ST/usbx/common/usbx_device_classes/src/ux_device_class_dfu_control_request.c ****             {
 1109              		.loc 1 715 13 is_stmt 1 view .LVU419
 1110 04f4 042E     		cmp	r6, #4
 1111 04f6 33D0     		beq	.L50
 1112 04f8 052E     		cmp	r6, #5
 1113 04fa 27D0     		beq	.L51
 1114 04fc 032E     		cmp	r6, #3
 1115 04fe 05D0     		beq	.L70
 762:./Middlewares/ST/usbx/common/usbx_device_classes/src/ux_device_class_dfu_control_request.c ****                     break;
 1116              		.loc 1 762 21 view .LVU420
 1117 0500 04F15C00 		add	r0, r4, #92
 1118              	.LVL107:
 762:./Middlewares/ST/usbx/common/usbx_device_classes/src/ux_device_class_dfu_control_request.c ****                     break;
 1119              		.loc 1 762 21 is_stmt 0 view .LVU421
 1120 0504 FFF7FEFF 		bl	_ux_device_stack_endpoint_stall
 1121              	.LVL108:
 763:./Middlewares/ST/usbx/common/usbx_device_classes/src/ux_device_class_dfu_control_request.c **** 
 1122              		.loc 1 763 21 is_stmt 1 view .LVU422
 1123              		.loc 1 872 11 is_stmt 0 view .LVU423
 1124 0508 0025     		movs	r5, #0
 763:./Middlewares/ST/usbx/common/usbx_device_classes/src/ux_device_class_dfu_control_request.c **** 
 1125              		.loc 1 763 21 view .LVU424
 1126 050a 9DE0     		b	.L1
 1127              	.LVL109:
 1128              	.L70:
 722:./Middlewares/ST/usbx/common/usbx_device_classes/src/ux_device_class_dfu_control_request.c **** 
 1129              		.loc 1 722 21 is_stmt 1 view .LVU425
 722:./Middlewares/ST/usbx/common/usbx_device_classes/src/ux_device_class_dfu_control_request.c **** 
 1130              		.loc 1 722 39 is_stmt 0 view .LVU426
 1131 050c D4F89830 		ldr	r3, [r4, #152]
 722:./Middlewares/ST/usbx/common/usbx_device_classes/src/ux_device_class_dfu_control_request.c **** 
 1132              		.loc 1 722 83 view .LVU427
 1133 0510 99F80420 		ldrb	r2, [r9, #4]	@ zero_extendqisi2
 722:./Middlewares/ST/usbx/common/usbx_device_classes/src/ux_device_class_dfu_control_request.c **** 
 1134              		.loc 1 722 81 view .LVU428
 1135 0514 1A70     		strb	r2, [r3]
 725:./Middlewares/ST/usbx/common/usbx_device_classes/src/ux_device_class_dfu_control_request.c ****                     *(transfer_request -> ux_slave_transfer_request_data_pointer + UX_SLAVE_CLASS_D
 1136              		.loc 1 725 21 is_stmt 1 view .LVU429
 725:./Middlewares/ST/usbx/common/usbx_device_classes/src/ux_device_class_dfu_control_request.c ****                     *(transfer_request -> ux_slave_transfer_request_data_pointer + UX_SLAVE_CLASS_D
 1137              		.loc 1 725 40 is_stmt 0 view .LVU430
 1138 0516 D4F89830 		ldr	r3, [r4, #152]
 725:./Middlewares/ST/usbx/common/usbx_device_classes/src/ux_device_class_dfu_control_request.c ****                     *(transfer_request -> ux_slave_transfer_request_data_pointer + UX_SLAVE_CLASS_D
 1139              		.loc 1 725 128 view .LVU431
 1140 051a 0122     		movs	r2, #1
 1141 051c 5A70     		strb	r2, [r3, #1]
 726:./Middlewares/ST/usbx/common/usbx_device_classes/src/ux_device_class_dfu_control_request.c ****                     *(transfer_request -> ux_slave_transfer_request_data_pointer + UX_SLAVE_CLASS_D
 1142              		.loc 1 726 21 is_stmt 1 view .LVU432
 726:./Middlewares/ST/usbx/common/usbx_device_classes/src/ux_device_class_dfu_control_request.c ****                     *(transfer_request -> ux_slave_transfer_request_data_pointer + UX_SLAVE_CLASS_D
 1143              		.loc 1 726 40 is_stmt 0 view .LVU433
 1144 051e D4F89830 		ldr	r3, [r4, #152]
 726:./Middlewares/ST/usbx/common/usbx_device_classes/src/ux_device_class_dfu_control_request.c ****                     *(transfer_request -> ux_slave_transfer_request_data_pointer + UX_SLAVE_CLASS_D
 1145              		.loc 1 726 132 view .LVU434
 1146 0522 0025     		movs	r5, #0
ARM GAS  C:\Users\Dennis\AppData\Local\Temp\ccmm9cQc.s 			page 43


 1147 0524 9D70     		strb	r5, [r3, #2]
 727:./Middlewares/ST/usbx/common/usbx_device_classes/src/ux_device_class_dfu_control_request.c **** 
 1148              		.loc 1 727 21 is_stmt 1 view .LVU435
 727:./Middlewares/ST/usbx/common/usbx_device_classes/src/ux_device_class_dfu_control_request.c **** 
 1149              		.loc 1 727 40 is_stmt 0 view .LVU436
 1150 0526 D4F89830 		ldr	r3, [r4, #152]
 727:./Middlewares/ST/usbx/common/usbx_device_classes/src/ux_device_class_dfu_control_request.c **** 
 1151              		.loc 1 727 132 view .LVU437
 1152 052a DD70     		strb	r5, [r3, #3]
 730:./Middlewares/ST/usbx/common/usbx_device_classes/src/ux_device_class_dfu_control_request.c **** 
 1153              		.loc 1 730 21 is_stmt 1 view .LVU438
 730:./Middlewares/ST/usbx/common/usbx_device_classes/src/ux_device_class_dfu_control_request.c **** 
 1154              		.loc 1 730 148 is_stmt 0 view .LVU439
 1155 052c 2A4B     		ldr	r3, .L73
 1156 052e 1A68     		ldr	r2, [r3]
 730:./Middlewares/ST/usbx/common/usbx_device_classes/src/ux_device_class_dfu_control_request.c **** 
 1157              		.loc 1 730 40 view .LVU440
 1158 0530 D4F89830 		ldr	r3, [r4, #152]
 730:./Middlewares/ST/usbx/common/usbx_device_classes/src/ux_device_class_dfu_control_request.c **** 
 1159              		.loc 1 730 123 view .LVU441
 1160 0534 92F8B821 		ldrb	r2, [r2, #440]	@ zero_extendqisi2
 730:./Middlewares/ST/usbx/common/usbx_device_classes/src/ux_device_class_dfu_control_request.c **** 
 1161              		.loc 1 730 121 view .LVU442
 1162 0538 1A71     		strb	r2, [r3, #4]
 733:./Middlewares/ST/usbx/common/usbx_device_classes/src/ux_device_class_dfu_control_request.c **** 
 1163              		.loc 1 733 21 is_stmt 1 view .LVU443
 733:./Middlewares/ST/usbx/common/usbx_device_classes/src/ux_device_class_dfu_control_request.c **** 
 1164              		.loc 1 733 40 is_stmt 0 view .LVU444
 1165 053a D4F89830 		ldr	r3, [r4, #152]
 733:./Middlewares/ST/usbx/common/usbx_device_classes/src/ux_device_class_dfu_control_request.c **** 
 1166              		.loc 1 733 122 view .LVU445
 1167 053e 5D71     		strb	r5, [r3, #5]
 736:./Middlewares/ST/usbx/common/usbx_device_classes/src/ux_device_class_dfu_control_request.c **** 
 1168              		.loc 1 736 21 is_stmt 1 view .LVU446
 1169 0540 0622     		movs	r2, #6
 1170 0542 1146     		mov	r1, r2
 1171 0544 5046     		mov	r0, r10
 1172              	.LVL110:
 736:./Middlewares/ST/usbx/common/usbx_device_classes/src/ux_device_class_dfu_control_request.c **** 
 1173              		.loc 1 736 21 is_stmt 0 view .LVU447
 1174 0546 FFF7FEFF 		bl	_ux_device_stack_transfer_request
 1175              	.LVL111:
 738:./Middlewares/ST/usbx/common/usbx_device_classes/src/ux_device_class_dfu_control_request.c **** 
 1176              		.loc 1 738 21 is_stmt 1 view .LVU448
 1177 054a 7DE0     		b	.L1
 1178              	.LVL112:
 1179              	.L51:
 743:./Middlewares/ST/usbx/common/usbx_device_classes/src/ux_device_class_dfu_control_request.c **** 
 1180              		.loc 1 743 21 view .LVU449
 743:./Middlewares/ST/usbx/common/usbx_device_classes/src/ux_device_class_dfu_control_request.c **** 
 1181              		.loc 1 743 39 is_stmt 0 view .LVU450
 1182 054c D4F89830 		ldr	r3, [r4, #152]
 743:./Middlewares/ST/usbx/common/usbx_device_classes/src/ux_device_class_dfu_control_request.c **** 
 1183              		.loc 1 743 81 view .LVU451
 1184 0550 1D70     		strb	r5, [r3]
 746:./Middlewares/ST/usbx/common/usbx_device_classes/src/ux_device_class_dfu_control_request.c **** 
 1185              		.loc 1 746 21 is_stmt 1 view .LVU452
ARM GAS  C:\Users\Dennis\AppData\Local\Temp\ccmm9cQc.s 			page 44


 1186 0552 0122     		movs	r2, #1
 1187 0554 1146     		mov	r1, r2
 1188 0556 5046     		mov	r0, r10
 1189              	.LVL113:
 746:./Middlewares/ST/usbx/common/usbx_device_classes/src/ux_device_class_dfu_control_request.c **** 
 1190              		.loc 1 746 21 is_stmt 0 view .LVU453
 1191 0558 FFF7FEFF 		bl	_ux_device_stack_transfer_request
 1192              	.LVL114:
 748:./Middlewares/ST/usbx/common/usbx_device_classes/src/ux_device_class_dfu_control_request.c **** #endif
 1193              		.loc 1 748 21 is_stmt 1 view .LVU454
 1194              		.loc 1 872 11 is_stmt 0 view .LVU455
 1195 055c 0025     		movs	r5, #0
 748:./Middlewares/ST/usbx/common/usbx_device_classes/src/ux_device_class_dfu_control_request.c **** #endif
 1196              		.loc 1 748 21 view .LVU456
 1197 055e 73E0     		b	.L1
 1198              	.LVL115:
 1199              	.L50:
 754:./Middlewares/ST/usbx/common/usbx_device_classes/src/ux_device_class_dfu_control_request.c ****                     _ux_system_slave -> ux_system_slave_device_dfu_state_machine = UX_SYSTEM_DFU_ST
 1200              		.loc 1 754 21 is_stmt 1 view .LVU457
 754:./Middlewares/ST/usbx/common/usbx_device_classes/src/ux_device_class_dfu_control_request.c ****                     _ux_system_slave -> ux_system_slave_device_dfu_state_machine = UX_SYSTEM_DFU_ST
 1201              		.loc 1 754 54 is_stmt 0 view .LVU458
 1202 0560 0025     		movs	r5, #0
 1203 0562 C9F80450 		str	r5, [r9, #4]
 755:./Middlewares/ST/usbx/common/usbx_device_classes/src/ux_device_class_dfu_control_request.c **** 
 1204              		.loc 1 755 21 is_stmt 1 view .LVU459
 755:./Middlewares/ST/usbx/common/usbx_device_classes/src/ux_device_class_dfu_control_request.c **** 
 1205              		.loc 1 755 82 is_stmt 0 view .LVU460
 1206 0566 0222     		movs	r2, #2
 1207 0568 C3F8B821 		str	r2, [r3, #440]
 757:./Middlewares/ST/usbx/common/usbx_device_classes/src/ux_device_class_dfu_control_request.c **** 
 1208              		.loc 1 757 21 is_stmt 1 view .LVU461
 1209 056c 6CE0     		b	.L1
 1210              	.L5:
 773:./Middlewares/ST/usbx/common/usbx_device_classes/src/ux_device_class_dfu_control_request.c ****             {
 1211              		.loc 1 773 13 view .LVU462
 1212 056e 023E     		subs	r6, r6, #2
 1213              	.LVL116:
 773:./Middlewares/ST/usbx/common/usbx_device_classes/src/ux_device_class_dfu_control_request.c ****             {
 1214              		.loc 1 773 13 is_stmt 0 view .LVU463
 1215 0570 042E     		cmp	r6, #4
 1216 0572 5DD8     		bhi	.L53
 1217 0574 DFE806F0 		tbb	[pc, r6]
 1218              	.L55:
 1219 0578 03       		.byte	(.L58-.L55)/2
 1220 0579 32       		.byte	(.L57-.L55)/2
 1221 057a 5C       		.byte	(.L53-.L55)/2
 1222 057b 52       		.byte	(.L56-.L55)/2
 1223 057c 23       		.byte	(.L54-.L55)/2
 1224 057d 00       		.p2align 1
 1225              	.L58:
 779:./Middlewares/ST/usbx/common/usbx_device_classes/src/ux_device_class_dfu_control_request.c ****                     break;
 1226              		.loc 1 779 17 is_stmt 1 view .LVU464
 779:./Middlewares/ST/usbx/common/usbx_device_classes/src/ux_device_class_dfu_control_request.c ****                     break;
 1227              		.loc 1 779 20 is_stmt 0 view .LVU465
 1228 057e 0028     		cmp	r0, #0
 1229 0580 66D0     		beq	.L61
 785:./Middlewares/ST/usbx/common/usbx_device_classes/src/ux_device_class_dfu_control_request.c ****                                                     transfer_request -> ux_slave_transfer_request_d
ARM GAS  C:\Users\Dennis\AppData\Local\Temp\ccmm9cQc.s 			page 45


 1230              		.loc 1 785 17 is_stmt 1 view .LVU466
 785:./Middlewares/ST/usbx/common/usbx_device_classes/src/ux_device_class_dfu_control_request.c ****                                                     transfer_request -> ux_slave_transfer_request_d
 1231              		.loc 1 785 21 is_stmt 0 view .LVU467
 1232 0582 D9F81050 		ldr	r5, [r9, #16]
 785:./Middlewares/ST/usbx/common/usbx_device_classes/src/ux_device_class_dfu_control_request.c ****                                                     transfer_request -> ux_slave_transfer_request_d
 1233              		.loc 1 785 17 view .LVU468
 1234 0586 D4F89820 		ldr	r2, [r4, #152]
 1235 058a 03AB     		add	r3, sp, #12
 1236 058c 0093     		str	r3, [sp]
 1237 058e 0346     		mov	r3, r0
 1238 0590 4146     		mov	r1, r8
 1239 0592 4846     		mov	r0, r9
 1240              	.LVL117:
 785:./Middlewares/ST/usbx/common/usbx_device_classes/src/ux_device_class_dfu_control_request.c ****                                                     transfer_request -> ux_slave_transfer_request_d
 1241              		.loc 1 785 17 view .LVU469
 1242 0594 A847     		blx	r5
 1243              	.LVL118:
 791:./Middlewares/ST/usbx/common/usbx_device_classes/src/ux_device_class_dfu_control_request.c ****                 {
 1244              		.loc 1 791 17 is_stmt 1 view .LVU470
 791:./Middlewares/ST/usbx/common/usbx_device_classes/src/ux_device_class_dfu_control_request.c ****                 {
 1245              		.loc 1 791 35 is_stmt 0 view .LVU471
 1246 0596 039B     		ldr	r3, [sp, #12]
 791:./Middlewares/ST/usbx/common/usbx_device_classes/src/ux_device_class_dfu_control_request.c ****                 {
 1247              		.loc 1 791 20 view .LVU472
 1248 0598 BB42     		cmp	r3, r7
 1249 059a 09D2     		bcs	.L59
 795:./Middlewares/ST/usbx/common/usbx_device_classes/src/ux_device_class_dfu_control_request.c **** 
 1250              		.loc 1 795 21 is_stmt 1 view .LVU473
 795:./Middlewares/ST/usbx/common/usbx_device_classes/src/ux_device_class_dfu_control_request.c **** 
 1251              		.loc 1 795 25 is_stmt 0 view .LVU474
 1252 059c D9F81C30 		ldr	r3, [r9, #28]
 795:./Middlewares/ST/usbx/common/usbx_device_classes/src/ux_device_class_dfu_control_request.c **** 
 1253              		.loc 1 795 21 view .LVU475
 1254 05a0 0621     		movs	r1, #6
 1255 05a2 4846     		mov	r0, r9
 1256 05a4 9847     		blx	r3
 1257              	.LVL119:
 798:./Middlewares/ST/usbx/common/usbx_device_classes/src/ux_device_class_dfu_control_request.c ****                 }
 1258              		.loc 1 798 21 is_stmt 1 view .LVU476
 798:./Middlewares/ST/usbx/common/usbx_device_classes/src/ux_device_class_dfu_control_request.c ****                 }
 1259              		.loc 1 798 38 is_stmt 0 view .LVU477
 1260 05a6 0C4B     		ldr	r3, .L73
 1261 05a8 1B68     		ldr	r3, [r3]
 798:./Middlewares/ST/usbx/common/usbx_device_classes/src/ux_device_class_dfu_control_request.c ****                 }
 1262              		.loc 1 798 82 view .LVU478
 1263 05aa 0222     		movs	r2, #2
 1264 05ac C3F8B821 		str	r2, [r3, #440]
 1265              	.L59:
 802:./Middlewares/ST/usbx/common/usbx_device_classes/src/ux_device_class_dfu_control_request.c **** 
 1266              		.loc 1 802 17 is_stmt 1 view .LVU479
 1267 05b0 3A46     		mov	r2, r7
 1268 05b2 0399     		ldr	r1, [sp, #12]
 1269 05b4 5046     		mov	r0, r10
 1270 05b6 FFF7FEFF 		bl	_ux_device_stack_transfer_request
 1271              	.LVL120:
 804:./Middlewares/ST/usbx/common/usbx_device_classes/src/ux_device_class_dfu_control_request.c **** 
 1272              		.loc 1 804 17 view .LVU480
ARM GAS  C:\Users\Dennis\AppData\Local\Temp\ccmm9cQc.s 			page 46


 1273              		.loc 1 872 11 is_stmt 0 view .LVU481
 1274 05ba 0025     		movs	r5, #0
 804:./Middlewares/ST/usbx/common/usbx_device_classes/src/ux_device_class_dfu_control_request.c **** 
 1275              		.loc 1 804 17 view .LVU482
 1276 05bc 44E0     		b	.L1
 1277              	.LVL121:
 1278              	.L54:
 809:./Middlewares/ST/usbx/common/usbx_device_classes/src/ux_device_class_dfu_control_request.c **** 
 1279              		.loc 1 809 21 is_stmt 1 view .LVU483
 809:./Middlewares/ST/usbx/common/usbx_device_classes/src/ux_device_class_dfu_control_request.c **** 
 1280              		.loc 1 809 25 is_stmt 0 view .LVU484
 1281 05be D9F81C30 		ldr	r3, [r9, #28]
 809:./Middlewares/ST/usbx/common/usbx_device_classes/src/ux_device_class_dfu_control_request.c **** 
 1282              		.loc 1 809 21 view .LVU485
 1283 05c2 0721     		movs	r1, #7
 1284 05c4 4846     		mov	r0, r9
 1285              	.LVL122:
 809:./Middlewares/ST/usbx/common/usbx_device_classes/src/ux_device_class_dfu_control_request.c **** 
 1286              		.loc 1 809 21 view .LVU486
 1287 05c6 9847     		blx	r3
 1288              	.LVL123:
 812:./Middlewares/ST/usbx/common/usbx_device_classes/src/ux_device_class_dfu_control_request.c **** 
 1289              		.loc 1 812 21 is_stmt 1 view .LVU487
 812:./Middlewares/ST/usbx/common/usbx_device_classes/src/ux_device_class_dfu_control_request.c **** 
 1290              		.loc 1 812 38 is_stmt 0 view .LVU488
 1291 05c8 034B     		ldr	r3, .L73
 1292 05ca 1B68     		ldr	r3, [r3]
 812:./Middlewares/ST/usbx/common/usbx_device_classes/src/ux_device_class_dfu_control_request.c **** 
 1293              		.loc 1 812 82 view .LVU489
 1294 05cc 0222     		movs	r2, #2
 1295 05ce C3F8B821 		str	r2, [r3, #440]
 814:./Middlewares/ST/usbx/common/usbx_device_classes/src/ux_device_class_dfu_control_request.c **** 
 1296              		.loc 1 814 21 is_stmt 1 view .LVU490
 1297              		.loc 1 872 11 is_stmt 0 view .LVU491
 1298 05d2 0025     		movs	r5, #0
 814:./Middlewares/ST/usbx/common/usbx_device_classes/src/ux_device_class_dfu_control_request.c **** 
 1299              		.loc 1 814 21 view .LVU492
 1300 05d4 38E0     		b	.L1
 1301              	.L74:
 1302 05d6 00BF     		.align	2
 1303              	.L73:
 1304 05d8 00000000 		.word	_ux_system_slave
 1305              	.LVL124:
 1306              	.L57:
 823:./Middlewares/ST/usbx/common/usbx_device_classes/src/ux_device_class_dfu_control_request.c **** 
 1307              		.loc 1 823 17 is_stmt 1 view .LVU493
 823:./Middlewares/ST/usbx/common/usbx_device_classes/src/ux_device_class_dfu_control_request.c **** 
 1308              		.loc 1 823 35 is_stmt 0 view .LVU494
 1309 05dc D4F89830 		ldr	r3, [r4, #152]
 823:./Middlewares/ST/usbx/common/usbx_device_classes/src/ux_device_class_dfu_control_request.c **** 
 1310              		.loc 1 823 79 view .LVU495
 1311 05e0 99F80420 		ldrb	r2, [r9, #4]	@ zero_extendqisi2
 823:./Middlewares/ST/usbx/common/usbx_device_classes/src/ux_device_class_dfu_control_request.c **** 
 1312              		.loc 1 823 77 view .LVU496
 1313 05e4 1A70     		strb	r2, [r3]
 826:./Middlewares/ST/usbx/common/usbx_device_classes/src/ux_device_class_dfu_control_request.c ****                 *(transfer_request -> ux_slave_transfer_request_data_pointer + UX_SLAVE_CLASS_DFU_G
 1314              		.loc 1 826 17 is_stmt 1 view .LVU497
ARM GAS  C:\Users\Dennis\AppData\Local\Temp\ccmm9cQc.s 			page 47


 826:./Middlewares/ST/usbx/common/usbx_device_classes/src/ux_device_class_dfu_control_request.c ****                 *(transfer_request -> ux_slave_transfer_request_data_pointer + UX_SLAVE_CLASS_DFU_G
 1315              		.loc 1 826 36 is_stmt 0 view .LVU498
 1316 05e6 D4F89830 		ldr	r3, [r4, #152]
 826:./Middlewares/ST/usbx/common/usbx_device_classes/src/ux_device_class_dfu_control_request.c ****                 *(transfer_request -> ux_slave_transfer_request_data_pointer + UX_SLAVE_CLASS_DFU_G
 1317              		.loc 1 826 124 view .LVU499
 1318 05ea 6422     		movs	r2, #100
 1319 05ec 5A70     		strb	r2, [r3, #1]
 827:./Middlewares/ST/usbx/common/usbx_device_classes/src/ux_device_class_dfu_control_request.c ****                 *(transfer_request -> ux_slave_transfer_request_data_pointer + UX_SLAVE_CLASS_DFU_G
 1320              		.loc 1 827 17 is_stmt 1 view .LVU500
 827:./Middlewares/ST/usbx/common/usbx_device_classes/src/ux_device_class_dfu_control_request.c ****                 *(transfer_request -> ux_slave_transfer_request_data_pointer + UX_SLAVE_CLASS_DFU_G
 1321              		.loc 1 827 36 is_stmt 0 view .LVU501
 1322 05ee D4F89830 		ldr	r3, [r4, #152]
 827:./Middlewares/ST/usbx/common/usbx_device_classes/src/ux_device_class_dfu_control_request.c ****                 *(transfer_request -> ux_slave_transfer_request_data_pointer + UX_SLAVE_CLASS_DFU_G
 1323              		.loc 1 827 128 view .LVU502
 1324 05f2 0025     		movs	r5, #0
 1325 05f4 9D70     		strb	r5, [r3, #2]
 828:./Middlewares/ST/usbx/common/usbx_device_classes/src/ux_device_class_dfu_control_request.c **** 
 1326              		.loc 1 828 17 is_stmt 1 view .LVU503
 828:./Middlewares/ST/usbx/common/usbx_device_classes/src/ux_device_class_dfu_control_request.c **** 
 1327              		.loc 1 828 36 is_stmt 0 view .LVU504
 1328 05f6 D4F89830 		ldr	r3, [r4, #152]
 828:./Middlewares/ST/usbx/common/usbx_device_classes/src/ux_device_class_dfu_control_request.c **** 
 1329              		.loc 1 828 128 view .LVU505
 1330 05fa DD70     		strb	r5, [r3, #3]
 831:./Middlewares/ST/usbx/common/usbx_device_classes/src/ux_device_class_dfu_control_request.c **** 
 1331              		.loc 1 831 17 is_stmt 1 view .LVU506
 831:./Middlewares/ST/usbx/common/usbx_device_classes/src/ux_device_class_dfu_control_request.c **** 
 1332              		.loc 1 831 144 is_stmt 0 view .LVU507
 1333 05fc 154B     		ldr	r3, .L75
 1334 05fe 1A68     		ldr	r2, [r3]
 831:./Middlewares/ST/usbx/common/usbx_device_classes/src/ux_device_class_dfu_control_request.c **** 
 1335              		.loc 1 831 36 view .LVU508
 1336 0600 D4F89830 		ldr	r3, [r4, #152]
 831:./Middlewares/ST/usbx/common/usbx_device_classes/src/ux_device_class_dfu_control_request.c **** 
 1337              		.loc 1 831 119 view .LVU509
 1338 0604 92F8B821 		ldrb	r2, [r2, #440]	@ zero_extendqisi2
 831:./Middlewares/ST/usbx/common/usbx_device_classes/src/ux_device_class_dfu_control_request.c **** 
 1339              		.loc 1 831 117 view .LVU510
 1340 0608 1A71     		strb	r2, [r3, #4]
 834:./Middlewares/ST/usbx/common/usbx_device_classes/src/ux_device_class_dfu_control_request.c **** #endif
 1341              		.loc 1 834 17 is_stmt 1 view .LVU511
 834:./Middlewares/ST/usbx/common/usbx_device_classes/src/ux_device_class_dfu_control_request.c **** #endif
 1342              		.loc 1 834 36 is_stmt 0 view .LVU512
 1343 060a D4F89830 		ldr	r3, [r4, #152]
 834:./Middlewares/ST/usbx/common/usbx_device_classes/src/ux_device_class_dfu_control_request.c **** #endif
 1344              		.loc 1 834 118 view .LVU513
 1345 060e 5D71     		strb	r5, [r3, #5]
 838:./Middlewares/ST/usbx/common/usbx_device_classes/src/ux_device_class_dfu_control_request.c **** 
 1346              		.loc 1 838 17 is_stmt 1 view .LVU514
 1347 0610 0622     		movs	r2, #6
 1348 0612 1146     		mov	r1, r2
 1349 0614 5046     		mov	r0, r10
 1350              	.LVL125:
 838:./Middlewares/ST/usbx/common/usbx_device_classes/src/ux_device_class_dfu_control_request.c **** 
 1351              		.loc 1 838 17 is_stmt 0 view .LVU515
 1352 0616 FFF7FEFF 		bl	_ux_device_stack_transfer_request
 1353              	.LVL126:
ARM GAS  C:\Users\Dennis\AppData\Local\Temp\ccmm9cQc.s 			page 48


 840:./Middlewares/ST/usbx/common/usbx_device_classes/src/ux_device_class_dfu_control_request.c **** 
 1354              		.loc 1 840 17 is_stmt 1 view .LVU516
 1355 061a 15E0     		b	.L1
 1356              	.LVL127:
 1357              	.L56:
 845:./Middlewares/ST/usbx/common/usbx_device_classes/src/ux_device_class_dfu_control_request.c **** 
 1358              		.loc 1 845 17 view .LVU517
 845:./Middlewares/ST/usbx/common/usbx_device_classes/src/ux_device_class_dfu_control_request.c **** 
 1359              		.loc 1 845 35 is_stmt 0 view .LVU518
 1360 061c D4F89830 		ldr	r3, [r4, #152]
 845:./Middlewares/ST/usbx/common/usbx_device_classes/src/ux_device_class_dfu_control_request.c **** 
 1361              		.loc 1 845 77 view .LVU519
 1362 0620 1D70     		strb	r5, [r3]
 848:./Middlewares/ST/usbx/common/usbx_device_classes/src/ux_device_class_dfu_control_request.c **** 
 1363              		.loc 1 848 17 is_stmt 1 view .LVU520
 1364 0622 0122     		movs	r2, #1
 1365 0624 1146     		mov	r1, r2
 1366 0626 5046     		mov	r0, r10
 1367              	.LVL128:
 848:./Middlewares/ST/usbx/common/usbx_device_classes/src/ux_device_class_dfu_control_request.c **** 
 1368              		.loc 1 848 17 is_stmt 0 view .LVU521
 1369 0628 FFF7FEFF 		bl	_ux_device_stack_transfer_request
 1370              	.LVL129:
 850:./Middlewares/ST/usbx/common/usbx_device_classes/src/ux_device_class_dfu_control_request.c **** 
 1371              		.loc 1 850 17 is_stmt 1 view .LVU522
 1372              		.loc 1 872 11 is_stmt 0 view .LVU523
 1373 062c 0025     		movs	r5, #0
 850:./Middlewares/ST/usbx/common/usbx_device_classes/src/ux_device_class_dfu_control_request.c **** 
 1374              		.loc 1 850 17 view .LVU524
 1375 062e 0BE0     		b	.L1
 1376              	.LVL130:
 1377              	.L53:
 855:./Middlewares/ST/usbx/common/usbx_device_classes/src/ux_device_class_dfu_control_request.c **** 
 1378              		.loc 1 855 17 is_stmt 1 view .LVU525
 1379 0630 04F15C00 		add	r0, r4, #92
 1380              	.LVL131:
 855:./Middlewares/ST/usbx/common/usbx_device_classes/src/ux_device_class_dfu_control_request.c **** 
 1381              		.loc 1 855 17 is_stmt 0 view .LVU526
 1382 0634 FFF7FEFF 		bl	_ux_device_stack_endpoint_stall
 1383              	.LVL132:
 858:./Middlewares/ST/usbx/common/usbx_device_classes/src/ux_device_class_dfu_control_request.c **** 
 1384              		.loc 1 858 17 is_stmt 1 view .LVU527
 858:./Middlewares/ST/usbx/common/usbx_device_classes/src/ux_device_class_dfu_control_request.c **** 
 1385              		.loc 1 858 34 is_stmt 0 view .LVU528
 1386 0638 064B     		ldr	r3, .L75
 1387 063a 1B68     		ldr	r3, [r3]
 858:./Middlewares/ST/usbx/common/usbx_device_classes/src/ux_device_class_dfu_control_request.c **** 
 1388              		.loc 1 858 78 view .LVU529
 1389 063c 0A22     		movs	r2, #10
 1390 063e C3F8B821 		str	r2, [r3, #440]
 860:./Middlewares/ST/usbx/common/usbx_device_classes/src/ux_device_class_dfu_control_request.c ****             }
 1391              		.loc 1 860 17 is_stmt 1 view .LVU530
 1392              		.loc 1 872 11 is_stmt 0 view .LVU531
 1393 0642 0025     		movs	r5, #0
 860:./Middlewares/ST/usbx/common/usbx_device_classes/src/ux_device_class_dfu_control_request.c ****             }
 1394              		.loc 1 860 17 view .LVU532
 1395 0644 00E0     		b	.L1
ARM GAS  C:\Users\Dennis\AppData\Local\Temp\ccmm9cQc.s 			page 49


 1396              	.LVL133:
 1397              	.L60:
 150:./Middlewares/ST/usbx/common/usbx_device_classes/src/ux_device_class_dfu_control_request.c ****     {
 1398              		.loc 1 150 5 view .LVU533
 1399 0646 FF25     		movs	r5, #255
 1400              	.LVL134:
 1401              	.L1:
 873:./Middlewares/ST/usbx/common/usbx_device_classes/src/ux_device_class_dfu_control_request.c **** }
 1402              		.loc 1 873 1 view .LVU534
 1403 0648 2846     		mov	r0, r5
 1404 064a 04B0     		add	sp, sp, #16
 1405              	.LCFI2:
 1406              		.cfi_remember_state
 1407              		.cfi_def_cfa_offset 32
 1408              		@ sp needed
 1409 064c BDE8F087 		pop	{r4, r5, r6, r7, r8, r9, r10, pc}
 1410              	.LVL135:
 1411              	.L61:
 1412              	.LCFI3:
 1413              		.cfi_restore_state
 872:./Middlewares/ST/usbx/common/usbx_device_classes/src/ux_device_class_dfu_control_request.c **** }
 1414              		.loc 1 872 11 view .LVU535
 1415 0650 0546     		mov	r5, r0
 1416 0652 F9E7     		b	.L1
 1417              	.L76:
 1418              		.align	2
 1419              	.L75:
 1420 0654 00000000 		.word	_ux_system_slave
 1421              		.cfi_endproc
 1422              	.LFE11:
 1424              		.text
 1425              	.Letext0:
 1426              		.file 2 "./Middlewares/ST/threadx/ports/cortex_m4/gnu/inc/tx_port.h"
 1427              		.file 3 "./Middlewares/ST/threadx/common/inc/tx_api.h"
 1428              		.file 4 "./Middlewares/ST/usbx/common/core/inc/ux_api.h"
 1429              		.file 5 "./Middlewares/ST/usbx/common/usbx_device_classes/inc/ux_device_class_dfu.h"
 1430              		.file 6 "./Middlewares/ST/usbx/common/core/inc/ux_system.h"
 1431              		.file 7 "./Middlewares/ST/usbx/common/core/inc/ux_utility.h"
 1432              		.file 8 "./Middlewares/ST/usbx/common/core/inc/ux_device_stack.h"
ARM GAS  C:\Users\Dennis\AppData\Local\Temp\ccmm9cQc.s 			page 50


DEFINED SYMBOLS
                            *ABS*:00000000 ux_device_class_dfu_control_request.c
C:\Users\Dennis\AppData\Local\Temp\ccmm9cQc.s:20     .text._ux_device_class_dfu_control_request:00000000 $t
C:\Users\Dennis\AppData\Local\Temp\ccmm9cQc.s:26     .text._ux_device_class_dfu_control_request:00000000 _ux_device_class_dfu_control_request
C:\Users\Dennis\AppData\Local\Temp\ccmm9cQc.s:107    .text._ux_device_class_dfu_control_request:0000003c $d
C:\Users\Dennis\AppData\Local\Temp\ccmm9cQc.s:118    .text._ux_device_class_dfu_control_request:00000052 $t
C:\Users\Dennis\AppData\Local\Temp\ccmm9cQc.s:342    .text._ux_device_class_dfu_control_request:0000015c $d
C:\Users\Dennis\AppData\Local\Temp\ccmm9cQc.s:348    .text._ux_device_class_dfu_control_request:00000162 $t
C:\Users\Dennis\AppData\Local\Temp\ccmm9cQc.s:638    .text._ux_device_class_dfu_control_request:000002bc $d
C:\Users\Dennis\AppData\Local\Temp\ccmm9cQc.s:643    .text._ux_device_class_dfu_control_request:000002c0 $t
C:\Users\Dennis\AppData\Local\Temp\ccmm9cQc.s:777    .text._ux_device_class_dfu_control_request:00000368 $d
C:\Users\Dennis\AppData\Local\Temp\ccmm9cQc.s:783    .text._ux_device_class_dfu_control_request:0000036e $t
C:\Users\Dennis\AppData\Local\Temp\ccmm9cQc.s:1219   .text._ux_device_class_dfu_control_request:00000578 $d
C:\Users\Dennis\AppData\Local\Temp\ccmm9cQc.s:1304   .text._ux_device_class_dfu_control_request:000005d8 $d
C:\Users\Dennis\AppData\Local\Temp\ccmm9cQc.s:1309   .text._ux_device_class_dfu_control_request:000005dc $t
C:\Users\Dennis\AppData\Local\Temp\ccmm9cQc.s:1420   .text._ux_device_class_dfu_control_request:00000654 $d
C:\Users\Dennis\AppData\Local\Temp\ccmm9cQc.s:1224   .text._ux_device_class_dfu_control_request:0000057d $d
C:\Users\Dennis\AppData\Local\Temp\ccmm9cQc.s:1224   .text._ux_device_class_dfu_control_request:0000057e $t

UNDEFINED SYMBOLS
_ux_utility_short_get
_ux_device_stack_endpoint_stall
_ux_utility_event_flags_set
_ux_device_stack_transfer_request
_ux_system_slave
