ARM GAS  /tmp/ccp1d2wf.s 			page 1


   1              		.cpu cortex-m4
   2              		.arch armv7e-m
   3              		.fpu fpv4-sp-d16
   4              		.eabi_attribute 27, 1
   5              		.eabi_attribute 28, 1
   6              		.eabi_attribute 20, 1
   7              		.eabi_attribute 21, 1
   8              		.eabi_attribute 23, 3
   9              		.eabi_attribute 24, 1
  10              		.eabi_attribute 25, 1
  11              		.eabi_attribute 26, 1
  12              		.eabi_attribute 30, 1
  13              		.eabi_attribute 34, 1
  14              		.eabi_attribute 18, 4
  15              		.file	"ux_device_class_dfu_control_request.c"
  16              		.text
  17              	.Ltext0:
  18              		.cfi_sections	.debug_frame
  19              		.file 1 "./Middlewares/ST/usbx/common/usbx_device_classes/src/ux_device_class_dfu_control_request.
  20              		.section	.text._ux_device_class_dfu_control_request,"ax",%progbits
  21              		.align	1
  22              		.global	_ux_device_class_dfu_control_request
  23              		.syntax unified
  24              		.thumb
  25              		.thumb_func
  27              	_ux_device_class_dfu_control_request:
  28              	.LVL0:
  29              	.LFB11:
   1:./Middlewares/ST/usbx/common/usbx_device_classes/src/ux_device_class_dfu_control_request.c **** /**************************************************************************/
   2:./Middlewares/ST/usbx/common/usbx_device_classes/src/ux_device_class_dfu_control_request.c **** /*                                                                        */
   3:./Middlewares/ST/usbx/common/usbx_device_classes/src/ux_device_class_dfu_control_request.c **** /*       Copyright (c) Microsoft Corporation. All rights reserved.        */
   4:./Middlewares/ST/usbx/common/usbx_device_classes/src/ux_device_class_dfu_control_request.c **** /*                                                                        */
   5:./Middlewares/ST/usbx/common/usbx_device_classes/src/ux_device_class_dfu_control_request.c **** /*       This software is licensed under the Microsoft Software License   */
   6:./Middlewares/ST/usbx/common/usbx_device_classes/src/ux_device_class_dfu_control_request.c **** /*       Terms for Microsoft Azure RTOS. Full text of the license can be  */
   7:./Middlewares/ST/usbx/common/usbx_device_classes/src/ux_device_class_dfu_control_request.c **** /*       found in the LICENSE file at https://aka.ms/AzureRTOS_EULA       */
   8:./Middlewares/ST/usbx/common/usbx_device_classes/src/ux_device_class_dfu_control_request.c **** /*       and in the root directory of this software.                      */
   9:./Middlewares/ST/usbx/common/usbx_device_classes/src/ux_device_class_dfu_control_request.c **** /*                                                                        */
  10:./Middlewares/ST/usbx/common/usbx_device_classes/src/ux_device_class_dfu_control_request.c **** /**************************************************************************/
  11:./Middlewares/ST/usbx/common/usbx_device_classes/src/ux_device_class_dfu_control_request.c **** 
  12:./Middlewares/ST/usbx/common/usbx_device_classes/src/ux_device_class_dfu_control_request.c **** /**************************************************************************/
  13:./Middlewares/ST/usbx/common/usbx_device_classes/src/ux_device_class_dfu_control_request.c **** /**************************************************************************/
  14:./Middlewares/ST/usbx/common/usbx_device_classes/src/ux_device_class_dfu_control_request.c **** /**                                                                       */
  15:./Middlewares/ST/usbx/common/usbx_device_classes/src/ux_device_class_dfu_control_request.c **** /** USBX Component                                                        */
  16:./Middlewares/ST/usbx/common/usbx_device_classes/src/ux_device_class_dfu_control_request.c **** /**                                                                       */
  17:./Middlewares/ST/usbx/common/usbx_device_classes/src/ux_device_class_dfu_control_request.c **** /**   Device DFU Class                                                    */
  18:./Middlewares/ST/usbx/common/usbx_device_classes/src/ux_device_class_dfu_control_request.c **** /**                                                                       */
  19:./Middlewares/ST/usbx/common/usbx_device_classes/src/ux_device_class_dfu_control_request.c **** /**************************************************************************/
  20:./Middlewares/ST/usbx/common/usbx_device_classes/src/ux_device_class_dfu_control_request.c **** /**************************************************************************/
  21:./Middlewares/ST/usbx/common/usbx_device_classes/src/ux_device_class_dfu_control_request.c **** 
  22:./Middlewares/ST/usbx/common/usbx_device_classes/src/ux_device_class_dfu_control_request.c **** #define UX_SOURCE_CODE
  23:./Middlewares/ST/usbx/common/usbx_device_classes/src/ux_device_class_dfu_control_request.c **** 
  24:./Middlewares/ST/usbx/common/usbx_device_classes/src/ux_device_class_dfu_control_request.c **** 
  25:./Middlewares/ST/usbx/common/usbx_device_classes/src/ux_device_class_dfu_control_request.c **** /* Include necessary system files.  */
  26:./Middlewares/ST/usbx/common/usbx_device_classes/src/ux_device_class_dfu_control_request.c **** 
  27:./Middlewares/ST/usbx/common/usbx_device_classes/src/ux_device_class_dfu_control_request.c **** #include "ux_api.h"
  28:./Middlewares/ST/usbx/common/usbx_device_classes/src/ux_device_class_dfu_control_request.c **** #include "ux_device_class_dfu.h"
  29:./Middlewares/ST/usbx/common/usbx_device_classes/src/ux_device_class_dfu_control_request.c **** #include "ux_device_stack.h"
ARM GAS  /tmp/ccp1d2wf.s 			page 2


  30:./Middlewares/ST/usbx/common/usbx_device_classes/src/ux_device_class_dfu_control_request.c **** 
  31:./Middlewares/ST/usbx/common/usbx_device_classes/src/ux_device_class_dfu_control_request.c **** 
  32:./Middlewares/ST/usbx/common/usbx_device_classes/src/ux_device_class_dfu_control_request.c **** #if UX_DEVICE_CLASS_DFU_STATUS_MODE == 1
  33:./Middlewares/ST/usbx/common/usbx_device_classes/src/ux_device_class_dfu_control_request.c **** static inline VOID _ux_device_class_dfu_status_get(UX_SLAVE_CLASS_DFU *,
  34:./Middlewares/ST/usbx/common/usbx_device_classes/src/ux_device_class_dfu_control_request.c ****     UX_SLAVE_TRANSFER *, UCHAR, UCHAR, UCHAR, UCHAR);
  35:./Middlewares/ST/usbx/common/usbx_device_classes/src/ux_device_class_dfu_control_request.c **** #endif
  36:./Middlewares/ST/usbx/common/usbx_device_classes/src/ux_device_class_dfu_control_request.c **** 
  37:./Middlewares/ST/usbx/common/usbx_device_classes/src/ux_device_class_dfu_control_request.c **** 
  38:./Middlewares/ST/usbx/common/usbx_device_classes/src/ux_device_class_dfu_control_request.c **** /**************************************************************************/
  39:./Middlewares/ST/usbx/common/usbx_device_classes/src/ux_device_class_dfu_control_request.c **** /*                                                                        */
  40:./Middlewares/ST/usbx/common/usbx_device_classes/src/ux_device_class_dfu_control_request.c **** /*  FUNCTION                                               RELEASE        */
  41:./Middlewares/ST/usbx/common/usbx_device_classes/src/ux_device_class_dfu_control_request.c **** /*                                                                        */
  42:./Middlewares/ST/usbx/common/usbx_device_classes/src/ux_device_class_dfu_control_request.c **** /*    _ux_device_class_dfu_control_request                PORTABLE C      */
  43:./Middlewares/ST/usbx/common/usbx_device_classes/src/ux_device_class_dfu_control_request.c **** /*                                                           6.1.10       */
  44:./Middlewares/ST/usbx/common/usbx_device_classes/src/ux_device_class_dfu_control_request.c **** /*  AUTHOR                                                                */
  45:./Middlewares/ST/usbx/common/usbx_device_classes/src/ux_device_class_dfu_control_request.c **** /*                                                                        */
  46:./Middlewares/ST/usbx/common/usbx_device_classes/src/ux_device_class_dfu_control_request.c **** /*    Chaoqiong Xiao, Microsoft Corporation                               */
  47:./Middlewares/ST/usbx/common/usbx_device_classes/src/ux_device_class_dfu_control_request.c **** /*                                                                        */
  48:./Middlewares/ST/usbx/common/usbx_device_classes/src/ux_device_class_dfu_control_request.c **** /*  DESCRIPTION                                                           */
  49:./Middlewares/ST/usbx/common/usbx_device_classes/src/ux_device_class_dfu_control_request.c **** /*                                                                        */
  50:./Middlewares/ST/usbx/common/usbx_device_classes/src/ux_device_class_dfu_control_request.c **** /*    This function manages the based sent by the host on the control     */
  51:./Middlewares/ST/usbx/common/usbx_device_classes/src/ux_device_class_dfu_control_request.c **** /*    endpoints with a CLASS or VENDOR SPECIFIC type.                     */
  52:./Middlewares/ST/usbx/common/usbx_device_classes/src/ux_device_class_dfu_control_request.c **** /*                                                                        */
  53:./Middlewares/ST/usbx/common/usbx_device_classes/src/ux_device_class_dfu_control_request.c **** /*  INPUT                                                                 */
  54:./Middlewares/ST/usbx/common/usbx_device_classes/src/ux_device_class_dfu_control_request.c **** /*                                                                        */
  55:./Middlewares/ST/usbx/common/usbx_device_classes/src/ux_device_class_dfu_control_request.c **** /*    dfu                                       Pointer to dfu class      */
  56:./Middlewares/ST/usbx/common/usbx_device_classes/src/ux_device_class_dfu_control_request.c **** /*                                                                        */
  57:./Middlewares/ST/usbx/common/usbx_device_classes/src/ux_device_class_dfu_control_request.c **** /*  OUTPUT                                                                */
  58:./Middlewares/ST/usbx/common/usbx_device_classes/src/ux_device_class_dfu_control_request.c **** /*                                                                        */
  59:./Middlewares/ST/usbx/common/usbx_device_classes/src/ux_device_class_dfu_control_request.c **** /*    None                                                                */
  60:./Middlewares/ST/usbx/common/usbx_device_classes/src/ux_device_class_dfu_control_request.c **** /*                                                                        */
  61:./Middlewares/ST/usbx/common/usbx_device_classes/src/ux_device_class_dfu_control_request.c **** /*  CALLS                                                                 */
  62:./Middlewares/ST/usbx/common/usbx_device_classes/src/ux_device_class_dfu_control_request.c **** /*                                                                        */
  63:./Middlewares/ST/usbx/common/usbx_device_classes/src/ux_device_class_dfu_control_request.c **** /*    _ux_device_stack_endpoint_stall       Endpoint stall                */
  64:./Middlewares/ST/usbx/common/usbx_device_classes/src/ux_device_class_dfu_control_request.c **** /*    _ux_device_stack_transfer_request     Transfer request              */
  65:./Middlewares/ST/usbx/common/usbx_device_classes/src/ux_device_class_dfu_control_request.c **** /*                                                                        */
  66:./Middlewares/ST/usbx/common/usbx_device_classes/src/ux_device_class_dfu_control_request.c **** /*  CALLED BY                                                             */
  67:./Middlewares/ST/usbx/common/usbx_device_classes/src/ux_device_class_dfu_control_request.c **** /*                                                                        */
  68:./Middlewares/ST/usbx/common/usbx_device_classes/src/ux_device_class_dfu_control_request.c **** /*    DFU Class                                                           */
  69:./Middlewares/ST/usbx/common/usbx_device_classes/src/ux_device_class_dfu_control_request.c **** /*                                                                        */
  70:./Middlewares/ST/usbx/common/usbx_device_classes/src/ux_device_class_dfu_control_request.c **** /*  RELEASE HISTORY                                                       */
  71:./Middlewares/ST/usbx/common/usbx_device_classes/src/ux_device_class_dfu_control_request.c **** /*                                                                        */
  72:./Middlewares/ST/usbx/common/usbx_device_classes/src/ux_device_class_dfu_control_request.c **** /*    DATE              NAME                      DESCRIPTION             */
  73:./Middlewares/ST/usbx/common/usbx_device_classes/src/ux_device_class_dfu_control_request.c **** /*                                                                        */
  74:./Middlewares/ST/usbx/common/usbx_device_classes/src/ux_device_class_dfu_control_request.c **** /*  05-19-2020     Chaoqiong Xiao           Initial Version 6.0           */
  75:./Middlewares/ST/usbx/common/usbx_device_classes/src/ux_device_class_dfu_control_request.c **** /*  09-30-2020     Chaoqiong Xiao           Modified comment(s),          */
  76:./Middlewares/ST/usbx/common/usbx_device_classes/src/ux_device_class_dfu_control_request.c **** /*                                            used UX prefix to refer to  */
  77:./Middlewares/ST/usbx/common/usbx_device_classes/src/ux_device_class_dfu_control_request.c **** /*                                            TX symbols instead of using */
  78:./Middlewares/ST/usbx/common/usbx_device_classes/src/ux_device_class_dfu_control_request.c **** /*                                            them directly,              */
  79:./Middlewares/ST/usbx/common/usbx_device_classes/src/ux_device_class_dfu_control_request.c **** /*                                            resulting in version 6.1    */
  80:./Middlewares/ST/usbx/common/usbx_device_classes/src/ux_device_class_dfu_control_request.c **** /*  04-02-2021     Chaoqiong Xiao           Modified comment(s),          */
  81:./Middlewares/ST/usbx/common/usbx_device_classes/src/ux_device_class_dfu_control_request.c **** /*                                            added DFU_UPLOAD support,   */
  82:./Middlewares/ST/usbx/common/usbx_device_classes/src/ux_device_class_dfu_control_request.c **** /*                                            removed block count (it's   */
  83:./Middlewares/ST/usbx/common/usbx_device_classes/src/ux_device_class_dfu_control_request.c **** /*                                            from host request wValue),  */
  84:./Middlewares/ST/usbx/common/usbx_device_classes/src/ux_device_class_dfu_control_request.c **** /*                                            resulting in version 6.1.6  */
  85:./Middlewares/ST/usbx/common/usbx_device_classes/src/ux_device_class_dfu_control_request.c **** /*  10-15-2021     Chaoqiong Xiao           Modified comment(s),          */
  86:./Middlewares/ST/usbx/common/usbx_device_classes/src/ux_device_class_dfu_control_request.c **** /*                                            fixed compile warning,      */
ARM GAS  /tmp/ccp1d2wf.s 			page 3


  87:./Middlewares/ST/usbx/common/usbx_device_classes/src/ux_device_class_dfu_control_request.c **** /*                                            resulting in version 6.1.9  */
  88:./Middlewares/ST/usbx/common/usbx_device_classes/src/ux_device_class_dfu_control_request.c **** /*  01-31-2022     Chaoqiong Xiao           Modified comment(s),          */
  89:./Middlewares/ST/usbx/common/usbx_device_classes/src/ux_device_class_dfu_control_request.c **** /*                                            added UPLOAD length check,  */
  90:./Middlewares/ST/usbx/common/usbx_device_classes/src/ux_device_class_dfu_control_request.c **** /*                                            added standalone support,   */
  91:./Middlewares/ST/usbx/common/usbx_device_classes/src/ux_device_class_dfu_control_request.c **** /*                                            resulting in version 6.1.10 */
  92:./Middlewares/ST/usbx/common/usbx_device_classes/src/ux_device_class_dfu_control_request.c **** /*                                                                        */
  93:./Middlewares/ST/usbx/common/usbx_device_classes/src/ux_device_class_dfu_control_request.c **** /**************************************************************************/
  94:./Middlewares/ST/usbx/common/usbx_device_classes/src/ux_device_class_dfu_control_request.c **** UINT  _ux_device_class_dfu_control_request(UX_SLAVE_CLASS_COMMAND *command)
  95:./Middlewares/ST/usbx/common/usbx_device_classes/src/ux_device_class_dfu_control_request.c **** {
  30              		.loc 1 95 1 view -0
  31              		.cfi_startproc
  32              		@ args = 0, pretend = 0, frame = 8
  33              		@ frame_needed = 0, uses_anonymous_args = 0
  34              		.loc 1 95 1 is_stmt 0 view .LVU1
  35 0000 2DE9F047 		push	{r4, r5, r6, r7, r8, r9, r10, lr}
  36              	.LCFI0:
  37              		.cfi_def_cfa_offset 32
  38              		.cfi_offset 4, -32
  39              		.cfi_offset 5, -28
  40              		.cfi_offset 6, -24
  41              		.cfi_offset 7, -20
  42              		.cfi_offset 8, -16
  43              		.cfi_offset 9, -12
  44              		.cfi_offset 10, -8
  45              		.cfi_offset 14, -4
  46 0004 84B0     		sub	sp, sp, #16
  47              	.LCFI1:
  48              		.cfi_def_cfa_offset 48
  96:./Middlewares/ST/usbx/common/usbx_device_classes/src/ux_device_class_dfu_control_request.c **** 
  97:./Middlewares/ST/usbx/common/usbx_device_classes/src/ux_device_class_dfu_control_request.c **** UX_SLAVE_TRANSFER       *transfer_request;
  49              		.loc 1 97 1 is_stmt 1 view .LVU2
  98:./Middlewares/ST/usbx/common/usbx_device_classes/src/ux_device_class_dfu_control_request.c **** UX_SLAVE_DEVICE         *device;
  50              		.loc 1 98 1 view .LVU3
  99:./Middlewares/ST/usbx/common/usbx_device_classes/src/ux_device_class_dfu_control_request.c **** UX_SLAVE_CLASS          *class;
  51              		.loc 1 99 1 view .LVU4
 100:./Middlewares/ST/usbx/common/usbx_device_classes/src/ux_device_class_dfu_control_request.c **** UX_SLAVE_CLASS_DFU      *dfu;
  52              		.loc 1 100 1 view .LVU5
 101:./Middlewares/ST/usbx/common/usbx_device_classes/src/ux_device_class_dfu_control_request.c **** 
 102:./Middlewares/ST/usbx/common/usbx_device_classes/src/ux_device_class_dfu_control_request.c **** ULONG                   request;
  53              		.loc 1 102 1 view .LVU6
 103:./Middlewares/ST/usbx/common/usbx_device_classes/src/ux_device_class_dfu_control_request.c **** ULONG                   request_value;
  54              		.loc 1 103 1 view .LVU7
 104:./Middlewares/ST/usbx/common/usbx_device_classes/src/ux_device_class_dfu_control_request.c **** ULONG                   request_length;
  55              		.loc 1 104 1 view .LVU8
 105:./Middlewares/ST/usbx/common/usbx_device_classes/src/ux_device_class_dfu_control_request.c **** ULONG                   actual_length;
  56              		.loc 1 105 1 view .LVU9
 106:./Middlewares/ST/usbx/common/usbx_device_classes/src/ux_device_class_dfu_control_request.c **** #if defined(UX_DEVICE_CLASS_DFU_CUSTOM_REQUEST_ENABLE) || (UX_DEVICE_CLASS_DFU_STATUS_MODE != 1)
 107:./Middlewares/ST/usbx/common/usbx_device_classes/src/ux_device_class_dfu_control_request.c **** ULONG                   media_status;
  57              		.loc 1 107 1 view .LVU10
 108:./Middlewares/ST/usbx/common/usbx_device_classes/src/ux_device_class_dfu_control_request.c **** #endif
 109:./Middlewares/ST/usbx/common/usbx_device_classes/src/ux_device_class_dfu_control_request.c **** 
 110:./Middlewares/ST/usbx/common/usbx_device_classes/src/ux_device_class_dfu_control_request.c **** 
 111:./Middlewares/ST/usbx/common/usbx_device_classes/src/ux_device_class_dfu_control_request.c ****     /* Get the pointer to the device.  */
 112:./Middlewares/ST/usbx/common/usbx_device_classes/src/ux_device_class_dfu_control_request.c ****     device =  &_ux_system_slave -> ux_system_slave_device;
  58              		.loc 1 112 5 view .LVU11
  59              		.loc 1 112 33 is_stmt 0 view .LVU12
  60 0006 AE4D     		ldr	r5, .L67
ARM GAS  /tmp/ccp1d2wf.s 			page 4


  61 0008 2C68     		ldr	r4, [r5]
  62              	.LVL1:
 113:./Middlewares/ST/usbx/common/usbx_device_classes/src/ux_device_class_dfu_control_request.c **** 
 114:./Middlewares/ST/usbx/common/usbx_device_classes/src/ux_device_class_dfu_control_request.c ****      /* Get the class container.  */
 115:./Middlewares/ST/usbx/common/usbx_device_classes/src/ux_device_class_dfu_control_request.c ****     class =  command -> ux_slave_class_command_class_ptr;
  63              		.loc 1 115 5 is_stmt 1 view .LVU13
  64              		.loc 1 115 11 is_stmt 0 view .LVU14
  65 000a 036A     		ldr	r3, [r0, #32]
  66              	.LVL2:
 116:./Middlewares/ST/usbx/common/usbx_device_classes/src/ux_device_class_dfu_control_request.c **** 
 117:./Middlewares/ST/usbx/common/usbx_device_classes/src/ux_device_class_dfu_control_request.c ****     /* Get the storage instance from this class container.  */
 118:./Middlewares/ST/usbx/common/usbx_device_classes/src/ux_device_class_dfu_control_request.c ****     dfu =  (UX_SLAVE_CLASS_DFU *) class -> ux_slave_class_instance;
  67              		.loc 1 118 5 is_stmt 1 view .LVU15
  68              		.loc 1 118 9 is_stmt 0 view .LVU16
  69 000c D3F84890 		ldr	r9, [r3, #72]
  70              	.LVL3:
 119:./Middlewares/ST/usbx/common/usbx_device_classes/src/ux_device_class_dfu_control_request.c **** 
 120:./Middlewares/ST/usbx/common/usbx_device_classes/src/ux_device_class_dfu_control_request.c ****     /* Get the pointer to the transfer request associated with the control endpoint.  */
 121:./Middlewares/ST/usbx/common/usbx_device_classes/src/ux_device_class_dfu_control_request.c ****     transfer_request =  &device -> ux_slave_device_control_endpoint.ux_slave_endpoint_transfer_requ
  71              		.loc 1 121 5 is_stmt 1 view .LVU17
  72              		.loc 1 121 22 is_stmt 0 view .LVU18
  73 0010 04F18C0A 		add	r10, r4, #140
  74              	.LVL4:
 122:./Middlewares/ST/usbx/common/usbx_device_classes/src/ux_device_class_dfu_control_request.c **** 
 123:./Middlewares/ST/usbx/common/usbx_device_classes/src/ux_device_class_dfu_control_request.c **** #ifdef UX_DEVICE_CLASS_DFU_CUSTOM_REQUEST_ENABLE
 124:./Middlewares/ST/usbx/common/usbx_device_classes/src/ux_device_class_dfu_control_request.c ****     if (dfu -> ux_device_class_dfu_custom_request)
 125:./Middlewares/ST/usbx/common/usbx_device_classes/src/ux_device_class_dfu_control_request.c ****     {
 126:./Middlewares/ST/usbx/common/usbx_device_classes/src/ux_device_class_dfu_control_request.c **** 
 127:./Middlewares/ST/usbx/common/usbx_device_classes/src/ux_device_class_dfu_control_request.c ****         /* The status simply tells us if the registered callback handled the
 128:./Middlewares/ST/usbx/common/usbx_device_classes/src/ux_device_class_dfu_control_request.c ****             request - if there was an issue processing the request, it would've
 129:./Middlewares/ST/usbx/common/usbx_device_classes/src/ux_device_class_dfu_control_request.c ****             stalled the control endpoint, notifying the host (and not us).  */
 130:./Middlewares/ST/usbx/common/usbx_device_classes/src/ux_device_class_dfu_control_request.c ****         media_status = dfu -> ux_device_class_dfu_custom_request(dfu, transfer_request);
 131:./Middlewares/ST/usbx/common/usbx_device_classes/src/ux_device_class_dfu_control_request.c **** 
 132:./Middlewares/ST/usbx/common/usbx_device_classes/src/ux_device_class_dfu_control_request.c ****         /* Custom request handled.  */
 133:./Middlewares/ST/usbx/common/usbx_device_classes/src/ux_device_class_dfu_control_request.c ****         if (media_status == UX_SUCCESS)
 134:./Middlewares/ST/usbx/common/usbx_device_classes/src/ux_device_class_dfu_control_request.c ****             return(media_status);
 135:./Middlewares/ST/usbx/common/usbx_device_classes/src/ux_device_class_dfu_control_request.c **** 
 136:./Middlewares/ST/usbx/common/usbx_device_classes/src/ux_device_class_dfu_control_request.c ****         /* Try to handle with standard handler.  */
 137:./Middlewares/ST/usbx/common/usbx_device_classes/src/ux_device_class_dfu_control_request.c ****     }
 138:./Middlewares/ST/usbx/common/usbx_device_classes/src/ux_device_class_dfu_control_request.c **** #endif
 139:./Middlewares/ST/usbx/common/usbx_device_classes/src/ux_device_class_dfu_control_request.c **** 
 140:./Middlewares/ST/usbx/common/usbx_device_classes/src/ux_device_class_dfu_control_request.c ****     /* Extract all necessary fields of the request.  */
 141:./Middlewares/ST/usbx/common/usbx_device_classes/src/ux_device_class_dfu_control_request.c ****     request =  *(transfer_request -> ux_slave_transfer_request_setup + UX_SETUP_REQUEST);
  75              		.loc 1 141 5 is_stmt 1 view .LVU19
  76              		.loc 1 141 16 is_stmt 0 view .LVU20
  77 0014 94F8E160 		ldrb	r6, [r4, #225]	@ zero_extendqisi2
  78              	.LVL5:
 142:./Middlewares/ST/usbx/common/usbx_device_classes/src/ux_device_class_dfu_control_request.c **** 
 143:./Middlewares/ST/usbx/common/usbx_device_classes/src/ux_device_class_dfu_control_request.c ****     /* Pickup the request wValue.  */
 144:./Middlewares/ST/usbx/common/usbx_device_classes/src/ux_device_class_dfu_control_request.c ****     request_value =    _ux_utility_short_get(transfer_request -> ux_slave_transfer_request_setup + 
  79              		.loc 1 144 5 is_stmt 1 view .LVU21
  80              		.loc 1 144 24 is_stmt 0 view .LVU22
  81 0018 04F1E200 		add	r0, r4, #226
  82              	.LVL6:
  83              		.loc 1 144 24 view .LVU23
  84 001c FFF7FEFF 		bl	_ux_utility_short_get
  85              	.LVL7:
ARM GAS  /tmp/ccp1d2wf.s 			page 5


  86              		.loc 1 144 24 view .LVU24
  87 0020 8046     		mov	r8, r0
  88              	.LVL8:
 145:./Middlewares/ST/usbx/common/usbx_device_classes/src/ux_device_class_dfu_control_request.c **** 
 146:./Middlewares/ST/usbx/common/usbx_device_classes/src/ux_device_class_dfu_control_request.c ****     /* Pickup the request wLength.  */
 147:./Middlewares/ST/usbx/common/usbx_device_classes/src/ux_device_class_dfu_control_request.c ****     request_length =   _ux_utility_short_get(transfer_request -> ux_slave_transfer_request_setup + 
  89              		.loc 1 147 5 is_stmt 1 view .LVU25
  90              		.loc 1 147 24 is_stmt 0 view .LVU26
  91 0022 04F1E600 		add	r0, r4, #230
  92              	.LVL9:
  93              		.loc 1 147 24 view .LVU27
  94 0026 FFF7FEFF 		bl	_ux_utility_short_get
  95              	.LVL10:
  96 002a 0746     		mov	r7, r0
  97              	.LVL11:
 148:./Middlewares/ST/usbx/common/usbx_device_classes/src/ux_device_class_dfu_control_request.c **** 
 149:./Middlewares/ST/usbx/common/usbx_device_classes/src/ux_device_class_dfu_control_request.c ****     /* What state are we in ? */
 150:./Middlewares/ST/usbx/common/usbx_device_classes/src/ux_device_class_dfu_control_request.c ****     switch (_ux_system_slave -> ux_system_slave_device_dfu_state_machine)
  98              		.loc 1 150 5 is_stmt 1 view .LVU28
  99              		.loc 1 150 30 is_stmt 0 view .LVU29
 100 002c 2B68     		ldr	r3, [r5]
 101 002e D3F8B851 		ldr	r5, [r3, #440]
 102              		.loc 1 150 5 view .LVU30
 103 0032 0A2D     		cmp	r5, #10
 104 0034 00F20783 		bhi	.L60
 105 0038 DFE815F0 		tbh	[pc, r5, lsl #1]
 106              	.L4:
 107 003c 0B00     		.2byte	(.L11-.L4)/2
 108 003e 5700     		.2byte	(.L10-.L4)/2
 109 0040 8B00     		.2byte	(.L9-.L4)/2
 110 0042 3201     		.2byte	(.L8-.L4)/2
 111 0044 0503     		.2byte	(.L60-.L4)/2
 112 0046 9201     		.2byte	(.L7-.L4)/2
 113 0048 F901     		.2byte	(.L6-.L4)/2
 114 004a 0503     		.2byte	(.L60-.L4)/2
 115 004c 0503     		.2byte	(.L60-.L4)/2
 116 004e 9902     		.2byte	(.L5-.L4)/2
 117 0050 5C02     		.2byte	(.L3-.L4)/2
 118              		.p2align 1
 119              	.L11:
 151:./Middlewares/ST/usbx/common/usbx_device_classes/src/ux_device_class_dfu_control_request.c ****     {
 152:./Middlewares/ST/usbx/common/usbx_device_classes/src/ux_device_class_dfu_control_request.c **** 
 153:./Middlewares/ST/usbx/common/usbx_device_classes/src/ux_device_class_dfu_control_request.c ****         case UX_SYSTEM_DFU_STATE_APP_IDLE         :
 154:./Middlewares/ST/usbx/common/usbx_device_classes/src/ux_device_class_dfu_control_request.c **** 
 155:./Middlewares/ST/usbx/common/usbx_device_classes/src/ux_device_class_dfu_control_request.c **** 
 156:./Middlewares/ST/usbx/common/usbx_device_classes/src/ux_device_class_dfu_control_request.c ****             /* Here we process only the request we can accept in the APP IDLE state.  */
 157:./Middlewares/ST/usbx/common/usbx_device_classes/src/ux_device_class_dfu_control_request.c ****             switch (request)
 120              		.loc 1 157 13 is_stmt 1 view .LVU31
 121 0052 032E     		cmp	r6, #3
 122 0054 1BD0     		beq	.L12
 123 0056 052E     		cmp	r6, #5
 124 0058 39D0     		beq	.L13
 125 005a 002E     		cmp	r6, #0
 126 005c 40D1     		bne	.L14
 158:./Middlewares/ST/usbx/common/usbx_device_classes/src/ux_device_class_dfu_control_request.c ****             {
 159:./Middlewares/ST/usbx/common/usbx_device_classes/src/ux_device_class_dfu_control_request.c **** 
 160:./Middlewares/ST/usbx/common/usbx_device_classes/src/ux_device_class_dfu_control_request.c ****                 case UX_SLAVE_CLASS_DFU_COMMAND_DETACH :
ARM GAS  /tmp/ccp1d2wf.s 			page 6


 161:./Middlewares/ST/usbx/common/usbx_device_classes/src/ux_device_class_dfu_control_request.c **** 
 162:./Middlewares/ST/usbx/common/usbx_device_classes/src/ux_device_class_dfu_control_request.c ****                     /* The host is asking for a Detach and switch to the DFU mode. Either we force 
 163:./Middlewares/ST/usbx/common/usbx_device_classes/src/ux_device_class_dfu_control_request.c ****                        we wait for a specified timer. If there is no reset while this timer is runn
 164:./Middlewares/ST/usbx/common/usbx_device_classes/src/ux_device_class_dfu_control_request.c ****                        the DFU Detach.*/
 165:./Middlewares/ST/usbx/common/usbx_device_classes/src/ux_device_class_dfu_control_request.c ****                     if (_ux_system_slave -> ux_system_slave_device_dfu_capabilities &  UX_SLAVE_CLA
 127              		.loc 1 165 21 view .LVU32
 128              		.loc 1 165 42 is_stmt 0 view .LVU33
 129 005e D3F8AC31 		ldr	r3, [r3, #428]
 130              		.loc 1 165 24 view .LVU34
 131 0062 13F0080F 		tst	r3, #8
 132 0066 0BD0     		beq	.L15
 166:./Middlewares/ST/usbx/common/usbx_device_classes/src/ux_device_class_dfu_control_request.c ****                     {
 167:./Middlewares/ST/usbx/common/usbx_device_classes/src/ux_device_class_dfu_control_request.c **** 
 168:./Middlewares/ST/usbx/common/usbx_device_classes/src/ux_device_class_dfu_control_request.c ****                         /* Wake up the DFU thread and send a detach request..  */
 169:./Middlewares/ST/usbx/common/usbx_device_classes/src/ux_device_class_dfu_control_request.c ****                         _ux_device_class_dfu_event_flags_set(dfu, UX_DEVICE_CLASS_DFU_THREAD_EVENT_
 133              		.loc 1 169 25 is_stmt 1 view .LVU35
 134              		.loc 1 169 25 view .LVU36
 135 0068 0022     		movs	r2, #0
 136 006a 0121     		movs	r1, #1
 137 006c 09F1D400 		add	r0, r9, #212
 138              	.LVL12:
 139              		.loc 1 169 25 is_stmt 0 view .LVU37
 140 0070 FFF7FEFF 		bl	_ux_utility_event_flags_set
 141              	.LVL13:
 142              		.loc 1 169 25 is_stmt 1 discriminator 1 view .LVU38
 143              	.L16:
 170:./Middlewares/ST/usbx/common/usbx_device_classes/src/ux_device_class_dfu_control_request.c ****                     }
 171:./Middlewares/ST/usbx/common/usbx_device_classes/src/ux_device_class_dfu_control_request.c ****                     else
 172:./Middlewares/ST/usbx/common/usbx_device_classes/src/ux_device_class_dfu_control_request.c ****                     {
 173:./Middlewares/ST/usbx/common/usbx_device_classes/src/ux_device_class_dfu_control_request.c **** 
 174:./Middlewares/ST/usbx/common/usbx_device_classes/src/ux_device_class_dfu_control_request.c ****                         /* We expect the host to issue a reset.  Arm a timer in the DFU thread.  */
 175:./Middlewares/ST/usbx/common/usbx_device_classes/src/ux_device_class_dfu_control_request.c ****                         _ux_device_class_dfu_event_flags_set(dfu, UX_DEVICE_CLASS_DFU_THREAD_EVENT_
 144              		.loc 1 175 25 discriminator 1 view .LVU39
 176:./Middlewares/ST/usbx/common/usbx_device_classes/src/ux_device_class_dfu_control_request.c ****                     }
 177:./Middlewares/ST/usbx/common/usbx_device_classes/src/ux_device_class_dfu_control_request.c **** 
 178:./Middlewares/ST/usbx/common/usbx_device_classes/src/ux_device_class_dfu_control_request.c ****                     /* We can switch dfu state machine.  */
 179:./Middlewares/ST/usbx/common/usbx_device_classes/src/ux_device_class_dfu_control_request.c ****                     _ux_system_slave -> ux_system_slave_device_dfu_state_machine = UX_SYSTEM_DFU_ST
 145              		.loc 1 179 21 view .LVU40
 146              		.loc 1 179 38 is_stmt 0 view .LVU41
 147 0074 924B     		ldr	r3, .L67
 148 0076 1B68     		ldr	r3, [r3]
 149              		.loc 1 179 82 view .LVU42
 150 0078 0122     		movs	r2, #1
 151 007a C3F8B821 		str	r2, [r3, #440]
 180:./Middlewares/ST/usbx/common/usbx_device_classes/src/ux_device_class_dfu_control_request.c **** 
 181:./Middlewares/ST/usbx/common/usbx_device_classes/src/ux_device_class_dfu_control_request.c ****                     break;
 152              		.loc 1 181 21 is_stmt 1 view .LVU43
 153 007e E3E2     		b	.L1
 154              	.LVL14:
 155              	.L15:
 175:./Middlewares/ST/usbx/common/usbx_device_classes/src/ux_device_class_dfu_control_request.c ****                     }
 156              		.loc 1 175 25 view .LVU44
 175:./Middlewares/ST/usbx/common/usbx_device_classes/src/ux_device_class_dfu_control_request.c ****                     }
 157              		.loc 1 175 25 view .LVU45
 158 0080 0022     		movs	r2, #0
 159 0082 0221     		movs	r1, #2
 160 0084 09F1D400 		add	r0, r9, #212
ARM GAS  /tmp/ccp1d2wf.s 			page 7


 161              	.LVL15:
 175:./Middlewares/ST/usbx/common/usbx_device_classes/src/ux_device_class_dfu_control_request.c ****                     }
 162              		.loc 1 175 25 is_stmt 0 view .LVU46
 163 0088 FFF7FEFF 		bl	_ux_utility_event_flags_set
 164              	.LVL16:
 165 008c F2E7     		b	.L16
 166              	.LVL17:
 167              	.L12:
 182:./Middlewares/ST/usbx/common/usbx_device_classes/src/ux_device_class_dfu_control_request.c **** 
 183:./Middlewares/ST/usbx/common/usbx_device_classes/src/ux_device_class_dfu_control_request.c ****                 case UX_SLAVE_CLASS_DFU_COMMAND_GET_STATUS :
 184:./Middlewares/ST/usbx/common/usbx_device_classes/src/ux_device_class_dfu_control_request.c **** 
 185:./Middlewares/ST/usbx/common/usbx_device_classes/src/ux_device_class_dfu_control_request.c **** #if UX_DEVICE_CLASS_DFU_STATUS_MODE == 1
 186:./Middlewares/ST/usbx/common/usbx_device_classes/src/ux_device_class_dfu_control_request.c ****                     _ux_device_class_dfu_status_get(dfu, transfer_request, UX_FALSE, 0, 0, 0);
 187:./Middlewares/ST/usbx/common/usbx_device_classes/src/ux_device_class_dfu_control_request.c **** #else
 188:./Middlewares/ST/usbx/common/usbx_device_classes/src/ux_device_class_dfu_control_request.c ****                     /* Fill the status data payload.  First with status.  */
 189:./Middlewares/ST/usbx/common/usbx_device_classes/src/ux_device_class_dfu_control_request.c ****                     *transfer_request -> ux_slave_transfer_request_data_pointer = (UCHAR) dfu -> ux
 168              		.loc 1 189 21 is_stmt 1 view .LVU47
 169              		.loc 1 189 39 is_stmt 0 view .LVU48
 170 008e D4F89830 		ldr	r3, [r4, #152]
 171              		.loc 1 189 83 view .LVU49
 172 0092 99F80420 		ldrb	r2, [r9, #4]	@ zero_extendqisi2
 173              		.loc 1 189 81 view .LVU50
 174 0096 1A70     		strb	r2, [r3]
 190:./Middlewares/ST/usbx/common/usbx_device_classes/src/ux_device_class_dfu_control_request.c **** 
 191:./Middlewares/ST/usbx/common/usbx_device_classes/src/ux_device_class_dfu_control_request.c ****                     /* Poll time out value is set to 1ms.  */
 192:./Middlewares/ST/usbx/common/usbx_device_classes/src/ux_device_class_dfu_control_request.c ****                     *(transfer_request -> ux_slave_transfer_request_data_pointer + UX_SLAVE_CLASS_D
 175              		.loc 1 192 21 is_stmt 1 view .LVU51
 176              		.loc 1 192 40 is_stmt 0 view .LVU52
 177 0098 D4F89830 		ldr	r3, [r4, #152]
 178              		.loc 1 192 128 view .LVU53
 179 009c 6422     		movs	r2, #100
 180 009e 5A70     		strb	r2, [r3, #1]
 193:./Middlewares/ST/usbx/common/usbx_device_classes/src/ux_device_class_dfu_control_request.c ****                     *(transfer_request -> ux_slave_transfer_request_data_pointer + UX_SLAVE_CLASS_D
 181              		.loc 1 193 21 is_stmt 1 view .LVU54
 182              		.loc 1 193 40 is_stmt 0 view .LVU55
 183 00a0 D4F89820 		ldr	r2, [r4, #152]
 184              		.loc 1 193 132 view .LVU56
 185 00a4 0023     		movs	r3, #0
 186 00a6 9370     		strb	r3, [r2, #2]
 194:./Middlewares/ST/usbx/common/usbx_device_classes/src/ux_device_class_dfu_control_request.c ****                     *(transfer_request -> ux_slave_transfer_request_data_pointer + UX_SLAVE_CLASS_D
 187              		.loc 1 194 21 is_stmt 1 view .LVU57
 188              		.loc 1 194 40 is_stmt 0 view .LVU58
 189 00a8 D4F89820 		ldr	r2, [r4, #152]
 190              		.loc 1 194 132 view .LVU59
 191 00ac D370     		strb	r3, [r2, #3]
 195:./Middlewares/ST/usbx/common/usbx_device_classes/src/ux_device_class_dfu_control_request.c **** 
 196:./Middlewares/ST/usbx/common/usbx_device_classes/src/ux_device_class_dfu_control_request.c ****                     /* Next state.  */
 197:./Middlewares/ST/usbx/common/usbx_device_classes/src/ux_device_class_dfu_control_request.c ****                     *(transfer_request -> ux_slave_transfer_request_data_pointer + UX_SLAVE_CLASS_D
 192              		.loc 1 197 21 is_stmt 1 view .LVU60
 193              		.loc 1 197 148 is_stmt 0 view .LVU61
 194 00ae 844A     		ldr	r2, .L67
 195 00b0 1168     		ldr	r1, [r2]
 196              		.loc 1 197 40 view .LVU62
 197 00b2 D4F89820 		ldr	r2, [r4, #152]
 198              		.loc 1 197 123 view .LVU63
 199 00b6 91F8B811 		ldrb	r1, [r1, #440]	@ zero_extendqisi2
 200              		.loc 1 197 121 view .LVU64
ARM GAS  /tmp/ccp1d2wf.s 			page 8


 201 00ba 1171     		strb	r1, [r2, #4]
 198:./Middlewares/ST/usbx/common/usbx_device_classes/src/ux_device_class_dfu_control_request.c **** 
 199:./Middlewares/ST/usbx/common/usbx_device_classes/src/ux_device_class_dfu_control_request.c ****                     /* String index set to 0.  */
 200:./Middlewares/ST/usbx/common/usbx_device_classes/src/ux_device_class_dfu_control_request.c ****                     *(transfer_request -> ux_slave_transfer_request_data_pointer + UX_SLAVE_CLASS_D
 202              		.loc 1 200 21 is_stmt 1 view .LVU65
 203              		.loc 1 200 40 is_stmt 0 view .LVU66
 204 00bc D4F89820 		ldr	r2, [r4, #152]
 205              		.loc 1 200 122 view .LVU67
 206 00c0 5371     		strb	r3, [r2, #5]
 201:./Middlewares/ST/usbx/common/usbx_device_classes/src/ux_device_class_dfu_control_request.c **** #endif
 202:./Middlewares/ST/usbx/common/usbx_device_classes/src/ux_device_class_dfu_control_request.c **** 
 203:./Middlewares/ST/usbx/common/usbx_device_classes/src/ux_device_class_dfu_control_request.c ****                     /* We have a request to obtain the status of the DFU instance. */
 204:./Middlewares/ST/usbx/common/usbx_device_classes/src/ux_device_class_dfu_control_request.c ****                     _ux_device_stack_transfer_request(transfer_request, UX_SLAVE_CLASS_DFU_GET_STAT
 207              		.loc 1 204 21 is_stmt 1 view .LVU68
 208 00c2 0622     		movs	r2, #6
 209 00c4 1146     		mov	r1, r2
 210 00c6 5046     		mov	r0, r10
 211              	.LVL18:
 212              		.loc 1 204 21 is_stmt 0 view .LVU69
 213 00c8 FFF7FEFF 		bl	_ux_device_stack_transfer_request
 214              	.LVL19:
 205:./Middlewares/ST/usbx/common/usbx_device_classes/src/ux_device_class_dfu_control_request.c **** 
 206:./Middlewares/ST/usbx/common/usbx_device_classes/src/ux_device_class_dfu_control_request.c ****                     break;
 215              		.loc 1 206 21 is_stmt 1 view .LVU70
 216 00cc BCE2     		b	.L1
 217              	.LVL20:
 218              	.L13:
 207:./Middlewares/ST/usbx/common/usbx_device_classes/src/ux_device_class_dfu_control_request.c **** 
 208:./Middlewares/ST/usbx/common/usbx_device_classes/src/ux_device_class_dfu_control_request.c ****                 case UX_SLAVE_CLASS_DFU_COMMAND_GET_STATE :
 209:./Middlewares/ST/usbx/common/usbx_device_classes/src/ux_device_class_dfu_control_request.c **** 
 210:./Middlewares/ST/usbx/common/usbx_device_classes/src/ux_device_class_dfu_control_request.c ****                     /* Fill the status data payload.  First with state.  */
 211:./Middlewares/ST/usbx/common/usbx_device_classes/src/ux_device_class_dfu_control_request.c ****                     *transfer_request -> ux_slave_transfer_request_data_pointer = (UCHAR) _ux_syste
 219              		.loc 1 211 21 view .LVU71
 220              		.loc 1 211 39 is_stmt 0 view .LVU72
 221 00ce D4F89830 		ldr	r3, [r4, #152]
 222              		.loc 1 211 81 view .LVU73
 223 00d2 1D70     		strb	r5, [r3]
 212:./Middlewares/ST/usbx/common/usbx_device_classes/src/ux_device_class_dfu_control_request.c **** 
 213:./Middlewares/ST/usbx/common/usbx_device_classes/src/ux_device_class_dfu_control_request.c ****                     /* We have a request to obtain the status of the DFU instance. */
 214:./Middlewares/ST/usbx/common/usbx_device_classes/src/ux_device_class_dfu_control_request.c ****                     _ux_device_stack_transfer_request(transfer_request, UX_SLAVE_CLASS_DFU_GET_STAT
 224              		.loc 1 214 21 is_stmt 1 view .LVU74
 225 00d4 0122     		movs	r2, #1
 226 00d6 1146     		mov	r1, r2
 227 00d8 5046     		mov	r0, r10
 228              	.LVL21:
 229              		.loc 1 214 21 is_stmt 0 view .LVU75
 230 00da FFF7FEFF 		bl	_ux_device_stack_transfer_request
 231              	.LVL22:
 215:./Middlewares/ST/usbx/common/usbx_device_classes/src/ux_device_class_dfu_control_request.c **** 
 216:./Middlewares/ST/usbx/common/usbx_device_classes/src/ux_device_class_dfu_control_request.c ****                     break;
 232              		.loc 1 216 21 is_stmt 1 view .LVU76
 233 00de B3E2     		b	.L1
 234              	.LVL23:
 235              	.L14:
 217:./Middlewares/ST/usbx/common/usbx_device_classes/src/ux_device_class_dfu_control_request.c **** 
 218:./Middlewares/ST/usbx/common/usbx_device_classes/src/ux_device_class_dfu_control_request.c ****                 default:
 219:./Middlewares/ST/usbx/common/usbx_device_classes/src/ux_device_class_dfu_control_request.c **** 
ARM GAS  /tmp/ccp1d2wf.s 			page 9


 220:./Middlewares/ST/usbx/common/usbx_device_classes/src/ux_device_class_dfu_control_request.c ****                     /* Unknown function. Stall the endpoint.  */
 221:./Middlewares/ST/usbx/common/usbx_device_classes/src/ux_device_class_dfu_control_request.c ****                     _ux_device_stack_endpoint_stall(&device -> ux_slave_device_control_endpoint);
 236              		.loc 1 221 21 view .LVU77
 237 00e0 04F15C00 		add	r0, r4, #92
 238              	.LVL24:
 239              		.loc 1 221 21 is_stmt 0 view .LVU78
 240 00e4 FFF7FEFF 		bl	_ux_device_stack_endpoint_stall
 241              	.LVL25:
 222:./Middlewares/ST/usbx/common/usbx_device_classes/src/ux_device_class_dfu_control_request.c ****                     break;
 242              		.loc 1 222 21 is_stmt 1 view .LVU79
 243 00e8 AEE2     		b	.L1
 244              	.LVL26:
 245              	.L10:
 223:./Middlewares/ST/usbx/common/usbx_device_classes/src/ux_device_class_dfu_control_request.c ****             }
 224:./Middlewares/ST/usbx/common/usbx_device_classes/src/ux_device_class_dfu_control_request.c **** 
 225:./Middlewares/ST/usbx/common/usbx_device_classes/src/ux_device_class_dfu_control_request.c ****             break;
 226:./Middlewares/ST/usbx/common/usbx_device_classes/src/ux_device_class_dfu_control_request.c **** 
 227:./Middlewares/ST/usbx/common/usbx_device_classes/src/ux_device_class_dfu_control_request.c ****         case UX_SYSTEM_DFU_STATE_APP_DETACH         :
 228:./Middlewares/ST/usbx/common/usbx_device_classes/src/ux_device_class_dfu_control_request.c **** 
 229:./Middlewares/ST/usbx/common/usbx_device_classes/src/ux_device_class_dfu_control_request.c ****             /* Here we process only the request we can accept in the APP DETACH state.  */
 230:./Middlewares/ST/usbx/common/usbx_device_classes/src/ux_device_class_dfu_control_request.c ****             switch (request)
 246              		.loc 1 230 13 view .LVU80
 247 00ea 032E     		cmp	r6, #3
 248 00ec 07D0     		beq	.L17
 249 00ee 052E     		cmp	r6, #5
 250 00f0 25D0     		beq	.L18
 231:./Middlewares/ST/usbx/common/usbx_device_classes/src/ux_device_class_dfu_control_request.c ****             {
 232:./Middlewares/ST/usbx/common/usbx_device_classes/src/ux_device_class_dfu_control_request.c **** 
 233:./Middlewares/ST/usbx/common/usbx_device_classes/src/ux_device_class_dfu_control_request.c ****                 case UX_SLAVE_CLASS_DFU_COMMAND_GET_STATUS :
 234:./Middlewares/ST/usbx/common/usbx_device_classes/src/ux_device_class_dfu_control_request.c **** 
 235:./Middlewares/ST/usbx/common/usbx_device_classes/src/ux_device_class_dfu_control_request.c **** #if UX_DEVICE_CLASS_DFU_STATUS_MODE == 1
 236:./Middlewares/ST/usbx/common/usbx_device_classes/src/ux_device_class_dfu_control_request.c ****                     _ux_device_class_dfu_status_get(dfu, transfer_request, UX_FALSE, 0, 0, 0);
 237:./Middlewares/ST/usbx/common/usbx_device_classes/src/ux_device_class_dfu_control_request.c **** #else
 238:./Middlewares/ST/usbx/common/usbx_device_classes/src/ux_device_class_dfu_control_request.c **** 
 239:./Middlewares/ST/usbx/common/usbx_device_classes/src/ux_device_class_dfu_control_request.c ****                     /* Fill the status data payload.  First with status.  */
 240:./Middlewares/ST/usbx/common/usbx_device_classes/src/ux_device_class_dfu_control_request.c ****                     *transfer_request -> ux_slave_transfer_request_data_pointer = (UCHAR) dfu -> ux
 241:./Middlewares/ST/usbx/common/usbx_device_classes/src/ux_device_class_dfu_control_request.c **** 
 242:./Middlewares/ST/usbx/common/usbx_device_classes/src/ux_device_class_dfu_control_request.c ****                     /* Poll time out value is set to 1ms.  */
 243:./Middlewares/ST/usbx/common/usbx_device_classes/src/ux_device_class_dfu_control_request.c ****                     *(transfer_request -> ux_slave_transfer_request_data_pointer + UX_SLAVE_CLASS_D
 244:./Middlewares/ST/usbx/common/usbx_device_classes/src/ux_device_class_dfu_control_request.c ****                     *(transfer_request -> ux_slave_transfer_request_data_pointer + UX_SLAVE_CLASS_D
 245:./Middlewares/ST/usbx/common/usbx_device_classes/src/ux_device_class_dfu_control_request.c ****                     *(transfer_request -> ux_slave_transfer_request_data_pointer + UX_SLAVE_CLASS_D
 246:./Middlewares/ST/usbx/common/usbx_device_classes/src/ux_device_class_dfu_control_request.c **** 
 247:./Middlewares/ST/usbx/common/usbx_device_classes/src/ux_device_class_dfu_control_request.c ****                     /* Next state.  */
 248:./Middlewares/ST/usbx/common/usbx_device_classes/src/ux_device_class_dfu_control_request.c ****                     *(transfer_request -> ux_slave_transfer_request_data_pointer + UX_SLAVE_CLASS_D
 249:./Middlewares/ST/usbx/common/usbx_device_classes/src/ux_device_class_dfu_control_request.c **** 
 250:./Middlewares/ST/usbx/common/usbx_device_classes/src/ux_device_class_dfu_control_request.c ****                     /* String index set to 0.  */
 251:./Middlewares/ST/usbx/common/usbx_device_classes/src/ux_device_class_dfu_control_request.c ****                     *(transfer_request -> ux_slave_transfer_request_data_pointer + UX_SLAVE_CLASS_D
 252:./Middlewares/ST/usbx/common/usbx_device_classes/src/ux_device_class_dfu_control_request.c **** #endif
 253:./Middlewares/ST/usbx/common/usbx_device_classes/src/ux_device_class_dfu_control_request.c **** 
 254:./Middlewares/ST/usbx/common/usbx_device_classes/src/ux_device_class_dfu_control_request.c ****                     /* We have a request to obtain the status of the DFU instance. */
 255:./Middlewares/ST/usbx/common/usbx_device_classes/src/ux_device_class_dfu_control_request.c ****                     _ux_device_stack_transfer_request(transfer_request, UX_SLAVE_CLASS_DFU_GET_STAT
 256:./Middlewares/ST/usbx/common/usbx_device_classes/src/ux_device_class_dfu_control_request.c **** 
 257:./Middlewares/ST/usbx/common/usbx_device_classes/src/ux_device_class_dfu_control_request.c ****                     break;
 258:./Middlewares/ST/usbx/common/usbx_device_classes/src/ux_device_class_dfu_control_request.c **** 
 259:./Middlewares/ST/usbx/common/usbx_device_classes/src/ux_device_class_dfu_control_request.c ****                 case UX_SLAVE_CLASS_DFU_COMMAND_GET_STATE :
 260:./Middlewares/ST/usbx/common/usbx_device_classes/src/ux_device_class_dfu_control_request.c **** 
 261:./Middlewares/ST/usbx/common/usbx_device_classes/src/ux_device_class_dfu_control_request.c ****                     /* Fill the status data payload.  First with state.  */
ARM GAS  /tmp/ccp1d2wf.s 			page 10


 262:./Middlewares/ST/usbx/common/usbx_device_classes/src/ux_device_class_dfu_control_request.c ****                     *transfer_request -> ux_slave_transfer_request_data_pointer = (UCHAR) _ux_syste
 263:./Middlewares/ST/usbx/common/usbx_device_classes/src/ux_device_class_dfu_control_request.c **** 
 264:./Middlewares/ST/usbx/common/usbx_device_classes/src/ux_device_class_dfu_control_request.c ****                     /* We have a request to obtain the status of the DFU instance. */
 265:./Middlewares/ST/usbx/common/usbx_device_classes/src/ux_device_class_dfu_control_request.c ****                     _ux_device_stack_transfer_request(transfer_request, UX_SLAVE_CLASS_DFU_GET_STAT
 266:./Middlewares/ST/usbx/common/usbx_device_classes/src/ux_device_class_dfu_control_request.c **** 
 267:./Middlewares/ST/usbx/common/usbx_device_classes/src/ux_device_class_dfu_control_request.c ****                     break;
 268:./Middlewares/ST/usbx/common/usbx_device_classes/src/ux_device_class_dfu_control_request.c **** 
 269:./Middlewares/ST/usbx/common/usbx_device_classes/src/ux_device_class_dfu_control_request.c ****                 default:
 270:./Middlewares/ST/usbx/common/usbx_device_classes/src/ux_device_class_dfu_control_request.c **** 
 271:./Middlewares/ST/usbx/common/usbx_device_classes/src/ux_device_class_dfu_control_request.c ****                     /* Unknown function. Stall the endpoint.  */
 272:./Middlewares/ST/usbx/common/usbx_device_classes/src/ux_device_class_dfu_control_request.c ****                     _ux_device_stack_endpoint_stall(&device -> ux_slave_device_control_endpoint);
 251              		.loc 1 272 21 view .LVU81
 252 00f2 04F15C00 		add	r0, r4, #92
 253              	.LVL27:
 254              		.loc 1 272 21 is_stmt 0 view .LVU82
 255 00f6 FFF7FEFF 		bl	_ux_device_stack_endpoint_stall
 256              	.LVL28:
 273:./Middlewares/ST/usbx/common/usbx_device_classes/src/ux_device_class_dfu_control_request.c ****                     break;
 257              		.loc 1 273 21 is_stmt 1 view .LVU83
 274:./Middlewares/ST/usbx/common/usbx_device_classes/src/ux_device_class_dfu_control_request.c ****             }
 275:./Middlewares/ST/usbx/common/usbx_device_classes/src/ux_device_class_dfu_control_request.c **** 
 276:./Middlewares/ST/usbx/common/usbx_device_classes/src/ux_device_class_dfu_control_request.c ****             break;
 277:./Middlewares/ST/usbx/common/usbx_device_classes/src/ux_device_class_dfu_control_request.c **** 
 278:./Middlewares/ST/usbx/common/usbx_device_classes/src/ux_device_class_dfu_control_request.c ****         case UX_SYSTEM_DFU_STATE_DFU_IDLE         :
 279:./Middlewares/ST/usbx/common/usbx_device_classes/src/ux_device_class_dfu_control_request.c **** 
 280:./Middlewares/ST/usbx/common/usbx_device_classes/src/ux_device_class_dfu_control_request.c ****             /* Here we process only the request we can accept in the DFU mode IDLE state.  */
 281:./Middlewares/ST/usbx/common/usbx_device_classes/src/ux_device_class_dfu_control_request.c ****             switch (request)
 282:./Middlewares/ST/usbx/common/usbx_device_classes/src/ux_device_class_dfu_control_request.c ****             {
 283:./Middlewares/ST/usbx/common/usbx_device_classes/src/ux_device_class_dfu_control_request.c **** 
 284:./Middlewares/ST/usbx/common/usbx_device_classes/src/ux_device_class_dfu_control_request.c ****                 case UX_SLAVE_CLASS_DFU_COMMAND_DOWNLOAD :
 285:./Middlewares/ST/usbx/common/usbx_device_classes/src/ux_device_class_dfu_control_request.c **** 
 286:./Middlewares/ST/usbx/common/usbx_device_classes/src/ux_device_class_dfu_control_request.c ****                     /* We received a DOWNLOAD command. Check the length field of the request. It ca
 287:./Middlewares/ST/usbx/common/usbx_device_classes/src/ux_device_class_dfu_control_request.c ****                     if (request_length == 0)
 288:./Middlewares/ST/usbx/common/usbx_device_classes/src/ux_device_class_dfu_control_request.c ****                     {
 289:./Middlewares/ST/usbx/common/usbx_device_classes/src/ux_device_class_dfu_control_request.c **** 
 290:./Middlewares/ST/usbx/common/usbx_device_classes/src/ux_device_class_dfu_control_request.c ****                         /* Zero length download is not accepted. Stall the endpoint.  */
 291:./Middlewares/ST/usbx/common/usbx_device_classes/src/ux_device_class_dfu_control_request.c ****                         _ux_device_stack_endpoint_stall(&device -> ux_slave_device_control_endpoint
 292:./Middlewares/ST/usbx/common/usbx_device_classes/src/ux_device_class_dfu_control_request.c **** 
 293:./Middlewares/ST/usbx/common/usbx_device_classes/src/ux_device_class_dfu_control_request.c ****                         /* In the system, state the DFU state machine to dfu ERROR.  */
 294:./Middlewares/ST/usbx/common/usbx_device_classes/src/ux_device_class_dfu_control_request.c ****                         _ux_system_slave -> ux_system_slave_device_dfu_state_machine = UX_SYSTEM_DF
 295:./Middlewares/ST/usbx/common/usbx_device_classes/src/ux_device_class_dfu_control_request.c **** 
 296:./Middlewares/ST/usbx/common/usbx_device_classes/src/ux_device_class_dfu_control_request.c ****                     }
 297:./Middlewares/ST/usbx/common/usbx_device_classes/src/ux_device_class_dfu_control_request.c ****                     else
 298:./Middlewares/ST/usbx/common/usbx_device_classes/src/ux_device_class_dfu_control_request.c ****                     {
 299:./Middlewares/ST/usbx/common/usbx_device_classes/src/ux_device_class_dfu_control_request.c **** 
 300:./Middlewares/ST/usbx/common/usbx_device_classes/src/ux_device_class_dfu_control_request.c ****                         /* Have we declared a DOWNLOAD possible in our device framework ? */
 301:./Middlewares/ST/usbx/common/usbx_device_classes/src/ux_device_class_dfu_control_request.c ****                         if (_ux_system_slave -> ux_system_slave_device_dfu_capabilities & UX_SLAVE_
 302:./Middlewares/ST/usbx/common/usbx_device_classes/src/ux_device_class_dfu_control_request.c ****                         {
 303:./Middlewares/ST/usbx/common/usbx_device_classes/src/ux_device_class_dfu_control_request.c **** 
 304:./Middlewares/ST/usbx/common/usbx_device_classes/src/ux_device_class_dfu_control_request.c ****                             /* Send a notification to the application.  Begin of transfer.  */
 305:./Middlewares/ST/usbx/common/usbx_device_classes/src/ux_device_class_dfu_control_request.c ****                             dfu -> ux_slave_class_dfu_notify(dfu, UX_SLAVE_CLASS_DFU_NOTIFICATION_B
 306:./Middlewares/ST/usbx/common/usbx_device_classes/src/ux_device_class_dfu_control_request.c **** 
 307:./Middlewares/ST/usbx/common/usbx_device_classes/src/ux_device_class_dfu_control_request.c ****                             /* Write the first block to the firmware.  */
 308:./Middlewares/ST/usbx/common/usbx_device_classes/src/ux_device_class_dfu_control_request.c ****                             dfu -> ux_slave_class_dfu_write(dfu, request_value,
 309:./Middlewares/ST/usbx/common/usbx_device_classes/src/ux_device_class_dfu_control_request.c ****                                                                 transfer_request -> ux_slave_transf
 310:./Middlewares/ST/usbx/common/usbx_device_classes/src/ux_device_class_dfu_control_request.c ****                                                                 request_length,
 311:./Middlewares/ST/usbx/common/usbx_device_classes/src/ux_device_class_dfu_control_request.c ****                                                                 &actual_length);
ARM GAS  /tmp/ccp1d2wf.s 			page 11


 312:./Middlewares/ST/usbx/common/usbx_device_classes/src/ux_device_class_dfu_control_request.c **** 
 313:./Middlewares/ST/usbx/common/usbx_device_classes/src/ux_device_class_dfu_control_request.c ****                             /* In the system, state the DFU state machine to dfu DOWNLOAD SYNC.  */
 314:./Middlewares/ST/usbx/common/usbx_device_classes/src/ux_device_class_dfu_control_request.c ****                             _ux_system_slave -> ux_system_slave_device_dfu_state_machine = UX_SYSTE
 315:./Middlewares/ST/usbx/common/usbx_device_classes/src/ux_device_class_dfu_control_request.c **** 
 316:./Middlewares/ST/usbx/common/usbx_device_classes/src/ux_device_class_dfu_control_request.c ****                         }
 317:./Middlewares/ST/usbx/common/usbx_device_classes/src/ux_device_class_dfu_control_request.c ****                         else
 318:./Middlewares/ST/usbx/common/usbx_device_classes/src/ux_device_class_dfu_control_request.c ****                         {
 319:./Middlewares/ST/usbx/common/usbx_device_classes/src/ux_device_class_dfu_control_request.c **** 
 320:./Middlewares/ST/usbx/common/usbx_device_classes/src/ux_device_class_dfu_control_request.c ****                             /* Download is not accepted. Stall the endpoint.  */
 321:./Middlewares/ST/usbx/common/usbx_device_classes/src/ux_device_class_dfu_control_request.c ****                             _ux_device_stack_endpoint_stall(&device -> ux_slave_device_control_endp
 322:./Middlewares/ST/usbx/common/usbx_device_classes/src/ux_device_class_dfu_control_request.c **** 
 323:./Middlewares/ST/usbx/common/usbx_device_classes/src/ux_device_class_dfu_control_request.c ****                             /* In the system, state the DFU state machine to dfu ERROR.  */
 324:./Middlewares/ST/usbx/common/usbx_device_classes/src/ux_device_class_dfu_control_request.c ****                             _ux_system_slave -> ux_system_slave_device_dfu_state_machine = UX_SYSTE
 325:./Middlewares/ST/usbx/common/usbx_device_classes/src/ux_device_class_dfu_control_request.c **** 
 326:./Middlewares/ST/usbx/common/usbx_device_classes/src/ux_device_class_dfu_control_request.c ****                         }
 327:./Middlewares/ST/usbx/common/usbx_device_classes/src/ux_device_class_dfu_control_request.c **** 
 328:./Middlewares/ST/usbx/common/usbx_device_classes/src/ux_device_class_dfu_control_request.c ****                     }
 329:./Middlewares/ST/usbx/common/usbx_device_classes/src/ux_device_class_dfu_control_request.c ****                     break;
 330:./Middlewares/ST/usbx/common/usbx_device_classes/src/ux_device_class_dfu_control_request.c **** 
 331:./Middlewares/ST/usbx/common/usbx_device_classes/src/ux_device_class_dfu_control_request.c ****                 case UX_SLAVE_CLASS_DFU_COMMAND_ABORT :
 332:./Middlewares/ST/usbx/common/usbx_device_classes/src/ux_device_class_dfu_control_request.c **** 
 333:./Middlewares/ST/usbx/common/usbx_device_classes/src/ux_device_class_dfu_control_request.c ****                         /* Send a notification to the application.  */
 334:./Middlewares/ST/usbx/common/usbx_device_classes/src/ux_device_class_dfu_control_request.c ****                         dfu -> ux_slave_class_dfu_notify(dfu, UX_SLAVE_CLASS_DFU_NOTIFICATION_ABORT
 335:./Middlewares/ST/usbx/common/usbx_device_classes/src/ux_device_class_dfu_control_request.c **** 
 336:./Middlewares/ST/usbx/common/usbx_device_classes/src/ux_device_class_dfu_control_request.c ****                         /* In the system, state the DFU state machine to dfu IDLE.  */
 337:./Middlewares/ST/usbx/common/usbx_device_classes/src/ux_device_class_dfu_control_request.c ****                         _ux_system_slave -> ux_system_slave_device_dfu_state_machine = UX_SYSTEM_DF
 338:./Middlewares/ST/usbx/common/usbx_device_classes/src/ux_device_class_dfu_control_request.c **** 
 339:./Middlewares/ST/usbx/common/usbx_device_classes/src/ux_device_class_dfu_control_request.c ****                     break;
 340:./Middlewares/ST/usbx/common/usbx_device_classes/src/ux_device_class_dfu_control_request.c **** 
 341:./Middlewares/ST/usbx/common/usbx_device_classes/src/ux_device_class_dfu_control_request.c ****                 case UX_SLAVE_CLASS_DFU_COMMAND_GET_STATUS :
 342:./Middlewares/ST/usbx/common/usbx_device_classes/src/ux_device_class_dfu_control_request.c **** 
 343:./Middlewares/ST/usbx/common/usbx_device_classes/src/ux_device_class_dfu_control_request.c **** #if UX_DEVICE_CLASS_DFU_STATUS_MODE == 1
 344:./Middlewares/ST/usbx/common/usbx_device_classes/src/ux_device_class_dfu_control_request.c ****                     _ux_device_class_dfu_status_get(dfu, transfer_request, UX_FALSE, 0, 0, 0);
 345:./Middlewares/ST/usbx/common/usbx_device_classes/src/ux_device_class_dfu_control_request.c **** #else
 346:./Middlewares/ST/usbx/common/usbx_device_classes/src/ux_device_class_dfu_control_request.c **** 
 347:./Middlewares/ST/usbx/common/usbx_device_classes/src/ux_device_class_dfu_control_request.c ****                     /* Fill the status data payload.  First with status.  */
 348:./Middlewares/ST/usbx/common/usbx_device_classes/src/ux_device_class_dfu_control_request.c ****                     *transfer_request -> ux_slave_transfer_request_data_pointer = (UCHAR) dfu -> ux
 349:./Middlewares/ST/usbx/common/usbx_device_classes/src/ux_device_class_dfu_control_request.c **** 
 350:./Middlewares/ST/usbx/common/usbx_device_classes/src/ux_device_class_dfu_control_request.c ****                     /* Poll time out value is set to 1ms.  */
 351:./Middlewares/ST/usbx/common/usbx_device_classes/src/ux_device_class_dfu_control_request.c ****                     *(transfer_request -> ux_slave_transfer_request_data_pointer + UX_SLAVE_CLASS_D
 352:./Middlewares/ST/usbx/common/usbx_device_classes/src/ux_device_class_dfu_control_request.c ****                     *(transfer_request -> ux_slave_transfer_request_data_pointer + UX_SLAVE_CLASS_D
 353:./Middlewares/ST/usbx/common/usbx_device_classes/src/ux_device_class_dfu_control_request.c ****                     *(transfer_request -> ux_slave_transfer_request_data_pointer + UX_SLAVE_CLASS_D
 354:./Middlewares/ST/usbx/common/usbx_device_classes/src/ux_device_class_dfu_control_request.c **** 
 355:./Middlewares/ST/usbx/common/usbx_device_classes/src/ux_device_class_dfu_control_request.c ****                     /* Next state.  */
 356:./Middlewares/ST/usbx/common/usbx_device_classes/src/ux_device_class_dfu_control_request.c ****                     *(transfer_request -> ux_slave_transfer_request_data_pointer + UX_SLAVE_CLASS_D
 357:./Middlewares/ST/usbx/common/usbx_device_classes/src/ux_device_class_dfu_control_request.c **** 
 358:./Middlewares/ST/usbx/common/usbx_device_classes/src/ux_device_class_dfu_control_request.c ****                     /* String index set to 0.  */
 359:./Middlewares/ST/usbx/common/usbx_device_classes/src/ux_device_class_dfu_control_request.c ****                     *(transfer_request -> ux_slave_transfer_request_data_pointer + UX_SLAVE_CLASS_D
 360:./Middlewares/ST/usbx/common/usbx_device_classes/src/ux_device_class_dfu_control_request.c **** #endif
 361:./Middlewares/ST/usbx/common/usbx_device_classes/src/ux_device_class_dfu_control_request.c **** 
 362:./Middlewares/ST/usbx/common/usbx_device_classes/src/ux_device_class_dfu_control_request.c ****                     /* We have a request to obtain the status of the DFU instance. */
 363:./Middlewares/ST/usbx/common/usbx_device_classes/src/ux_device_class_dfu_control_request.c ****                     _ux_device_stack_transfer_request(transfer_request, UX_SLAVE_CLASS_DFU_GET_STAT
 364:./Middlewares/ST/usbx/common/usbx_device_classes/src/ux_device_class_dfu_control_request.c **** 
 365:./Middlewares/ST/usbx/common/usbx_device_classes/src/ux_device_class_dfu_control_request.c ****                     break;
 366:./Middlewares/ST/usbx/common/usbx_device_classes/src/ux_device_class_dfu_control_request.c **** 
 367:./Middlewares/ST/usbx/common/usbx_device_classes/src/ux_device_class_dfu_control_request.c ****                 case UX_SLAVE_CLASS_DFU_COMMAND_GET_STATE :
 368:./Middlewares/ST/usbx/common/usbx_device_classes/src/ux_device_class_dfu_control_request.c **** 
ARM GAS  /tmp/ccp1d2wf.s 			page 12


 369:./Middlewares/ST/usbx/common/usbx_device_classes/src/ux_device_class_dfu_control_request.c ****                     /* Fill the status data payload.  First with state.  */
 370:./Middlewares/ST/usbx/common/usbx_device_classes/src/ux_device_class_dfu_control_request.c ****                     *transfer_request -> ux_slave_transfer_request_data_pointer = (UCHAR) _ux_syste
 371:./Middlewares/ST/usbx/common/usbx_device_classes/src/ux_device_class_dfu_control_request.c **** 
 372:./Middlewares/ST/usbx/common/usbx_device_classes/src/ux_device_class_dfu_control_request.c ****                     /* We have a request to obtain the status of the DFU instance. */
 373:./Middlewares/ST/usbx/common/usbx_device_classes/src/ux_device_class_dfu_control_request.c ****                     _ux_device_stack_transfer_request(transfer_request, UX_SLAVE_CLASS_DFU_GET_STAT
 374:./Middlewares/ST/usbx/common/usbx_device_classes/src/ux_device_class_dfu_control_request.c **** 
 375:./Middlewares/ST/usbx/common/usbx_device_classes/src/ux_device_class_dfu_control_request.c ****                     break;
 376:./Middlewares/ST/usbx/common/usbx_device_classes/src/ux_device_class_dfu_control_request.c **** 
 377:./Middlewares/ST/usbx/common/usbx_device_classes/src/ux_device_class_dfu_control_request.c **** #ifndef UX_DEVICE_CLASS_DFU_UPLOAD_DISABLE
 378:./Middlewares/ST/usbx/common/usbx_device_classes/src/ux_device_class_dfu_control_request.c ****                 case UX_SLAVE_CLASS_DFU_COMMAND_UPLOAD:
 379:./Middlewares/ST/usbx/common/usbx_device_classes/src/ux_device_class_dfu_control_request.c **** 
 380:./Middlewares/ST/usbx/common/usbx_device_classes/src/ux_device_class_dfu_control_request.c ****                     /* bitCanUpload != 1, or length = 0, or length > wTransferSize (we can support 
 381:./Middlewares/ST/usbx/common/usbx_device_classes/src/ux_device_class_dfu_control_request.c ****                     if (!(_ux_system_slave -> ux_system_slave_device_dfu_capabilities & UX_SLAVE_CL
 382:./Middlewares/ST/usbx/common/usbx_device_classes/src/ux_device_class_dfu_control_request.c ****                         (request_length == 0) ||
 383:./Middlewares/ST/usbx/common/usbx_device_classes/src/ux_device_class_dfu_control_request.c ****                         (request_length > UX_SLAVE_REQUEST_CONTROL_MAX_LENGTH))
 384:./Middlewares/ST/usbx/common/usbx_device_classes/src/ux_device_class_dfu_control_request.c ****                     {
 385:./Middlewares/ST/usbx/common/usbx_device_classes/src/ux_device_class_dfu_control_request.c ****                         _ux_device_stack_endpoint_stall(&device -> ux_slave_device_control_endpoint
 386:./Middlewares/ST/usbx/common/usbx_device_classes/src/ux_device_class_dfu_control_request.c **** 
 387:./Middlewares/ST/usbx/common/usbx_device_classes/src/ux_device_class_dfu_control_request.c ****                         /* In the system, state the DFU state machine to dfu ERROR.  */
 388:./Middlewares/ST/usbx/common/usbx_device_classes/src/ux_device_class_dfu_control_request.c ****                         _ux_system_slave -> ux_system_slave_device_dfu_state_machine = UX_SYSTEM_DF
 389:./Middlewares/ST/usbx/common/usbx_device_classes/src/ux_device_class_dfu_control_request.c **** 
 390:./Middlewares/ST/usbx/common/usbx_device_classes/src/ux_device_class_dfu_control_request.c ****                         break;
 391:./Middlewares/ST/usbx/common/usbx_device_classes/src/ux_device_class_dfu_control_request.c ****                     }
 392:./Middlewares/ST/usbx/common/usbx_device_classes/src/ux_device_class_dfu_control_request.c **** 
 393:./Middlewares/ST/usbx/common/usbx_device_classes/src/ux_device_class_dfu_control_request.c ****                     /* bitCanUpload = 1.  */
 394:./Middlewares/ST/usbx/common/usbx_device_classes/src/ux_device_class_dfu_control_request.c **** 
 395:./Middlewares/ST/usbx/common/usbx_device_classes/src/ux_device_class_dfu_control_request.c ****                     /* Send a notification to the application.  Begin of transfer.  */
 396:./Middlewares/ST/usbx/common/usbx_device_classes/src/ux_device_class_dfu_control_request.c ****                     dfu -> ux_slave_class_dfu_notify(dfu, UX_SLAVE_CLASS_DFU_NOTIFICATION_BEGIN_UPL
 397:./Middlewares/ST/usbx/common/usbx_device_classes/src/ux_device_class_dfu_control_request.c **** 
 398:./Middlewares/ST/usbx/common/usbx_device_classes/src/ux_device_class_dfu_control_request.c ****                     /* Read the first block to the firmware.  */
 399:./Middlewares/ST/usbx/common/usbx_device_classes/src/ux_device_class_dfu_control_request.c ****                     dfu -> ux_slave_class_dfu_read(dfu, request_value,
 400:./Middlewares/ST/usbx/common/usbx_device_classes/src/ux_device_class_dfu_control_request.c ****                                                         transfer_request -> ux_slave_transfer_reque
 401:./Middlewares/ST/usbx/common/usbx_device_classes/src/ux_device_class_dfu_control_request.c ****                                                         request_length,
 402:./Middlewares/ST/usbx/common/usbx_device_classes/src/ux_device_class_dfu_control_request.c ****                                                         &actual_length);
 403:./Middlewares/ST/usbx/common/usbx_device_classes/src/ux_device_class_dfu_control_request.c **** 
 404:./Middlewares/ST/usbx/common/usbx_device_classes/src/ux_device_class_dfu_control_request.c ****                     /* In the system, state the DFU state machine to dfu UPLOAD IDLE.  */
 405:./Middlewares/ST/usbx/common/usbx_device_classes/src/ux_device_class_dfu_control_request.c ****                     _ux_system_slave -> ux_system_slave_device_dfu_state_machine = UX_SYSTEM_DFU_ST
 406:./Middlewares/ST/usbx/common/usbx_device_classes/src/ux_device_class_dfu_control_request.c **** 
 407:./Middlewares/ST/usbx/common/usbx_device_classes/src/ux_device_class_dfu_control_request.c ****                     /* We have a request to upload DFU firmware block. */
 408:./Middlewares/ST/usbx/common/usbx_device_classes/src/ux_device_class_dfu_control_request.c ****                     _ux_device_stack_transfer_request(transfer_request, actual_length, request_leng
 409:./Middlewares/ST/usbx/common/usbx_device_classes/src/ux_device_class_dfu_control_request.c **** 
 410:./Middlewares/ST/usbx/common/usbx_device_classes/src/ux_device_class_dfu_control_request.c ****                     break;
 411:./Middlewares/ST/usbx/common/usbx_device_classes/src/ux_device_class_dfu_control_request.c **** #endif
 412:./Middlewares/ST/usbx/common/usbx_device_classes/src/ux_device_class_dfu_control_request.c **** 
 413:./Middlewares/ST/usbx/common/usbx_device_classes/src/ux_device_class_dfu_control_request.c ****                 default:
 414:./Middlewares/ST/usbx/common/usbx_device_classes/src/ux_device_class_dfu_control_request.c **** 
 415:./Middlewares/ST/usbx/common/usbx_device_classes/src/ux_device_class_dfu_control_request.c ****                     /* Unknown function. Stall the endpoint.  */
 416:./Middlewares/ST/usbx/common/usbx_device_classes/src/ux_device_class_dfu_control_request.c ****                     _ux_device_stack_endpoint_stall(&device -> ux_slave_device_control_endpoint);
 417:./Middlewares/ST/usbx/common/usbx_device_classes/src/ux_device_class_dfu_control_request.c **** 
 418:./Middlewares/ST/usbx/common/usbx_device_classes/src/ux_device_class_dfu_control_request.c ****                     /* In the system, state the DFU state machine to dfu ERROR.  */
 419:./Middlewares/ST/usbx/common/usbx_device_classes/src/ux_device_class_dfu_control_request.c ****                        _ux_system_slave -> ux_system_slave_device_dfu_state_machine = UX_SYSTEM_DFU
 420:./Middlewares/ST/usbx/common/usbx_device_classes/src/ux_device_class_dfu_control_request.c **** 
 421:./Middlewares/ST/usbx/common/usbx_device_classes/src/ux_device_class_dfu_control_request.c ****                     break;
 422:./Middlewares/ST/usbx/common/usbx_device_classes/src/ux_device_class_dfu_control_request.c ****             }
 423:./Middlewares/ST/usbx/common/usbx_device_classes/src/ux_device_class_dfu_control_request.c **** 
 424:./Middlewares/ST/usbx/common/usbx_device_classes/src/ux_device_class_dfu_control_request.c ****             break;
 425:./Middlewares/ST/usbx/common/usbx_device_classes/src/ux_device_class_dfu_control_request.c **** 
ARM GAS  /tmp/ccp1d2wf.s 			page 13


 426:./Middlewares/ST/usbx/common/usbx_device_classes/src/ux_device_class_dfu_control_request.c **** 
 427:./Middlewares/ST/usbx/common/usbx_device_classes/src/ux_device_class_dfu_control_request.c ****         case UX_SYSTEM_DFU_STATE_DFU_DNLOAD_SYNC         :
 428:./Middlewares/ST/usbx/common/usbx_device_classes/src/ux_device_class_dfu_control_request.c **** 
 429:./Middlewares/ST/usbx/common/usbx_device_classes/src/ux_device_class_dfu_control_request.c ****             /* Here we process only the request we can accept in the DFU mode DOWNLOAD state.  */
 430:./Middlewares/ST/usbx/common/usbx_device_classes/src/ux_device_class_dfu_control_request.c ****             switch (request)
 431:./Middlewares/ST/usbx/common/usbx_device_classes/src/ux_device_class_dfu_control_request.c ****             {
 432:./Middlewares/ST/usbx/common/usbx_device_classes/src/ux_device_class_dfu_control_request.c **** 
 433:./Middlewares/ST/usbx/common/usbx_device_classes/src/ux_device_class_dfu_control_request.c ****                 case UX_SLAVE_CLASS_DFU_COMMAND_GET_STATUS :
 434:./Middlewares/ST/usbx/common/usbx_device_classes/src/ux_device_class_dfu_control_request.c **** 
 435:./Middlewares/ST/usbx/common/usbx_device_classes/src/ux_device_class_dfu_control_request.c **** #if UX_DEVICE_CLASS_DFU_STATUS_MODE == 1
 436:./Middlewares/ST/usbx/common/usbx_device_classes/src/ux_device_class_dfu_control_request.c ****                     _ux_device_class_dfu_status_get(dfu, transfer_request, UX_TRUE,
 437:./Middlewares/ST/usbx/common/usbx_device_classes/src/ux_device_class_dfu_control_request.c ****                             UX_SLAVE_CLASS_DFU_STATUS_STATE_DFU_DNLOAD_IDLE,
 438:./Middlewares/ST/usbx/common/usbx_device_classes/src/ux_device_class_dfu_control_request.c ****                             UX_SLAVE_CLASS_DFU_STATUS_STATE_DFU_DNBUSY,
 439:./Middlewares/ST/usbx/common/usbx_device_classes/src/ux_device_class_dfu_control_request.c ****                             UX_SLAVE_CLASS_DFU_STATUS_STATE_DFU_ERROR);
 440:./Middlewares/ST/usbx/common/usbx_device_classes/src/ux_device_class_dfu_control_request.c **** #else
 441:./Middlewares/ST/usbx/common/usbx_device_classes/src/ux_device_class_dfu_control_request.c **** 
 442:./Middlewares/ST/usbx/common/usbx_device_classes/src/ux_device_class_dfu_control_request.c ****                     /* Check if the device is still buys performing the write. Write could be delay
 443:./Middlewares/ST/usbx/common/usbx_device_classes/src/ux_device_class_dfu_control_request.c ****                     dfu -> ux_slave_class_dfu_get_status(dfu, &media_status);
 444:./Middlewares/ST/usbx/common/usbx_device_classes/src/ux_device_class_dfu_control_request.c **** 
 445:./Middlewares/ST/usbx/common/usbx_device_classes/src/ux_device_class_dfu_control_request.c ****                     /* Check status of device.  */
 446:./Middlewares/ST/usbx/common/usbx_device_classes/src/ux_device_class_dfu_control_request.c ****                     switch (media_status)
 447:./Middlewares/ST/usbx/common/usbx_device_classes/src/ux_device_class_dfu_control_request.c ****                     {
 448:./Middlewares/ST/usbx/common/usbx_device_classes/src/ux_device_class_dfu_control_request.c **** 
 449:./Middlewares/ST/usbx/common/usbx_device_classes/src/ux_device_class_dfu_control_request.c ****                         case     UX_SLAVE_CLASS_DFU_MEDIA_STATUS_OK        :
 450:./Middlewares/ST/usbx/common/usbx_device_classes/src/ux_device_class_dfu_control_request.c **** 
 451:./Middlewares/ST/usbx/common/usbx_device_classes/src/ux_device_class_dfu_control_request.c ****                             /* Set the next state for idle and no error status.  */
 452:./Middlewares/ST/usbx/common/usbx_device_classes/src/ux_device_class_dfu_control_request.c ****                             dfu -> ux_slave_class_dfu_status = UX_SLAVE_CLASS_DFU_STATUS_OK ;
 453:./Middlewares/ST/usbx/common/usbx_device_classes/src/ux_device_class_dfu_control_request.c ****                                _ux_system_slave -> ux_system_slave_device_dfu_state_machine = UX_SL
 454:./Middlewares/ST/usbx/common/usbx_device_classes/src/ux_device_class_dfu_control_request.c ****                             break;
 455:./Middlewares/ST/usbx/common/usbx_device_classes/src/ux_device_class_dfu_control_request.c **** 
 456:./Middlewares/ST/usbx/common/usbx_device_classes/src/ux_device_class_dfu_control_request.c ****                         case     UX_SLAVE_CLASS_DFU_MEDIA_STATUS_BUSY    :
 457:./Middlewares/ST/usbx/common/usbx_device_classes/src/ux_device_class_dfu_control_request.c **** 
 458:./Middlewares/ST/usbx/common/usbx_device_classes/src/ux_device_class_dfu_control_request.c ****                             /* Set the next state for busy but no error status.  */
 459:./Middlewares/ST/usbx/common/usbx_device_classes/src/ux_device_class_dfu_control_request.c ****                             dfu -> ux_slave_class_dfu_status = UX_SLAVE_CLASS_DFU_STATUS_OK ;
 460:./Middlewares/ST/usbx/common/usbx_device_classes/src/ux_device_class_dfu_control_request.c ****                                _ux_system_slave -> ux_system_slave_device_dfu_state_machine = UX_SL
 461:./Middlewares/ST/usbx/common/usbx_device_classes/src/ux_device_class_dfu_control_request.c ****                             break;
 462:./Middlewares/ST/usbx/common/usbx_device_classes/src/ux_device_class_dfu_control_request.c **** 
 463:./Middlewares/ST/usbx/common/usbx_device_classes/src/ux_device_class_dfu_control_request.c ****                         case    UX_SLAVE_CLASS_DFU_MEDIA_STATUS_ERROR   :
 464:./Middlewares/ST/usbx/common/usbx_device_classes/src/ux_device_class_dfu_control_request.c **** 
 465:./Middlewares/ST/usbx/common/usbx_device_classes/src/ux_device_class_dfu_control_request.c ****                             /* Set the next state for busy and error status.  */
 466:./Middlewares/ST/usbx/common/usbx_device_classes/src/ux_device_class_dfu_control_request.c ****                             dfu -> ux_slave_class_dfu_status = UX_SLAVE_CLASS_DFU_STATUS_ERROR_WRIT
 467:./Middlewares/ST/usbx/common/usbx_device_classes/src/ux_device_class_dfu_control_request.c ****                                _ux_system_slave -> ux_system_slave_device_dfu_state_machine = UX_SL
 468:./Middlewares/ST/usbx/common/usbx_device_classes/src/ux_device_class_dfu_control_request.c ****                             break;
 469:./Middlewares/ST/usbx/common/usbx_device_classes/src/ux_device_class_dfu_control_request.c **** 
 470:./Middlewares/ST/usbx/common/usbx_device_classes/src/ux_device_class_dfu_control_request.c ****                     }
 471:./Middlewares/ST/usbx/common/usbx_device_classes/src/ux_device_class_dfu_control_request.c **** 
 472:./Middlewares/ST/usbx/common/usbx_device_classes/src/ux_device_class_dfu_control_request.c ****                     /* Fill the status data payload.  First with status.  */
 473:./Middlewares/ST/usbx/common/usbx_device_classes/src/ux_device_class_dfu_control_request.c ****                     *transfer_request -> ux_slave_transfer_request_data_pointer = (UCHAR) dfu -> ux
 474:./Middlewares/ST/usbx/common/usbx_device_classes/src/ux_device_class_dfu_control_request.c **** 
 475:./Middlewares/ST/usbx/common/usbx_device_classes/src/ux_device_class_dfu_control_request.c ****                     /* Poll time out value is set to 1ms.  */
 476:./Middlewares/ST/usbx/common/usbx_device_classes/src/ux_device_class_dfu_control_request.c ****                     *(transfer_request -> ux_slave_transfer_request_data_pointer + UX_SLAVE_CLASS_D
 477:./Middlewares/ST/usbx/common/usbx_device_classes/src/ux_device_class_dfu_control_request.c ****                     *(transfer_request -> ux_slave_transfer_request_data_pointer + UX_SLAVE_CLASS_D
 478:./Middlewares/ST/usbx/common/usbx_device_classes/src/ux_device_class_dfu_control_request.c ****                     *(transfer_request -> ux_slave_transfer_request_data_pointer + UX_SLAVE_CLASS_D
 479:./Middlewares/ST/usbx/common/usbx_device_classes/src/ux_device_class_dfu_control_request.c **** 
 480:./Middlewares/ST/usbx/common/usbx_device_classes/src/ux_device_class_dfu_control_request.c ****                     /* Next state.  */
 481:./Middlewares/ST/usbx/common/usbx_device_classes/src/ux_device_class_dfu_control_request.c ****                     *(transfer_request -> ux_slave_transfer_request_data_pointer + UX_SLAVE_CLASS_D
 482:./Middlewares/ST/usbx/common/usbx_device_classes/src/ux_device_class_dfu_control_request.c **** 
ARM GAS  /tmp/ccp1d2wf.s 			page 14


 483:./Middlewares/ST/usbx/common/usbx_device_classes/src/ux_device_class_dfu_control_request.c ****                     /* String index set to 0.  */
 484:./Middlewares/ST/usbx/common/usbx_device_classes/src/ux_device_class_dfu_control_request.c ****                     *(transfer_request -> ux_slave_transfer_request_data_pointer + UX_SLAVE_CLASS_D
 485:./Middlewares/ST/usbx/common/usbx_device_classes/src/ux_device_class_dfu_control_request.c **** #endif
 486:./Middlewares/ST/usbx/common/usbx_device_classes/src/ux_device_class_dfu_control_request.c **** 
 487:./Middlewares/ST/usbx/common/usbx_device_classes/src/ux_device_class_dfu_control_request.c ****                     /* We have a request to obtain the status of the DFU instance. */
 488:./Middlewares/ST/usbx/common/usbx_device_classes/src/ux_device_class_dfu_control_request.c ****                     _ux_device_stack_transfer_request(transfer_request, UX_SLAVE_CLASS_DFU_GET_STAT
 489:./Middlewares/ST/usbx/common/usbx_device_classes/src/ux_device_class_dfu_control_request.c **** 
 490:./Middlewares/ST/usbx/common/usbx_device_classes/src/ux_device_class_dfu_control_request.c ****                     break;
 491:./Middlewares/ST/usbx/common/usbx_device_classes/src/ux_device_class_dfu_control_request.c **** 
 492:./Middlewares/ST/usbx/common/usbx_device_classes/src/ux_device_class_dfu_control_request.c ****                 case UX_SLAVE_CLASS_DFU_COMMAND_GET_STATE :
 493:./Middlewares/ST/usbx/common/usbx_device_classes/src/ux_device_class_dfu_control_request.c **** 
 494:./Middlewares/ST/usbx/common/usbx_device_classes/src/ux_device_class_dfu_control_request.c ****                     /* Fill the status data payload.  First with state.  */
 495:./Middlewares/ST/usbx/common/usbx_device_classes/src/ux_device_class_dfu_control_request.c ****                     *transfer_request -> ux_slave_transfer_request_data_pointer = (UCHAR) _ux_syste
 496:./Middlewares/ST/usbx/common/usbx_device_classes/src/ux_device_class_dfu_control_request.c **** 
 497:./Middlewares/ST/usbx/common/usbx_device_classes/src/ux_device_class_dfu_control_request.c ****                     /* We have a request to obtain the status of the DFU instance. */
 498:./Middlewares/ST/usbx/common/usbx_device_classes/src/ux_device_class_dfu_control_request.c ****                     _ux_device_stack_transfer_request(transfer_request, UX_SLAVE_CLASS_DFU_GET_STAT
 499:./Middlewares/ST/usbx/common/usbx_device_classes/src/ux_device_class_dfu_control_request.c **** 
 500:./Middlewares/ST/usbx/common/usbx_device_classes/src/ux_device_class_dfu_control_request.c ****                     break;
 501:./Middlewares/ST/usbx/common/usbx_device_classes/src/ux_device_class_dfu_control_request.c **** 
 502:./Middlewares/ST/usbx/common/usbx_device_classes/src/ux_device_class_dfu_control_request.c ****                 default:
 503:./Middlewares/ST/usbx/common/usbx_device_classes/src/ux_device_class_dfu_control_request.c **** 
 504:./Middlewares/ST/usbx/common/usbx_device_classes/src/ux_device_class_dfu_control_request.c ****                     /* Unknown function. Stall the endpoint.  */
 505:./Middlewares/ST/usbx/common/usbx_device_classes/src/ux_device_class_dfu_control_request.c ****                     _ux_device_stack_endpoint_stall(&device -> ux_slave_device_control_endpoint);
 506:./Middlewares/ST/usbx/common/usbx_device_classes/src/ux_device_class_dfu_control_request.c **** 
 507:./Middlewares/ST/usbx/common/usbx_device_classes/src/ux_device_class_dfu_control_request.c ****                     /* In the system, state the DFU state machine to dfu ERROR.  */
 508:./Middlewares/ST/usbx/common/usbx_device_classes/src/ux_device_class_dfu_control_request.c ****                        _ux_system_slave -> ux_system_slave_device_dfu_state_machine = UX_SYSTEM_DFU
 509:./Middlewares/ST/usbx/common/usbx_device_classes/src/ux_device_class_dfu_control_request.c **** 
 510:./Middlewares/ST/usbx/common/usbx_device_classes/src/ux_device_class_dfu_control_request.c ****                     break;
 511:./Middlewares/ST/usbx/common/usbx_device_classes/src/ux_device_class_dfu_control_request.c ****             }
 512:./Middlewares/ST/usbx/common/usbx_device_classes/src/ux_device_class_dfu_control_request.c **** 
 513:./Middlewares/ST/usbx/common/usbx_device_classes/src/ux_device_class_dfu_control_request.c ****             break;
 514:./Middlewares/ST/usbx/common/usbx_device_classes/src/ux_device_class_dfu_control_request.c **** 
 515:./Middlewares/ST/usbx/common/usbx_device_classes/src/ux_device_class_dfu_control_request.c ****         case UX_SLAVE_CLASS_DFU_STATUS_STATE_DFU_DNLOAD_IDLE         :
 516:./Middlewares/ST/usbx/common/usbx_device_classes/src/ux_device_class_dfu_control_request.c **** 
 517:./Middlewares/ST/usbx/common/usbx_device_classes/src/ux_device_class_dfu_control_request.c ****             /* Here we process only the request we can accept in the DFU mode DNLOAD state.  */
 518:./Middlewares/ST/usbx/common/usbx_device_classes/src/ux_device_class_dfu_control_request.c ****             switch (request)
 519:./Middlewares/ST/usbx/common/usbx_device_classes/src/ux_device_class_dfu_control_request.c ****             {
 520:./Middlewares/ST/usbx/common/usbx_device_classes/src/ux_device_class_dfu_control_request.c **** 
 521:./Middlewares/ST/usbx/common/usbx_device_classes/src/ux_device_class_dfu_control_request.c ****                 case UX_SLAVE_CLASS_DFU_COMMAND_DOWNLOAD :
 522:./Middlewares/ST/usbx/common/usbx_device_classes/src/ux_device_class_dfu_control_request.c **** 
 523:./Middlewares/ST/usbx/common/usbx_device_classes/src/ux_device_class_dfu_control_request.c ****                     /* We received a DOWNLOAD command. Check the length field of the request. If it
 524:./Middlewares/ST/usbx/common/usbx_device_classes/src/ux_device_class_dfu_control_request.c ****                        we are done with the transfer.  */
 525:./Middlewares/ST/usbx/common/usbx_device_classes/src/ux_device_class_dfu_control_request.c ****                     if (request_length == 0)
 526:./Middlewares/ST/usbx/common/usbx_device_classes/src/ux_device_class_dfu_control_request.c ****                     {
 527:./Middlewares/ST/usbx/common/usbx_device_classes/src/ux_device_class_dfu_control_request.c **** 
 528:./Middlewares/ST/usbx/common/usbx_device_classes/src/ux_device_class_dfu_control_request.c ****                         /* Send the notification of end of download to application.  */
 529:./Middlewares/ST/usbx/common/usbx_device_classes/src/ux_device_class_dfu_control_request.c ****                         dfu -> ux_slave_class_dfu_notify(dfu, UX_SLAVE_CLASS_DFU_NOTIFICATION_END_D
 530:./Middlewares/ST/usbx/common/usbx_device_classes/src/ux_device_class_dfu_control_request.c **** 
 531:./Middlewares/ST/usbx/common/usbx_device_classes/src/ux_device_class_dfu_control_request.c ****                         /* In the system, state the DFU state machine to DFU MANIFEST SYNCH.  */
 532:./Middlewares/ST/usbx/common/usbx_device_classes/src/ux_device_class_dfu_control_request.c ****                         _ux_system_slave -> ux_system_slave_device_dfu_state_machine = UX_SLAVE_CLA
 533:./Middlewares/ST/usbx/common/usbx_device_classes/src/ux_device_class_dfu_control_request.c **** 
 534:./Middlewares/ST/usbx/common/usbx_device_classes/src/ux_device_class_dfu_control_request.c ****                     }
 535:./Middlewares/ST/usbx/common/usbx_device_classes/src/ux_device_class_dfu_control_request.c **** 
 536:./Middlewares/ST/usbx/common/usbx_device_classes/src/ux_device_class_dfu_control_request.c ****                     else
 537:./Middlewares/ST/usbx/common/usbx_device_classes/src/ux_device_class_dfu_control_request.c ****                     {
 538:./Middlewares/ST/usbx/common/usbx_device_classes/src/ux_device_class_dfu_control_request.c **** 
 539:./Middlewares/ST/usbx/common/usbx_device_classes/src/ux_device_class_dfu_control_request.c ****                         /* Write the next block to the firmware.  */
ARM GAS  /tmp/ccp1d2wf.s 			page 15


 540:./Middlewares/ST/usbx/common/usbx_device_classes/src/ux_device_class_dfu_control_request.c ****                         dfu -> ux_slave_class_dfu_write(dfu, request_value,
 541:./Middlewares/ST/usbx/common/usbx_device_classes/src/ux_device_class_dfu_control_request.c ****                                                             transfer_request -> ux_slave_transfer_r
 542:./Middlewares/ST/usbx/common/usbx_device_classes/src/ux_device_class_dfu_control_request.c ****                                                             request_length,
 543:./Middlewares/ST/usbx/common/usbx_device_classes/src/ux_device_class_dfu_control_request.c ****                                                             &actual_length);
 544:./Middlewares/ST/usbx/common/usbx_device_classes/src/ux_device_class_dfu_control_request.c **** 
 545:./Middlewares/ST/usbx/common/usbx_device_classes/src/ux_device_class_dfu_control_request.c ****                         /* In the system, state the DFU state machine to dfu DOWNLOAD SYNC.  */
 546:./Middlewares/ST/usbx/common/usbx_device_classes/src/ux_device_class_dfu_control_request.c ****                         _ux_system_slave -> ux_system_slave_device_dfu_state_machine = UX_SYSTEM_DF
 547:./Middlewares/ST/usbx/common/usbx_device_classes/src/ux_device_class_dfu_control_request.c ****                     }
 548:./Middlewares/ST/usbx/common/usbx_device_classes/src/ux_device_class_dfu_control_request.c **** 
 549:./Middlewares/ST/usbx/common/usbx_device_classes/src/ux_device_class_dfu_control_request.c ****                     break;
 550:./Middlewares/ST/usbx/common/usbx_device_classes/src/ux_device_class_dfu_control_request.c **** 
 551:./Middlewares/ST/usbx/common/usbx_device_classes/src/ux_device_class_dfu_control_request.c ****                 case UX_SLAVE_CLASS_DFU_COMMAND_ABORT :
 552:./Middlewares/ST/usbx/common/usbx_device_classes/src/ux_device_class_dfu_control_request.c **** 
 553:./Middlewares/ST/usbx/common/usbx_device_classes/src/ux_device_class_dfu_control_request.c ****                     /* Send a notification to the application.  */
 554:./Middlewares/ST/usbx/common/usbx_device_classes/src/ux_device_class_dfu_control_request.c ****                     dfu -> ux_slave_class_dfu_notify(dfu, UX_SLAVE_CLASS_DFU_NOTIFICATION_ABORT_DOW
 555:./Middlewares/ST/usbx/common/usbx_device_classes/src/ux_device_class_dfu_control_request.c **** 
 556:./Middlewares/ST/usbx/common/usbx_device_classes/src/ux_device_class_dfu_control_request.c ****                     /* In the system, state the DFU state machine to dfu IDLE.  */
 557:./Middlewares/ST/usbx/common/usbx_device_classes/src/ux_device_class_dfu_control_request.c ****                     _ux_system_slave -> ux_system_slave_device_dfu_state_machine = UX_SYSTEM_DFU_ST
 558:./Middlewares/ST/usbx/common/usbx_device_classes/src/ux_device_class_dfu_control_request.c **** 
 559:./Middlewares/ST/usbx/common/usbx_device_classes/src/ux_device_class_dfu_control_request.c ****                     break;
 560:./Middlewares/ST/usbx/common/usbx_device_classes/src/ux_device_class_dfu_control_request.c **** 
 561:./Middlewares/ST/usbx/common/usbx_device_classes/src/ux_device_class_dfu_control_request.c ****                 case UX_SLAVE_CLASS_DFU_COMMAND_GET_STATUS :
 562:./Middlewares/ST/usbx/common/usbx_device_classes/src/ux_device_class_dfu_control_request.c **** 
 563:./Middlewares/ST/usbx/common/usbx_device_classes/src/ux_device_class_dfu_control_request.c **** #if UX_DEVICE_CLASS_DFU_STATUS_MODE == 1
 564:./Middlewares/ST/usbx/common/usbx_device_classes/src/ux_device_class_dfu_control_request.c ****                     _ux_device_class_dfu_status_get(dfu, transfer_request, UX_FALSE, 0, 0, 0);
 565:./Middlewares/ST/usbx/common/usbx_device_classes/src/ux_device_class_dfu_control_request.c **** #else
 566:./Middlewares/ST/usbx/common/usbx_device_classes/src/ux_device_class_dfu_control_request.c **** 
 567:./Middlewares/ST/usbx/common/usbx_device_classes/src/ux_device_class_dfu_control_request.c ****                     /* Fill the status data payload.  First with status.  */
 568:./Middlewares/ST/usbx/common/usbx_device_classes/src/ux_device_class_dfu_control_request.c ****                     *transfer_request -> ux_slave_transfer_request_data_pointer = (UCHAR) dfu -> ux
 569:./Middlewares/ST/usbx/common/usbx_device_classes/src/ux_device_class_dfu_control_request.c **** 
 570:./Middlewares/ST/usbx/common/usbx_device_classes/src/ux_device_class_dfu_control_request.c ****                     /* Poll time out value is set to 1ms.  */
 571:./Middlewares/ST/usbx/common/usbx_device_classes/src/ux_device_class_dfu_control_request.c ****                     *(transfer_request -> ux_slave_transfer_request_data_pointer + UX_SLAVE_CLASS_D
 572:./Middlewares/ST/usbx/common/usbx_device_classes/src/ux_device_class_dfu_control_request.c ****                     *(transfer_request -> ux_slave_transfer_request_data_pointer + UX_SLAVE_CLASS_D
 573:./Middlewares/ST/usbx/common/usbx_device_classes/src/ux_device_class_dfu_control_request.c ****                     *(transfer_request -> ux_slave_transfer_request_data_pointer + UX_SLAVE_CLASS_D
 574:./Middlewares/ST/usbx/common/usbx_device_classes/src/ux_device_class_dfu_control_request.c **** 
 575:./Middlewares/ST/usbx/common/usbx_device_classes/src/ux_device_class_dfu_control_request.c ****                     /* Next state.  */
 576:./Middlewares/ST/usbx/common/usbx_device_classes/src/ux_device_class_dfu_control_request.c ****                     *(transfer_request -> ux_slave_transfer_request_data_pointer + UX_SLAVE_CLASS_D
 577:./Middlewares/ST/usbx/common/usbx_device_classes/src/ux_device_class_dfu_control_request.c **** 
 578:./Middlewares/ST/usbx/common/usbx_device_classes/src/ux_device_class_dfu_control_request.c ****                     /* String index set to 0.  */
 579:./Middlewares/ST/usbx/common/usbx_device_classes/src/ux_device_class_dfu_control_request.c ****                     *(transfer_request -> ux_slave_transfer_request_data_pointer + UX_SLAVE_CLASS_D
 580:./Middlewares/ST/usbx/common/usbx_device_classes/src/ux_device_class_dfu_control_request.c **** #endif
 581:./Middlewares/ST/usbx/common/usbx_device_classes/src/ux_device_class_dfu_control_request.c **** 
 582:./Middlewares/ST/usbx/common/usbx_device_classes/src/ux_device_class_dfu_control_request.c ****                     /* We have a request to obtain the status of the DFU instance. */
 583:./Middlewares/ST/usbx/common/usbx_device_classes/src/ux_device_class_dfu_control_request.c ****                     _ux_device_stack_transfer_request(transfer_request, UX_SLAVE_CLASS_DFU_GET_STAT
 584:./Middlewares/ST/usbx/common/usbx_device_classes/src/ux_device_class_dfu_control_request.c **** 
 585:./Middlewares/ST/usbx/common/usbx_device_classes/src/ux_device_class_dfu_control_request.c ****                     break;
 586:./Middlewares/ST/usbx/common/usbx_device_classes/src/ux_device_class_dfu_control_request.c **** 
 587:./Middlewares/ST/usbx/common/usbx_device_classes/src/ux_device_class_dfu_control_request.c ****                 case UX_SLAVE_CLASS_DFU_COMMAND_GET_STATE :
 588:./Middlewares/ST/usbx/common/usbx_device_classes/src/ux_device_class_dfu_control_request.c **** 
 589:./Middlewares/ST/usbx/common/usbx_device_classes/src/ux_device_class_dfu_control_request.c ****                     /* Fill the status data payload.  First with state.  */
 590:./Middlewares/ST/usbx/common/usbx_device_classes/src/ux_device_class_dfu_control_request.c ****                     *transfer_request -> ux_slave_transfer_request_data_pointer = (UCHAR) _ux_syste
 591:./Middlewares/ST/usbx/common/usbx_device_classes/src/ux_device_class_dfu_control_request.c **** 
 592:./Middlewares/ST/usbx/common/usbx_device_classes/src/ux_device_class_dfu_control_request.c ****                     /* We have a request to obtain the status of the DFU instance. */
 593:./Middlewares/ST/usbx/common/usbx_device_classes/src/ux_device_class_dfu_control_request.c ****                     _ux_device_stack_transfer_request(transfer_request, UX_SLAVE_CLASS_DFU_GET_STAT
 594:./Middlewares/ST/usbx/common/usbx_device_classes/src/ux_device_class_dfu_control_request.c **** 
 595:./Middlewares/ST/usbx/common/usbx_device_classes/src/ux_device_class_dfu_control_request.c ****                     break;
 596:./Middlewares/ST/usbx/common/usbx_device_classes/src/ux_device_class_dfu_control_request.c **** 
ARM GAS  /tmp/ccp1d2wf.s 			page 16


 597:./Middlewares/ST/usbx/common/usbx_device_classes/src/ux_device_class_dfu_control_request.c ****                 default:
 598:./Middlewares/ST/usbx/common/usbx_device_classes/src/ux_device_class_dfu_control_request.c **** 
 599:./Middlewares/ST/usbx/common/usbx_device_classes/src/ux_device_class_dfu_control_request.c ****                     /* Unknown function. Stall the endpoint.  */
 600:./Middlewares/ST/usbx/common/usbx_device_classes/src/ux_device_class_dfu_control_request.c ****                     _ux_device_stack_endpoint_stall(&device -> ux_slave_device_control_endpoint);
 601:./Middlewares/ST/usbx/common/usbx_device_classes/src/ux_device_class_dfu_control_request.c **** 
 602:./Middlewares/ST/usbx/common/usbx_device_classes/src/ux_device_class_dfu_control_request.c ****                     /* In the system, state the DFU state machine to dfu ERROR.  */
 603:./Middlewares/ST/usbx/common/usbx_device_classes/src/ux_device_class_dfu_control_request.c ****                        _ux_system_slave -> ux_system_slave_device_dfu_state_machine = UX_SYSTEM_DFU
 604:./Middlewares/ST/usbx/common/usbx_device_classes/src/ux_device_class_dfu_control_request.c **** 
 605:./Middlewares/ST/usbx/common/usbx_device_classes/src/ux_device_class_dfu_control_request.c ****                     break;
 606:./Middlewares/ST/usbx/common/usbx_device_classes/src/ux_device_class_dfu_control_request.c ****             }
 607:./Middlewares/ST/usbx/common/usbx_device_classes/src/ux_device_class_dfu_control_request.c **** 
 608:./Middlewares/ST/usbx/common/usbx_device_classes/src/ux_device_class_dfu_control_request.c ****             break;
 609:./Middlewares/ST/usbx/common/usbx_device_classes/src/ux_device_class_dfu_control_request.c **** 
 610:./Middlewares/ST/usbx/common/usbx_device_classes/src/ux_device_class_dfu_control_request.c ****         case UX_SLAVE_CLASS_DFU_STATUS_STATE_DFU_MANIFEST_SYNC         :
 611:./Middlewares/ST/usbx/common/usbx_device_classes/src/ux_device_class_dfu_control_request.c **** 
 612:./Middlewares/ST/usbx/common/usbx_device_classes/src/ux_device_class_dfu_control_request.c ****             /* Here we process only the request we can accept in the MANIFEST SYNCH state.  */
 613:./Middlewares/ST/usbx/common/usbx_device_classes/src/ux_device_class_dfu_control_request.c ****             switch (request)
 614:./Middlewares/ST/usbx/common/usbx_device_classes/src/ux_device_class_dfu_control_request.c ****             {
 615:./Middlewares/ST/usbx/common/usbx_device_classes/src/ux_device_class_dfu_control_request.c **** 
 616:./Middlewares/ST/usbx/common/usbx_device_classes/src/ux_device_class_dfu_control_request.c ****                 case UX_SLAVE_CLASS_DFU_COMMAND_GET_STATUS :
 617:./Middlewares/ST/usbx/common/usbx_device_classes/src/ux_device_class_dfu_control_request.c **** 
 618:./Middlewares/ST/usbx/common/usbx_device_classes/src/ux_device_class_dfu_control_request.c **** #if UX_DEVICE_CLASS_DFU_STATUS_MODE == 1
 619:./Middlewares/ST/usbx/common/usbx_device_classes/src/ux_device_class_dfu_control_request.c ****                     _ux_device_class_dfu_status_get(dfu, transfer_request, UX_TRUE,
 620:./Middlewares/ST/usbx/common/usbx_device_classes/src/ux_device_class_dfu_control_request.c ****                             UX_SLAVE_CLASS_DFU_STATUS_STATE_DFU_MANIFEST_WAIT_RESET,
 621:./Middlewares/ST/usbx/common/usbx_device_classes/src/ux_device_class_dfu_control_request.c ****                             UX_SLAVE_CLASS_DFU_STATUS_STATE_DFU_MANIFEST,
 622:./Middlewares/ST/usbx/common/usbx_device_classes/src/ux_device_class_dfu_control_request.c ****                             UX_SLAVE_CLASS_DFU_STATUS_STATE_DFU_ERROR);
 623:./Middlewares/ST/usbx/common/usbx_device_classes/src/ux_device_class_dfu_control_request.c ****                     if ((_ux_system_slave -> ux_system_slave_device_dfu_state_machine ==
 624:./Middlewares/ST/usbx/common/usbx_device_classes/src/ux_device_class_dfu_control_request.c ****                             UX_SLAVE_CLASS_DFU_STATUS_STATE_DFU_MANIFEST_WAIT_RESET) &&
 625:./Middlewares/ST/usbx/common/usbx_device_classes/src/ux_device_class_dfu_control_request.c ****                         (_ux_system_slave -> ux_system_slave_device_dfu_capabilities &
 626:./Middlewares/ST/usbx/common/usbx_device_classes/src/ux_device_class_dfu_control_request.c ****                             UX_SLAVE_CLASS_DFU_CAPABILITY_WILL_DETACH))
 627:./Middlewares/ST/usbx/common/usbx_device_classes/src/ux_device_class_dfu_control_request.c ****                     {
 628:./Middlewares/ST/usbx/common/usbx_device_classes/src/ux_device_class_dfu_control_request.c **** 
 629:./Middlewares/ST/usbx/common/usbx_device_classes/src/ux_device_class_dfu_control_request.c ****                         /* Wake up the DFU thread and send a detach request..  */
 630:./Middlewares/ST/usbx/common/usbx_device_classes/src/ux_device_class_dfu_control_request.c ****                         _ux_device_class_dfu_event_flags_set(dfu, UX_DEVICE_CLASS_DFU_THREAD_EVENT_
 631:./Middlewares/ST/usbx/common/usbx_device_classes/src/ux_device_class_dfu_control_request.c ****                     }
 632:./Middlewares/ST/usbx/common/usbx_device_classes/src/ux_device_class_dfu_control_request.c **** #else
 633:./Middlewares/ST/usbx/common/usbx_device_classes/src/ux_device_class_dfu_control_request.c **** 
 634:./Middlewares/ST/usbx/common/usbx_device_classes/src/ux_device_class_dfu_control_request.c ****                     /* Check if the device is still buys performing the write. Write could be delay
 635:./Middlewares/ST/usbx/common/usbx_device_classes/src/ux_device_class_dfu_control_request.c ****                     dfu -> ux_slave_class_dfu_get_status(dfu, &media_status);
 636:./Middlewares/ST/usbx/common/usbx_device_classes/src/ux_device_class_dfu_control_request.c **** 
 637:./Middlewares/ST/usbx/common/usbx_device_classes/src/ux_device_class_dfu_control_request.c ****                     /* Check status of device.  */
 638:./Middlewares/ST/usbx/common/usbx_device_classes/src/ux_device_class_dfu_control_request.c ****                     switch (media_status)
 639:./Middlewares/ST/usbx/common/usbx_device_classes/src/ux_device_class_dfu_control_request.c ****                     {
 640:./Middlewares/ST/usbx/common/usbx_device_classes/src/ux_device_class_dfu_control_request.c **** 
 641:./Middlewares/ST/usbx/common/usbx_device_classes/src/ux_device_class_dfu_control_request.c ****                         case     UX_SLAVE_CLASS_DFU_MEDIA_STATUS_OK        :
 642:./Middlewares/ST/usbx/common/usbx_device_classes/src/ux_device_class_dfu_control_request.c **** 
 643:./Middlewares/ST/usbx/common/usbx_device_classes/src/ux_device_class_dfu_control_request.c ****                             /* Set the next state for wait reset and no error status.  */
 644:./Middlewares/ST/usbx/common/usbx_device_classes/src/ux_device_class_dfu_control_request.c ****                             dfu -> ux_slave_class_dfu_status = UX_SLAVE_CLASS_DFU_STATUS_OK ;
 645:./Middlewares/ST/usbx/common/usbx_device_classes/src/ux_device_class_dfu_control_request.c ****                                _ux_system_slave -> ux_system_slave_device_dfu_state_machine = UX_SL
 646:./Middlewares/ST/usbx/common/usbx_device_classes/src/ux_device_class_dfu_control_request.c **** 
 647:./Middlewares/ST/usbx/common/usbx_device_classes/src/ux_device_class_dfu_control_request.c ****                             /* Check who is responsible for the RESET.  */
 648:./Middlewares/ST/usbx/common/usbx_device_classes/src/ux_device_class_dfu_control_request.c ****                             if (_ux_system_slave -> ux_system_slave_device_dfu_capabilities &  UX_S
 649:./Middlewares/ST/usbx/common/usbx_device_classes/src/ux_device_class_dfu_control_request.c ****                             {
 650:./Middlewares/ST/usbx/common/usbx_device_classes/src/ux_device_class_dfu_control_request.c **** 
 651:./Middlewares/ST/usbx/common/usbx_device_classes/src/ux_device_class_dfu_control_request.c ****                                 /* Wake up the DFU thread and send a detach request..  */
 652:./Middlewares/ST/usbx/common/usbx_device_classes/src/ux_device_class_dfu_control_request.c ****                                 _ux_device_class_dfu_event_flags_set(dfu, UX_DEVICE_CLASS_DFU_THREA
 653:./Middlewares/ST/usbx/common/usbx_device_classes/src/ux_device_class_dfu_control_request.c **** 
ARM GAS  /tmp/ccp1d2wf.s 			page 17


 654:./Middlewares/ST/usbx/common/usbx_device_classes/src/ux_device_class_dfu_control_request.c ****                             }
 655:./Middlewares/ST/usbx/common/usbx_device_classes/src/ux_device_class_dfu_control_request.c **** 
 656:./Middlewares/ST/usbx/common/usbx_device_classes/src/ux_device_class_dfu_control_request.c ****                             break;
 657:./Middlewares/ST/usbx/common/usbx_device_classes/src/ux_device_class_dfu_control_request.c **** 
 658:./Middlewares/ST/usbx/common/usbx_device_classes/src/ux_device_class_dfu_control_request.c ****                         case     UX_SLAVE_CLASS_DFU_MEDIA_STATUS_BUSY    :
 659:./Middlewares/ST/usbx/common/usbx_device_classes/src/ux_device_class_dfu_control_request.c **** 
 660:./Middlewares/ST/usbx/common/usbx_device_classes/src/ux_device_class_dfu_control_request.c ****                             /* Set the next state for busy but no error status.  */
 661:./Middlewares/ST/usbx/common/usbx_device_classes/src/ux_device_class_dfu_control_request.c ****                             dfu -> ux_slave_class_dfu_status = UX_SLAVE_CLASS_DFU_STATUS_OK ;
 662:./Middlewares/ST/usbx/common/usbx_device_classes/src/ux_device_class_dfu_control_request.c ****                                _ux_system_slave -> ux_system_slave_device_dfu_state_machine = UX_SL
 663:./Middlewares/ST/usbx/common/usbx_device_classes/src/ux_device_class_dfu_control_request.c ****                             break;
 664:./Middlewares/ST/usbx/common/usbx_device_classes/src/ux_device_class_dfu_control_request.c **** 
 665:./Middlewares/ST/usbx/common/usbx_device_classes/src/ux_device_class_dfu_control_request.c ****                         case    UX_SLAVE_CLASS_DFU_MEDIA_STATUS_ERROR   :
 666:./Middlewares/ST/usbx/common/usbx_device_classes/src/ux_device_class_dfu_control_request.c **** 
 667:./Middlewares/ST/usbx/common/usbx_device_classes/src/ux_device_class_dfu_control_request.c ****                             /* Set the next state for busy and error status.  */
 668:./Middlewares/ST/usbx/common/usbx_device_classes/src/ux_device_class_dfu_control_request.c ****                             dfu -> ux_slave_class_dfu_status = UX_SLAVE_CLASS_DFU_STATUS_ERROR_WRIT
 669:./Middlewares/ST/usbx/common/usbx_device_classes/src/ux_device_class_dfu_control_request.c ****                                _ux_system_slave -> ux_system_slave_device_dfu_state_machine = UX_SL
 670:./Middlewares/ST/usbx/common/usbx_device_classes/src/ux_device_class_dfu_control_request.c ****                             break;
 671:./Middlewares/ST/usbx/common/usbx_device_classes/src/ux_device_class_dfu_control_request.c ****                     }
 672:./Middlewares/ST/usbx/common/usbx_device_classes/src/ux_device_class_dfu_control_request.c **** 
 673:./Middlewares/ST/usbx/common/usbx_device_classes/src/ux_device_class_dfu_control_request.c ****                     /* Fill the status data payload.  First with status.  */
 674:./Middlewares/ST/usbx/common/usbx_device_classes/src/ux_device_class_dfu_control_request.c ****                     *transfer_request -> ux_slave_transfer_request_data_pointer = (UCHAR) dfu -> ux
 675:./Middlewares/ST/usbx/common/usbx_device_classes/src/ux_device_class_dfu_control_request.c **** 
 676:./Middlewares/ST/usbx/common/usbx_device_classes/src/ux_device_class_dfu_control_request.c ****                     /* Poll time out value is set to 1ms.  */
 677:./Middlewares/ST/usbx/common/usbx_device_classes/src/ux_device_class_dfu_control_request.c ****                     *(transfer_request -> ux_slave_transfer_request_data_pointer + UX_SLAVE_CLASS_D
 678:./Middlewares/ST/usbx/common/usbx_device_classes/src/ux_device_class_dfu_control_request.c ****                     *(transfer_request -> ux_slave_transfer_request_data_pointer + UX_SLAVE_CLASS_D
 679:./Middlewares/ST/usbx/common/usbx_device_classes/src/ux_device_class_dfu_control_request.c ****                     *(transfer_request -> ux_slave_transfer_request_data_pointer + UX_SLAVE_CLASS_D
 680:./Middlewares/ST/usbx/common/usbx_device_classes/src/ux_device_class_dfu_control_request.c **** 
 681:./Middlewares/ST/usbx/common/usbx_device_classes/src/ux_device_class_dfu_control_request.c ****                     /* Next state.  */
 682:./Middlewares/ST/usbx/common/usbx_device_classes/src/ux_device_class_dfu_control_request.c ****                     *(transfer_request -> ux_slave_transfer_request_data_pointer + UX_SLAVE_CLASS_D
 683:./Middlewares/ST/usbx/common/usbx_device_classes/src/ux_device_class_dfu_control_request.c **** 
 684:./Middlewares/ST/usbx/common/usbx_device_classes/src/ux_device_class_dfu_control_request.c ****                     /* String index set to 0.  */
 685:./Middlewares/ST/usbx/common/usbx_device_classes/src/ux_device_class_dfu_control_request.c ****                     *(transfer_request -> ux_slave_transfer_request_data_pointer + UX_SLAVE_CLASS_D
 686:./Middlewares/ST/usbx/common/usbx_device_classes/src/ux_device_class_dfu_control_request.c **** #endif
 687:./Middlewares/ST/usbx/common/usbx_device_classes/src/ux_device_class_dfu_control_request.c **** 
 688:./Middlewares/ST/usbx/common/usbx_device_classes/src/ux_device_class_dfu_control_request.c ****                     /* We have a request to obtain the status of the DFU instance. */
 689:./Middlewares/ST/usbx/common/usbx_device_classes/src/ux_device_class_dfu_control_request.c ****                     _ux_device_stack_transfer_request(transfer_request, UX_SLAVE_CLASS_DFU_GET_STAT
 690:./Middlewares/ST/usbx/common/usbx_device_classes/src/ux_device_class_dfu_control_request.c **** 
 691:./Middlewares/ST/usbx/common/usbx_device_classes/src/ux_device_class_dfu_control_request.c ****                     break;
 692:./Middlewares/ST/usbx/common/usbx_device_classes/src/ux_device_class_dfu_control_request.c **** 
 693:./Middlewares/ST/usbx/common/usbx_device_classes/src/ux_device_class_dfu_control_request.c ****                 case UX_SLAVE_CLASS_DFU_COMMAND_GET_STATE :
 694:./Middlewares/ST/usbx/common/usbx_device_classes/src/ux_device_class_dfu_control_request.c **** 
 695:./Middlewares/ST/usbx/common/usbx_device_classes/src/ux_device_class_dfu_control_request.c ****                     /* Fill the status data payload.  First with state.  */
 696:./Middlewares/ST/usbx/common/usbx_device_classes/src/ux_device_class_dfu_control_request.c ****                     *transfer_request -> ux_slave_transfer_request_data_pointer = (UCHAR) _ux_syste
 697:./Middlewares/ST/usbx/common/usbx_device_classes/src/ux_device_class_dfu_control_request.c **** 
 698:./Middlewares/ST/usbx/common/usbx_device_classes/src/ux_device_class_dfu_control_request.c ****                     /* We have a request to obtain the status of the DFU instance. */
 699:./Middlewares/ST/usbx/common/usbx_device_classes/src/ux_device_class_dfu_control_request.c ****                     _ux_device_stack_transfer_request(transfer_request, UX_SLAVE_CLASS_DFU_GET_STAT
 700:./Middlewares/ST/usbx/common/usbx_device_classes/src/ux_device_class_dfu_control_request.c **** 
 701:./Middlewares/ST/usbx/common/usbx_device_classes/src/ux_device_class_dfu_control_request.c ****                     break;
 702:./Middlewares/ST/usbx/common/usbx_device_classes/src/ux_device_class_dfu_control_request.c **** 
 703:./Middlewares/ST/usbx/common/usbx_device_classes/src/ux_device_class_dfu_control_request.c ****                 default:
 704:./Middlewares/ST/usbx/common/usbx_device_classes/src/ux_device_class_dfu_control_request.c **** 
 705:./Middlewares/ST/usbx/common/usbx_device_classes/src/ux_device_class_dfu_control_request.c ****                     /* Unknown function. Stall the endpoint.  */
 706:./Middlewares/ST/usbx/common/usbx_device_classes/src/ux_device_class_dfu_control_request.c ****                     _ux_device_stack_endpoint_stall(&device -> ux_slave_device_control_endpoint);
 707:./Middlewares/ST/usbx/common/usbx_device_classes/src/ux_device_class_dfu_control_request.c ****                     break;
 708:./Middlewares/ST/usbx/common/usbx_device_classes/src/ux_device_class_dfu_control_request.c ****             }
 709:./Middlewares/ST/usbx/common/usbx_device_classes/src/ux_device_class_dfu_control_request.c **** 
 710:./Middlewares/ST/usbx/common/usbx_device_classes/src/ux_device_class_dfu_control_request.c ****             break;
ARM GAS  /tmp/ccp1d2wf.s 			page 18


 711:./Middlewares/ST/usbx/common/usbx_device_classes/src/ux_device_class_dfu_control_request.c **** 
 712:./Middlewares/ST/usbx/common/usbx_device_classes/src/ux_device_class_dfu_control_request.c ****         case UX_SLAVE_CLASS_DFU_STATUS_STATE_DFU_ERROR         :
 713:./Middlewares/ST/usbx/common/usbx_device_classes/src/ux_device_class_dfu_control_request.c **** 
 714:./Middlewares/ST/usbx/common/usbx_device_classes/src/ux_device_class_dfu_control_request.c ****             /* Here we process only the request we can accept in the ERROR state.  */
 715:./Middlewares/ST/usbx/common/usbx_device_classes/src/ux_device_class_dfu_control_request.c ****             switch (request)
 716:./Middlewares/ST/usbx/common/usbx_device_classes/src/ux_device_class_dfu_control_request.c ****             {
 717:./Middlewares/ST/usbx/common/usbx_device_classes/src/ux_device_class_dfu_control_request.c **** 
 718:./Middlewares/ST/usbx/common/usbx_device_classes/src/ux_device_class_dfu_control_request.c **** #ifdef UX_DEVICE_CLASS_DFU_ERROR_GET_ENABLE
 719:./Middlewares/ST/usbx/common/usbx_device_classes/src/ux_device_class_dfu_control_request.c ****                 case UX_SLAVE_CLASS_DFU_COMMAND_GET_STATUS :
 720:./Middlewares/ST/usbx/common/usbx_device_classes/src/ux_device_class_dfu_control_request.c **** 
 721:./Middlewares/ST/usbx/common/usbx_device_classes/src/ux_device_class_dfu_control_request.c ****                     /* Fill the status data payload.  First with status.  */
 722:./Middlewares/ST/usbx/common/usbx_device_classes/src/ux_device_class_dfu_control_request.c ****                     *transfer_request -> ux_slave_transfer_request_data_pointer = (UCHAR) dfu -> ux
 723:./Middlewares/ST/usbx/common/usbx_device_classes/src/ux_device_class_dfu_control_request.c **** 
 724:./Middlewares/ST/usbx/common/usbx_device_classes/src/ux_device_class_dfu_control_request.c ****                     /* Poll time out value is set to 1ms.  */
 725:./Middlewares/ST/usbx/common/usbx_device_classes/src/ux_device_class_dfu_control_request.c ****                     *(transfer_request -> ux_slave_transfer_request_data_pointer + UX_SLAVE_CLASS_D
 726:./Middlewares/ST/usbx/common/usbx_device_classes/src/ux_device_class_dfu_control_request.c ****                     *(transfer_request -> ux_slave_transfer_request_data_pointer + UX_SLAVE_CLASS_D
 727:./Middlewares/ST/usbx/common/usbx_device_classes/src/ux_device_class_dfu_control_request.c ****                     *(transfer_request -> ux_slave_transfer_request_data_pointer + UX_SLAVE_CLASS_D
 728:./Middlewares/ST/usbx/common/usbx_device_classes/src/ux_device_class_dfu_control_request.c **** 
 729:./Middlewares/ST/usbx/common/usbx_device_classes/src/ux_device_class_dfu_control_request.c ****                     /* Next state.  */
 730:./Middlewares/ST/usbx/common/usbx_device_classes/src/ux_device_class_dfu_control_request.c ****                     *(transfer_request -> ux_slave_transfer_request_data_pointer + UX_SLAVE_CLASS_D
 731:./Middlewares/ST/usbx/common/usbx_device_classes/src/ux_device_class_dfu_control_request.c **** 
 732:./Middlewares/ST/usbx/common/usbx_device_classes/src/ux_device_class_dfu_control_request.c ****                     /* String index set to 0.  */
 733:./Middlewares/ST/usbx/common/usbx_device_classes/src/ux_device_class_dfu_control_request.c ****                     *(transfer_request -> ux_slave_transfer_request_data_pointer + UX_SLAVE_CLASS_D
 734:./Middlewares/ST/usbx/common/usbx_device_classes/src/ux_device_class_dfu_control_request.c **** 
 735:./Middlewares/ST/usbx/common/usbx_device_classes/src/ux_device_class_dfu_control_request.c ****                     /* We have a request to obtain the status of the DFU instance. */
 736:./Middlewares/ST/usbx/common/usbx_device_classes/src/ux_device_class_dfu_control_request.c ****                     _ux_device_stack_transfer_request(transfer_request, UX_SLAVE_CLASS_DFU_GET_STAT
 737:./Middlewares/ST/usbx/common/usbx_device_classes/src/ux_device_class_dfu_control_request.c **** 
 738:./Middlewares/ST/usbx/common/usbx_device_classes/src/ux_device_class_dfu_control_request.c ****                     break;
 739:./Middlewares/ST/usbx/common/usbx_device_classes/src/ux_device_class_dfu_control_request.c **** 
 740:./Middlewares/ST/usbx/common/usbx_device_classes/src/ux_device_class_dfu_control_request.c ****                 case UX_SLAVE_CLASS_DFU_COMMAND_GET_STATE :
 741:./Middlewares/ST/usbx/common/usbx_device_classes/src/ux_device_class_dfu_control_request.c **** 
 742:./Middlewares/ST/usbx/common/usbx_device_classes/src/ux_device_class_dfu_control_request.c ****                     /* Fill the status data payload.  First with state.  */
 743:./Middlewares/ST/usbx/common/usbx_device_classes/src/ux_device_class_dfu_control_request.c ****                     *transfer_request -> ux_slave_transfer_request_data_pointer = (UCHAR) _ux_syste
 744:./Middlewares/ST/usbx/common/usbx_device_classes/src/ux_device_class_dfu_control_request.c **** 
 745:./Middlewares/ST/usbx/common/usbx_device_classes/src/ux_device_class_dfu_control_request.c ****                     /* We have a request to obtain the status of the DFU instance. */
 746:./Middlewares/ST/usbx/common/usbx_device_classes/src/ux_device_class_dfu_control_request.c ****                     _ux_device_stack_transfer_request(transfer_request, UX_SLAVE_CLASS_DFU_GET_STAT
 747:./Middlewares/ST/usbx/common/usbx_device_classes/src/ux_device_class_dfu_control_request.c **** 
 748:./Middlewares/ST/usbx/common/usbx_device_classes/src/ux_device_class_dfu_control_request.c ****                     break;
 749:./Middlewares/ST/usbx/common/usbx_device_classes/src/ux_device_class_dfu_control_request.c **** #endif
 750:./Middlewares/ST/usbx/common/usbx_device_classes/src/ux_device_class_dfu_control_request.c **** 
 751:./Middlewares/ST/usbx/common/usbx_device_classes/src/ux_device_class_dfu_control_request.c ****                 case UX_SLAVE_CLASS_DFU_COMMAND_CLEAR_STATUS :
 752:./Middlewares/ST/usbx/common/usbx_device_classes/src/ux_device_class_dfu_control_request.c **** 
 753:./Middlewares/ST/usbx/common/usbx_device_classes/src/ux_device_class_dfu_control_request.c ****                     /* In the system, state the DFU state machine to dfu IDLE.  */
 754:./Middlewares/ST/usbx/common/usbx_device_classes/src/ux_device_class_dfu_control_request.c ****                     dfu -> ux_slave_class_dfu_status = UX_SLAVE_CLASS_DFU_MEDIA_STATUS_OK;
 755:./Middlewares/ST/usbx/common/usbx_device_classes/src/ux_device_class_dfu_control_request.c ****                     _ux_system_slave -> ux_system_slave_device_dfu_state_machine = UX_SYSTEM_DFU_ST
 756:./Middlewares/ST/usbx/common/usbx_device_classes/src/ux_device_class_dfu_control_request.c **** 
 757:./Middlewares/ST/usbx/common/usbx_device_classes/src/ux_device_class_dfu_control_request.c ****                     break;
 758:./Middlewares/ST/usbx/common/usbx_device_classes/src/ux_device_class_dfu_control_request.c **** 
 759:./Middlewares/ST/usbx/common/usbx_device_classes/src/ux_device_class_dfu_control_request.c ****                 default:
 760:./Middlewares/ST/usbx/common/usbx_device_classes/src/ux_device_class_dfu_control_request.c **** 
 761:./Middlewares/ST/usbx/common/usbx_device_classes/src/ux_device_class_dfu_control_request.c ****                     /* Unknown function. Stall the endpoint.  */
 762:./Middlewares/ST/usbx/common/usbx_device_classes/src/ux_device_class_dfu_control_request.c ****                     _ux_device_stack_endpoint_stall(&device -> ux_slave_device_control_endpoint);
 763:./Middlewares/ST/usbx/common/usbx_device_classes/src/ux_device_class_dfu_control_request.c ****                     break;
 764:./Middlewares/ST/usbx/common/usbx_device_classes/src/ux_device_class_dfu_control_request.c **** 
 765:./Middlewares/ST/usbx/common/usbx_device_classes/src/ux_device_class_dfu_control_request.c ****             }
 766:./Middlewares/ST/usbx/common/usbx_device_classes/src/ux_device_class_dfu_control_request.c **** 
 767:./Middlewares/ST/usbx/common/usbx_device_classes/src/ux_device_class_dfu_control_request.c ****             break;
ARM GAS  /tmp/ccp1d2wf.s 			page 19


 768:./Middlewares/ST/usbx/common/usbx_device_classes/src/ux_device_class_dfu_control_request.c **** 
 769:./Middlewares/ST/usbx/common/usbx_device_classes/src/ux_device_class_dfu_control_request.c **** #ifndef UX_DEVICE_CLASS_DFU_UPLOAD_DISABLE
 770:./Middlewares/ST/usbx/common/usbx_device_classes/src/ux_device_class_dfu_control_request.c ****         case UX_SLAVE_CLASS_DFU_STATUS_STATE_DFU_UPLOAD_IDLE:
 771:./Middlewares/ST/usbx/common/usbx_device_classes/src/ux_device_class_dfu_control_request.c **** 
 772:./Middlewares/ST/usbx/common/usbx_device_classes/src/ux_device_class_dfu_control_request.c ****             /* Here we process only the request we can accept in the DFU mode UPLOAD IDLE state.  *
 773:./Middlewares/ST/usbx/common/usbx_device_classes/src/ux_device_class_dfu_control_request.c ****             switch (request)
 774:./Middlewares/ST/usbx/common/usbx_device_classes/src/ux_device_class_dfu_control_request.c ****             {
 775:./Middlewares/ST/usbx/common/usbx_device_classes/src/ux_device_class_dfu_control_request.c **** 
 776:./Middlewares/ST/usbx/common/usbx_device_classes/src/ux_device_class_dfu_control_request.c ****             case UX_SLAVE_CLASS_DFU_COMMAND_UPLOAD:
 777:./Middlewares/ST/usbx/common/usbx_device_classes/src/ux_device_class_dfu_control_request.c **** 
 778:./Middlewares/ST/usbx/common/usbx_device_classes/src/ux_device_class_dfu_control_request.c ****                 /* Length 0 case undefined, just keep state.  */
 779:./Middlewares/ST/usbx/common/usbx_device_classes/src/ux_device_class_dfu_control_request.c ****                 if (request_length == 0)
 780:./Middlewares/ST/usbx/common/usbx_device_classes/src/ux_device_class_dfu_control_request.c ****                     break;
 781:./Middlewares/ST/usbx/common/usbx_device_classes/src/ux_device_class_dfu_control_request.c **** 
 782:./Middlewares/ST/usbx/common/usbx_device_classes/src/ux_device_class_dfu_control_request.c ****                 /* We received a UPLOAD command with length > 0.  */
 783:./Middlewares/ST/usbx/common/usbx_device_classes/src/ux_device_class_dfu_control_request.c **** 
 784:./Middlewares/ST/usbx/common/usbx_device_classes/src/ux_device_class_dfu_control_request.c ****                 /* Read the next block from the firmware.  */
 785:./Middlewares/ST/usbx/common/usbx_device_classes/src/ux_device_class_dfu_control_request.c ****                 dfu -> ux_slave_class_dfu_read(dfu, request_value,
 786:./Middlewares/ST/usbx/common/usbx_device_classes/src/ux_device_class_dfu_control_request.c ****                                                     transfer_request -> ux_slave_transfer_request_d
 787:./Middlewares/ST/usbx/common/usbx_device_classes/src/ux_device_class_dfu_control_request.c ****                                                     request_length,
 788:./Middlewares/ST/usbx/common/usbx_device_classes/src/ux_device_class_dfu_control_request.c ****                                                     &actual_length);
 789:./Middlewares/ST/usbx/common/usbx_device_classes/src/ux_device_class_dfu_control_request.c **** 
 790:./Middlewares/ST/usbx/common/usbx_device_classes/src/ux_device_class_dfu_control_request.c ****                 /* If it's short frame, switch to dfu IDLE.  */
 791:./Middlewares/ST/usbx/common/usbx_device_classes/src/ux_device_class_dfu_control_request.c ****                 if (actual_length < request_length)
 792:./Middlewares/ST/usbx/common/usbx_device_classes/src/ux_device_class_dfu_control_request.c ****                 {
 793:./Middlewares/ST/usbx/common/usbx_device_classes/src/ux_device_class_dfu_control_request.c **** 
 794:./Middlewares/ST/usbx/common/usbx_device_classes/src/ux_device_class_dfu_control_request.c ****                     /* Send a notification to the application.  */
 795:./Middlewares/ST/usbx/common/usbx_device_classes/src/ux_device_class_dfu_control_request.c ****                     dfu -> ux_slave_class_dfu_notify(dfu, UX_SLAVE_CLASS_DFU_NOTIFICATION_END_UPLOA
 796:./Middlewares/ST/usbx/common/usbx_device_classes/src/ux_device_class_dfu_control_request.c **** 
 797:./Middlewares/ST/usbx/common/usbx_device_classes/src/ux_device_class_dfu_control_request.c ****                     /* In the system, state the DFU state machine to dfu IDLE.  */
 798:./Middlewares/ST/usbx/common/usbx_device_classes/src/ux_device_class_dfu_control_request.c ****                     _ux_system_slave -> ux_system_slave_device_dfu_state_machine = UX_SYSTEM_DFU_ST
 799:./Middlewares/ST/usbx/common/usbx_device_classes/src/ux_device_class_dfu_control_request.c ****                 }
 800:./Middlewares/ST/usbx/common/usbx_device_classes/src/ux_device_class_dfu_control_request.c **** 
 801:./Middlewares/ST/usbx/common/usbx_device_classes/src/ux_device_class_dfu_control_request.c ****                 /* We have a request to upload DFU firmware block. */
 802:./Middlewares/ST/usbx/common/usbx_device_classes/src/ux_device_class_dfu_control_request.c ****                 _ux_device_stack_transfer_request(transfer_request, actual_length, request_length);
 803:./Middlewares/ST/usbx/common/usbx_device_classes/src/ux_device_class_dfu_control_request.c **** 
 804:./Middlewares/ST/usbx/common/usbx_device_classes/src/ux_device_class_dfu_control_request.c ****                 break;
 805:./Middlewares/ST/usbx/common/usbx_device_classes/src/ux_device_class_dfu_control_request.c **** 
 806:./Middlewares/ST/usbx/common/usbx_device_classes/src/ux_device_class_dfu_control_request.c ****             case UX_SLAVE_CLASS_DFU_COMMAND_ABORT :
 807:./Middlewares/ST/usbx/common/usbx_device_classes/src/ux_device_class_dfu_control_request.c **** 
 808:./Middlewares/ST/usbx/common/usbx_device_classes/src/ux_device_class_dfu_control_request.c ****                     /* Send a notification to the application.  */
 809:./Middlewares/ST/usbx/common/usbx_device_classes/src/ux_device_class_dfu_control_request.c ****                     dfu -> ux_slave_class_dfu_notify(dfu, UX_SLAVE_CLASS_DFU_NOTIFICATION_ABORT_UPL
 810:./Middlewares/ST/usbx/common/usbx_device_classes/src/ux_device_class_dfu_control_request.c **** 
 811:./Middlewares/ST/usbx/common/usbx_device_classes/src/ux_device_class_dfu_control_request.c ****                     /* In the system, state the DFU state machine to dfu IDLE.  */
 812:./Middlewares/ST/usbx/common/usbx_device_classes/src/ux_device_class_dfu_control_request.c ****                     _ux_system_slave -> ux_system_slave_device_dfu_state_machine = UX_SYSTEM_DFU_ST
 813:./Middlewares/ST/usbx/common/usbx_device_classes/src/ux_device_class_dfu_control_request.c **** 
 814:./Middlewares/ST/usbx/common/usbx_device_classes/src/ux_device_class_dfu_control_request.c ****                     break;
 815:./Middlewares/ST/usbx/common/usbx_device_classes/src/ux_device_class_dfu_control_request.c **** 
 816:./Middlewares/ST/usbx/common/usbx_device_classes/src/ux_device_class_dfu_control_request.c ****             case UX_SLAVE_CLASS_DFU_COMMAND_GET_STATUS :
 817:./Middlewares/ST/usbx/common/usbx_device_classes/src/ux_device_class_dfu_control_request.c **** 
 818:./Middlewares/ST/usbx/common/usbx_device_classes/src/ux_device_class_dfu_control_request.c **** #if UX_DEVICE_CLASS_DFU_STATUS_MODE == 1
 819:./Middlewares/ST/usbx/common/usbx_device_classes/src/ux_device_class_dfu_control_request.c ****                     _ux_device_class_dfu_status_get(dfu, transfer_request, UX_FALSE, 0, 0, 0);
 820:./Middlewares/ST/usbx/common/usbx_device_classes/src/ux_device_class_dfu_control_request.c **** #else
 821:./Middlewares/ST/usbx/common/usbx_device_classes/src/ux_device_class_dfu_control_request.c **** 
 822:./Middlewares/ST/usbx/common/usbx_device_classes/src/ux_device_class_dfu_control_request.c ****                 /* Fill the status data payload.  First with status.  */
 823:./Middlewares/ST/usbx/common/usbx_device_classes/src/ux_device_class_dfu_control_request.c ****                 *transfer_request -> ux_slave_transfer_request_data_pointer = (UCHAR) dfu -> ux_sla
 824:./Middlewares/ST/usbx/common/usbx_device_classes/src/ux_device_class_dfu_control_request.c **** 
ARM GAS  /tmp/ccp1d2wf.s 			page 20


 825:./Middlewares/ST/usbx/common/usbx_device_classes/src/ux_device_class_dfu_control_request.c ****                 /* Poll time out value is set to 1ms.  */
 826:./Middlewares/ST/usbx/common/usbx_device_classes/src/ux_device_class_dfu_control_request.c ****                 *(transfer_request -> ux_slave_transfer_request_data_pointer + UX_SLAVE_CLASS_DFU_G
 827:./Middlewares/ST/usbx/common/usbx_device_classes/src/ux_device_class_dfu_control_request.c ****                 *(transfer_request -> ux_slave_transfer_request_data_pointer + UX_SLAVE_CLASS_DFU_G
 828:./Middlewares/ST/usbx/common/usbx_device_classes/src/ux_device_class_dfu_control_request.c ****                 *(transfer_request -> ux_slave_transfer_request_data_pointer + UX_SLAVE_CLASS_DFU_G
 829:./Middlewares/ST/usbx/common/usbx_device_classes/src/ux_device_class_dfu_control_request.c **** 
 830:./Middlewares/ST/usbx/common/usbx_device_classes/src/ux_device_class_dfu_control_request.c ****                 /* Next state.  */
 831:./Middlewares/ST/usbx/common/usbx_device_classes/src/ux_device_class_dfu_control_request.c ****                 *(transfer_request -> ux_slave_transfer_request_data_pointer + UX_SLAVE_CLASS_DFU_G
 832:./Middlewares/ST/usbx/common/usbx_device_classes/src/ux_device_class_dfu_control_request.c **** 
 833:./Middlewares/ST/usbx/common/usbx_device_classes/src/ux_device_class_dfu_control_request.c ****                 /* String index set to 0.  */
 834:./Middlewares/ST/usbx/common/usbx_device_classes/src/ux_device_class_dfu_control_request.c ****                 *(transfer_request -> ux_slave_transfer_request_data_pointer + UX_SLAVE_CLASS_DFU_G
 835:./Middlewares/ST/usbx/common/usbx_device_classes/src/ux_device_class_dfu_control_request.c **** #endif
 836:./Middlewares/ST/usbx/common/usbx_device_classes/src/ux_device_class_dfu_control_request.c **** 
 837:./Middlewares/ST/usbx/common/usbx_device_classes/src/ux_device_class_dfu_control_request.c ****                 /* We have a request to obtain the status of the DFU instance. */
 838:./Middlewares/ST/usbx/common/usbx_device_classes/src/ux_device_class_dfu_control_request.c ****                 _ux_device_stack_transfer_request(transfer_request, UX_SLAVE_CLASS_DFU_GET_STATUS_L
 839:./Middlewares/ST/usbx/common/usbx_device_classes/src/ux_device_class_dfu_control_request.c **** 
 840:./Middlewares/ST/usbx/common/usbx_device_classes/src/ux_device_class_dfu_control_request.c ****                 break;
 841:./Middlewares/ST/usbx/common/usbx_device_classes/src/ux_device_class_dfu_control_request.c **** 
 842:./Middlewares/ST/usbx/common/usbx_device_classes/src/ux_device_class_dfu_control_request.c ****             case UX_SLAVE_CLASS_DFU_COMMAND_GET_STATE :
 843:./Middlewares/ST/usbx/common/usbx_device_classes/src/ux_device_class_dfu_control_request.c **** 
 844:./Middlewares/ST/usbx/common/usbx_device_classes/src/ux_device_class_dfu_control_request.c ****                 /* Fill the status data payload.  First with state.  */
 845:./Middlewares/ST/usbx/common/usbx_device_classes/src/ux_device_class_dfu_control_request.c ****                 *transfer_request -> ux_slave_transfer_request_data_pointer = (UCHAR) _ux_system_sl
 846:./Middlewares/ST/usbx/common/usbx_device_classes/src/ux_device_class_dfu_control_request.c **** 
 847:./Middlewares/ST/usbx/common/usbx_device_classes/src/ux_device_class_dfu_control_request.c ****                 /* We have a request to obtain the status of the DFU instance. */
 848:./Middlewares/ST/usbx/common/usbx_device_classes/src/ux_device_class_dfu_control_request.c ****                 _ux_device_stack_transfer_request(transfer_request, UX_SLAVE_CLASS_DFU_GET_STATE_LE
 849:./Middlewares/ST/usbx/common/usbx_device_classes/src/ux_device_class_dfu_control_request.c **** 
 850:./Middlewares/ST/usbx/common/usbx_device_classes/src/ux_device_class_dfu_control_request.c ****                 break;
 851:./Middlewares/ST/usbx/common/usbx_device_classes/src/ux_device_class_dfu_control_request.c **** 
 852:./Middlewares/ST/usbx/common/usbx_device_classes/src/ux_device_class_dfu_control_request.c ****             default:
 853:./Middlewares/ST/usbx/common/usbx_device_classes/src/ux_device_class_dfu_control_request.c **** 
 854:./Middlewares/ST/usbx/common/usbx_device_classes/src/ux_device_class_dfu_control_request.c ****                 /* Unknown function. Stall the endpoint.  */
 855:./Middlewares/ST/usbx/common/usbx_device_classes/src/ux_device_class_dfu_control_request.c ****                 _ux_device_stack_endpoint_stall(&device -> ux_slave_device_control_endpoint);
 856:./Middlewares/ST/usbx/common/usbx_device_classes/src/ux_device_class_dfu_control_request.c **** 
 857:./Middlewares/ST/usbx/common/usbx_device_classes/src/ux_device_class_dfu_control_request.c ****                 /* In the system, state the DFU state machine to dfu ERROR.  */
 858:./Middlewares/ST/usbx/common/usbx_device_classes/src/ux_device_class_dfu_control_request.c ****                 _ux_system_slave -> ux_system_slave_device_dfu_state_machine = UX_SYSTEM_DFU_STATE_
 859:./Middlewares/ST/usbx/common/usbx_device_classes/src/ux_device_class_dfu_control_request.c **** 
 860:./Middlewares/ST/usbx/common/usbx_device_classes/src/ux_device_class_dfu_control_request.c ****                 break;
 861:./Middlewares/ST/usbx/common/usbx_device_classes/src/ux_device_class_dfu_control_request.c ****             }
 862:./Middlewares/ST/usbx/common/usbx_device_classes/src/ux_device_class_dfu_control_request.c **** 
 863:./Middlewares/ST/usbx/common/usbx_device_classes/src/ux_device_class_dfu_control_request.c ****             break;
 864:./Middlewares/ST/usbx/common/usbx_device_classes/src/ux_device_class_dfu_control_request.c **** #endif
 865:./Middlewares/ST/usbx/common/usbx_device_classes/src/ux_device_class_dfu_control_request.c **** 
 866:./Middlewares/ST/usbx/common/usbx_device_classes/src/ux_device_class_dfu_control_request.c ****         default:
 867:./Middlewares/ST/usbx/common/usbx_device_classes/src/ux_device_class_dfu_control_request.c **** 
 868:./Middlewares/ST/usbx/common/usbx_device_classes/src/ux_device_class_dfu_control_request.c ****             /* Unknown state. Should not happen.  */
 869:./Middlewares/ST/usbx/common/usbx_device_classes/src/ux_device_class_dfu_control_request.c ****             return(UX_ERROR);
 870:./Middlewares/ST/usbx/common/usbx_device_classes/src/ux_device_class_dfu_control_request.c ****     }
 871:./Middlewares/ST/usbx/common/usbx_device_classes/src/ux_device_class_dfu_control_request.c **** 
 872:./Middlewares/ST/usbx/common/usbx_device_classes/src/ux_device_class_dfu_control_request.c ****     return(UX_SUCCESS);
 258              		.loc 1 872 11 is_stmt 0 view .LVU84
 259 00fa 0025     		movs	r5, #0
 273:./Middlewares/ST/usbx/common/usbx_device_classes/src/ux_device_class_dfu_control_request.c ****                     break;
 260              		.loc 1 273 21 view .LVU85
 261 00fc A4E2     		b	.L1
 262              	.LVL29:
 263              	.L17:
 240:./Middlewares/ST/usbx/common/usbx_device_classes/src/ux_device_class_dfu_control_request.c **** 
 264              		.loc 1 240 21 is_stmt 1 view .LVU86
ARM GAS  /tmp/ccp1d2wf.s 			page 21


 240:./Middlewares/ST/usbx/common/usbx_device_classes/src/ux_device_class_dfu_control_request.c **** 
 265              		.loc 1 240 39 is_stmt 0 view .LVU87
 266 00fe D4F89830 		ldr	r3, [r4, #152]
 240:./Middlewares/ST/usbx/common/usbx_device_classes/src/ux_device_class_dfu_control_request.c **** 
 267              		.loc 1 240 83 view .LVU88
 268 0102 99F80420 		ldrb	r2, [r9, #4]	@ zero_extendqisi2
 240:./Middlewares/ST/usbx/common/usbx_device_classes/src/ux_device_class_dfu_control_request.c **** 
 269              		.loc 1 240 81 view .LVU89
 270 0106 1A70     		strb	r2, [r3]
 243:./Middlewares/ST/usbx/common/usbx_device_classes/src/ux_device_class_dfu_control_request.c ****                     *(transfer_request -> ux_slave_transfer_request_data_pointer + UX_SLAVE_CLASS_D
 271              		.loc 1 243 21 is_stmt 1 view .LVU90
 243:./Middlewares/ST/usbx/common/usbx_device_classes/src/ux_device_class_dfu_control_request.c ****                     *(transfer_request -> ux_slave_transfer_request_data_pointer + UX_SLAVE_CLASS_D
 272              		.loc 1 243 40 is_stmt 0 view .LVU91
 273 0108 D4F89830 		ldr	r3, [r4, #152]
 243:./Middlewares/ST/usbx/common/usbx_device_classes/src/ux_device_class_dfu_control_request.c ****                     *(transfer_request -> ux_slave_transfer_request_data_pointer + UX_SLAVE_CLASS_D
 274              		.loc 1 243 128 view .LVU92
 275 010c 6422     		movs	r2, #100
 276 010e 5A70     		strb	r2, [r3, #1]
 244:./Middlewares/ST/usbx/common/usbx_device_classes/src/ux_device_class_dfu_control_request.c ****                     *(transfer_request -> ux_slave_transfer_request_data_pointer + UX_SLAVE_CLASS_D
 277              		.loc 1 244 21 is_stmt 1 view .LVU93
 244:./Middlewares/ST/usbx/common/usbx_device_classes/src/ux_device_class_dfu_control_request.c ****                     *(transfer_request -> ux_slave_transfer_request_data_pointer + UX_SLAVE_CLASS_D
 278              		.loc 1 244 40 is_stmt 0 view .LVU94
 279 0110 D4F89830 		ldr	r3, [r4, #152]
 244:./Middlewares/ST/usbx/common/usbx_device_classes/src/ux_device_class_dfu_control_request.c ****                     *(transfer_request -> ux_slave_transfer_request_data_pointer + UX_SLAVE_CLASS_D
 280              		.loc 1 244 132 view .LVU95
 281 0114 0025     		movs	r5, #0
 282 0116 9D70     		strb	r5, [r3, #2]
 245:./Middlewares/ST/usbx/common/usbx_device_classes/src/ux_device_class_dfu_control_request.c **** 
 283              		.loc 1 245 21 is_stmt 1 view .LVU96
 245:./Middlewares/ST/usbx/common/usbx_device_classes/src/ux_device_class_dfu_control_request.c **** 
 284              		.loc 1 245 40 is_stmt 0 view .LVU97
 285 0118 D4F89830 		ldr	r3, [r4, #152]
 245:./Middlewares/ST/usbx/common/usbx_device_classes/src/ux_device_class_dfu_control_request.c **** 
 286              		.loc 1 245 132 view .LVU98
 287 011c DD70     		strb	r5, [r3, #3]
 248:./Middlewares/ST/usbx/common/usbx_device_classes/src/ux_device_class_dfu_control_request.c **** 
 288              		.loc 1 248 21 is_stmt 1 view .LVU99
 248:./Middlewares/ST/usbx/common/usbx_device_classes/src/ux_device_class_dfu_control_request.c **** 
 289              		.loc 1 248 148 is_stmt 0 view .LVU100
 290 011e 684B     		ldr	r3, .L67
 291 0120 1A68     		ldr	r2, [r3]
 248:./Middlewares/ST/usbx/common/usbx_device_classes/src/ux_device_class_dfu_control_request.c **** 
 292              		.loc 1 248 40 view .LVU101
 293 0122 D4F89830 		ldr	r3, [r4, #152]
 248:./Middlewares/ST/usbx/common/usbx_device_classes/src/ux_device_class_dfu_control_request.c **** 
 294              		.loc 1 248 123 view .LVU102
 295 0126 92F8B821 		ldrb	r2, [r2, #440]	@ zero_extendqisi2
 248:./Middlewares/ST/usbx/common/usbx_device_classes/src/ux_device_class_dfu_control_request.c **** 
 296              		.loc 1 248 121 view .LVU103
 297 012a 1A71     		strb	r2, [r3, #4]
 251:./Middlewares/ST/usbx/common/usbx_device_classes/src/ux_device_class_dfu_control_request.c **** #endif
 298              		.loc 1 251 21 is_stmt 1 view .LVU104
 251:./Middlewares/ST/usbx/common/usbx_device_classes/src/ux_device_class_dfu_control_request.c **** #endif
 299              		.loc 1 251 40 is_stmt 0 view .LVU105
 300 012c D4F89830 		ldr	r3, [r4, #152]
 251:./Middlewares/ST/usbx/common/usbx_device_classes/src/ux_device_class_dfu_control_request.c **** #endif
 301              		.loc 1 251 122 view .LVU106
ARM GAS  /tmp/ccp1d2wf.s 			page 22


 302 0130 5D71     		strb	r5, [r3, #5]
 255:./Middlewares/ST/usbx/common/usbx_device_classes/src/ux_device_class_dfu_control_request.c **** 
 303              		.loc 1 255 21 is_stmt 1 view .LVU107
 304 0132 0622     		movs	r2, #6
 305 0134 1146     		mov	r1, r2
 306 0136 5046     		mov	r0, r10
 307              	.LVL30:
 255:./Middlewares/ST/usbx/common/usbx_device_classes/src/ux_device_class_dfu_control_request.c **** 
 308              		.loc 1 255 21 is_stmt 0 view .LVU108
 309 0138 FFF7FEFF 		bl	_ux_device_stack_transfer_request
 310              	.LVL31:
 257:./Middlewares/ST/usbx/common/usbx_device_classes/src/ux_device_class_dfu_control_request.c **** 
 311              		.loc 1 257 21 is_stmt 1 view .LVU109
 312 013c 84E2     		b	.L1
 313              	.LVL32:
 314              	.L18:
 262:./Middlewares/ST/usbx/common/usbx_device_classes/src/ux_device_class_dfu_control_request.c **** 
 315              		.loc 1 262 21 view .LVU110
 262:./Middlewares/ST/usbx/common/usbx_device_classes/src/ux_device_class_dfu_control_request.c **** 
 316              		.loc 1 262 39 is_stmt 0 view .LVU111
 317 013e D4F89830 		ldr	r3, [r4, #152]
 262:./Middlewares/ST/usbx/common/usbx_device_classes/src/ux_device_class_dfu_control_request.c **** 
 318              		.loc 1 262 81 view .LVU112
 319 0142 1D70     		strb	r5, [r3]
 265:./Middlewares/ST/usbx/common/usbx_device_classes/src/ux_device_class_dfu_control_request.c **** 
 320              		.loc 1 265 21 is_stmt 1 view .LVU113
 321 0144 0122     		movs	r2, #1
 322 0146 1146     		mov	r1, r2
 323 0148 5046     		mov	r0, r10
 324              	.LVL33:
 265:./Middlewares/ST/usbx/common/usbx_device_classes/src/ux_device_class_dfu_control_request.c **** 
 325              		.loc 1 265 21 is_stmt 0 view .LVU114
 326 014a FFF7FEFF 		bl	_ux_device_stack_transfer_request
 327              	.LVL34:
 267:./Middlewares/ST/usbx/common/usbx_device_classes/src/ux_device_class_dfu_control_request.c **** 
 328              		.loc 1 267 21 is_stmt 1 view .LVU115
 329              		.loc 1 872 11 is_stmt 0 view .LVU116
 330 014e 0025     		movs	r5, #0
 267:./Middlewares/ST/usbx/common/usbx_device_classes/src/ux_device_class_dfu_control_request.c **** 
 331              		.loc 1 267 21 view .LVU117
 332 0150 7AE2     		b	.L1
 333              	.LVL35:
 334              	.L9:
 281:./Middlewares/ST/usbx/common/usbx_device_classes/src/ux_device_class_dfu_control_request.c ****             {
 335              		.loc 1 281 13 is_stmt 1 view .LVU118
 336 0152 013E     		subs	r6, r6, #1
 337              	.LVL36:
 281:./Middlewares/ST/usbx/common/usbx_device_classes/src/ux_device_class_dfu_control_request.c ****             {
 338              		.loc 1 281 13 is_stmt 0 view .LVU119
 339 0154 052E     		cmp	r6, #5
 340 0156 00F29880 		bhi	.L20
 341 015a DFE806F0 		tbb	[pc, r6]
 342              	.L22:
 343 015e 03       		.byte	(.L26-.L22)/2
 344 015f 67       		.byte	(.L25-.L22)/2
 345 0160 40       		.byte	(.L24-.L22)/2
 346 0161 96       		.byte	(.L20-.L22)/2
ARM GAS  /tmp/ccp1d2wf.s 			page 23


 347 0162 5D       		.byte	(.L23-.L22)/2
 348 0163 34       		.byte	(.L21-.L22)/2
 349              		.p2align 1
 350              	.L26:
 287:./Middlewares/ST/usbx/common/usbx_device_classes/src/ux_device_class_dfu_control_request.c ****                     {
 351              		.loc 1 287 21 is_stmt 1 view .LVU120
 287:./Middlewares/ST/usbx/common/usbx_device_classes/src/ux_device_class_dfu_control_request.c ****                     {
 352              		.loc 1 287 24 is_stmt 0 view .LVU121
 353 0164 D0B1     		cbz	r0, .L66
 301:./Middlewares/ST/usbx/common/usbx_device_classes/src/ux_device_class_dfu_control_request.c ****                         {
 354              		.loc 1 301 25 is_stmt 1 view .LVU122
 301:./Middlewares/ST/usbx/common/usbx_device_classes/src/ux_device_class_dfu_control_request.c ****                         {
 355              		.loc 1 301 46 is_stmt 0 view .LVU123
 356 0166 D3F8AC51 		ldr	r5, [r3, #428]
 301:./Middlewares/ST/usbx/common/usbx_device_classes/src/ux_device_class_dfu_control_request.c ****                         {
 357              		.loc 1 301 28 view .LVU124
 358 016a 15F00105 		ands	r5, r5, #1
 359 016e 20D0     		beq	.L28
 305:./Middlewares/ST/usbx/common/usbx_device_classes/src/ux_device_class_dfu_control_request.c **** 
 360              		.loc 1 305 29 is_stmt 1 view .LVU125
 305:./Middlewares/ST/usbx/common/usbx_device_classes/src/ux_device_class_dfu_control_request.c **** 
 361              		.loc 1 305 33 is_stmt 0 view .LVU126
 362 0170 D9F81C30 		ldr	r3, [r9, #28]
 305:./Middlewares/ST/usbx/common/usbx_device_classes/src/ux_device_class_dfu_control_request.c **** 
 363              		.loc 1 305 29 view .LVU127
 364 0174 0121     		movs	r1, #1
 365 0176 4846     		mov	r0, r9
 366              	.LVL37:
 305:./Middlewares/ST/usbx/common/usbx_device_classes/src/ux_device_class_dfu_control_request.c **** 
 367              		.loc 1 305 29 view .LVU128
 368 0178 9847     		blx	r3
 369              	.LVL38:
 308:./Middlewares/ST/usbx/common/usbx_device_classes/src/ux_device_class_dfu_control_request.c ****                                                                 transfer_request -> ux_slave_transf
 370              		.loc 1 308 29 is_stmt 1 view .LVU129
 308:./Middlewares/ST/usbx/common/usbx_device_classes/src/ux_device_class_dfu_control_request.c ****                                                                 transfer_request -> ux_slave_transf
 371              		.loc 1 308 33 is_stmt 0 view .LVU130
 372 017a D9F81450 		ldr	r5, [r9, #20]
 308:./Middlewares/ST/usbx/common/usbx_device_classes/src/ux_device_class_dfu_control_request.c ****                                                                 transfer_request -> ux_slave_transf
 373              		.loc 1 308 29 view .LVU131
 374 017e D4F89820 		ldr	r2, [r4, #152]
 375 0182 03AB     		add	r3, sp, #12
 376 0184 0093     		str	r3, [sp]
 377 0186 3B46     		mov	r3, r7
 378 0188 4146     		mov	r1, r8
 379 018a 4846     		mov	r0, r9
 380 018c A847     		blx	r5
 381              	.LVL39:
 314:./Middlewares/ST/usbx/common/usbx_device_classes/src/ux_device_class_dfu_control_request.c **** 
 382              		.loc 1 314 29 is_stmt 1 view .LVU132
 314:./Middlewares/ST/usbx/common/usbx_device_classes/src/ux_device_class_dfu_control_request.c **** 
 383              		.loc 1 314 46 is_stmt 0 view .LVU133
 384 018e 4C4B     		ldr	r3, .L67
 385 0190 1B68     		ldr	r3, [r3]
 314:./Middlewares/ST/usbx/common/usbx_device_classes/src/ux_device_class_dfu_control_request.c **** 
 386              		.loc 1 314 90 view .LVU134
 387 0192 0322     		movs	r2, #3
 388 0194 C3F8B821 		str	r2, [r3, #440]
ARM GAS  /tmp/ccp1d2wf.s 			page 24


 389              		.loc 1 872 11 view .LVU135
 390 0198 0025     		movs	r5, #0
 391 019a 55E2     		b	.L1
 392              	.LVL40:
 393              	.L66:
 291:./Middlewares/ST/usbx/common/usbx_device_classes/src/ux_device_class_dfu_control_request.c **** 
 394              		.loc 1 291 25 is_stmt 1 view .LVU136
 395 019c 04F15C00 		add	r0, r4, #92
 396              	.LVL41:
 291:./Middlewares/ST/usbx/common/usbx_device_classes/src/ux_device_class_dfu_control_request.c **** 
 397              		.loc 1 291 25 is_stmt 0 view .LVU137
 398 01a0 FFF7FEFF 		bl	_ux_device_stack_endpoint_stall
 399              	.LVL42:
 294:./Middlewares/ST/usbx/common/usbx_device_classes/src/ux_device_class_dfu_control_request.c **** 
 400              		.loc 1 294 25 is_stmt 1 view .LVU138
 294:./Middlewares/ST/usbx/common/usbx_device_classes/src/ux_device_class_dfu_control_request.c **** 
 401              		.loc 1 294 42 is_stmt 0 view .LVU139
 402 01a4 464B     		ldr	r3, .L67
 403 01a6 1B68     		ldr	r3, [r3]
 294:./Middlewares/ST/usbx/common/usbx_device_classes/src/ux_device_class_dfu_control_request.c **** 
 404              		.loc 1 294 86 view .LVU140
 405 01a8 0A22     		movs	r2, #10
 406 01aa C3F8B821 		str	r2, [r3, #440]
 407              		.loc 1 872 11 view .LVU141
 408 01ae 3D46     		mov	r5, r7
 409 01b0 4AE2     		b	.L1
 410              	.LVL43:
 411              	.L28:
 321:./Middlewares/ST/usbx/common/usbx_device_classes/src/ux_device_class_dfu_control_request.c **** 
 412              		.loc 1 321 29 is_stmt 1 view .LVU142
 413 01b2 04F15C00 		add	r0, r4, #92
 414              	.LVL44:
 321:./Middlewares/ST/usbx/common/usbx_device_classes/src/ux_device_class_dfu_control_request.c **** 
 415              		.loc 1 321 29 is_stmt 0 view .LVU143
 416 01b6 FFF7FEFF 		bl	_ux_device_stack_endpoint_stall
 417              	.LVL45:
 324:./Middlewares/ST/usbx/common/usbx_device_classes/src/ux_device_class_dfu_control_request.c **** 
 418              		.loc 1 324 29 is_stmt 1 view .LVU144
 324:./Middlewares/ST/usbx/common/usbx_device_classes/src/ux_device_class_dfu_control_request.c **** 
 419              		.loc 1 324 46 is_stmt 0 view .LVU145
 420 01ba 414B     		ldr	r3, .L67
 421 01bc 1B68     		ldr	r3, [r3]
 324:./Middlewares/ST/usbx/common/usbx_device_classes/src/ux_device_class_dfu_control_request.c **** 
 422              		.loc 1 324 90 view .LVU146
 423 01be 0A22     		movs	r2, #10
 424 01c0 C3F8B821 		str	r2, [r3, #440]
 425 01c4 40E2     		b	.L1
 426              	.LVL46:
 427              	.L21:
 334:./Middlewares/ST/usbx/common/usbx_device_classes/src/ux_device_class_dfu_control_request.c **** 
 428              		.loc 1 334 25 is_stmt 1 view .LVU147
 334:./Middlewares/ST/usbx/common/usbx_device_classes/src/ux_device_class_dfu_control_request.c **** 
 429              		.loc 1 334 29 is_stmt 0 view .LVU148
 430 01c6 D9F81C30 		ldr	r3, [r9, #28]
 334:./Middlewares/ST/usbx/common/usbx_device_classes/src/ux_device_class_dfu_control_request.c **** 
 431              		.loc 1 334 25 view .LVU149
 432 01ca 0321     		movs	r1, #3
ARM GAS  /tmp/ccp1d2wf.s 			page 25


 433 01cc 4846     		mov	r0, r9
 434              	.LVL47:
 334:./Middlewares/ST/usbx/common/usbx_device_classes/src/ux_device_class_dfu_control_request.c **** 
 435              		.loc 1 334 25 view .LVU150
 436 01ce 9847     		blx	r3
 437              	.LVL48:
 337:./Middlewares/ST/usbx/common/usbx_device_classes/src/ux_device_class_dfu_control_request.c **** 
 438              		.loc 1 337 25 is_stmt 1 view .LVU151
 337:./Middlewares/ST/usbx/common/usbx_device_classes/src/ux_device_class_dfu_control_request.c **** 
 439              		.loc 1 337 42 is_stmt 0 view .LVU152
 440 01d0 3B4B     		ldr	r3, .L67
 441 01d2 1B68     		ldr	r3, [r3]
 337:./Middlewares/ST/usbx/common/usbx_device_classes/src/ux_device_class_dfu_control_request.c **** 
 442              		.loc 1 337 86 view .LVU153
 443 01d4 0222     		movs	r2, #2
 444 01d6 C3F8B821 		str	r2, [r3, #440]
 339:./Middlewares/ST/usbx/common/usbx_device_classes/src/ux_device_class_dfu_control_request.c **** 
 445              		.loc 1 339 21 is_stmt 1 view .LVU154
 446              		.loc 1 872 11 is_stmt 0 view .LVU155
 447 01da 0025     		movs	r5, #0
 339:./Middlewares/ST/usbx/common/usbx_device_classes/src/ux_device_class_dfu_control_request.c **** 
 448              		.loc 1 339 21 view .LVU156
 449 01dc 34E2     		b	.L1
 450              	.LVL49:
 451              	.L24:
 348:./Middlewares/ST/usbx/common/usbx_device_classes/src/ux_device_class_dfu_control_request.c **** 
 452              		.loc 1 348 21 is_stmt 1 view .LVU157
 348:./Middlewares/ST/usbx/common/usbx_device_classes/src/ux_device_class_dfu_control_request.c **** 
 453              		.loc 1 348 39 is_stmt 0 view .LVU158
 454 01de D4F89830 		ldr	r3, [r4, #152]
 348:./Middlewares/ST/usbx/common/usbx_device_classes/src/ux_device_class_dfu_control_request.c **** 
 455              		.loc 1 348 83 view .LVU159
 456 01e2 99F80420 		ldrb	r2, [r9, #4]	@ zero_extendqisi2
 348:./Middlewares/ST/usbx/common/usbx_device_classes/src/ux_device_class_dfu_control_request.c **** 
 457              		.loc 1 348 81 view .LVU160
 458 01e6 1A70     		strb	r2, [r3]
 351:./Middlewares/ST/usbx/common/usbx_device_classes/src/ux_device_class_dfu_control_request.c ****                     *(transfer_request -> ux_slave_transfer_request_data_pointer + UX_SLAVE_CLASS_D
 459              		.loc 1 351 21 is_stmt 1 view .LVU161
 351:./Middlewares/ST/usbx/common/usbx_device_classes/src/ux_device_class_dfu_control_request.c ****                     *(transfer_request -> ux_slave_transfer_request_data_pointer + UX_SLAVE_CLASS_D
 460              		.loc 1 351 40 is_stmt 0 view .LVU162
 461 01e8 D4F89830 		ldr	r3, [r4, #152]
 351:./Middlewares/ST/usbx/common/usbx_device_classes/src/ux_device_class_dfu_control_request.c ****                     *(transfer_request -> ux_slave_transfer_request_data_pointer + UX_SLAVE_CLASS_D
 462              		.loc 1 351 128 view .LVU163
 463 01ec 6422     		movs	r2, #100
 464 01ee 5A70     		strb	r2, [r3, #1]
 352:./Middlewares/ST/usbx/common/usbx_device_classes/src/ux_device_class_dfu_control_request.c ****                     *(transfer_request -> ux_slave_transfer_request_data_pointer + UX_SLAVE_CLASS_D
 465              		.loc 1 352 21 is_stmt 1 view .LVU164
 352:./Middlewares/ST/usbx/common/usbx_device_classes/src/ux_device_class_dfu_control_request.c ****                     *(transfer_request -> ux_slave_transfer_request_data_pointer + UX_SLAVE_CLASS_D
 466              		.loc 1 352 40 is_stmt 0 view .LVU165
 467 01f0 D4F89830 		ldr	r3, [r4, #152]
 352:./Middlewares/ST/usbx/common/usbx_device_classes/src/ux_device_class_dfu_control_request.c ****                     *(transfer_request -> ux_slave_transfer_request_data_pointer + UX_SLAVE_CLASS_D
 468              		.loc 1 352 132 view .LVU166
 469 01f4 0025     		movs	r5, #0
 470 01f6 9D70     		strb	r5, [r3, #2]
 353:./Middlewares/ST/usbx/common/usbx_device_classes/src/ux_device_class_dfu_control_request.c **** 
 471              		.loc 1 353 21 is_stmt 1 view .LVU167
 353:./Middlewares/ST/usbx/common/usbx_device_classes/src/ux_device_class_dfu_control_request.c **** 
ARM GAS  /tmp/ccp1d2wf.s 			page 26


 472              		.loc 1 353 40 is_stmt 0 view .LVU168
 473 01f8 D4F89830 		ldr	r3, [r4, #152]
 353:./Middlewares/ST/usbx/common/usbx_device_classes/src/ux_device_class_dfu_control_request.c **** 
 474              		.loc 1 353 132 view .LVU169
 475 01fc DD70     		strb	r5, [r3, #3]
 356:./Middlewares/ST/usbx/common/usbx_device_classes/src/ux_device_class_dfu_control_request.c **** 
 476              		.loc 1 356 21 is_stmt 1 view .LVU170
 356:./Middlewares/ST/usbx/common/usbx_device_classes/src/ux_device_class_dfu_control_request.c **** 
 477              		.loc 1 356 40 is_stmt 0 view .LVU171
 478 01fe D4F89830 		ldr	r3, [r4, #152]
 356:./Middlewares/ST/usbx/common/usbx_device_classes/src/ux_device_class_dfu_control_request.c **** 
 479              		.loc 1 356 121 view .LVU172
 480 0202 0222     		movs	r2, #2
 481 0204 1A71     		strb	r2, [r3, #4]
 359:./Middlewares/ST/usbx/common/usbx_device_classes/src/ux_device_class_dfu_control_request.c **** #endif
 482              		.loc 1 359 21 is_stmt 1 view .LVU173
 359:./Middlewares/ST/usbx/common/usbx_device_classes/src/ux_device_class_dfu_control_request.c **** #endif
 483              		.loc 1 359 40 is_stmt 0 view .LVU174
 484 0206 D4F89830 		ldr	r3, [r4, #152]
 359:./Middlewares/ST/usbx/common/usbx_device_classes/src/ux_device_class_dfu_control_request.c **** #endif
 485              		.loc 1 359 122 view .LVU175
 486 020a 5D71     		strb	r5, [r3, #5]
 363:./Middlewares/ST/usbx/common/usbx_device_classes/src/ux_device_class_dfu_control_request.c **** 
 487              		.loc 1 363 21 is_stmt 1 view .LVU176
 488 020c 0622     		movs	r2, #6
 489 020e 1146     		mov	r1, r2
 490 0210 5046     		mov	r0, r10
 491              	.LVL50:
 363:./Middlewares/ST/usbx/common/usbx_device_classes/src/ux_device_class_dfu_control_request.c **** 
 492              		.loc 1 363 21 is_stmt 0 view .LVU177
 493 0212 FFF7FEFF 		bl	_ux_device_stack_transfer_request
 494              	.LVL51:
 365:./Middlewares/ST/usbx/common/usbx_device_classes/src/ux_device_class_dfu_control_request.c **** 
 495              		.loc 1 365 21 is_stmt 1 view .LVU178
 496 0216 17E2     		b	.L1
 497              	.LVL52:
 498              	.L23:
 370:./Middlewares/ST/usbx/common/usbx_device_classes/src/ux_device_class_dfu_control_request.c **** 
 499              		.loc 1 370 21 view .LVU179
 370:./Middlewares/ST/usbx/common/usbx_device_classes/src/ux_device_class_dfu_control_request.c **** 
 500              		.loc 1 370 39 is_stmt 0 view .LVU180
 501 0218 D4F89830 		ldr	r3, [r4, #152]
 370:./Middlewares/ST/usbx/common/usbx_device_classes/src/ux_device_class_dfu_control_request.c **** 
 502              		.loc 1 370 81 view .LVU181
 503 021c 1D70     		strb	r5, [r3]
 373:./Middlewares/ST/usbx/common/usbx_device_classes/src/ux_device_class_dfu_control_request.c **** 
 504              		.loc 1 373 21 is_stmt 1 view .LVU182
 505 021e 0122     		movs	r2, #1
 506 0220 1146     		mov	r1, r2
 507 0222 5046     		mov	r0, r10
 508              	.LVL53:
 373:./Middlewares/ST/usbx/common/usbx_device_classes/src/ux_device_class_dfu_control_request.c **** 
 509              		.loc 1 373 21 is_stmt 0 view .LVU183
 510 0224 FFF7FEFF 		bl	_ux_device_stack_transfer_request
 511              	.LVL54:
 375:./Middlewares/ST/usbx/common/usbx_device_classes/src/ux_device_class_dfu_control_request.c **** 
 512              		.loc 1 375 21 is_stmt 1 view .LVU184
ARM GAS  /tmp/ccp1d2wf.s 			page 27


 513              		.loc 1 872 11 is_stmt 0 view .LVU185
 514 0228 0025     		movs	r5, #0
 375:./Middlewares/ST/usbx/common/usbx_device_classes/src/ux_device_class_dfu_control_request.c **** 
 515              		.loc 1 375 21 view .LVU186
 516 022a 0DE2     		b	.L1
 517              	.LVL55:
 518              	.L25:
 381:./Middlewares/ST/usbx/common/usbx_device_classes/src/ux_device_class_dfu_control_request.c ****                         (request_length == 0) ||
 519              		.loc 1 381 21 is_stmt 1 view .LVU187
 381:./Middlewares/ST/usbx/common/usbx_device_classes/src/ux_device_class_dfu_control_request.c ****                         (request_length == 0) ||
 520              		.loc 1 381 44 is_stmt 0 view .LVU188
 521 022c D3F8AC31 		ldr	r3, [r3, #428]
 381:./Middlewares/ST/usbx/common/usbx_device_classes/src/ux_device_class_dfu_control_request.c ****                         (request_length == 0) ||
 522              		.loc 1 381 24 view .LVU189
 523 0230 13F0020F 		tst	r3, #2
 524 0234 03D0     		beq	.L29
 381:./Middlewares/ST/usbx/common/usbx_device_classes/src/ux_device_class_dfu_control_request.c ****                         (request_length == 0) ||
 525              		.loc 1 381 131 discriminator 1 view .LVU190
 526 0236 10B1     		cbz	r0, .L29
 382:./Middlewares/ST/usbx/common/usbx_device_classes/src/ux_device_class_dfu_control_request.c ****                         (request_length > UX_SLAVE_REQUEST_CONTROL_MAX_LENGTH))
 527              		.loc 1 382 47 view .LVU191
 528 0238 B0F5807F 		cmp	r0, #256
 529 023c 0AD9     		bls	.L30
 530              	.L29:
 385:./Middlewares/ST/usbx/common/usbx_device_classes/src/ux_device_class_dfu_control_request.c **** 
 531              		.loc 1 385 25 is_stmt 1 view .LVU192
 532 023e 04F15C00 		add	r0, r4, #92
 533              	.LVL56:
 385:./Middlewares/ST/usbx/common/usbx_device_classes/src/ux_device_class_dfu_control_request.c **** 
 534              		.loc 1 385 25 is_stmt 0 view .LVU193
 535 0242 FFF7FEFF 		bl	_ux_device_stack_endpoint_stall
 536              	.LVL57:
 388:./Middlewares/ST/usbx/common/usbx_device_classes/src/ux_device_class_dfu_control_request.c **** 
 537              		.loc 1 388 25 is_stmt 1 view .LVU194
 388:./Middlewares/ST/usbx/common/usbx_device_classes/src/ux_device_class_dfu_control_request.c **** 
 538              		.loc 1 388 42 is_stmt 0 view .LVU195
 539 0246 1E4B     		ldr	r3, .L67
 540 0248 1B68     		ldr	r3, [r3]
 388:./Middlewares/ST/usbx/common/usbx_device_classes/src/ux_device_class_dfu_control_request.c **** 
 541              		.loc 1 388 86 view .LVU196
 542 024a 0A22     		movs	r2, #10
 543 024c C3F8B821 		str	r2, [r3, #440]
 390:./Middlewares/ST/usbx/common/usbx_device_classes/src/ux_device_class_dfu_control_request.c ****                     }
 544              		.loc 1 390 25 is_stmt 1 view .LVU197
 545              		.loc 1 872 11 is_stmt 0 view .LVU198
 546 0250 0025     		movs	r5, #0
 390:./Middlewares/ST/usbx/common/usbx_device_classes/src/ux_device_class_dfu_control_request.c ****                     }
 547              		.loc 1 390 25 view .LVU199
 548 0252 F9E1     		b	.L1
 549              	.LVL58:
 550              	.L30:
 396:./Middlewares/ST/usbx/common/usbx_device_classes/src/ux_device_class_dfu_control_request.c **** 
 551              		.loc 1 396 21 is_stmt 1 view .LVU200
 396:./Middlewares/ST/usbx/common/usbx_device_classes/src/ux_device_class_dfu_control_request.c **** 
 552              		.loc 1 396 25 is_stmt 0 view .LVU201
 553 0254 D9F81C30 		ldr	r3, [r9, #28]
 396:./Middlewares/ST/usbx/common/usbx_device_classes/src/ux_device_class_dfu_control_request.c **** 
ARM GAS  /tmp/ccp1d2wf.s 			page 28


 554              		.loc 1 396 21 view .LVU202
 555 0258 0521     		movs	r1, #5
 556 025a 4846     		mov	r0, r9
 557              	.LVL59:
 396:./Middlewares/ST/usbx/common/usbx_device_classes/src/ux_device_class_dfu_control_request.c **** 
 558              		.loc 1 396 21 view .LVU203
 559 025c 9847     		blx	r3
 560              	.LVL60:
 399:./Middlewares/ST/usbx/common/usbx_device_classes/src/ux_device_class_dfu_control_request.c ****                                                         transfer_request -> ux_slave_transfer_reque
 561              		.loc 1 399 21 is_stmt 1 view .LVU204
 399:./Middlewares/ST/usbx/common/usbx_device_classes/src/ux_device_class_dfu_control_request.c ****                                                         transfer_request -> ux_slave_transfer_reque
 562              		.loc 1 399 25 is_stmt 0 view .LVU205
 563 025e D9F81050 		ldr	r5, [r9, #16]
 399:./Middlewares/ST/usbx/common/usbx_device_classes/src/ux_device_class_dfu_control_request.c ****                                                         transfer_request -> ux_slave_transfer_reque
 564              		.loc 1 399 21 view .LVU206
 565 0262 D4F89820 		ldr	r2, [r4, #152]
 566 0266 03AB     		add	r3, sp, #12
 567 0268 0093     		str	r3, [sp]
 568 026a 3B46     		mov	r3, r7
 569 026c 4146     		mov	r1, r8
 570 026e 4846     		mov	r0, r9
 571 0270 A847     		blx	r5
 572              	.LVL61:
 405:./Middlewares/ST/usbx/common/usbx_device_classes/src/ux_device_class_dfu_control_request.c **** 
 573              		.loc 1 405 21 is_stmt 1 view .LVU207
 405:./Middlewares/ST/usbx/common/usbx_device_classes/src/ux_device_class_dfu_control_request.c **** 
 574              		.loc 1 405 38 is_stmt 0 view .LVU208
 575 0272 134B     		ldr	r3, .L67
 576 0274 1B68     		ldr	r3, [r3]
 405:./Middlewares/ST/usbx/common/usbx_device_classes/src/ux_device_class_dfu_control_request.c **** 
 577              		.loc 1 405 82 view .LVU209
 578 0276 0922     		movs	r2, #9
 579 0278 C3F8B821 		str	r2, [r3, #440]
 408:./Middlewares/ST/usbx/common/usbx_device_classes/src/ux_device_class_dfu_control_request.c **** 
 580              		.loc 1 408 21 is_stmt 1 view .LVU210
 581 027c 3A46     		mov	r2, r7
 582 027e 0399     		ldr	r1, [sp, #12]
 583 0280 5046     		mov	r0, r10
 584 0282 FFF7FEFF 		bl	_ux_device_stack_transfer_request
 585              	.LVL62:
 410:./Middlewares/ST/usbx/common/usbx_device_classes/src/ux_device_class_dfu_control_request.c **** #endif
 586              		.loc 1 410 21 view .LVU211
 587              		.loc 1 872 11 is_stmt 0 view .LVU212
 588 0286 0025     		movs	r5, #0
 410:./Middlewares/ST/usbx/common/usbx_device_classes/src/ux_device_class_dfu_control_request.c **** #endif
 589              		.loc 1 410 21 view .LVU213
 590 0288 DEE1     		b	.L1
 591              	.LVL63:
 592              	.L20:
 416:./Middlewares/ST/usbx/common/usbx_device_classes/src/ux_device_class_dfu_control_request.c **** 
 593              		.loc 1 416 21 is_stmt 1 view .LVU214
 594 028a 04F15C00 		add	r0, r4, #92
 595              	.LVL64:
 416:./Middlewares/ST/usbx/common/usbx_device_classes/src/ux_device_class_dfu_control_request.c **** 
 596              		.loc 1 416 21 is_stmt 0 view .LVU215
 597 028e FFF7FEFF 		bl	_ux_device_stack_endpoint_stall
 598              	.LVL65:
ARM GAS  /tmp/ccp1d2wf.s 			page 29


 419:./Middlewares/ST/usbx/common/usbx_device_classes/src/ux_device_class_dfu_control_request.c **** 
 599              		.loc 1 419 24 is_stmt 1 view .LVU216
 419:./Middlewares/ST/usbx/common/usbx_device_classes/src/ux_device_class_dfu_control_request.c **** 
 600              		.loc 1 419 41 is_stmt 0 view .LVU217
 601 0292 0B4B     		ldr	r3, .L67
 602 0294 1B68     		ldr	r3, [r3]
 419:./Middlewares/ST/usbx/common/usbx_device_classes/src/ux_device_class_dfu_control_request.c **** 
 603              		.loc 1 419 85 view .LVU218
 604 0296 0A22     		movs	r2, #10
 605 0298 C3F8B821 		str	r2, [r3, #440]
 421:./Middlewares/ST/usbx/common/usbx_device_classes/src/ux_device_class_dfu_control_request.c ****             }
 606              		.loc 1 421 21 is_stmt 1 view .LVU219
 607              		.loc 1 872 11 is_stmt 0 view .LVU220
 608 029c 0025     		movs	r5, #0
 421:./Middlewares/ST/usbx/common/usbx_device_classes/src/ux_device_class_dfu_control_request.c ****             }
 609              		.loc 1 421 21 view .LVU221
 610 029e D3E1     		b	.L1
 611              	.LVL66:
 612              	.L8:
 430:./Middlewares/ST/usbx/common/usbx_device_classes/src/ux_device_class_dfu_control_request.c ****             {
 613              		.loc 1 430 13 is_stmt 1 view .LVU222
 614 02a0 032E     		cmp	r6, #3
 615 02a2 0FD0     		beq	.L31
 616 02a4 052E     		cmp	r6, #5
 617 02a6 51D0     		beq	.L32
 505:./Middlewares/ST/usbx/common/usbx_device_classes/src/ux_device_class_dfu_control_request.c **** 
 618              		.loc 1 505 21 view .LVU223
 619 02a8 04F15C00 		add	r0, r4, #92
 620              	.LVL67:
 505:./Middlewares/ST/usbx/common/usbx_device_classes/src/ux_device_class_dfu_control_request.c **** 
 621              		.loc 1 505 21 is_stmt 0 view .LVU224
 622 02ac FFF7FEFF 		bl	_ux_device_stack_endpoint_stall
 623              	.LVL68:
 508:./Middlewares/ST/usbx/common/usbx_device_classes/src/ux_device_class_dfu_control_request.c **** 
 624              		.loc 1 508 24 is_stmt 1 view .LVU225
 508:./Middlewares/ST/usbx/common/usbx_device_classes/src/ux_device_class_dfu_control_request.c **** 
 625              		.loc 1 508 41 is_stmt 0 view .LVU226
 626 02b0 034B     		ldr	r3, .L67
 627 02b2 1B68     		ldr	r3, [r3]
 508:./Middlewares/ST/usbx/common/usbx_device_classes/src/ux_device_class_dfu_control_request.c **** 
 628              		.loc 1 508 85 view .LVU227
 629 02b4 0A22     		movs	r2, #10
 630 02b6 C3F8B821 		str	r2, [r3, #440]
 510:./Middlewares/ST/usbx/common/usbx_device_classes/src/ux_device_class_dfu_control_request.c ****             }
 631              		.loc 1 510 21 is_stmt 1 view .LVU228
 632              		.loc 1 872 11 is_stmt 0 view .LVU229
 633 02ba 0025     		movs	r5, #0
 510:./Middlewares/ST/usbx/common/usbx_device_classes/src/ux_device_class_dfu_control_request.c ****             }
 634              		.loc 1 510 21 view .LVU230
 635 02bc C4E1     		b	.L1
 636              	.L68:
 637 02be 00BF     		.align	2
 638              	.L67:
 639 02c0 00000000 		.word	_ux_system_slave
 640              	.LVL69:
 641              	.L31:
 443:./Middlewares/ST/usbx/common/usbx_device_classes/src/ux_device_class_dfu_control_request.c **** 
ARM GAS  /tmp/ccp1d2wf.s 			page 30


 642              		.loc 1 443 21 is_stmt 1 view .LVU231
 443:./Middlewares/ST/usbx/common/usbx_device_classes/src/ux_device_class_dfu_control_request.c **** 
 643              		.loc 1 443 25 is_stmt 0 view .LVU232
 644 02c4 D9F81830 		ldr	r3, [r9, #24]
 443:./Middlewares/ST/usbx/common/usbx_device_classes/src/ux_device_class_dfu_control_request.c **** 
 645              		.loc 1 443 21 view .LVU233
 646 02c8 02A9     		add	r1, sp, #8
 647 02ca 4846     		mov	r0, r9
 648              	.LVL70:
 443:./Middlewares/ST/usbx/common/usbx_device_classes/src/ux_device_class_dfu_control_request.c **** 
 649              		.loc 1 443 21 view .LVU234
 650 02cc 9847     		blx	r3
 651              	.LVL71:
 446:./Middlewares/ST/usbx/common/usbx_device_classes/src/ux_device_class_dfu_control_request.c ****                     {
 652              		.loc 1 446 21 is_stmt 1 view .LVU235
 653 02ce 029B     		ldr	r3, [sp, #8]
 654 02d0 012B     		cmp	r3, #1
 655 02d2 29D0     		beq	.L34
 656 02d4 022B     		cmp	r3, #2
 657 02d6 30D0     		beq	.L35
 658 02d8 33B9     		cbnz	r3, .L36
 452:./Middlewares/ST/usbx/common/usbx_device_classes/src/ux_device_class_dfu_control_request.c ****                                _ux_system_slave -> ux_system_slave_device_dfu_state_machine = UX_SL
 659              		.loc 1 452 29 view .LVU236
 452:./Middlewares/ST/usbx/common/usbx_device_classes/src/ux_device_class_dfu_control_request.c ****                                _ux_system_slave -> ux_system_slave_device_dfu_state_machine = UX_SL
 660              		.loc 1 452 62 is_stmt 0 view .LVU237
 661 02da C9F80430 		str	r3, [r9, #4]
 453:./Middlewares/ST/usbx/common/usbx_device_classes/src/ux_device_class_dfu_control_request.c ****                             break;
 662              		.loc 1 453 32 is_stmt 1 view .LVU238
 453:./Middlewares/ST/usbx/common/usbx_device_classes/src/ux_device_class_dfu_control_request.c ****                             break;
 663              		.loc 1 453 49 is_stmt 0 view .LVU239
 664 02de BE4B     		ldr	r3, .L69
 665 02e0 1B68     		ldr	r3, [r3]
 453:./Middlewares/ST/usbx/common/usbx_device_classes/src/ux_device_class_dfu_control_request.c ****                             break;
 666              		.loc 1 453 93 view .LVU240
 667 02e2 0522     		movs	r2, #5
 668 02e4 C3F8B821 		str	r2, [r3, #440]
 454:./Middlewares/ST/usbx/common/usbx_device_classes/src/ux_device_class_dfu_control_request.c **** 
 669              		.loc 1 454 29 is_stmt 1 view .LVU241
 670              	.L36:
 473:./Middlewares/ST/usbx/common/usbx_device_classes/src/ux_device_class_dfu_control_request.c **** 
 671              		.loc 1 473 21 view .LVU242
 473:./Middlewares/ST/usbx/common/usbx_device_classes/src/ux_device_class_dfu_control_request.c **** 
 672              		.loc 1 473 39 is_stmt 0 view .LVU243
 673 02e8 D4F89830 		ldr	r3, [r4, #152]
 473:./Middlewares/ST/usbx/common/usbx_device_classes/src/ux_device_class_dfu_control_request.c **** 
 674              		.loc 1 473 83 view .LVU244
 675 02ec 99F80420 		ldrb	r2, [r9, #4]	@ zero_extendqisi2
 473:./Middlewares/ST/usbx/common/usbx_device_classes/src/ux_device_class_dfu_control_request.c **** 
 676              		.loc 1 473 81 view .LVU245
 677 02f0 1A70     		strb	r2, [r3]
 476:./Middlewares/ST/usbx/common/usbx_device_classes/src/ux_device_class_dfu_control_request.c ****                     *(transfer_request -> ux_slave_transfer_request_data_pointer + UX_SLAVE_CLASS_D
 678              		.loc 1 476 21 is_stmt 1 view .LVU246
 476:./Middlewares/ST/usbx/common/usbx_device_classes/src/ux_device_class_dfu_control_request.c ****                     *(transfer_request -> ux_slave_transfer_request_data_pointer + UX_SLAVE_CLASS_D
 679              		.loc 1 476 40 is_stmt 0 view .LVU247
 680 02f2 D4F89830 		ldr	r3, [r4, #152]
 476:./Middlewares/ST/usbx/common/usbx_device_classes/src/ux_device_class_dfu_control_request.c ****                     *(transfer_request -> ux_slave_transfer_request_data_pointer + UX_SLAVE_CLASS_D
 681              		.loc 1 476 128 view .LVU248
ARM GAS  /tmp/ccp1d2wf.s 			page 31


 682 02f6 6422     		movs	r2, #100
 683 02f8 5A70     		strb	r2, [r3, #1]
 477:./Middlewares/ST/usbx/common/usbx_device_classes/src/ux_device_class_dfu_control_request.c ****                     *(transfer_request -> ux_slave_transfer_request_data_pointer + UX_SLAVE_CLASS_D
 684              		.loc 1 477 21 is_stmt 1 view .LVU249
 477:./Middlewares/ST/usbx/common/usbx_device_classes/src/ux_device_class_dfu_control_request.c ****                     *(transfer_request -> ux_slave_transfer_request_data_pointer + UX_SLAVE_CLASS_D
 685              		.loc 1 477 40 is_stmt 0 view .LVU250
 686 02fa D4F89830 		ldr	r3, [r4, #152]
 477:./Middlewares/ST/usbx/common/usbx_device_classes/src/ux_device_class_dfu_control_request.c ****                     *(transfer_request -> ux_slave_transfer_request_data_pointer + UX_SLAVE_CLASS_D
 687              		.loc 1 477 132 view .LVU251
 688 02fe 0025     		movs	r5, #0
 689 0300 9D70     		strb	r5, [r3, #2]
 478:./Middlewares/ST/usbx/common/usbx_device_classes/src/ux_device_class_dfu_control_request.c **** 
 690              		.loc 1 478 21 is_stmt 1 view .LVU252
 478:./Middlewares/ST/usbx/common/usbx_device_classes/src/ux_device_class_dfu_control_request.c **** 
 691              		.loc 1 478 40 is_stmt 0 view .LVU253
 692 0302 D4F89830 		ldr	r3, [r4, #152]
 478:./Middlewares/ST/usbx/common/usbx_device_classes/src/ux_device_class_dfu_control_request.c **** 
 693              		.loc 1 478 132 view .LVU254
 694 0306 DD70     		strb	r5, [r3, #3]
 481:./Middlewares/ST/usbx/common/usbx_device_classes/src/ux_device_class_dfu_control_request.c **** 
 695              		.loc 1 481 21 is_stmt 1 view .LVU255
 481:./Middlewares/ST/usbx/common/usbx_device_classes/src/ux_device_class_dfu_control_request.c **** 
 696              		.loc 1 481 148 is_stmt 0 view .LVU256
 697 0308 B34B     		ldr	r3, .L69
 698 030a 1A68     		ldr	r2, [r3]
 481:./Middlewares/ST/usbx/common/usbx_device_classes/src/ux_device_class_dfu_control_request.c **** 
 699              		.loc 1 481 40 view .LVU257
 700 030c D4F89830 		ldr	r3, [r4, #152]
 481:./Middlewares/ST/usbx/common/usbx_device_classes/src/ux_device_class_dfu_control_request.c **** 
 701              		.loc 1 481 123 view .LVU258
 702 0310 92F8B821 		ldrb	r2, [r2, #440]	@ zero_extendqisi2
 481:./Middlewares/ST/usbx/common/usbx_device_classes/src/ux_device_class_dfu_control_request.c **** 
 703              		.loc 1 481 121 view .LVU259
 704 0314 1A71     		strb	r2, [r3, #4]
 484:./Middlewares/ST/usbx/common/usbx_device_classes/src/ux_device_class_dfu_control_request.c **** #endif
 705              		.loc 1 484 21 is_stmt 1 view .LVU260
 484:./Middlewares/ST/usbx/common/usbx_device_classes/src/ux_device_class_dfu_control_request.c **** #endif
 706              		.loc 1 484 40 is_stmt 0 view .LVU261
 707 0316 D4F89830 		ldr	r3, [r4, #152]
 484:./Middlewares/ST/usbx/common/usbx_device_classes/src/ux_device_class_dfu_control_request.c **** #endif
 708              		.loc 1 484 122 view .LVU262
 709 031a 5D71     		strb	r5, [r3, #5]
 488:./Middlewares/ST/usbx/common/usbx_device_classes/src/ux_device_class_dfu_control_request.c **** 
 710              		.loc 1 488 21 is_stmt 1 view .LVU263
 711 031c 0622     		movs	r2, #6
 712 031e 1146     		mov	r1, r2
 713 0320 5046     		mov	r0, r10
 714 0322 FFF7FEFF 		bl	_ux_device_stack_transfer_request
 715              	.LVL72:
 490:./Middlewares/ST/usbx/common/usbx_device_classes/src/ux_device_class_dfu_control_request.c **** 
 716              		.loc 1 490 21 view .LVU264
 717 0326 8FE1     		b	.L1
 718              	.L34:
 459:./Middlewares/ST/usbx/common/usbx_device_classes/src/ux_device_class_dfu_control_request.c ****                                _ux_system_slave -> ux_system_slave_device_dfu_state_machine = UX_SL
 719              		.loc 1 459 29 view .LVU265
 459:./Middlewares/ST/usbx/common/usbx_device_classes/src/ux_device_class_dfu_control_request.c ****                                _ux_system_slave -> ux_system_slave_device_dfu_state_machine = UX_SL
 720              		.loc 1 459 62 is_stmt 0 view .LVU266
ARM GAS  /tmp/ccp1d2wf.s 			page 32


 721 0328 0023     		movs	r3, #0
 722 032a C9F80430 		str	r3, [r9, #4]
 460:./Middlewares/ST/usbx/common/usbx_device_classes/src/ux_device_class_dfu_control_request.c ****                             break;
 723              		.loc 1 460 32 is_stmt 1 view .LVU267
 460:./Middlewares/ST/usbx/common/usbx_device_classes/src/ux_device_class_dfu_control_request.c ****                             break;
 724              		.loc 1 460 49 is_stmt 0 view .LVU268
 725 032e AA4B     		ldr	r3, .L69
 726 0330 1B68     		ldr	r3, [r3]
 460:./Middlewares/ST/usbx/common/usbx_device_classes/src/ux_device_class_dfu_control_request.c ****                             break;
 727              		.loc 1 460 93 view .LVU269
 728 0332 0422     		movs	r2, #4
 729 0334 C3F8B821 		str	r2, [r3, #440]
 461:./Middlewares/ST/usbx/common/usbx_device_classes/src/ux_device_class_dfu_control_request.c **** 
 730              		.loc 1 461 29 is_stmt 1 view .LVU270
 731 0338 D6E7     		b	.L36
 732              	.L35:
 466:./Middlewares/ST/usbx/common/usbx_device_classes/src/ux_device_class_dfu_control_request.c ****                                _ux_system_slave -> ux_system_slave_device_dfu_state_machine = UX_SL
 733              		.loc 1 466 29 view .LVU271
 466:./Middlewares/ST/usbx/common/usbx_device_classes/src/ux_device_class_dfu_control_request.c ****                                _ux_system_slave -> ux_system_slave_device_dfu_state_machine = UX_SL
 734              		.loc 1 466 62 is_stmt 0 view .LVU272
 735 033a 0323     		movs	r3, #3
 736 033c C9F80430 		str	r3, [r9, #4]
 467:./Middlewares/ST/usbx/common/usbx_device_classes/src/ux_device_class_dfu_control_request.c ****                             break;
 737              		.loc 1 467 32 is_stmt 1 view .LVU273
 467:./Middlewares/ST/usbx/common/usbx_device_classes/src/ux_device_class_dfu_control_request.c ****                             break;
 738              		.loc 1 467 49 is_stmt 0 view .LVU274
 739 0340 A54B     		ldr	r3, .L69
 740 0342 1B68     		ldr	r3, [r3]
 467:./Middlewares/ST/usbx/common/usbx_device_classes/src/ux_device_class_dfu_control_request.c ****                             break;
 741              		.loc 1 467 93 view .LVU275
 742 0344 0A22     		movs	r2, #10
 743 0346 C3F8B821 		str	r2, [r3, #440]
 468:./Middlewares/ST/usbx/common/usbx_device_classes/src/ux_device_class_dfu_control_request.c **** 
 744              		.loc 1 468 29 is_stmt 1 view .LVU276
 745 034a CDE7     		b	.L36
 746              	.LVL73:
 747              	.L32:
 495:./Middlewares/ST/usbx/common/usbx_device_classes/src/ux_device_class_dfu_control_request.c **** 
 748              		.loc 1 495 21 view .LVU277
 495:./Middlewares/ST/usbx/common/usbx_device_classes/src/ux_device_class_dfu_control_request.c **** 
 749              		.loc 1 495 39 is_stmt 0 view .LVU278
 750 034c D4F89830 		ldr	r3, [r4, #152]
 495:./Middlewares/ST/usbx/common/usbx_device_classes/src/ux_device_class_dfu_control_request.c **** 
 751              		.loc 1 495 81 view .LVU279
 752 0350 1D70     		strb	r5, [r3]
 498:./Middlewares/ST/usbx/common/usbx_device_classes/src/ux_device_class_dfu_control_request.c **** 
 753              		.loc 1 498 21 is_stmt 1 view .LVU280
 754 0352 0122     		movs	r2, #1
 755 0354 1146     		mov	r1, r2
 756 0356 5046     		mov	r0, r10
 757              	.LVL74:
 498:./Middlewares/ST/usbx/common/usbx_device_classes/src/ux_device_class_dfu_control_request.c **** 
 758              		.loc 1 498 21 is_stmt 0 view .LVU281
 759 0358 FFF7FEFF 		bl	_ux_device_stack_transfer_request
 760              	.LVL75:
 500:./Middlewares/ST/usbx/common/usbx_device_classes/src/ux_device_class_dfu_control_request.c **** 
 761              		.loc 1 500 21 is_stmt 1 view .LVU282
ARM GAS  /tmp/ccp1d2wf.s 			page 33


 762              		.loc 1 872 11 is_stmt 0 view .LVU283
 763 035c 0025     		movs	r5, #0
 500:./Middlewares/ST/usbx/common/usbx_device_classes/src/ux_device_class_dfu_control_request.c **** 
 764              		.loc 1 500 21 view .LVU284
 765 035e 73E1     		b	.L1
 766              	.LVL76:
 767              	.L7:
 518:./Middlewares/ST/usbx/common/usbx_device_classes/src/ux_device_class_dfu_control_request.c ****             {
 768              		.loc 1 518 13 is_stmt 1 view .LVU285
 769 0360 013E     		subs	r6, r6, #1
 770              	.LVL77:
 518:./Middlewares/ST/usbx/common/usbx_device_classes/src/ux_device_class_dfu_control_request.c ****             {
 771              		.loc 1 518 13 is_stmt 0 view .LVU286
 772 0362 052E     		cmp	r6, #5
 773 0364 58D8     		bhi	.L37
 774 0366 DFE806F0 		tbb	[pc, r6]
 775              	.L39:
 776 036a 03       		.byte	(.L42-.L39)/2
 777 036b 57       		.byte	(.L37-.L39)/2
 778 036c 2D       		.byte	(.L41-.L39)/2
 779 036d 57       		.byte	(.L37-.L39)/2
 780 036e 4D       		.byte	(.L40-.L39)/2
 781 036f 21       		.byte	(.L38-.L39)/2
 782              		.p2align 1
 783              	.L42:
 525:./Middlewares/ST/usbx/common/usbx_device_classes/src/ux_device_class_dfu_control_request.c ****                     {
 784              		.loc 1 525 21 is_stmt 1 view .LVU287
 525:./Middlewares/ST/usbx/common/usbx_device_classes/src/ux_device_class_dfu_control_request.c ****                     {
 785              		.loc 1 525 24 is_stmt 0 view .LVU288
 786 0370 58B9     		cbnz	r0, .L43
 529:./Middlewares/ST/usbx/common/usbx_device_classes/src/ux_device_class_dfu_control_request.c **** 
 787              		.loc 1 529 25 is_stmt 1 view .LVU289
 529:./Middlewares/ST/usbx/common/usbx_device_classes/src/ux_device_class_dfu_control_request.c **** 
 788              		.loc 1 529 29 is_stmt 0 view .LVU290
 789 0372 D9F81C30 		ldr	r3, [r9, #28]
 529:./Middlewares/ST/usbx/common/usbx_device_classes/src/ux_device_class_dfu_control_request.c **** 
 790              		.loc 1 529 25 view .LVU291
 791 0376 0221     		movs	r1, #2
 792 0378 4846     		mov	r0, r9
 793              	.LVL78:
 529:./Middlewares/ST/usbx/common/usbx_device_classes/src/ux_device_class_dfu_control_request.c **** 
 794              		.loc 1 529 25 view .LVU292
 795 037a 9847     		blx	r3
 796              	.LVL79:
 532:./Middlewares/ST/usbx/common/usbx_device_classes/src/ux_device_class_dfu_control_request.c **** 
 797              		.loc 1 532 25 is_stmt 1 view .LVU293
 532:./Middlewares/ST/usbx/common/usbx_device_classes/src/ux_device_class_dfu_control_request.c **** 
 798              		.loc 1 532 42 is_stmt 0 view .LVU294
 799 037c 964B     		ldr	r3, .L69
 800 037e 1B68     		ldr	r3, [r3]
 532:./Middlewares/ST/usbx/common/usbx_device_classes/src/ux_device_class_dfu_control_request.c **** 
 801              		.loc 1 532 86 view .LVU295
 802 0380 0622     		movs	r2, #6
 803 0382 C3F8B821 		str	r2, [r3, #440]
 804              		.loc 1 872 11 view .LVU296
 805 0386 3D46     		mov	r5, r7
 806 0388 5EE1     		b	.L1
ARM GAS  /tmp/ccp1d2wf.s 			page 34


 807              	.LVL80:
 808              	.L43:
 540:./Middlewares/ST/usbx/common/usbx_device_classes/src/ux_device_class_dfu_control_request.c ****                                                             transfer_request -> ux_slave_transfer_r
 809              		.loc 1 540 25 is_stmt 1 view .LVU297
 540:./Middlewares/ST/usbx/common/usbx_device_classes/src/ux_device_class_dfu_control_request.c ****                                                             transfer_request -> ux_slave_transfer_r
 810              		.loc 1 540 29 is_stmt 0 view .LVU298
 811 038a D9F81450 		ldr	r5, [r9, #20]
 540:./Middlewares/ST/usbx/common/usbx_device_classes/src/ux_device_class_dfu_control_request.c ****                                                             transfer_request -> ux_slave_transfer_r
 812              		.loc 1 540 25 view .LVU299
 813 038e D4F89820 		ldr	r2, [r4, #152]
 814 0392 03AB     		add	r3, sp, #12
 815 0394 0093     		str	r3, [sp]
 816 0396 0346     		mov	r3, r0
 817 0398 4146     		mov	r1, r8
 818 039a 4846     		mov	r0, r9
 819              	.LVL81:
 540:./Middlewares/ST/usbx/common/usbx_device_classes/src/ux_device_class_dfu_control_request.c ****                                                             transfer_request -> ux_slave_transfer_r
 820              		.loc 1 540 25 view .LVU300
 821 039c A847     		blx	r5
 822              	.LVL82:
 546:./Middlewares/ST/usbx/common/usbx_device_classes/src/ux_device_class_dfu_control_request.c ****                     }
 823              		.loc 1 546 25 is_stmt 1 view .LVU301
 546:./Middlewares/ST/usbx/common/usbx_device_classes/src/ux_device_class_dfu_control_request.c ****                     }
 824              		.loc 1 546 42 is_stmt 0 view .LVU302
 825 039e 8E4B     		ldr	r3, .L69
 826 03a0 1B68     		ldr	r3, [r3]
 546:./Middlewares/ST/usbx/common/usbx_device_classes/src/ux_device_class_dfu_control_request.c ****                     }
 827              		.loc 1 546 86 view .LVU303
 828 03a2 0322     		movs	r2, #3
 829 03a4 C3F8B821 		str	r2, [r3, #440]
 830              		.loc 1 872 11 view .LVU304
 831 03a8 0025     		movs	r5, #0
 832 03aa 4DE1     		b	.L1
 833              	.LVL83:
 834              	.L38:
 554:./Middlewares/ST/usbx/common/usbx_device_classes/src/ux_device_class_dfu_control_request.c **** 
 835              		.loc 1 554 21 is_stmt 1 view .LVU305
 554:./Middlewares/ST/usbx/common/usbx_device_classes/src/ux_device_class_dfu_control_request.c **** 
 836              		.loc 1 554 25 is_stmt 0 view .LVU306
 837 03ac D9F81C30 		ldr	r3, [r9, #28]
 554:./Middlewares/ST/usbx/common/usbx_device_classes/src/ux_device_class_dfu_control_request.c **** 
 838              		.loc 1 554 21 view .LVU307
 839 03b0 0321     		movs	r1, #3
 840 03b2 4846     		mov	r0, r9
 841              	.LVL84:
 554:./Middlewares/ST/usbx/common/usbx_device_classes/src/ux_device_class_dfu_control_request.c **** 
 842              		.loc 1 554 21 view .LVU308
 843 03b4 9847     		blx	r3
 844              	.LVL85:
 557:./Middlewares/ST/usbx/common/usbx_device_classes/src/ux_device_class_dfu_control_request.c **** 
 845              		.loc 1 557 21 is_stmt 1 view .LVU309
 557:./Middlewares/ST/usbx/common/usbx_device_classes/src/ux_device_class_dfu_control_request.c **** 
 846              		.loc 1 557 38 is_stmt 0 view .LVU310
 847 03b6 884B     		ldr	r3, .L69
 848 03b8 1B68     		ldr	r3, [r3]
 557:./Middlewares/ST/usbx/common/usbx_device_classes/src/ux_device_class_dfu_control_request.c **** 
 849              		.loc 1 557 82 view .LVU311
ARM GAS  /tmp/ccp1d2wf.s 			page 35


 850 03ba 0222     		movs	r2, #2
 851 03bc C3F8B821 		str	r2, [r3, #440]
 559:./Middlewares/ST/usbx/common/usbx_device_classes/src/ux_device_class_dfu_control_request.c **** 
 852              		.loc 1 559 21 is_stmt 1 view .LVU312
 853              		.loc 1 872 11 is_stmt 0 view .LVU313
 854 03c0 0025     		movs	r5, #0
 559:./Middlewares/ST/usbx/common/usbx_device_classes/src/ux_device_class_dfu_control_request.c **** 
 855              		.loc 1 559 21 view .LVU314
 856 03c2 41E1     		b	.L1
 857              	.LVL86:
 858              	.L41:
 568:./Middlewares/ST/usbx/common/usbx_device_classes/src/ux_device_class_dfu_control_request.c **** 
 859              		.loc 1 568 21 is_stmt 1 view .LVU315
 568:./Middlewares/ST/usbx/common/usbx_device_classes/src/ux_device_class_dfu_control_request.c **** 
 860              		.loc 1 568 39 is_stmt 0 view .LVU316
 861 03c4 D4F89830 		ldr	r3, [r4, #152]
 568:./Middlewares/ST/usbx/common/usbx_device_classes/src/ux_device_class_dfu_control_request.c **** 
 862              		.loc 1 568 83 view .LVU317
 863 03c8 99F80420 		ldrb	r2, [r9, #4]	@ zero_extendqisi2
 568:./Middlewares/ST/usbx/common/usbx_device_classes/src/ux_device_class_dfu_control_request.c **** 
 864              		.loc 1 568 81 view .LVU318
 865 03cc 1A70     		strb	r2, [r3]
 571:./Middlewares/ST/usbx/common/usbx_device_classes/src/ux_device_class_dfu_control_request.c ****                     *(transfer_request -> ux_slave_transfer_request_data_pointer + UX_SLAVE_CLASS_D
 866              		.loc 1 571 21 is_stmt 1 view .LVU319
 571:./Middlewares/ST/usbx/common/usbx_device_classes/src/ux_device_class_dfu_control_request.c ****                     *(transfer_request -> ux_slave_transfer_request_data_pointer + UX_SLAVE_CLASS_D
 867              		.loc 1 571 40 is_stmt 0 view .LVU320
 868 03ce D4F89830 		ldr	r3, [r4, #152]
 571:./Middlewares/ST/usbx/common/usbx_device_classes/src/ux_device_class_dfu_control_request.c ****                     *(transfer_request -> ux_slave_transfer_request_data_pointer + UX_SLAVE_CLASS_D
 869              		.loc 1 571 128 view .LVU321
 870 03d2 6422     		movs	r2, #100
 871 03d4 5A70     		strb	r2, [r3, #1]
 572:./Middlewares/ST/usbx/common/usbx_device_classes/src/ux_device_class_dfu_control_request.c ****                     *(transfer_request -> ux_slave_transfer_request_data_pointer + UX_SLAVE_CLASS_D
 872              		.loc 1 572 21 is_stmt 1 view .LVU322
 572:./Middlewares/ST/usbx/common/usbx_device_classes/src/ux_device_class_dfu_control_request.c ****                     *(transfer_request -> ux_slave_transfer_request_data_pointer + UX_SLAVE_CLASS_D
 873              		.loc 1 572 40 is_stmt 0 view .LVU323
 874 03d6 D4F89830 		ldr	r3, [r4, #152]
 572:./Middlewares/ST/usbx/common/usbx_device_classes/src/ux_device_class_dfu_control_request.c ****                     *(transfer_request -> ux_slave_transfer_request_data_pointer + UX_SLAVE_CLASS_D
 875              		.loc 1 572 132 view .LVU324
 876 03da 0025     		movs	r5, #0
 877 03dc 9D70     		strb	r5, [r3, #2]
 573:./Middlewares/ST/usbx/common/usbx_device_classes/src/ux_device_class_dfu_control_request.c **** 
 878              		.loc 1 573 21 is_stmt 1 view .LVU325
 573:./Middlewares/ST/usbx/common/usbx_device_classes/src/ux_device_class_dfu_control_request.c **** 
 879              		.loc 1 573 40 is_stmt 0 view .LVU326
 880 03de D4F89830 		ldr	r3, [r4, #152]
 573:./Middlewares/ST/usbx/common/usbx_device_classes/src/ux_device_class_dfu_control_request.c **** 
 881              		.loc 1 573 132 view .LVU327
 882 03e2 DD70     		strb	r5, [r3, #3]
 576:./Middlewares/ST/usbx/common/usbx_device_classes/src/ux_device_class_dfu_control_request.c **** 
 883              		.loc 1 576 21 is_stmt 1 view .LVU328
 576:./Middlewares/ST/usbx/common/usbx_device_classes/src/ux_device_class_dfu_control_request.c **** 
 884              		.loc 1 576 148 is_stmt 0 view .LVU329
 885 03e4 7C4B     		ldr	r3, .L69
 886 03e6 1A68     		ldr	r2, [r3]
 576:./Middlewares/ST/usbx/common/usbx_device_classes/src/ux_device_class_dfu_control_request.c **** 
 887              		.loc 1 576 40 view .LVU330
 888 03e8 D4F89830 		ldr	r3, [r4, #152]
ARM GAS  /tmp/ccp1d2wf.s 			page 36


 576:./Middlewares/ST/usbx/common/usbx_device_classes/src/ux_device_class_dfu_control_request.c **** 
 889              		.loc 1 576 123 view .LVU331
 890 03ec 92F8B821 		ldrb	r2, [r2, #440]	@ zero_extendqisi2
 576:./Middlewares/ST/usbx/common/usbx_device_classes/src/ux_device_class_dfu_control_request.c **** 
 891              		.loc 1 576 121 view .LVU332
 892 03f0 1A71     		strb	r2, [r3, #4]
 579:./Middlewares/ST/usbx/common/usbx_device_classes/src/ux_device_class_dfu_control_request.c **** #endif
 893              		.loc 1 579 21 is_stmt 1 view .LVU333
 579:./Middlewares/ST/usbx/common/usbx_device_classes/src/ux_device_class_dfu_control_request.c **** #endif
 894              		.loc 1 579 40 is_stmt 0 view .LVU334
 895 03f2 D4F89830 		ldr	r3, [r4, #152]
 579:./Middlewares/ST/usbx/common/usbx_device_classes/src/ux_device_class_dfu_control_request.c **** #endif
 896              		.loc 1 579 122 view .LVU335
 897 03f6 5D71     		strb	r5, [r3, #5]
 583:./Middlewares/ST/usbx/common/usbx_device_classes/src/ux_device_class_dfu_control_request.c **** 
 898              		.loc 1 583 21 is_stmt 1 view .LVU336
 899 03f8 0622     		movs	r2, #6
 900 03fa 1146     		mov	r1, r2
 901 03fc 5046     		mov	r0, r10
 902              	.LVL87:
 583:./Middlewares/ST/usbx/common/usbx_device_classes/src/ux_device_class_dfu_control_request.c **** 
 903              		.loc 1 583 21 is_stmt 0 view .LVU337
 904 03fe FFF7FEFF 		bl	_ux_device_stack_transfer_request
 905              	.LVL88:
 585:./Middlewares/ST/usbx/common/usbx_device_classes/src/ux_device_class_dfu_control_request.c **** 
 906              		.loc 1 585 21 is_stmt 1 view .LVU338
 907 0402 21E1     		b	.L1
 908              	.LVL89:
 909              	.L40:
 590:./Middlewares/ST/usbx/common/usbx_device_classes/src/ux_device_class_dfu_control_request.c **** 
 910              		.loc 1 590 21 view .LVU339
 590:./Middlewares/ST/usbx/common/usbx_device_classes/src/ux_device_class_dfu_control_request.c **** 
 911              		.loc 1 590 39 is_stmt 0 view .LVU340
 912 0404 D4F89830 		ldr	r3, [r4, #152]
 590:./Middlewares/ST/usbx/common/usbx_device_classes/src/ux_device_class_dfu_control_request.c **** 
 913              		.loc 1 590 81 view .LVU341
 914 0408 1D70     		strb	r5, [r3]
 593:./Middlewares/ST/usbx/common/usbx_device_classes/src/ux_device_class_dfu_control_request.c **** 
 915              		.loc 1 593 21 is_stmt 1 view .LVU342
 916 040a 0122     		movs	r2, #1
 917 040c 1146     		mov	r1, r2
 918 040e 5046     		mov	r0, r10
 919              	.LVL90:
 593:./Middlewares/ST/usbx/common/usbx_device_classes/src/ux_device_class_dfu_control_request.c **** 
 920              		.loc 1 593 21 is_stmt 0 view .LVU343
 921 0410 FFF7FEFF 		bl	_ux_device_stack_transfer_request
 922              	.LVL91:
 595:./Middlewares/ST/usbx/common/usbx_device_classes/src/ux_device_class_dfu_control_request.c **** 
 923              		.loc 1 595 21 is_stmt 1 view .LVU344
 924              		.loc 1 872 11 is_stmt 0 view .LVU345
 925 0414 0025     		movs	r5, #0
 595:./Middlewares/ST/usbx/common/usbx_device_classes/src/ux_device_class_dfu_control_request.c **** 
 926              		.loc 1 595 21 view .LVU346
 927 0416 17E1     		b	.L1
 928              	.LVL92:
 929              	.L37:
 600:./Middlewares/ST/usbx/common/usbx_device_classes/src/ux_device_class_dfu_control_request.c **** 
ARM GAS  /tmp/ccp1d2wf.s 			page 37


 930              		.loc 1 600 21 is_stmt 1 view .LVU347
 931 0418 04F15C00 		add	r0, r4, #92
 932              	.LVL93:
 600:./Middlewares/ST/usbx/common/usbx_device_classes/src/ux_device_class_dfu_control_request.c **** 
 933              		.loc 1 600 21 is_stmt 0 view .LVU348
 934 041c FFF7FEFF 		bl	_ux_device_stack_endpoint_stall
 935              	.LVL94:
 603:./Middlewares/ST/usbx/common/usbx_device_classes/src/ux_device_class_dfu_control_request.c **** 
 936              		.loc 1 603 24 is_stmt 1 view .LVU349
 603:./Middlewares/ST/usbx/common/usbx_device_classes/src/ux_device_class_dfu_control_request.c **** 
 937              		.loc 1 603 41 is_stmt 0 view .LVU350
 938 0420 6D4B     		ldr	r3, .L69
 939 0422 1B68     		ldr	r3, [r3]
 603:./Middlewares/ST/usbx/common/usbx_device_classes/src/ux_device_class_dfu_control_request.c **** 
 940              		.loc 1 603 85 view .LVU351
 941 0424 0A22     		movs	r2, #10
 942 0426 C3F8B821 		str	r2, [r3, #440]
 605:./Middlewares/ST/usbx/common/usbx_device_classes/src/ux_device_class_dfu_control_request.c ****             }
 943              		.loc 1 605 21 is_stmt 1 view .LVU352
 944              		.loc 1 872 11 is_stmt 0 view .LVU353
 945 042a 0025     		movs	r5, #0
 605:./Middlewares/ST/usbx/common/usbx_device_classes/src/ux_device_class_dfu_control_request.c ****             }
 946              		.loc 1 605 21 view .LVU354
 947 042c 0CE1     		b	.L1
 948              	.LVL95:
 949              	.L6:
 613:./Middlewares/ST/usbx/common/usbx_device_classes/src/ux_device_class_dfu_control_request.c ****             {
 950              		.loc 1 613 13 is_stmt 1 view .LVU355
 951 042e 032E     		cmp	r6, #3
 952 0430 07D0     		beq	.L44
 953 0432 052E     		cmp	r6, #5
 954 0434 54D0     		beq	.L45
 706:./Middlewares/ST/usbx/common/usbx_device_classes/src/ux_device_class_dfu_control_request.c ****                     break;
 955              		.loc 1 706 21 view .LVU356
 956 0436 04F15C00 		add	r0, r4, #92
 957              	.LVL96:
 706:./Middlewares/ST/usbx/common/usbx_device_classes/src/ux_device_class_dfu_control_request.c ****                     break;
 958              		.loc 1 706 21 is_stmt 0 view .LVU357
 959 043a FFF7FEFF 		bl	_ux_device_stack_endpoint_stall
 960              	.LVL97:
 707:./Middlewares/ST/usbx/common/usbx_device_classes/src/ux_device_class_dfu_control_request.c ****             }
 961              		.loc 1 707 21 is_stmt 1 view .LVU358
 962              		.loc 1 872 11 is_stmt 0 view .LVU359
 963 043e 0025     		movs	r5, #0
 707:./Middlewares/ST/usbx/common/usbx_device_classes/src/ux_device_class_dfu_control_request.c ****             }
 964              		.loc 1 707 21 view .LVU360
 965 0440 02E1     		b	.L1
 966              	.LVL98:
 967              	.L44:
 635:./Middlewares/ST/usbx/common/usbx_device_classes/src/ux_device_class_dfu_control_request.c **** 
 968              		.loc 1 635 21 is_stmt 1 view .LVU361
 635:./Middlewares/ST/usbx/common/usbx_device_classes/src/ux_device_class_dfu_control_request.c **** 
 969              		.loc 1 635 25 is_stmt 0 view .LVU362
 970 0442 D9F81830 		ldr	r3, [r9, #24]
 635:./Middlewares/ST/usbx/common/usbx_device_classes/src/ux_device_class_dfu_control_request.c **** 
 971              		.loc 1 635 21 view .LVU363
 972 0446 02A9     		add	r1, sp, #8
ARM GAS  /tmp/ccp1d2wf.s 			page 38


 973 0448 4846     		mov	r0, r9
 974              	.LVL99:
 635:./Middlewares/ST/usbx/common/usbx_device_classes/src/ux_device_class_dfu_control_request.c **** 
 975              		.loc 1 635 21 view .LVU364
 976 044a 9847     		blx	r3
 977              	.LVL100:
 638:./Middlewares/ST/usbx/common/usbx_device_classes/src/ux_device_class_dfu_control_request.c ****                     {
 978              		.loc 1 638 21 is_stmt 1 view .LVU365
 979 044c 029B     		ldr	r3, [sp, #8]
 980 044e 012B     		cmp	r3, #1
 981 0450 15D0     		beq	.L47
 982 0452 022B     		cmp	r3, #2
 983 0454 3BD0     		beq	.L48
 984 0456 D3B9     		cbnz	r3, .L49
 644:./Middlewares/ST/usbx/common/usbx_device_classes/src/ux_device_class_dfu_control_request.c ****                                _ux_system_slave -> ux_system_slave_device_dfu_state_machine = UX_SL
 985              		.loc 1 644 29 view .LVU366
 644:./Middlewares/ST/usbx/common/usbx_device_classes/src/ux_device_class_dfu_control_request.c ****                                _ux_system_slave -> ux_system_slave_device_dfu_state_machine = UX_SL
 986              		.loc 1 644 62 is_stmt 0 view .LVU367
 987 0458 C9F80430 		str	r3, [r9, #4]
 645:./Middlewares/ST/usbx/common/usbx_device_classes/src/ux_device_class_dfu_control_request.c **** 
 988              		.loc 1 645 32 is_stmt 1 view .LVU368
 645:./Middlewares/ST/usbx/common/usbx_device_classes/src/ux_device_class_dfu_control_request.c **** 
 989              		.loc 1 645 49 is_stmt 0 view .LVU369
 990 045c 5E4B     		ldr	r3, .L69
 991 045e 1B68     		ldr	r3, [r3]
 645:./Middlewares/ST/usbx/common/usbx_device_classes/src/ux_device_class_dfu_control_request.c **** 
 992              		.loc 1 645 93 view .LVU370
 993 0460 0822     		movs	r2, #8
 994 0462 C3F8B821 		str	r2, [r3, #440]
 648:./Middlewares/ST/usbx/common/usbx_device_classes/src/ux_device_class_dfu_control_request.c ****                             {
 995              		.loc 1 648 29 is_stmt 1 view .LVU371
 648:./Middlewares/ST/usbx/common/usbx_device_classes/src/ux_device_class_dfu_control_request.c ****                             {
 996              		.loc 1 648 50 is_stmt 0 view .LVU372
 997 0466 D3F8AC31 		ldr	r3, [r3, #428]
 648:./Middlewares/ST/usbx/common/usbx_device_classes/src/ux_device_class_dfu_control_request.c ****                             {
 998              		.loc 1 648 32 view .LVU373
 999 046a 13F0080F 		tst	r3, #8
 1000 046e 0ED0     		beq	.L49
 652:./Middlewares/ST/usbx/common/usbx_device_classes/src/ux_device_class_dfu_control_request.c **** 
 1001              		.loc 1 652 33 is_stmt 1 view .LVU374
 652:./Middlewares/ST/usbx/common/usbx_device_classes/src/ux_device_class_dfu_control_request.c **** 
 1002              		.loc 1 652 33 view .LVU375
 1003 0470 0022     		movs	r2, #0
 1004 0472 0121     		movs	r1, #1
 1005 0474 09F1D400 		add	r0, r9, #212
 1006 0478 FFF7FEFF 		bl	_ux_utility_event_flags_set
 1007              	.LVL101:
 1008 047c 07E0     		b	.L49
 1009              	.L47:
 661:./Middlewares/ST/usbx/common/usbx_device_classes/src/ux_device_class_dfu_control_request.c ****                                _ux_system_slave -> ux_system_slave_device_dfu_state_machine = UX_SL
 1010              		.loc 1 661 29 view .LVU376
 661:./Middlewares/ST/usbx/common/usbx_device_classes/src/ux_device_class_dfu_control_request.c ****                                _ux_system_slave -> ux_system_slave_device_dfu_state_machine = UX_SL
 1011              		.loc 1 661 62 is_stmt 0 view .LVU377
 1012 047e 0023     		movs	r3, #0
 1013 0480 C9F80430 		str	r3, [r9, #4]
 662:./Middlewares/ST/usbx/common/usbx_device_classes/src/ux_device_class_dfu_control_request.c ****                             break;
 1014              		.loc 1 662 32 is_stmt 1 view .LVU378
ARM GAS  /tmp/ccp1d2wf.s 			page 39


 662:./Middlewares/ST/usbx/common/usbx_device_classes/src/ux_device_class_dfu_control_request.c ****                             break;
 1015              		.loc 1 662 49 is_stmt 0 view .LVU379
 1016 0484 544B     		ldr	r3, .L69
 1017 0486 1B68     		ldr	r3, [r3]
 662:./Middlewares/ST/usbx/common/usbx_device_classes/src/ux_device_class_dfu_control_request.c ****                             break;
 1018              		.loc 1 662 93 view .LVU380
 1019 0488 0722     		movs	r2, #7
 1020 048a C3F8B821 		str	r2, [r3, #440]
 663:./Middlewares/ST/usbx/common/usbx_device_classes/src/ux_device_class_dfu_control_request.c **** 
 1021              		.loc 1 663 29 is_stmt 1 view .LVU381
 1022              	.L49:
 674:./Middlewares/ST/usbx/common/usbx_device_classes/src/ux_device_class_dfu_control_request.c **** 
 1023              		.loc 1 674 21 view .LVU382
 674:./Middlewares/ST/usbx/common/usbx_device_classes/src/ux_device_class_dfu_control_request.c **** 
 1024              		.loc 1 674 39 is_stmt 0 view .LVU383
 1025 048e D4F89830 		ldr	r3, [r4, #152]
 674:./Middlewares/ST/usbx/common/usbx_device_classes/src/ux_device_class_dfu_control_request.c **** 
 1026              		.loc 1 674 83 view .LVU384
 1027 0492 99F80420 		ldrb	r2, [r9, #4]	@ zero_extendqisi2
 674:./Middlewares/ST/usbx/common/usbx_device_classes/src/ux_device_class_dfu_control_request.c **** 
 1028              		.loc 1 674 81 view .LVU385
 1029 0496 1A70     		strb	r2, [r3]
 677:./Middlewares/ST/usbx/common/usbx_device_classes/src/ux_device_class_dfu_control_request.c ****                     *(transfer_request -> ux_slave_transfer_request_data_pointer + UX_SLAVE_CLASS_D
 1030              		.loc 1 677 21 is_stmt 1 view .LVU386
 677:./Middlewares/ST/usbx/common/usbx_device_classes/src/ux_device_class_dfu_control_request.c ****                     *(transfer_request -> ux_slave_transfer_request_data_pointer + UX_SLAVE_CLASS_D
 1031              		.loc 1 677 40 is_stmt 0 view .LVU387
 1032 0498 D4F89830 		ldr	r3, [r4, #152]
 677:./Middlewares/ST/usbx/common/usbx_device_classes/src/ux_device_class_dfu_control_request.c ****                     *(transfer_request -> ux_slave_transfer_request_data_pointer + UX_SLAVE_CLASS_D
 1033              		.loc 1 677 128 view .LVU388
 1034 049c 6422     		movs	r2, #100
 1035 049e 5A70     		strb	r2, [r3, #1]
 678:./Middlewares/ST/usbx/common/usbx_device_classes/src/ux_device_class_dfu_control_request.c ****                     *(transfer_request -> ux_slave_transfer_request_data_pointer + UX_SLAVE_CLASS_D
 1036              		.loc 1 678 21 is_stmt 1 view .LVU389
 678:./Middlewares/ST/usbx/common/usbx_device_classes/src/ux_device_class_dfu_control_request.c ****                     *(transfer_request -> ux_slave_transfer_request_data_pointer + UX_SLAVE_CLASS_D
 1037              		.loc 1 678 40 is_stmt 0 view .LVU390
 1038 04a0 D4F89830 		ldr	r3, [r4, #152]
 678:./Middlewares/ST/usbx/common/usbx_device_classes/src/ux_device_class_dfu_control_request.c ****                     *(transfer_request -> ux_slave_transfer_request_data_pointer + UX_SLAVE_CLASS_D
 1039              		.loc 1 678 132 view .LVU391
 1040 04a4 0025     		movs	r5, #0
 1041 04a6 9D70     		strb	r5, [r3, #2]
 679:./Middlewares/ST/usbx/common/usbx_device_classes/src/ux_device_class_dfu_control_request.c **** 
 1042              		.loc 1 679 21 is_stmt 1 view .LVU392
 679:./Middlewares/ST/usbx/common/usbx_device_classes/src/ux_device_class_dfu_control_request.c **** 
 1043              		.loc 1 679 40 is_stmt 0 view .LVU393
 1044 04a8 D4F89830 		ldr	r3, [r4, #152]
 679:./Middlewares/ST/usbx/common/usbx_device_classes/src/ux_device_class_dfu_control_request.c **** 
 1045              		.loc 1 679 132 view .LVU394
 1046 04ac DD70     		strb	r5, [r3, #3]
 682:./Middlewares/ST/usbx/common/usbx_device_classes/src/ux_device_class_dfu_control_request.c **** 
 1047              		.loc 1 682 21 is_stmt 1 view .LVU395
 682:./Middlewares/ST/usbx/common/usbx_device_classes/src/ux_device_class_dfu_control_request.c **** 
 1048              		.loc 1 682 148 is_stmt 0 view .LVU396
 1049 04ae 4A4B     		ldr	r3, .L69
 1050 04b0 1A68     		ldr	r2, [r3]
 682:./Middlewares/ST/usbx/common/usbx_device_classes/src/ux_device_class_dfu_control_request.c **** 
 1051              		.loc 1 682 40 view .LVU397
 1052 04b2 D4F89830 		ldr	r3, [r4, #152]
ARM GAS  /tmp/ccp1d2wf.s 			page 40


 682:./Middlewares/ST/usbx/common/usbx_device_classes/src/ux_device_class_dfu_control_request.c **** 
 1053              		.loc 1 682 123 view .LVU398
 1054 04b6 92F8B821 		ldrb	r2, [r2, #440]	@ zero_extendqisi2
 682:./Middlewares/ST/usbx/common/usbx_device_classes/src/ux_device_class_dfu_control_request.c **** 
 1055              		.loc 1 682 121 view .LVU399
 1056 04ba 1A71     		strb	r2, [r3, #4]
 685:./Middlewares/ST/usbx/common/usbx_device_classes/src/ux_device_class_dfu_control_request.c **** #endif
 1057              		.loc 1 685 21 is_stmt 1 view .LVU400
 685:./Middlewares/ST/usbx/common/usbx_device_classes/src/ux_device_class_dfu_control_request.c **** #endif
 1058              		.loc 1 685 40 is_stmt 0 view .LVU401
 1059 04bc D4F89830 		ldr	r3, [r4, #152]
 685:./Middlewares/ST/usbx/common/usbx_device_classes/src/ux_device_class_dfu_control_request.c **** #endif
 1060              		.loc 1 685 122 view .LVU402
 1061 04c0 5D71     		strb	r5, [r3, #5]
 689:./Middlewares/ST/usbx/common/usbx_device_classes/src/ux_device_class_dfu_control_request.c **** 
 1062              		.loc 1 689 21 is_stmt 1 view .LVU403
 1063 04c2 0622     		movs	r2, #6
 1064 04c4 1146     		mov	r1, r2
 1065 04c6 5046     		mov	r0, r10
 1066 04c8 FFF7FEFF 		bl	_ux_device_stack_transfer_request
 1067              	.LVL102:
 691:./Middlewares/ST/usbx/common/usbx_device_classes/src/ux_device_class_dfu_control_request.c **** 
 1068              		.loc 1 691 21 view .LVU404
 1069 04cc BCE0     		b	.L1
 1070              	.L48:
 668:./Middlewares/ST/usbx/common/usbx_device_classes/src/ux_device_class_dfu_control_request.c ****                                _ux_system_slave -> ux_system_slave_device_dfu_state_machine = UX_SL
 1071              		.loc 1 668 29 view .LVU405
 668:./Middlewares/ST/usbx/common/usbx_device_classes/src/ux_device_class_dfu_control_request.c ****                                _ux_system_slave -> ux_system_slave_device_dfu_state_machine = UX_SL
 1072              		.loc 1 668 62 is_stmt 0 view .LVU406
 1073 04ce 0323     		movs	r3, #3
 1074 04d0 C9F80430 		str	r3, [r9, #4]
 669:./Middlewares/ST/usbx/common/usbx_device_classes/src/ux_device_class_dfu_control_request.c ****                             break;
 1075              		.loc 1 669 32 is_stmt 1 view .LVU407
 669:./Middlewares/ST/usbx/common/usbx_device_classes/src/ux_device_class_dfu_control_request.c ****                             break;
 1076              		.loc 1 669 49 is_stmt 0 view .LVU408
 1077 04d4 404B     		ldr	r3, .L69
 1078 04d6 1B68     		ldr	r3, [r3]
 669:./Middlewares/ST/usbx/common/usbx_device_classes/src/ux_device_class_dfu_control_request.c ****                             break;
 1079              		.loc 1 669 93 view .LVU409
 1080 04d8 0A22     		movs	r2, #10
 1081 04da C3F8B821 		str	r2, [r3, #440]
 670:./Middlewares/ST/usbx/common/usbx_device_classes/src/ux_device_class_dfu_control_request.c ****                     }
 1082              		.loc 1 670 29 is_stmt 1 view .LVU410
 1083 04de D6E7     		b	.L49
 1084              	.LVL103:
 1085              	.L45:
 696:./Middlewares/ST/usbx/common/usbx_device_classes/src/ux_device_class_dfu_control_request.c **** 
 1086              		.loc 1 696 21 view .LVU411
 696:./Middlewares/ST/usbx/common/usbx_device_classes/src/ux_device_class_dfu_control_request.c **** 
 1087              		.loc 1 696 39 is_stmt 0 view .LVU412
 1088 04e0 D4F89830 		ldr	r3, [r4, #152]
 696:./Middlewares/ST/usbx/common/usbx_device_classes/src/ux_device_class_dfu_control_request.c **** 
 1089              		.loc 1 696 81 view .LVU413
 1090 04e4 1D70     		strb	r5, [r3]
 699:./Middlewares/ST/usbx/common/usbx_device_classes/src/ux_device_class_dfu_control_request.c **** 
 1091              		.loc 1 699 21 is_stmt 1 view .LVU414
 1092 04e6 0122     		movs	r2, #1
ARM GAS  /tmp/ccp1d2wf.s 			page 41


 1093 04e8 1146     		mov	r1, r2
 1094 04ea 5046     		mov	r0, r10
 1095              	.LVL104:
 699:./Middlewares/ST/usbx/common/usbx_device_classes/src/ux_device_class_dfu_control_request.c **** 
 1096              		.loc 1 699 21 is_stmt 0 view .LVU415
 1097 04ec FFF7FEFF 		bl	_ux_device_stack_transfer_request
 1098              	.LVL105:
 701:./Middlewares/ST/usbx/common/usbx_device_classes/src/ux_device_class_dfu_control_request.c **** 
 1099              		.loc 1 701 21 is_stmt 1 view .LVU416
 1100              		.loc 1 872 11 is_stmt 0 view .LVU417
 1101 04f0 0025     		movs	r5, #0
 701:./Middlewares/ST/usbx/common/usbx_device_classes/src/ux_device_class_dfu_control_request.c **** 
 1102              		.loc 1 701 21 view .LVU418
 1103 04f2 A9E0     		b	.L1
 1104              	.LVL106:
 1105              	.L3:
 715:./Middlewares/ST/usbx/common/usbx_device_classes/src/ux_device_class_dfu_control_request.c ****             {
 1106              		.loc 1 715 13 is_stmt 1 view .LVU419
 1107 04f4 042E     		cmp	r6, #4
 1108 04f6 2DD0     		beq	.L50
 1109 04f8 052E     		cmp	r6, #5
 1110 04fa 21D0     		beq	.L51
 1111 04fc 032E     		cmp	r6, #3
 1112 04fe 30D1     		bne	.L52
 722:./Middlewares/ST/usbx/common/usbx_device_classes/src/ux_device_class_dfu_control_request.c **** 
 1113              		.loc 1 722 21 view .LVU420
 722:./Middlewares/ST/usbx/common/usbx_device_classes/src/ux_device_class_dfu_control_request.c **** 
 1114              		.loc 1 722 39 is_stmt 0 view .LVU421
 1115 0500 D4F89830 		ldr	r3, [r4, #152]
 722:./Middlewares/ST/usbx/common/usbx_device_classes/src/ux_device_class_dfu_control_request.c **** 
 1116              		.loc 1 722 83 view .LVU422
 1117 0504 99F80420 		ldrb	r2, [r9, #4]	@ zero_extendqisi2
 722:./Middlewares/ST/usbx/common/usbx_device_classes/src/ux_device_class_dfu_control_request.c **** 
 1118              		.loc 1 722 81 view .LVU423
 1119 0508 1A70     		strb	r2, [r3]
 725:./Middlewares/ST/usbx/common/usbx_device_classes/src/ux_device_class_dfu_control_request.c ****                     *(transfer_request -> ux_slave_transfer_request_data_pointer + UX_SLAVE_CLASS_D
 1120              		.loc 1 725 21 is_stmt 1 view .LVU424
 725:./Middlewares/ST/usbx/common/usbx_device_classes/src/ux_device_class_dfu_control_request.c ****                     *(transfer_request -> ux_slave_transfer_request_data_pointer + UX_SLAVE_CLASS_D
 1121              		.loc 1 725 40 is_stmt 0 view .LVU425
 1122 050a D4F89830 		ldr	r3, [r4, #152]
 725:./Middlewares/ST/usbx/common/usbx_device_classes/src/ux_device_class_dfu_control_request.c ****                     *(transfer_request -> ux_slave_transfer_request_data_pointer + UX_SLAVE_CLASS_D
 1123              		.loc 1 725 128 view .LVU426
 1124 050e 0122     		movs	r2, #1
 1125 0510 5A70     		strb	r2, [r3, #1]
 726:./Middlewares/ST/usbx/common/usbx_device_classes/src/ux_device_class_dfu_control_request.c ****                     *(transfer_request -> ux_slave_transfer_request_data_pointer + UX_SLAVE_CLASS_D
 1126              		.loc 1 726 21 is_stmt 1 view .LVU427
 726:./Middlewares/ST/usbx/common/usbx_device_classes/src/ux_device_class_dfu_control_request.c ****                     *(transfer_request -> ux_slave_transfer_request_data_pointer + UX_SLAVE_CLASS_D
 1127              		.loc 1 726 40 is_stmt 0 view .LVU428
 1128 0512 D4F89830 		ldr	r3, [r4, #152]
 726:./Middlewares/ST/usbx/common/usbx_device_classes/src/ux_device_class_dfu_control_request.c ****                     *(transfer_request -> ux_slave_transfer_request_data_pointer + UX_SLAVE_CLASS_D
 1129              		.loc 1 726 132 view .LVU429
 1130 0516 0025     		movs	r5, #0
 1131 0518 9D70     		strb	r5, [r3, #2]
 727:./Middlewares/ST/usbx/common/usbx_device_classes/src/ux_device_class_dfu_control_request.c **** 
 1132              		.loc 1 727 21 is_stmt 1 view .LVU430
 727:./Middlewares/ST/usbx/common/usbx_device_classes/src/ux_device_class_dfu_control_request.c **** 
 1133              		.loc 1 727 40 is_stmt 0 view .LVU431
ARM GAS  /tmp/ccp1d2wf.s 			page 42


 1134 051a D4F89830 		ldr	r3, [r4, #152]
 727:./Middlewares/ST/usbx/common/usbx_device_classes/src/ux_device_class_dfu_control_request.c **** 
 1135              		.loc 1 727 132 view .LVU432
 1136 051e DD70     		strb	r5, [r3, #3]
 730:./Middlewares/ST/usbx/common/usbx_device_classes/src/ux_device_class_dfu_control_request.c **** 
 1137              		.loc 1 730 21 is_stmt 1 view .LVU433
 730:./Middlewares/ST/usbx/common/usbx_device_classes/src/ux_device_class_dfu_control_request.c **** 
 1138              		.loc 1 730 148 is_stmt 0 view .LVU434
 1139 0520 2D4B     		ldr	r3, .L69
 1140 0522 1A68     		ldr	r2, [r3]
 730:./Middlewares/ST/usbx/common/usbx_device_classes/src/ux_device_class_dfu_control_request.c **** 
 1141              		.loc 1 730 40 view .LVU435
 1142 0524 D4F89830 		ldr	r3, [r4, #152]
 730:./Middlewares/ST/usbx/common/usbx_device_classes/src/ux_device_class_dfu_control_request.c **** 
 1143              		.loc 1 730 123 view .LVU436
 1144 0528 92F8B821 		ldrb	r2, [r2, #440]	@ zero_extendqisi2
 730:./Middlewares/ST/usbx/common/usbx_device_classes/src/ux_device_class_dfu_control_request.c **** 
 1145              		.loc 1 730 121 view .LVU437
 1146 052c 1A71     		strb	r2, [r3, #4]
 733:./Middlewares/ST/usbx/common/usbx_device_classes/src/ux_device_class_dfu_control_request.c **** 
 1147              		.loc 1 733 21 is_stmt 1 view .LVU438
 733:./Middlewares/ST/usbx/common/usbx_device_classes/src/ux_device_class_dfu_control_request.c **** 
 1148              		.loc 1 733 40 is_stmt 0 view .LVU439
 1149 052e D4F89830 		ldr	r3, [r4, #152]
 733:./Middlewares/ST/usbx/common/usbx_device_classes/src/ux_device_class_dfu_control_request.c **** 
 1150              		.loc 1 733 122 view .LVU440
 1151 0532 5D71     		strb	r5, [r3, #5]
 736:./Middlewares/ST/usbx/common/usbx_device_classes/src/ux_device_class_dfu_control_request.c **** 
 1152              		.loc 1 736 21 is_stmt 1 view .LVU441
 1153 0534 0622     		movs	r2, #6
 1154 0536 1146     		mov	r1, r2
 1155 0538 5046     		mov	r0, r10
 1156              	.LVL107:
 736:./Middlewares/ST/usbx/common/usbx_device_classes/src/ux_device_class_dfu_control_request.c **** 
 1157              		.loc 1 736 21 is_stmt 0 view .LVU442
 1158 053a FFF7FEFF 		bl	_ux_device_stack_transfer_request
 1159              	.LVL108:
 738:./Middlewares/ST/usbx/common/usbx_device_classes/src/ux_device_class_dfu_control_request.c **** 
 1160              		.loc 1 738 21 is_stmt 1 view .LVU443
 1161 053e 83E0     		b	.L1
 1162              	.LVL109:
 1163              	.L51:
 743:./Middlewares/ST/usbx/common/usbx_device_classes/src/ux_device_class_dfu_control_request.c **** 
 1164              		.loc 1 743 21 view .LVU444
 743:./Middlewares/ST/usbx/common/usbx_device_classes/src/ux_device_class_dfu_control_request.c **** 
 1165              		.loc 1 743 39 is_stmt 0 view .LVU445
 1166 0540 D4F89830 		ldr	r3, [r4, #152]
 743:./Middlewares/ST/usbx/common/usbx_device_classes/src/ux_device_class_dfu_control_request.c **** 
 1167              		.loc 1 743 81 view .LVU446
 1168 0544 1D70     		strb	r5, [r3]
 746:./Middlewares/ST/usbx/common/usbx_device_classes/src/ux_device_class_dfu_control_request.c **** 
 1169              		.loc 1 746 21 is_stmt 1 view .LVU447
 1170 0546 0122     		movs	r2, #1
 1171 0548 1146     		mov	r1, r2
 1172 054a 5046     		mov	r0, r10
 1173              	.LVL110:
 746:./Middlewares/ST/usbx/common/usbx_device_classes/src/ux_device_class_dfu_control_request.c **** 
ARM GAS  /tmp/ccp1d2wf.s 			page 43


 1174              		.loc 1 746 21 is_stmt 0 view .LVU448
 1175 054c FFF7FEFF 		bl	_ux_device_stack_transfer_request
 1176              	.LVL111:
 748:./Middlewares/ST/usbx/common/usbx_device_classes/src/ux_device_class_dfu_control_request.c **** #endif
 1177              		.loc 1 748 21 is_stmt 1 view .LVU449
 1178              		.loc 1 872 11 is_stmt 0 view .LVU450
 1179 0550 0025     		movs	r5, #0
 748:./Middlewares/ST/usbx/common/usbx_device_classes/src/ux_device_class_dfu_control_request.c **** #endif
 1180              		.loc 1 748 21 view .LVU451
 1181 0552 79E0     		b	.L1
 1182              	.LVL112:
 1183              	.L50:
 754:./Middlewares/ST/usbx/common/usbx_device_classes/src/ux_device_class_dfu_control_request.c ****                     _ux_system_slave -> ux_system_slave_device_dfu_state_machine = UX_SYSTEM_DFU_ST
 1184              		.loc 1 754 21 is_stmt 1 view .LVU452
 754:./Middlewares/ST/usbx/common/usbx_device_classes/src/ux_device_class_dfu_control_request.c ****                     _ux_system_slave -> ux_system_slave_device_dfu_state_machine = UX_SYSTEM_DFU_ST
 1185              		.loc 1 754 54 is_stmt 0 view .LVU453
 1186 0554 0025     		movs	r5, #0
 1187 0556 C9F80450 		str	r5, [r9, #4]
 755:./Middlewares/ST/usbx/common/usbx_device_classes/src/ux_device_class_dfu_control_request.c **** 
 1188              		.loc 1 755 21 is_stmt 1 view .LVU454
 755:./Middlewares/ST/usbx/common/usbx_device_classes/src/ux_device_class_dfu_control_request.c **** 
 1189              		.loc 1 755 82 is_stmt 0 view .LVU455
 1190 055a 0222     		movs	r2, #2
 1191 055c C3F8B821 		str	r2, [r3, #440]
 757:./Middlewares/ST/usbx/common/usbx_device_classes/src/ux_device_class_dfu_control_request.c **** 
 1192              		.loc 1 757 21 is_stmt 1 view .LVU456
 1193 0560 72E0     		b	.L1
 1194              	.L52:
 762:./Middlewares/ST/usbx/common/usbx_device_classes/src/ux_device_class_dfu_control_request.c ****                     break;
 1195              		.loc 1 762 21 view .LVU457
 1196 0562 04F15C00 		add	r0, r4, #92
 1197              	.LVL113:
 762:./Middlewares/ST/usbx/common/usbx_device_classes/src/ux_device_class_dfu_control_request.c ****                     break;
 1198              		.loc 1 762 21 is_stmt 0 view .LVU458
 1199 0566 FFF7FEFF 		bl	_ux_device_stack_endpoint_stall
 1200              	.LVL114:
 763:./Middlewares/ST/usbx/common/usbx_device_classes/src/ux_device_class_dfu_control_request.c **** 
 1201              		.loc 1 763 21 is_stmt 1 view .LVU459
 1202              		.loc 1 872 11 is_stmt 0 view .LVU460
 1203 056a 0025     		movs	r5, #0
 763:./Middlewares/ST/usbx/common/usbx_device_classes/src/ux_device_class_dfu_control_request.c **** 
 1204              		.loc 1 763 21 view .LVU461
 1205 056c 6CE0     		b	.L1
 1206              	.LVL115:
 1207              	.L5:
 773:./Middlewares/ST/usbx/common/usbx_device_classes/src/ux_device_class_dfu_control_request.c ****             {
 1208              		.loc 1 773 13 is_stmt 1 view .LVU462
 1209 056e 023E     		subs	r6, r6, #2
 1210              	.LVL116:
 773:./Middlewares/ST/usbx/common/usbx_device_classes/src/ux_device_class_dfu_control_request.c ****             {
 1211              		.loc 1 773 13 is_stmt 0 view .LVU463
 1212 0570 042E     		cmp	r6, #4
 1213 0572 5DD8     		bhi	.L53
 1214 0574 DFE806F0 		tbb	[pc, r6]
 1215              	.L55:
 1216 0578 03       		.byte	(.L58-.L55)/2
 1217 0579 32       		.byte	(.L57-.L55)/2
ARM GAS  /tmp/ccp1d2wf.s 			page 44


 1218 057a 5C       		.byte	(.L53-.L55)/2
 1219 057b 52       		.byte	(.L56-.L55)/2
 1220 057c 23       		.byte	(.L54-.L55)/2
 1221 057d 00       		.p2align 1
 1222              	.L58:
 779:./Middlewares/ST/usbx/common/usbx_device_classes/src/ux_device_class_dfu_control_request.c ****                     break;
 1223              		.loc 1 779 17 is_stmt 1 view .LVU464
 779:./Middlewares/ST/usbx/common/usbx_device_classes/src/ux_device_class_dfu_control_request.c ****                     break;
 1224              		.loc 1 779 20 is_stmt 0 view .LVU465
 1225 057e 0028     		cmp	r0, #0
 1226 0580 66D0     		beq	.L61
 785:./Middlewares/ST/usbx/common/usbx_device_classes/src/ux_device_class_dfu_control_request.c ****                                                     transfer_request -> ux_slave_transfer_request_d
 1227              		.loc 1 785 17 is_stmt 1 view .LVU466
 785:./Middlewares/ST/usbx/common/usbx_device_classes/src/ux_device_class_dfu_control_request.c ****                                                     transfer_request -> ux_slave_transfer_request_d
 1228              		.loc 1 785 21 is_stmt 0 view .LVU467
 1229 0582 D9F81050 		ldr	r5, [r9, #16]
 785:./Middlewares/ST/usbx/common/usbx_device_classes/src/ux_device_class_dfu_control_request.c ****                                                     transfer_request -> ux_slave_transfer_request_d
 1230              		.loc 1 785 17 view .LVU468
 1231 0586 D4F89820 		ldr	r2, [r4, #152]
 1232 058a 03AB     		add	r3, sp, #12
 1233 058c 0093     		str	r3, [sp]
 1234 058e 0346     		mov	r3, r0
 1235 0590 4146     		mov	r1, r8
 1236 0592 4846     		mov	r0, r9
 1237              	.LVL117:
 785:./Middlewares/ST/usbx/common/usbx_device_classes/src/ux_device_class_dfu_control_request.c ****                                                     transfer_request -> ux_slave_transfer_request_d
 1238              		.loc 1 785 17 view .LVU469
 1239 0594 A847     		blx	r5
 1240              	.LVL118:
 791:./Middlewares/ST/usbx/common/usbx_device_classes/src/ux_device_class_dfu_control_request.c ****                 {
 1241              		.loc 1 791 17 is_stmt 1 view .LVU470
 791:./Middlewares/ST/usbx/common/usbx_device_classes/src/ux_device_class_dfu_control_request.c ****                 {
 1242              		.loc 1 791 35 is_stmt 0 view .LVU471
 1243 0596 039B     		ldr	r3, [sp, #12]
 791:./Middlewares/ST/usbx/common/usbx_device_classes/src/ux_device_class_dfu_control_request.c ****                 {
 1244              		.loc 1 791 20 view .LVU472
 1245 0598 BB42     		cmp	r3, r7
 1246 059a 09D2     		bcs	.L59
 795:./Middlewares/ST/usbx/common/usbx_device_classes/src/ux_device_class_dfu_control_request.c **** 
 1247              		.loc 1 795 21 is_stmt 1 view .LVU473
 795:./Middlewares/ST/usbx/common/usbx_device_classes/src/ux_device_class_dfu_control_request.c **** 
 1248              		.loc 1 795 25 is_stmt 0 view .LVU474
 1249 059c D9F81C30 		ldr	r3, [r9, #28]
 795:./Middlewares/ST/usbx/common/usbx_device_classes/src/ux_device_class_dfu_control_request.c **** 
 1250              		.loc 1 795 21 view .LVU475
 1251 05a0 0621     		movs	r1, #6
 1252 05a2 4846     		mov	r0, r9
 1253 05a4 9847     		blx	r3
 1254              	.LVL119:
 798:./Middlewares/ST/usbx/common/usbx_device_classes/src/ux_device_class_dfu_control_request.c ****                 }
 1255              		.loc 1 798 21 is_stmt 1 view .LVU476
 798:./Middlewares/ST/usbx/common/usbx_device_classes/src/ux_device_class_dfu_control_request.c ****                 }
 1256              		.loc 1 798 38 is_stmt 0 view .LVU477
 1257 05a6 0C4B     		ldr	r3, .L69
 1258 05a8 1B68     		ldr	r3, [r3]
 798:./Middlewares/ST/usbx/common/usbx_device_classes/src/ux_device_class_dfu_control_request.c ****                 }
 1259              		.loc 1 798 82 view .LVU478
ARM GAS  /tmp/ccp1d2wf.s 			page 45


 1260 05aa 0222     		movs	r2, #2
 1261 05ac C3F8B821 		str	r2, [r3, #440]
 1262              	.L59:
 802:./Middlewares/ST/usbx/common/usbx_device_classes/src/ux_device_class_dfu_control_request.c **** 
 1263              		.loc 1 802 17 is_stmt 1 view .LVU479
 1264 05b0 3A46     		mov	r2, r7
 1265 05b2 0399     		ldr	r1, [sp, #12]
 1266 05b4 5046     		mov	r0, r10
 1267 05b6 FFF7FEFF 		bl	_ux_device_stack_transfer_request
 1268              	.LVL120:
 804:./Middlewares/ST/usbx/common/usbx_device_classes/src/ux_device_class_dfu_control_request.c **** 
 1269              		.loc 1 804 17 view .LVU480
 1270              		.loc 1 872 11 is_stmt 0 view .LVU481
 1271 05ba 0025     		movs	r5, #0
 804:./Middlewares/ST/usbx/common/usbx_device_classes/src/ux_device_class_dfu_control_request.c **** 
 1272              		.loc 1 804 17 view .LVU482
 1273 05bc 44E0     		b	.L1
 1274              	.LVL121:
 1275              	.L54:
 809:./Middlewares/ST/usbx/common/usbx_device_classes/src/ux_device_class_dfu_control_request.c **** 
 1276              		.loc 1 809 21 is_stmt 1 view .LVU483
 809:./Middlewares/ST/usbx/common/usbx_device_classes/src/ux_device_class_dfu_control_request.c **** 
 1277              		.loc 1 809 25 is_stmt 0 view .LVU484
 1278 05be D9F81C30 		ldr	r3, [r9, #28]
 809:./Middlewares/ST/usbx/common/usbx_device_classes/src/ux_device_class_dfu_control_request.c **** 
 1279              		.loc 1 809 21 view .LVU485
 1280 05c2 0721     		movs	r1, #7
 1281 05c4 4846     		mov	r0, r9
 1282              	.LVL122:
 809:./Middlewares/ST/usbx/common/usbx_device_classes/src/ux_device_class_dfu_control_request.c **** 
 1283              		.loc 1 809 21 view .LVU486
 1284 05c6 9847     		blx	r3
 1285              	.LVL123:
 812:./Middlewares/ST/usbx/common/usbx_device_classes/src/ux_device_class_dfu_control_request.c **** 
 1286              		.loc 1 812 21 is_stmt 1 view .LVU487
 812:./Middlewares/ST/usbx/common/usbx_device_classes/src/ux_device_class_dfu_control_request.c **** 
 1287              		.loc 1 812 38 is_stmt 0 view .LVU488
 1288 05c8 034B     		ldr	r3, .L69
 1289 05ca 1B68     		ldr	r3, [r3]
 812:./Middlewares/ST/usbx/common/usbx_device_classes/src/ux_device_class_dfu_control_request.c **** 
 1290              		.loc 1 812 82 view .LVU489
 1291 05cc 0222     		movs	r2, #2
 1292 05ce C3F8B821 		str	r2, [r3, #440]
 814:./Middlewares/ST/usbx/common/usbx_device_classes/src/ux_device_class_dfu_control_request.c **** 
 1293              		.loc 1 814 21 is_stmt 1 view .LVU490
 1294              		.loc 1 872 11 is_stmt 0 view .LVU491
 1295 05d2 0025     		movs	r5, #0
 814:./Middlewares/ST/usbx/common/usbx_device_classes/src/ux_device_class_dfu_control_request.c **** 
 1296              		.loc 1 814 21 view .LVU492
 1297 05d4 38E0     		b	.L1
 1298              	.L70:
 1299 05d6 00BF     		.align	2
 1300              	.L69:
 1301 05d8 00000000 		.word	_ux_system_slave
 1302              	.LVL124:
 1303              	.L57:
 823:./Middlewares/ST/usbx/common/usbx_device_classes/src/ux_device_class_dfu_control_request.c **** 
ARM GAS  /tmp/ccp1d2wf.s 			page 46


 1304              		.loc 1 823 17 is_stmt 1 view .LVU493
 823:./Middlewares/ST/usbx/common/usbx_device_classes/src/ux_device_class_dfu_control_request.c **** 
 1305              		.loc 1 823 35 is_stmt 0 view .LVU494
 1306 05dc D4F89830 		ldr	r3, [r4, #152]
 823:./Middlewares/ST/usbx/common/usbx_device_classes/src/ux_device_class_dfu_control_request.c **** 
 1307              		.loc 1 823 79 view .LVU495
 1308 05e0 99F80420 		ldrb	r2, [r9, #4]	@ zero_extendqisi2
 823:./Middlewares/ST/usbx/common/usbx_device_classes/src/ux_device_class_dfu_control_request.c **** 
 1309              		.loc 1 823 77 view .LVU496
 1310 05e4 1A70     		strb	r2, [r3]
 826:./Middlewares/ST/usbx/common/usbx_device_classes/src/ux_device_class_dfu_control_request.c ****                 *(transfer_request -> ux_slave_transfer_request_data_pointer + UX_SLAVE_CLASS_DFU_G
 1311              		.loc 1 826 17 is_stmt 1 view .LVU497
 826:./Middlewares/ST/usbx/common/usbx_device_classes/src/ux_device_class_dfu_control_request.c ****                 *(transfer_request -> ux_slave_transfer_request_data_pointer + UX_SLAVE_CLASS_DFU_G
 1312              		.loc 1 826 36 is_stmt 0 view .LVU498
 1313 05e6 D4F89830 		ldr	r3, [r4, #152]
 826:./Middlewares/ST/usbx/common/usbx_device_classes/src/ux_device_class_dfu_control_request.c ****                 *(transfer_request -> ux_slave_transfer_request_data_pointer + UX_SLAVE_CLASS_DFU_G
 1314              		.loc 1 826 124 view .LVU499
 1315 05ea 6422     		movs	r2, #100
 1316 05ec 5A70     		strb	r2, [r3, #1]
 827:./Middlewares/ST/usbx/common/usbx_device_classes/src/ux_device_class_dfu_control_request.c ****                 *(transfer_request -> ux_slave_transfer_request_data_pointer + UX_SLAVE_CLASS_DFU_G
 1317              		.loc 1 827 17 is_stmt 1 view .LVU500
 827:./Middlewares/ST/usbx/common/usbx_device_classes/src/ux_device_class_dfu_control_request.c ****                 *(transfer_request -> ux_slave_transfer_request_data_pointer + UX_SLAVE_CLASS_DFU_G
 1318              		.loc 1 827 36 is_stmt 0 view .LVU501
 1319 05ee D4F89830 		ldr	r3, [r4, #152]
 827:./Middlewares/ST/usbx/common/usbx_device_classes/src/ux_device_class_dfu_control_request.c ****                 *(transfer_request -> ux_slave_transfer_request_data_pointer + UX_SLAVE_CLASS_DFU_G
 1320              		.loc 1 827 128 view .LVU502
 1321 05f2 0025     		movs	r5, #0
 1322 05f4 9D70     		strb	r5, [r3, #2]
 828:./Middlewares/ST/usbx/common/usbx_device_classes/src/ux_device_class_dfu_control_request.c **** 
 1323              		.loc 1 828 17 is_stmt 1 view .LVU503
 828:./Middlewares/ST/usbx/common/usbx_device_classes/src/ux_device_class_dfu_control_request.c **** 
 1324              		.loc 1 828 36 is_stmt 0 view .LVU504
 1325 05f6 D4F89830 		ldr	r3, [r4, #152]
 828:./Middlewares/ST/usbx/common/usbx_device_classes/src/ux_device_class_dfu_control_request.c **** 
 1326              		.loc 1 828 128 view .LVU505
 1327 05fa DD70     		strb	r5, [r3, #3]
 831:./Middlewares/ST/usbx/common/usbx_device_classes/src/ux_device_class_dfu_control_request.c **** 
 1328              		.loc 1 831 17 is_stmt 1 view .LVU506
 831:./Middlewares/ST/usbx/common/usbx_device_classes/src/ux_device_class_dfu_control_request.c **** 
 1329              		.loc 1 831 144 is_stmt 0 view .LVU507
 1330 05fc 154B     		ldr	r3, .L71
 1331 05fe 1A68     		ldr	r2, [r3]
 831:./Middlewares/ST/usbx/common/usbx_device_classes/src/ux_device_class_dfu_control_request.c **** 
 1332              		.loc 1 831 36 view .LVU508
 1333 0600 D4F89830 		ldr	r3, [r4, #152]
 831:./Middlewares/ST/usbx/common/usbx_device_classes/src/ux_device_class_dfu_control_request.c **** 
 1334              		.loc 1 831 119 view .LVU509
 1335 0604 92F8B821 		ldrb	r2, [r2, #440]	@ zero_extendqisi2
 831:./Middlewares/ST/usbx/common/usbx_device_classes/src/ux_device_class_dfu_control_request.c **** 
 1336              		.loc 1 831 117 view .LVU510
 1337 0608 1A71     		strb	r2, [r3, #4]
 834:./Middlewares/ST/usbx/common/usbx_device_classes/src/ux_device_class_dfu_control_request.c **** #endif
 1338              		.loc 1 834 17 is_stmt 1 view .LVU511
 834:./Middlewares/ST/usbx/common/usbx_device_classes/src/ux_device_class_dfu_control_request.c **** #endif
 1339              		.loc 1 834 36 is_stmt 0 view .LVU512
 1340 060a D4F89830 		ldr	r3, [r4, #152]
 834:./Middlewares/ST/usbx/common/usbx_device_classes/src/ux_device_class_dfu_control_request.c **** #endif
ARM GAS  /tmp/ccp1d2wf.s 			page 47


 1341              		.loc 1 834 118 view .LVU513
 1342 060e 5D71     		strb	r5, [r3, #5]
 838:./Middlewares/ST/usbx/common/usbx_device_classes/src/ux_device_class_dfu_control_request.c **** 
 1343              		.loc 1 838 17 is_stmt 1 view .LVU514
 1344 0610 0622     		movs	r2, #6
 1345 0612 1146     		mov	r1, r2
 1346 0614 5046     		mov	r0, r10
 1347              	.LVL125:
 838:./Middlewares/ST/usbx/common/usbx_device_classes/src/ux_device_class_dfu_control_request.c **** 
 1348              		.loc 1 838 17 is_stmt 0 view .LVU515
 1349 0616 FFF7FEFF 		bl	_ux_device_stack_transfer_request
 1350              	.LVL126:
 840:./Middlewares/ST/usbx/common/usbx_device_classes/src/ux_device_class_dfu_control_request.c **** 
 1351              		.loc 1 840 17 is_stmt 1 view .LVU516
 1352 061a 15E0     		b	.L1
 1353              	.LVL127:
 1354              	.L56:
 845:./Middlewares/ST/usbx/common/usbx_device_classes/src/ux_device_class_dfu_control_request.c **** 
 1355              		.loc 1 845 17 view .LVU517
 845:./Middlewares/ST/usbx/common/usbx_device_classes/src/ux_device_class_dfu_control_request.c **** 
 1356              		.loc 1 845 35 is_stmt 0 view .LVU518
 1357 061c D4F89830 		ldr	r3, [r4, #152]
 845:./Middlewares/ST/usbx/common/usbx_device_classes/src/ux_device_class_dfu_control_request.c **** 
 1358              		.loc 1 845 77 view .LVU519
 1359 0620 1D70     		strb	r5, [r3]
 848:./Middlewares/ST/usbx/common/usbx_device_classes/src/ux_device_class_dfu_control_request.c **** 
 1360              		.loc 1 848 17 is_stmt 1 view .LVU520
 1361 0622 0122     		movs	r2, #1
 1362 0624 1146     		mov	r1, r2
 1363 0626 5046     		mov	r0, r10
 1364              	.LVL128:
 848:./Middlewares/ST/usbx/common/usbx_device_classes/src/ux_device_class_dfu_control_request.c **** 
 1365              		.loc 1 848 17 is_stmt 0 view .LVU521
 1366 0628 FFF7FEFF 		bl	_ux_device_stack_transfer_request
 1367              	.LVL129:
 850:./Middlewares/ST/usbx/common/usbx_device_classes/src/ux_device_class_dfu_control_request.c **** 
 1368              		.loc 1 850 17 is_stmt 1 view .LVU522
 1369              		.loc 1 872 11 is_stmt 0 view .LVU523
 1370 062c 0025     		movs	r5, #0
 850:./Middlewares/ST/usbx/common/usbx_device_classes/src/ux_device_class_dfu_control_request.c **** 
 1371              		.loc 1 850 17 view .LVU524
 1372 062e 0BE0     		b	.L1
 1373              	.LVL130:
 1374              	.L53:
 855:./Middlewares/ST/usbx/common/usbx_device_classes/src/ux_device_class_dfu_control_request.c **** 
 1375              		.loc 1 855 17 is_stmt 1 view .LVU525
 1376 0630 04F15C00 		add	r0, r4, #92
 1377              	.LVL131:
 855:./Middlewares/ST/usbx/common/usbx_device_classes/src/ux_device_class_dfu_control_request.c **** 
 1378              		.loc 1 855 17 is_stmt 0 view .LVU526
 1379 0634 FFF7FEFF 		bl	_ux_device_stack_endpoint_stall
 1380              	.LVL132:
 858:./Middlewares/ST/usbx/common/usbx_device_classes/src/ux_device_class_dfu_control_request.c **** 
 1381              		.loc 1 858 17 is_stmt 1 view .LVU527
 858:./Middlewares/ST/usbx/common/usbx_device_classes/src/ux_device_class_dfu_control_request.c **** 
 1382              		.loc 1 858 34 is_stmt 0 view .LVU528
 1383 0638 064B     		ldr	r3, .L71
ARM GAS  /tmp/ccp1d2wf.s 			page 48


 1384 063a 1B68     		ldr	r3, [r3]
 858:./Middlewares/ST/usbx/common/usbx_device_classes/src/ux_device_class_dfu_control_request.c **** 
 1385              		.loc 1 858 78 view .LVU529
 1386 063c 0A22     		movs	r2, #10
 1387 063e C3F8B821 		str	r2, [r3, #440]
 860:./Middlewares/ST/usbx/common/usbx_device_classes/src/ux_device_class_dfu_control_request.c ****             }
 1388              		.loc 1 860 17 is_stmt 1 view .LVU530
 1389              		.loc 1 872 11 is_stmt 0 view .LVU531
 1390 0642 0025     		movs	r5, #0
 860:./Middlewares/ST/usbx/common/usbx_device_classes/src/ux_device_class_dfu_control_request.c ****             }
 1391              		.loc 1 860 17 view .LVU532
 1392 0644 00E0     		b	.L1
 1393              	.LVL133:
 1394              	.L60:
 150:./Middlewares/ST/usbx/common/usbx_device_classes/src/ux_device_class_dfu_control_request.c ****     {
 1395              		.loc 1 150 5 view .LVU533
 1396 0646 FF25     		movs	r5, #255
 1397              	.LVL134:
 1398              	.L1:
 873:./Middlewares/ST/usbx/common/usbx_device_classes/src/ux_device_class_dfu_control_request.c **** }
 1399              		.loc 1 873 1 view .LVU534
 1400 0648 2846     		mov	r0, r5
 1401 064a 04B0     		add	sp, sp, #16
 1402              	.LCFI2:
 1403              		.cfi_remember_state
 1404              		.cfi_def_cfa_offset 32
 1405              		@ sp needed
 1406 064c BDE8F087 		pop	{r4, r5, r6, r7, r8, r9, r10, pc}
 1407              	.LVL135:
 1408              	.L61:
 1409              	.LCFI3:
 1410              		.cfi_restore_state
 872:./Middlewares/ST/usbx/common/usbx_device_classes/src/ux_device_class_dfu_control_request.c **** }
 1411              		.loc 1 872 11 view .LVU535
 1412 0650 0546     		mov	r5, r0
 1413 0652 F9E7     		b	.L1
 1414              	.L72:
 1415              		.align	2
 1416              	.L71:
 1417 0654 00000000 		.word	_ux_system_slave
 1418              		.cfi_endproc
 1419              	.LFE11:
 1421              		.text
 1422              	.Letext0:
 1423              		.file 2 "./Middlewares/ST/threadx/ports/cortex_m4/gnu/inc/tx_port.h"
 1424              		.file 3 "./Middlewares/ST/threadx/common/inc/tx_api.h"
 1425              		.file 4 "./Middlewares/ST/usbx/common/core/inc/ux_api.h"
 1426              		.file 5 "./Middlewares/ST/usbx/common/usbx_device_classes/inc/ux_device_class_dfu.h"
 1427              		.file 6 "./Middlewares/ST/usbx/common/core/inc/ux_device_stack.h"
 1428              		.file 7 "./Middlewares/ST/usbx/common/core/inc/ux_utility.h"
 1429              		.file 8 "./Middlewares/ST/usbx/common/core/inc/ux_system.h"
ARM GAS  /tmp/ccp1d2wf.s 			page 49

