ARM GAS  C:\Users\Dennis\AppData\Local\Temp\ccJ5Mvad.s 			page 1


   1              		.cpu cortex-m4
   2              		.arch armv7e-m
   3              		.fpu fpv4-sp-d16
   4              		.eabi_attribute 27, 1
   5              		.eabi_attribute 28, 1
   6              		.eabi_attribute 20, 1
   7              		.eabi_attribute 21, 1
   8              		.eabi_attribute 23, 3
   9              		.eabi_attribute 24, 1
  10              		.eabi_attribute 25, 1
  11              		.eabi_attribute 26, 1
  12              		.eabi_attribute 30, 1
  13              		.eabi_attribute 34, 1
  14              		.eabi_attribute 18, 4
  15              		.file	"ux_device_class_cdc_acm_entry.c"
  16              		.text
  17              	.Ltext0:
  18              		.cfi_sections	.debug_frame
  19              		.section	.text._ux_device_class_cdc_acm_entry,"ax",%progbits
  20              		.align	1
  21              		.global	_ux_device_class_cdc_acm_entry
  22              		.syntax unified
  23              		.thumb
  24              		.thumb_func
  26              	_ux_device_class_cdc_acm_entry:
  27              	.LVL0:
  28              	.LFB11:
  29              		.file 1 "./Middlewares/ST/usbx/common/usbx_device_classes/src/ux_device_class_cdc_acm_entry.c"
   1:./Middlewares/ST/usbx/common/usbx_device_classes/src/ux_device_class_cdc_acm_entry.c **** /**************************************************************************/
   2:./Middlewares/ST/usbx/common/usbx_device_classes/src/ux_device_class_cdc_acm_entry.c **** /*                                                                        */
   3:./Middlewares/ST/usbx/common/usbx_device_classes/src/ux_device_class_cdc_acm_entry.c **** /*       Copyright (c) Microsoft Corporation. All rights reserved.        */
   4:./Middlewares/ST/usbx/common/usbx_device_classes/src/ux_device_class_cdc_acm_entry.c **** /*                                                                        */
   5:./Middlewares/ST/usbx/common/usbx_device_classes/src/ux_device_class_cdc_acm_entry.c **** /*       This software is licensed under the Microsoft Software License   */
   6:./Middlewares/ST/usbx/common/usbx_device_classes/src/ux_device_class_cdc_acm_entry.c **** /*       Terms for Microsoft Azure RTOS. Full text of the license can be  */
   7:./Middlewares/ST/usbx/common/usbx_device_classes/src/ux_device_class_cdc_acm_entry.c **** /*       found in the LICENSE file at https://aka.ms/AzureRTOS_EULA       */
   8:./Middlewares/ST/usbx/common/usbx_device_classes/src/ux_device_class_cdc_acm_entry.c **** /*       and in the root directory of this software.                      */
   9:./Middlewares/ST/usbx/common/usbx_device_classes/src/ux_device_class_cdc_acm_entry.c **** /*                                                                        */
  10:./Middlewares/ST/usbx/common/usbx_device_classes/src/ux_device_class_cdc_acm_entry.c **** /**************************************************************************/
  11:./Middlewares/ST/usbx/common/usbx_device_classes/src/ux_device_class_cdc_acm_entry.c **** 
  12:./Middlewares/ST/usbx/common/usbx_device_classes/src/ux_device_class_cdc_acm_entry.c **** /**************************************************************************/
  13:./Middlewares/ST/usbx/common/usbx_device_classes/src/ux_device_class_cdc_acm_entry.c **** /**************************************************************************/
  14:./Middlewares/ST/usbx/common/usbx_device_classes/src/ux_device_class_cdc_acm_entry.c **** /**                                                                       */ 
  15:./Middlewares/ST/usbx/common/usbx_device_classes/src/ux_device_class_cdc_acm_entry.c **** /** USBX Component                                                        */ 
  16:./Middlewares/ST/usbx/common/usbx_device_classes/src/ux_device_class_cdc_acm_entry.c **** /**                                                                       */
  17:./Middlewares/ST/usbx/common/usbx_device_classes/src/ux_device_class_cdc_acm_entry.c **** /**   Device CDC Class                                                    */
  18:./Middlewares/ST/usbx/common/usbx_device_classes/src/ux_device_class_cdc_acm_entry.c **** /**                                                                       */
  19:./Middlewares/ST/usbx/common/usbx_device_classes/src/ux_device_class_cdc_acm_entry.c **** /**************************************************************************/
  20:./Middlewares/ST/usbx/common/usbx_device_classes/src/ux_device_class_cdc_acm_entry.c **** /**************************************************************************/
  21:./Middlewares/ST/usbx/common/usbx_device_classes/src/ux_device_class_cdc_acm_entry.c **** 
  22:./Middlewares/ST/usbx/common/usbx_device_classes/src/ux_device_class_cdc_acm_entry.c **** #define UX_SOURCE_CODE
  23:./Middlewares/ST/usbx/common/usbx_device_classes/src/ux_device_class_cdc_acm_entry.c **** 
  24:./Middlewares/ST/usbx/common/usbx_device_classes/src/ux_device_class_cdc_acm_entry.c **** 
  25:./Middlewares/ST/usbx/common/usbx_device_classes/src/ux_device_class_cdc_acm_entry.c **** /* Include necessary system files.  */
  26:./Middlewares/ST/usbx/common/usbx_device_classes/src/ux_device_class_cdc_acm_entry.c **** 
  27:./Middlewares/ST/usbx/common/usbx_device_classes/src/ux_device_class_cdc_acm_entry.c **** #include "ux_api.h"
  28:./Middlewares/ST/usbx/common/usbx_device_classes/src/ux_device_class_cdc_acm_entry.c **** #include "ux_device_class_cdc_acm.h"
  29:./Middlewares/ST/usbx/common/usbx_device_classes/src/ux_device_class_cdc_acm_entry.c **** #include "ux_device_stack.h"
ARM GAS  C:\Users\Dennis\AppData\Local\Temp\ccJ5Mvad.s 			page 2


  30:./Middlewares/ST/usbx/common/usbx_device_classes/src/ux_device_class_cdc_acm_entry.c **** 
  31:./Middlewares/ST/usbx/common/usbx_device_classes/src/ux_device_class_cdc_acm_entry.c **** 
  32:./Middlewares/ST/usbx/common/usbx_device_classes/src/ux_device_class_cdc_acm_entry.c **** /**************************************************************************/ 
  33:./Middlewares/ST/usbx/common/usbx_device_classes/src/ux_device_class_cdc_acm_entry.c **** /*                                                                        */ 
  34:./Middlewares/ST/usbx/common/usbx_device_classes/src/ux_device_class_cdc_acm_entry.c **** /*  FUNCTION                                               RELEASE        */ 
  35:./Middlewares/ST/usbx/common/usbx_device_classes/src/ux_device_class_cdc_acm_entry.c **** /*                                                                        */ 
  36:./Middlewares/ST/usbx/common/usbx_device_classes/src/ux_device_class_cdc_acm_entry.c **** /*    _ux_device_class_cdc_acm_entry                      PORTABLE C      */ 
  37:./Middlewares/ST/usbx/common/usbx_device_classes/src/ux_device_class_cdc_acm_entry.c **** /*                                                           6.1          */
  38:./Middlewares/ST/usbx/common/usbx_device_classes/src/ux_device_class_cdc_acm_entry.c **** /*  AUTHOR                                                                */
  39:./Middlewares/ST/usbx/common/usbx_device_classes/src/ux_device_class_cdc_acm_entry.c **** /*                                                                        */
  40:./Middlewares/ST/usbx/common/usbx_device_classes/src/ux_device_class_cdc_acm_entry.c **** /*    Chaoqiong Xiao, Microsoft Corporation                               */
  41:./Middlewares/ST/usbx/common/usbx_device_classes/src/ux_device_class_cdc_acm_entry.c **** /*                                                                        */
  42:./Middlewares/ST/usbx/common/usbx_device_classes/src/ux_device_class_cdc_acm_entry.c **** /*  DESCRIPTION                                                           */
  43:./Middlewares/ST/usbx/common/usbx_device_classes/src/ux_device_class_cdc_acm_entry.c **** /*                                                                        */ 
  44:./Middlewares/ST/usbx/common/usbx_device_classes/src/ux_device_class_cdc_acm_entry.c **** /*    This function is the entry point of the cdc_acm class. It           */ 
  45:./Middlewares/ST/usbx/common/usbx_device_classes/src/ux_device_class_cdc_acm_entry.c **** /*    will be called by the device stack enumeration module when the      */ 
  46:./Middlewares/ST/usbx/common/usbx_device_classes/src/ux_device_class_cdc_acm_entry.c **** /*    host has sent a SET_CONFIGURATION command and the cdc_acm interface */
  47:./Middlewares/ST/usbx/common/usbx_device_classes/src/ux_device_class_cdc_acm_entry.c **** /*    needs to be mounted.                                                */
  48:./Middlewares/ST/usbx/common/usbx_device_classes/src/ux_device_class_cdc_acm_entry.c **** /*                                                                        */ 
  49:./Middlewares/ST/usbx/common/usbx_device_classes/src/ux_device_class_cdc_acm_entry.c **** /*  INPUT                                                                 */ 
  50:./Middlewares/ST/usbx/common/usbx_device_classes/src/ux_device_class_cdc_acm_entry.c **** /*                                                                        */ 
  51:./Middlewares/ST/usbx/common/usbx_device_classes/src/ux_device_class_cdc_acm_entry.c **** /*    command                               Pointer to class command      */ 
  52:./Middlewares/ST/usbx/common/usbx_device_classes/src/ux_device_class_cdc_acm_entry.c **** /*                                                                        */ 
  53:./Middlewares/ST/usbx/common/usbx_device_classes/src/ux_device_class_cdc_acm_entry.c **** /*  OUTPUT                                                                */ 
  54:./Middlewares/ST/usbx/common/usbx_device_classes/src/ux_device_class_cdc_acm_entry.c **** /*                                                                        */ 
  55:./Middlewares/ST/usbx/common/usbx_device_classes/src/ux_device_class_cdc_acm_entry.c **** /*    Completion Status                                                   */ 
  56:./Middlewares/ST/usbx/common/usbx_device_classes/src/ux_device_class_cdc_acm_entry.c **** /*                                                                        */ 
  57:./Middlewares/ST/usbx/common/usbx_device_classes/src/ux_device_class_cdc_acm_entry.c **** /*  CALLS                                                                 */ 
  58:./Middlewares/ST/usbx/common/usbx_device_classes/src/ux_device_class_cdc_acm_entry.c **** /*                                                                        */ 
  59:./Middlewares/ST/usbx/common/usbx_device_classes/src/ux_device_class_cdc_acm_entry.c **** /*    _ux_device_class_cdc_acm_initialize       Initialize cdc_acm class  */ 
  60:./Middlewares/ST/usbx/common/usbx_device_classes/src/ux_device_class_cdc_acm_entry.c **** /*    _ux_device_class_cdc_acm_uninitialize     Uninitialize cdc_acm class*/ 
  61:./Middlewares/ST/usbx/common/usbx_device_classes/src/ux_device_class_cdc_acm_entry.c **** /*    _ux_device_class_cdc_acm_activate         Activate cdc_acm class    */ 
  62:./Middlewares/ST/usbx/common/usbx_device_classes/src/ux_device_class_cdc_acm_entry.c **** /*    _ux_device_class_cdc_acm_deactivate       Deactivate cdc_acm class  */ 
  63:./Middlewares/ST/usbx/common/usbx_device_classes/src/ux_device_class_cdc_acm_entry.c **** /*    _ux_device_class_cdc_acm_control_request  Request control           */ 
  64:./Middlewares/ST/usbx/common/usbx_device_classes/src/ux_device_class_cdc_acm_entry.c **** /*                                                                        */ 
  65:./Middlewares/ST/usbx/common/usbx_device_classes/src/ux_device_class_cdc_acm_entry.c **** /*  CALLED BY                                                             */ 
  66:./Middlewares/ST/usbx/common/usbx_device_classes/src/ux_device_class_cdc_acm_entry.c **** /*                                                                        */ 
  67:./Middlewares/ST/usbx/common/usbx_device_classes/src/ux_device_class_cdc_acm_entry.c **** /*    CDC Class                                                           */
  68:./Middlewares/ST/usbx/common/usbx_device_classes/src/ux_device_class_cdc_acm_entry.c **** /*                                                                        */ 
  69:./Middlewares/ST/usbx/common/usbx_device_classes/src/ux_device_class_cdc_acm_entry.c **** /*  RELEASE HISTORY                                                       */ 
  70:./Middlewares/ST/usbx/common/usbx_device_classes/src/ux_device_class_cdc_acm_entry.c **** /*                                                                        */ 
  71:./Middlewares/ST/usbx/common/usbx_device_classes/src/ux_device_class_cdc_acm_entry.c **** /*    DATE              NAME                      DESCRIPTION             */ 
  72:./Middlewares/ST/usbx/common/usbx_device_classes/src/ux_device_class_cdc_acm_entry.c **** /*                                                                        */ 
  73:./Middlewares/ST/usbx/common/usbx_device_classes/src/ux_device_class_cdc_acm_entry.c **** /*  05-19-2020     Chaoqiong Xiao           Initial Version 6.0           */
  74:./Middlewares/ST/usbx/common/usbx_device_classes/src/ux_device_class_cdc_acm_entry.c **** /*  09-30-2020     Chaoqiong Xiao           Modified comment(s),          */
  75:./Middlewares/ST/usbx/common/usbx_device_classes/src/ux_device_class_cdc_acm_entry.c **** /*                                            resulting in version 6.1    */
  76:./Middlewares/ST/usbx/common/usbx_device_classes/src/ux_device_class_cdc_acm_entry.c **** /*                                                                        */
  77:./Middlewares/ST/usbx/common/usbx_device_classes/src/ux_device_class_cdc_acm_entry.c **** /**************************************************************************/
  78:./Middlewares/ST/usbx/common/usbx_device_classes/src/ux_device_class_cdc_acm_entry.c **** UINT  _ux_device_class_cdc_acm_entry(UX_SLAVE_CLASS_COMMAND *command)
  79:./Middlewares/ST/usbx/common/usbx_device_classes/src/ux_device_class_cdc_acm_entry.c **** {
  30              		.loc 1 79 1 view -0
  31              		.cfi_startproc
  32              		@ args = 0, pretend = 0, frame = 0
  33              		@ frame_needed = 0, uses_anonymous_args = 0
  34              		.loc 1 79 1 is_stmt 0 view .LVU1
  35 0000 08B5     		push	{r3, lr}
  36              	.LCFI0:
ARM GAS  C:\Users\Dennis\AppData\Local\Temp\ccJ5Mvad.s 			page 3


  37              		.cfi_def_cfa_offset 8
  38              		.cfi_offset 3, -8
  39              		.cfi_offset 14, -4
  80:./Middlewares/ST/usbx/common/usbx_device_classes/src/ux_device_class_cdc_acm_entry.c **** 
  81:./Middlewares/ST/usbx/common/usbx_device_classes/src/ux_device_class_cdc_acm_entry.c **** UINT        status;
  40              		.loc 1 81 1 is_stmt 1 view .LVU2
  82:./Middlewares/ST/usbx/common/usbx_device_classes/src/ux_device_class_cdc_acm_entry.c **** 
  83:./Middlewares/ST/usbx/common/usbx_device_classes/src/ux_device_class_cdc_acm_entry.c **** 
  84:./Middlewares/ST/usbx/common/usbx_device_classes/src/ux_device_class_cdc_acm_entry.c ****     /* The command request will tell us we need to do here, either a enumeration
  85:./Middlewares/ST/usbx/common/usbx_device_classes/src/ux_device_class_cdc_acm_entry.c ****        query, an activation or a deactivation.  */
  86:./Middlewares/ST/usbx/common/usbx_device_classes/src/ux_device_class_cdc_acm_entry.c ****     switch (command -> ux_slave_class_command_request)
  41              		.loc 1 86 5 view .LVU3
  42              		.loc 1 86 21 is_stmt 0 view .LVU4
  43 0002 0368     		ldr	r3, [r0]
  44              		.loc 1 86 5 view .LVU5
  45 0004 013B     		subs	r3, r3, #1
  46 0006 062B     		cmp	r3, #6
  47 0008 1BD8     		bhi	.L10
  48 000a DFE803F0 		tbb	[pc, r3]
  49              	.L4:
  50 000e 0A       		.byte	(.L9-.L4)/2
  51 000f 11       		.byte	(.L8-.L4)/2
  52 0010 14       		.byte	(.L7-.L4)/2
  53 0011 17       		.byte	(.L6-.L4)/2
  54 0012 04       		.byte	(.L5-.L4)/2
  55 0013 1A       		.byte	(.L10-.L4)/2
  56 0014 07       		.byte	(.L3-.L4)/2
  57 0015 00       		.p2align 1
  58              	.L5:
  87:./Middlewares/ST/usbx/common/usbx_device_classes/src/ux_device_class_cdc_acm_entry.c ****     {
  88:./Middlewares/ST/usbx/common/usbx_device_classes/src/ux_device_class_cdc_acm_entry.c **** 
  89:./Middlewares/ST/usbx/common/usbx_device_classes/src/ux_device_class_cdc_acm_entry.c ****     case UX_SLAVE_CLASS_COMMAND_INITIALIZE:
  90:./Middlewares/ST/usbx/common/usbx_device_classes/src/ux_device_class_cdc_acm_entry.c **** 
  91:./Middlewares/ST/usbx/common/usbx_device_classes/src/ux_device_class_cdc_acm_entry.c ****         /* Call the init function of the CDC ACM class.  */
  92:./Middlewares/ST/usbx/common/usbx_device_classes/src/ux_device_class_cdc_acm_entry.c ****         status =  _ux_device_class_cdc_acm_initialize(command);
  59              		.loc 1 92 9 is_stmt 1 view .LVU6
  60              		.loc 1 92 19 is_stmt 0 view .LVU7
  61 0016 FFF7FEFF 		bl	_ux_device_class_cdc_acm_initialize
  62              	.LVL1:
  93:./Middlewares/ST/usbx/common/usbx_device_classes/src/ux_device_class_cdc_acm_entry.c ****         
  94:./Middlewares/ST/usbx/common/usbx_device_classes/src/ux_device_class_cdc_acm_entry.c ****         /* Return the completion status.  */
  95:./Middlewares/ST/usbx/common/usbx_device_classes/src/ux_device_class_cdc_acm_entry.c ****         return(status);
  63              		.loc 1 95 9 is_stmt 1 view .LVU8
  64              	.L1:
  96:./Middlewares/ST/usbx/common/usbx_device_classes/src/ux_device_class_cdc_acm_entry.c **** 
  97:./Middlewares/ST/usbx/common/usbx_device_classes/src/ux_device_class_cdc_acm_entry.c ****     case UX_SLAVE_CLASS_COMMAND_UNINITIALIZE:
  98:./Middlewares/ST/usbx/common/usbx_device_classes/src/ux_device_class_cdc_acm_entry.c **** 
  99:./Middlewares/ST/usbx/common/usbx_device_classes/src/ux_device_class_cdc_acm_entry.c ****         /* Call the init function of the CDC ACM class.  */
 100:./Middlewares/ST/usbx/common/usbx_device_classes/src/ux_device_class_cdc_acm_entry.c ****         status =  _ux_device_class_cdc_acm_uninitialize(command);
 101:./Middlewares/ST/usbx/common/usbx_device_classes/src/ux_device_class_cdc_acm_entry.c ****         
 102:./Middlewares/ST/usbx/common/usbx_device_classes/src/ux_device_class_cdc_acm_entry.c ****         /* Return the completion status.  */
 103:./Middlewares/ST/usbx/common/usbx_device_classes/src/ux_device_class_cdc_acm_entry.c ****         return(status);
 104:./Middlewares/ST/usbx/common/usbx_device_classes/src/ux_device_class_cdc_acm_entry.c **** 
 105:./Middlewares/ST/usbx/common/usbx_device_classes/src/ux_device_class_cdc_acm_entry.c ****     case UX_SLAVE_CLASS_COMMAND_QUERY:
 106:./Middlewares/ST/usbx/common/usbx_device_classes/src/ux_device_class_cdc_acm_entry.c **** 
 107:./Middlewares/ST/usbx/common/usbx_device_classes/src/ux_device_class_cdc_acm_entry.c ****         /* Check the CLASS definition in the interface descriptor. */
 108:./Middlewares/ST/usbx/common/usbx_device_classes/src/ux_device_class_cdc_acm_entry.c ****         if (command -> ux_slave_class_command_class == UX_SLAVE_CLASS_CDC_ACM_CLASS)
ARM GAS  C:\Users\Dennis\AppData\Local\Temp\ccJ5Mvad.s 			page 4


 109:./Middlewares/ST/usbx/common/usbx_device_classes/src/ux_device_class_cdc_acm_entry.c ****             return(UX_SUCCESS);
 110:./Middlewares/ST/usbx/common/usbx_device_classes/src/ux_device_class_cdc_acm_entry.c ****         else
 111:./Middlewares/ST/usbx/common/usbx_device_classes/src/ux_device_class_cdc_acm_entry.c ****             return(UX_NO_CLASS_MATCH);
 112:./Middlewares/ST/usbx/common/usbx_device_classes/src/ux_device_class_cdc_acm_entry.c **** 
 113:./Middlewares/ST/usbx/common/usbx_device_classes/src/ux_device_class_cdc_acm_entry.c ****     case UX_SLAVE_CLASS_COMMAND_ACTIVATE:
 114:./Middlewares/ST/usbx/common/usbx_device_classes/src/ux_device_class_cdc_acm_entry.c **** 
 115:./Middlewares/ST/usbx/common/usbx_device_classes/src/ux_device_class_cdc_acm_entry.c ****         /* The activate command is used when the host has sent a SET_CONFIGURATION command
 116:./Middlewares/ST/usbx/common/usbx_device_classes/src/ux_device_class_cdc_acm_entry.c ****            and this interface has to be mounted. Both Bulk endpoints have to be mounted
 117:./Middlewares/ST/usbx/common/usbx_device_classes/src/ux_device_class_cdc_acm_entry.c ****            and the cdc_acm thread needs to be activated.  */
 118:./Middlewares/ST/usbx/common/usbx_device_classes/src/ux_device_class_cdc_acm_entry.c ****         status =  _ux_device_class_cdc_acm_activate(command);
 119:./Middlewares/ST/usbx/common/usbx_device_classes/src/ux_device_class_cdc_acm_entry.c **** 
 120:./Middlewares/ST/usbx/common/usbx_device_classes/src/ux_device_class_cdc_acm_entry.c ****         /* Return the completion status.  */
 121:./Middlewares/ST/usbx/common/usbx_device_classes/src/ux_device_class_cdc_acm_entry.c ****         return(status);
 122:./Middlewares/ST/usbx/common/usbx_device_classes/src/ux_device_class_cdc_acm_entry.c **** 
 123:./Middlewares/ST/usbx/common/usbx_device_classes/src/ux_device_class_cdc_acm_entry.c ****     case UX_SLAVE_CLASS_COMMAND_DEACTIVATE:
 124:./Middlewares/ST/usbx/common/usbx_device_classes/src/ux_device_class_cdc_acm_entry.c **** 
 125:./Middlewares/ST/usbx/common/usbx_device_classes/src/ux_device_class_cdc_acm_entry.c ****         /* The deactivate command is used when the device has been extracted.
 126:./Middlewares/ST/usbx/common/usbx_device_classes/src/ux_device_class_cdc_acm_entry.c ****            The device endpoints have to be dismounted and the cdc_acm thread canceled.  */
 127:./Middlewares/ST/usbx/common/usbx_device_classes/src/ux_device_class_cdc_acm_entry.c ****         status =  _ux_device_class_cdc_acm_deactivate(command);
 128:./Middlewares/ST/usbx/common/usbx_device_classes/src/ux_device_class_cdc_acm_entry.c ****         
 129:./Middlewares/ST/usbx/common/usbx_device_classes/src/ux_device_class_cdc_acm_entry.c ****         /* Return the completion status.  */
 130:./Middlewares/ST/usbx/common/usbx_device_classes/src/ux_device_class_cdc_acm_entry.c ****         return(status);
 131:./Middlewares/ST/usbx/common/usbx_device_classes/src/ux_device_class_cdc_acm_entry.c **** 
 132:./Middlewares/ST/usbx/common/usbx_device_classes/src/ux_device_class_cdc_acm_entry.c ****     case UX_SLAVE_CLASS_COMMAND_REQUEST:
 133:./Middlewares/ST/usbx/common/usbx_device_classes/src/ux_device_class_cdc_acm_entry.c **** 
 134:./Middlewares/ST/usbx/common/usbx_device_classes/src/ux_device_class_cdc_acm_entry.c ****         /* The request command is used when the host sends a command on the control endpoint.  */
 135:./Middlewares/ST/usbx/common/usbx_device_classes/src/ux_device_class_cdc_acm_entry.c ****         status = _ux_device_class_cdc_acm_control_request(command);
 136:./Middlewares/ST/usbx/common/usbx_device_classes/src/ux_device_class_cdc_acm_entry.c **** 
 137:./Middlewares/ST/usbx/common/usbx_device_classes/src/ux_device_class_cdc_acm_entry.c ****         /* Return the completion status.  */
 138:./Middlewares/ST/usbx/common/usbx_device_classes/src/ux_device_class_cdc_acm_entry.c ****         return(status);
 139:./Middlewares/ST/usbx/common/usbx_device_classes/src/ux_device_class_cdc_acm_entry.c **** 
 140:./Middlewares/ST/usbx/common/usbx_device_classes/src/ux_device_class_cdc_acm_entry.c ****     default: 
 141:./Middlewares/ST/usbx/common/usbx_device_classes/src/ux_device_class_cdc_acm_entry.c **** 
 142:./Middlewares/ST/usbx/common/usbx_device_classes/src/ux_device_class_cdc_acm_entry.c ****         /* If trace is enabled, insert this event into the trace buffer.  */
 143:./Middlewares/ST/usbx/common/usbx_device_classes/src/ux_device_class_cdc_acm_entry.c ****         UX_TRACE_IN_LINE_INSERT(UX_TRACE_ERROR, UX_FUNCTION_NOT_SUPPORTED, 0, 0, 0, UX_TRACE_ERRORS
 144:./Middlewares/ST/usbx/common/usbx_device_classes/src/ux_device_class_cdc_acm_entry.c **** 
 145:./Middlewares/ST/usbx/common/usbx_device_classes/src/ux_device_class_cdc_acm_entry.c ****         /* Return an error.  */
 146:./Middlewares/ST/usbx/common/usbx_device_classes/src/ux_device_class_cdc_acm_entry.c ****         return(UX_FUNCTION_NOT_SUPPORTED);
 147:./Middlewares/ST/usbx/common/usbx_device_classes/src/ux_device_class_cdc_acm_entry.c ****     }   
 148:./Middlewares/ST/usbx/common/usbx_device_classes/src/ux_device_class_cdc_acm_entry.c **** }
  65              		.loc 1 148 1 is_stmt 0 view .LVU9
  66 001a 08BD     		pop	{r3, pc}
  67              	.LVL2:
  68              	.L3:
 100:./Middlewares/ST/usbx/common/usbx_device_classes/src/ux_device_class_cdc_acm_entry.c ****         
  69              		.loc 1 100 9 is_stmt 1 view .LVU10
 100:./Middlewares/ST/usbx/common/usbx_device_classes/src/ux_device_class_cdc_acm_entry.c ****         
  70              		.loc 1 100 19 is_stmt 0 view .LVU11
  71 001c FFF7FEFF 		bl	_ux_device_class_cdc_acm_uninitialize
  72              	.LVL3:
 103:./Middlewares/ST/usbx/common/usbx_device_classes/src/ux_device_class_cdc_acm_entry.c **** 
  73              		.loc 1 103 9 is_stmt 1 view .LVU12
 103:./Middlewares/ST/usbx/common/usbx_device_classes/src/ux_device_class_cdc_acm_entry.c **** 
  74              		.loc 1 103 15 is_stmt 0 view .LVU13
  75 0020 FBE7     		b	.L1
  76              	.LVL4:
  77              	.L9:
ARM GAS  C:\Users\Dennis\AppData\Local\Temp\ccJ5Mvad.s 			page 5


 108:./Middlewares/ST/usbx/common/usbx_device_classes/src/ux_device_class_cdc_acm_entry.c ****             return(UX_SUCCESS);
  78              		.loc 1 108 9 is_stmt 1 view .LVU14
 108:./Middlewares/ST/usbx/common/usbx_device_classes/src/ux_device_class_cdc_acm_entry.c ****             return(UX_SUCCESS);
  79              		.loc 1 108 21 is_stmt 0 view .LVU15
  80 0022 4369     		ldr	r3, [r0, #20]
 108:./Middlewares/ST/usbx/common/usbx_device_classes/src/ux_device_class_cdc_acm_entry.c ****             return(UX_SUCCESS);
  81              		.loc 1 108 12 view .LVU16
  82 0024 0A2B     		cmp	r3, #10
  83 0026 01D0     		beq	.L13
 111:./Middlewares/ST/usbx/common/usbx_device_classes/src/ux_device_class_cdc_acm_entry.c **** 
  84              		.loc 1 111 19 view .LVU17
  85 0028 5720     		movs	r0, #87
  86              	.LVL5:
 111:./Middlewares/ST/usbx/common/usbx_device_classes/src/ux_device_class_cdc_acm_entry.c **** 
  87              		.loc 1 111 19 view .LVU18
  88 002a F6E7     		b	.L1
  89              	.LVL6:
  90              	.L13:
 109:./Middlewares/ST/usbx/common/usbx_device_classes/src/ux_device_class_cdc_acm_entry.c ****         else
  91              		.loc 1 109 19 view .LVU19
  92 002c 0020     		movs	r0, #0
  93              	.LVL7:
 109:./Middlewares/ST/usbx/common/usbx_device_classes/src/ux_device_class_cdc_acm_entry.c ****         else
  94              		.loc 1 109 19 view .LVU20
  95 002e F4E7     		b	.L1
  96              	.LVL8:
  97              	.L8:
 118:./Middlewares/ST/usbx/common/usbx_device_classes/src/ux_device_class_cdc_acm_entry.c **** 
  98              		.loc 1 118 9 is_stmt 1 view .LVU21
 118:./Middlewares/ST/usbx/common/usbx_device_classes/src/ux_device_class_cdc_acm_entry.c **** 
  99              		.loc 1 118 19 is_stmt 0 view .LVU22
 100 0030 FFF7FEFF 		bl	_ux_device_class_cdc_acm_activate
 101              	.LVL9:
 121:./Middlewares/ST/usbx/common/usbx_device_classes/src/ux_device_class_cdc_acm_entry.c **** 
 102              		.loc 1 121 9 is_stmt 1 view .LVU23
 121:./Middlewares/ST/usbx/common/usbx_device_classes/src/ux_device_class_cdc_acm_entry.c **** 
 103              		.loc 1 121 15 is_stmt 0 view .LVU24
 104 0034 F1E7     		b	.L1
 105              	.LVL10:
 106              	.L7:
 127:./Middlewares/ST/usbx/common/usbx_device_classes/src/ux_device_class_cdc_acm_entry.c ****         
 107              		.loc 1 127 9 is_stmt 1 view .LVU25
 127:./Middlewares/ST/usbx/common/usbx_device_classes/src/ux_device_class_cdc_acm_entry.c ****         
 108              		.loc 1 127 19 is_stmt 0 view .LVU26
 109 0036 FFF7FEFF 		bl	_ux_device_class_cdc_acm_deactivate
 110              	.LVL11:
 130:./Middlewares/ST/usbx/common/usbx_device_classes/src/ux_device_class_cdc_acm_entry.c **** 
 111              		.loc 1 130 9 is_stmt 1 view .LVU27
 130:./Middlewares/ST/usbx/common/usbx_device_classes/src/ux_device_class_cdc_acm_entry.c **** 
 112              		.loc 1 130 15 is_stmt 0 view .LVU28
 113 003a EEE7     		b	.L1
 114              	.LVL12:
 115              	.L6:
 135:./Middlewares/ST/usbx/common/usbx_device_classes/src/ux_device_class_cdc_acm_entry.c **** 
 116              		.loc 1 135 9 is_stmt 1 view .LVU29
 135:./Middlewares/ST/usbx/common/usbx_device_classes/src/ux_device_class_cdc_acm_entry.c **** 
 117              		.loc 1 135 18 is_stmt 0 view .LVU30
ARM GAS  C:\Users\Dennis\AppData\Local\Temp\ccJ5Mvad.s 			page 6


 118 003c FFF7FEFF 		bl	_ux_device_class_cdc_acm_control_request
 119              	.LVL13:
 138:./Middlewares/ST/usbx/common/usbx_device_classes/src/ux_device_class_cdc_acm_entry.c **** 
 120              		.loc 1 138 9 is_stmt 1 view .LVU31
 138:./Middlewares/ST/usbx/common/usbx_device_classes/src/ux_device_class_cdc_acm_entry.c **** 
 121              		.loc 1 138 15 is_stmt 0 view .LVU32
 122 0040 EBE7     		b	.L1
 123              	.LVL14:
 124              	.L10:
  86:./Middlewares/ST/usbx/common/usbx_device_classes/src/ux_device_class_cdc_acm_entry.c ****     {
 125              		.loc 1 86 5 view .LVU33
 126 0042 5420     		movs	r0, #84
 127              	.LVL15:
  86:./Middlewares/ST/usbx/common/usbx_device_classes/src/ux_device_class_cdc_acm_entry.c ****     {
 128              		.loc 1 86 5 view .LVU34
 129 0044 E9E7     		b	.L1
 130              		.cfi_endproc
 131              	.LFE11:
 133              		.text
 134              	.Letext0:
 135              		.file 2 "./Middlewares/ST/threadx/ports/cortex_m4/gnu/inc/tx_port.h"
 136              		.file 3 "./Middlewares/ST/threadx/common/inc/tx_api.h"
 137              		.file 4 "./Middlewares/ST/usbx/common/core/inc/ux_api.h"
 138              		.file 5 "./Middlewares/ST/usbx/common/usbx_device_classes/inc/ux_device_class_cdc_acm.h"
ARM GAS  C:\Users\Dennis\AppData\Local\Temp\ccJ5Mvad.s 			page 7


DEFINED SYMBOLS
                            *ABS*:00000000 ux_device_class_cdc_acm_entry.c
C:\Users\Dennis\AppData\Local\Temp\ccJ5Mvad.s:20     .text._ux_device_class_cdc_acm_entry:00000000 $t
C:\Users\Dennis\AppData\Local\Temp\ccJ5Mvad.s:26     .text._ux_device_class_cdc_acm_entry:00000000 _ux_device_class_cdc_acm_entry
C:\Users\Dennis\AppData\Local\Temp\ccJ5Mvad.s:50     .text._ux_device_class_cdc_acm_entry:0000000e $d
C:\Users\Dennis\AppData\Local\Temp\ccJ5Mvad.s:57     .text._ux_device_class_cdc_acm_entry:00000015 $d
C:\Users\Dennis\AppData\Local\Temp\ccJ5Mvad.s:57     .text._ux_device_class_cdc_acm_entry:00000016 $t

UNDEFINED SYMBOLS
_ux_device_class_cdc_acm_initialize
_ux_device_class_cdc_acm_uninitialize
_ux_device_class_cdc_acm_activate
_ux_device_class_cdc_acm_deactivate
_ux_device_class_cdc_acm_control_request
