ARM GAS  C:\Users\Dennis\AppData\Local\Temp\ccguhq1f.s 			page 1


   1              		.cpu cortex-m4
   2              		.arch armv7e-m
   3              		.fpu fpv4-sp-d16
   4              		.eabi_attribute 27, 1
   5              		.eabi_attribute 28, 1
   6              		.eabi_attribute 20, 1
   7              		.eabi_attribute 21, 1
   8              		.eabi_attribute 23, 3
   9              		.eabi_attribute 24, 1
  10              		.eabi_attribute 25, 1
  11              		.eabi_attribute 26, 1
  12              		.eabi_attribute 30, 1
  13              		.eabi_attribute 34, 1
  14              		.eabi_attribute 18, 4
  15              		.file	"ux_device_stack_get_status.c"
  16              		.text
  17              	.Ltext0:
  18              		.cfi_sections	.debug_frame
  19              		.section	.text._ux_device_stack_get_status,"ax",%progbits
  20              		.align	1
  21              		.global	_ux_device_stack_get_status
  22              		.syntax unified
  23              		.thumb
  24              		.thumb_func
  26              	_ux_device_stack_get_status:
  27              	.LVL0:
  28              	.LFB11:
  29              		.file 1 "./Middlewares/ST/usbx/common/core/src/ux_device_stack_get_status.c"
   1:./Middlewares/ST/usbx/common/core/src/ux_device_stack_get_status.c **** /**************************************************************************/
   2:./Middlewares/ST/usbx/common/core/src/ux_device_stack_get_status.c **** /*                                                                        */
   3:./Middlewares/ST/usbx/common/core/src/ux_device_stack_get_status.c **** /*       Copyright (c) Microsoft Corporation. All rights reserved.        */
   4:./Middlewares/ST/usbx/common/core/src/ux_device_stack_get_status.c **** /*                                                                        */
   5:./Middlewares/ST/usbx/common/core/src/ux_device_stack_get_status.c **** /*       This software is licensed under the Microsoft Software License   */
   6:./Middlewares/ST/usbx/common/core/src/ux_device_stack_get_status.c **** /*       Terms for Microsoft Azure RTOS. Full text of the license can be  */
   7:./Middlewares/ST/usbx/common/core/src/ux_device_stack_get_status.c **** /*       found in the LICENSE file at https://aka.ms/AzureRTOS_EULA       */
   8:./Middlewares/ST/usbx/common/core/src/ux_device_stack_get_status.c **** /*       and in the root directory of this software.                      */
   9:./Middlewares/ST/usbx/common/core/src/ux_device_stack_get_status.c **** /*                                                                        */
  10:./Middlewares/ST/usbx/common/core/src/ux_device_stack_get_status.c **** /**************************************************************************/
  11:./Middlewares/ST/usbx/common/core/src/ux_device_stack_get_status.c **** 
  12:./Middlewares/ST/usbx/common/core/src/ux_device_stack_get_status.c **** 
  13:./Middlewares/ST/usbx/common/core/src/ux_device_stack_get_status.c **** /**************************************************************************/
  14:./Middlewares/ST/usbx/common/core/src/ux_device_stack_get_status.c **** /**************************************************************************/
  15:./Middlewares/ST/usbx/common/core/src/ux_device_stack_get_status.c **** /**                                                                       */ 
  16:./Middlewares/ST/usbx/common/core/src/ux_device_stack_get_status.c **** /** USBX Component                                                        */ 
  17:./Middlewares/ST/usbx/common/core/src/ux_device_stack_get_status.c **** /**                                                                       */
  18:./Middlewares/ST/usbx/common/core/src/ux_device_stack_get_status.c **** /**   Device Stack                                                        */
  19:./Middlewares/ST/usbx/common/core/src/ux_device_stack_get_status.c **** /**                                                                       */
  20:./Middlewares/ST/usbx/common/core/src/ux_device_stack_get_status.c **** /**************************************************************************/
  21:./Middlewares/ST/usbx/common/core/src/ux_device_stack_get_status.c **** /**************************************************************************/
  22:./Middlewares/ST/usbx/common/core/src/ux_device_stack_get_status.c **** 
  23:./Middlewares/ST/usbx/common/core/src/ux_device_stack_get_status.c **** #define UX_SOURCE_CODE
  24:./Middlewares/ST/usbx/common/core/src/ux_device_stack_get_status.c **** 
  25:./Middlewares/ST/usbx/common/core/src/ux_device_stack_get_status.c **** 
  26:./Middlewares/ST/usbx/common/core/src/ux_device_stack_get_status.c **** /* Include necessary system files.  */
  27:./Middlewares/ST/usbx/common/core/src/ux_device_stack_get_status.c **** 
  28:./Middlewares/ST/usbx/common/core/src/ux_device_stack_get_status.c **** #include "ux_api.h"
  29:./Middlewares/ST/usbx/common/core/src/ux_device_stack_get_status.c **** #include "ux_device_stack.h"
ARM GAS  C:\Users\Dennis\AppData\Local\Temp\ccguhq1f.s 			page 2


  30:./Middlewares/ST/usbx/common/core/src/ux_device_stack_get_status.c **** 
  31:./Middlewares/ST/usbx/common/core/src/ux_device_stack_get_status.c **** 
  32:./Middlewares/ST/usbx/common/core/src/ux_device_stack_get_status.c **** /**************************************************************************/
  33:./Middlewares/ST/usbx/common/core/src/ux_device_stack_get_status.c **** /*                                                                        */
  34:./Middlewares/ST/usbx/common/core/src/ux_device_stack_get_status.c **** /*  FUNCTION                                               RELEASE        */
  35:./Middlewares/ST/usbx/common/core/src/ux_device_stack_get_status.c **** /*                                                                        */
  36:./Middlewares/ST/usbx/common/core/src/ux_device_stack_get_status.c **** /*    _ux_device_stack_get_status                         PORTABLE C      */
  37:./Middlewares/ST/usbx/common/core/src/ux_device_stack_get_status.c **** /*                                                           6.1.6        */
  38:./Middlewares/ST/usbx/common/core/src/ux_device_stack_get_status.c **** /*  AUTHOR                                                                */
  39:./Middlewares/ST/usbx/common/core/src/ux_device_stack_get_status.c **** /*                                                                        */
  40:./Middlewares/ST/usbx/common/core/src/ux_device_stack_get_status.c **** /*    Chaoqiong Xiao, Microsoft Corporation                               */
  41:./Middlewares/ST/usbx/common/core/src/ux_device_stack_get_status.c **** /*                                                                        */
  42:./Middlewares/ST/usbx/common/core/src/ux_device_stack_get_status.c **** /*  DESCRIPTION                                                           */
  43:./Middlewares/ST/usbx/common/core/src/ux_device_stack_get_status.c **** /*                                                                        */
  44:./Middlewares/ST/usbx/common/core/src/ux_device_stack_get_status.c **** /*    This function obtains the status of a USB component of the device   */
  45:./Middlewares/ST/usbx/common/core/src/ux_device_stack_get_status.c **** /*    such as device or endpoint.                                         */
  46:./Middlewares/ST/usbx/common/core/src/ux_device_stack_get_status.c **** /*                                                                        */
  47:./Middlewares/ST/usbx/common/core/src/ux_device_stack_get_status.c **** /*  INPUT                                                                 */
  48:./Middlewares/ST/usbx/common/core/src/ux_device_stack_get_status.c **** /*                                                                        */
  49:./Middlewares/ST/usbx/common/core/src/ux_device_stack_get_status.c **** /*    request_type                          Request type                  */
  50:./Middlewares/ST/usbx/common/core/src/ux_device_stack_get_status.c **** /*    request_index                         Request index                 */
  51:./Middlewares/ST/usbx/common/core/src/ux_device_stack_get_status.c **** /*    request_length                        Request length                */
  52:./Middlewares/ST/usbx/common/core/src/ux_device_stack_get_status.c **** /*                                                                        */
  53:./Middlewares/ST/usbx/common/core/src/ux_device_stack_get_status.c **** /*  OUTPUT                                                                */
  54:./Middlewares/ST/usbx/common/core/src/ux_device_stack_get_status.c **** /*                                                                        */
  55:./Middlewares/ST/usbx/common/core/src/ux_device_stack_get_status.c **** /*    Completion Status                                                   */ 
  56:./Middlewares/ST/usbx/common/core/src/ux_device_stack_get_status.c **** /*                                                                        */
  57:./Middlewares/ST/usbx/common/core/src/ux_device_stack_get_status.c **** /*  CALLS                                                                 */ 
  58:./Middlewares/ST/usbx/common/core/src/ux_device_stack_get_status.c **** /*                                                                        */ 
  59:./Middlewares/ST/usbx/common/core/src/ux_device_stack_get_status.c **** /*    _ux_device_stack_transfer_request     Transfer request              */
  60:./Middlewares/ST/usbx/common/core/src/ux_device_stack_get_status.c **** /*    (ux_slave_dcd_function)               DCD dispatch function         */ 
  61:./Middlewares/ST/usbx/common/core/src/ux_device_stack_get_status.c **** /*                                                                        */ 
  62:./Middlewares/ST/usbx/common/core/src/ux_device_stack_get_status.c **** /*  CALLED BY                                                             */ 
  63:./Middlewares/ST/usbx/common/core/src/ux_device_stack_get_status.c **** /*                                                                        */ 
  64:./Middlewares/ST/usbx/common/core/src/ux_device_stack_get_status.c **** /*    Device Stack                                                        */
  65:./Middlewares/ST/usbx/common/core/src/ux_device_stack_get_status.c **** /*                                                                        */ 
  66:./Middlewares/ST/usbx/common/core/src/ux_device_stack_get_status.c **** /*  RELEASE HISTORY                                                       */ 
  67:./Middlewares/ST/usbx/common/core/src/ux_device_stack_get_status.c **** /*                                                                        */ 
  68:./Middlewares/ST/usbx/common/core/src/ux_device_stack_get_status.c **** /*    DATE              NAME                      DESCRIPTION             */ 
  69:./Middlewares/ST/usbx/common/core/src/ux_device_stack_get_status.c **** /*                                                                        */ 
  70:./Middlewares/ST/usbx/common/core/src/ux_device_stack_get_status.c **** /*  05-19-2020     Chaoqiong Xiao           Initial Version 6.0           */
  71:./Middlewares/ST/usbx/common/core/src/ux_device_stack_get_status.c **** /*  09-30-2020     Chaoqiong Xiao           Modified comment(s),          */
  72:./Middlewares/ST/usbx/common/core/src/ux_device_stack_get_status.c **** /*                                            resulting in version 6.1    */
  73:./Middlewares/ST/usbx/common/core/src/ux_device_stack_get_status.c **** /*  04-02-2021     Chaoqiong Xiao           Modified comment(s),          */
  74:./Middlewares/ST/usbx/common/core/src/ux_device_stack_get_status.c **** /*                                            supported bi-dir-endpoints, */
  75:./Middlewares/ST/usbx/common/core/src/ux_device_stack_get_status.c **** /*                                            resulting in version 6.1.6  */
  76:./Middlewares/ST/usbx/common/core/src/ux_device_stack_get_status.c **** /*                                                                        */
  77:./Middlewares/ST/usbx/common/core/src/ux_device_stack_get_status.c **** /**************************************************************************/
  78:./Middlewares/ST/usbx/common/core/src/ux_device_stack_get_status.c **** UINT  _ux_device_stack_get_status(ULONG request_type, ULONG request_index, ULONG request_length)
  79:./Middlewares/ST/usbx/common/core/src/ux_device_stack_get_status.c **** {
  30              		.loc 1 79 1 view -0
  31              		.cfi_startproc
  32              		@ args = 0, pretend = 0, frame = 0
  33              		@ frame_needed = 0, uses_anonymous_args = 0
  34              		.loc 1 79 1 is_stmt 0 view .LVU1
  35 0000 F8B5     		push	{r3, r4, r5, r6, r7, lr}
  36              	.LCFI0:
ARM GAS  C:\Users\Dennis\AppData\Local\Temp\ccguhq1f.s 			page 3


  37              		.cfi_def_cfa_offset 24
  38              		.cfi_offset 3, -24
  39              		.cfi_offset 4, -20
  40              		.cfi_offset 5, -16
  41              		.cfi_offset 6, -12
  42              		.cfi_offset 7, -8
  43              		.cfi_offset 14, -4
  80:./Middlewares/ST/usbx/common/core/src/ux_device_stack_get_status.c **** 
  81:./Middlewares/ST/usbx/common/core/src/ux_device_stack_get_status.c **** UX_SLAVE_DCD            *dcd;
  44              		.loc 1 81 1 is_stmt 1 view .LVU2
  82:./Middlewares/ST/usbx/common/core/src/ux_device_stack_get_status.c **** UX_SLAVE_TRANSFER       *transfer_request;
  45              		.loc 1 82 1 view .LVU3
  83:./Middlewares/ST/usbx/common/core/src/ux_device_stack_get_status.c **** UX_SLAVE_DEVICE         *device;
  46              		.loc 1 83 1 view .LVU4
  84:./Middlewares/ST/usbx/common/core/src/ux_device_stack_get_status.c **** UX_SLAVE_ENDPOINT       *endpoint;
  47              		.loc 1 84 1 view .LVU5
  85:./Middlewares/ST/usbx/common/core/src/ux_device_stack_get_status.c **** UINT                    status;
  48              		.loc 1 85 1 view .LVU6
  86:./Middlewares/ST/usbx/common/core/src/ux_device_stack_get_status.c **** ULONG                   data_length;
  49              		.loc 1 86 1 view .LVU7
  87:./Middlewares/ST/usbx/common/core/src/ux_device_stack_get_status.c **** 
  88:./Middlewares/ST/usbx/common/core/src/ux_device_stack_get_status.c ****     UX_PARAMETER_NOT_USED(request_length);
  50              		.loc 1 88 5 view .LVU8
  89:./Middlewares/ST/usbx/common/core/src/ux_device_stack_get_status.c **** 
  90:./Middlewares/ST/usbx/common/core/src/ux_device_stack_get_status.c ****     /* If trace is enabled, insert this event into the trace buffer.  */
  91:./Middlewares/ST/usbx/common/core/src/ux_device_stack_get_status.c ****     UX_TRACE_IN_LINE_INSERT(UX_TRACE_DEVICE_STACK_GET_STATUS, request_type, request_index, request_
  92:./Middlewares/ST/usbx/common/core/src/ux_device_stack_get_status.c **** 
  93:./Middlewares/ST/usbx/common/core/src/ux_device_stack_get_status.c ****     /* Get the pointer to the DCD.  */
  94:./Middlewares/ST/usbx/common/core/src/ux_device_stack_get_status.c ****     dcd =  &_ux_system_slave -> ux_system_slave_dcd;
  51              		.loc 1 94 5 view .LVU9
  52              		.loc 1 94 30 is_stmt 0 view .LVU10
  53 0002 2B4B     		ldr	r3, .L15
  54 0004 1C68     		ldr	r4, [r3]
  55              	.LVL1:
  95:./Middlewares/ST/usbx/common/core/src/ux_device_stack_get_status.c **** 
  96:./Middlewares/ST/usbx/common/core/src/ux_device_stack_get_status.c ****     /* Get the pointer to the device.  */
  97:./Middlewares/ST/usbx/common/core/src/ux_device_stack_get_status.c ****     device =  &_ux_system_slave -> ux_system_slave_device;
  56              		.loc 1 97 5 is_stmt 1 view .LVU11
  98:./Middlewares/ST/usbx/common/core/src/ux_device_stack_get_status.c **** 
  99:./Middlewares/ST/usbx/common/core/src/ux_device_stack_get_status.c ****     /* Get the control endpoint for the device.  */
 100:./Middlewares/ST/usbx/common/core/src/ux_device_stack_get_status.c ****     endpoint =  &device -> ux_slave_device_control_endpoint;
  57              		.loc 1 100 5 view .LVU12
 101:./Middlewares/ST/usbx/common/core/src/ux_device_stack_get_status.c **** 
 102:./Middlewares/ST/usbx/common/core/src/ux_device_stack_get_status.c ****     /* Get the pointer to the transfer request associated with the endpoint.  */
 103:./Middlewares/ST/usbx/common/core/src/ux_device_stack_get_status.c ****     transfer_request =  &endpoint -> ux_slave_endpoint_transfer_request;
  58              		.loc 1 103 5 view .LVU13
  59              		.loc 1 103 22 is_stmt 0 view .LVU14
  60 0006 04F18C06 		add	r6, r4, #140
  61              	.LVL2:
 104:./Middlewares/ST/usbx/common/core/src/ux_device_stack_get_status.c **** 
 105:./Middlewares/ST/usbx/common/core/src/ux_device_stack_get_status.c ****     /* Reset the status buffer.  */
 106:./Middlewares/ST/usbx/common/core/src/ux_device_stack_get_status.c ****     *transfer_request -> ux_slave_transfer_request_data_pointer =  0;
  62              		.loc 1 106 5 is_stmt 1 view .LVU15
  63              		.loc 1 106 23 is_stmt 0 view .LVU16
  64 000a D4F89820 		ldr	r2, [r4, #152]
  65              	.LVL3:
  66              		.loc 1 106 65 view .LVU17
ARM GAS  C:\Users\Dennis\AppData\Local\Temp\ccguhq1f.s 			page 4


  67 000e 0023     		movs	r3, #0
  68 0010 1370     		strb	r3, [r2]
 107:./Middlewares/ST/usbx/common/core/src/ux_device_stack_get_status.c ****     *(transfer_request -> ux_slave_transfer_request_data_pointer + 1) =  0;
  69              		.loc 1 107 5 is_stmt 1 view .LVU18
  70              		.loc 1 107 24 is_stmt 0 view .LVU19
  71 0012 D4F89820 		ldr	r2, [r4, #152]
  72              		.loc 1 107 71 view .LVU20
  73 0016 5370     		strb	r3, [r2, #1]
 108:./Middlewares/ST/usbx/common/core/src/ux_device_stack_get_status.c ****     
 109:./Middlewares/ST/usbx/common/core/src/ux_device_stack_get_status.c ****     /* The default length for GET_STATUS is 2, except for OTG get Status.  */
 110:./Middlewares/ST/usbx/common/core/src/ux_device_stack_get_status.c ****     data_length = 2;
  74              		.loc 1 110 5 is_stmt 1 view .LVU21
  75              	.LVL4:
 111:./Middlewares/ST/usbx/common/core/src/ux_device_stack_get_status.c ****     
 112:./Middlewares/ST/usbx/common/core/src/ux_device_stack_get_status.c ****     /* The status can be for either the device or the endpoint.  */
 113:./Middlewares/ST/usbx/common/core/src/ux_device_stack_get_status.c ****     switch (request_type & UX_REQUEST_TARGET)
  76              		.loc 1 113 5 view .LVU22
  77 0018 10F00305 		ands	r5, r0, #3
  78 001c 0AD0     		beq	.L2
  79 001e 04F15C07 		add	r7, r4, #92
  80              	.LVL5:
  81              		.loc 1 113 5 is_stmt 0 view .LVU23
  82 0022 022D     		cmp	r5, #2
  83 0024 21D0     		beq	.L3
 114:./Middlewares/ST/usbx/common/core/src/ux_device_stack_get_status.c ****     {
 115:./Middlewares/ST/usbx/common/core/src/ux_device_stack_get_status.c ****     
 116:./Middlewares/ST/usbx/common/core/src/ux_device_stack_get_status.c ****     case UX_REQUEST_TARGET_DEVICE:
 117:./Middlewares/ST/usbx/common/core/src/ux_device_stack_get_status.c **** 
 118:./Middlewares/ST/usbx/common/core/src/ux_device_stack_get_status.c ****         /* When the device is probed, it is either for the power/remote capabilities or OTG role sw
 119:./Middlewares/ST/usbx/common/core/src/ux_device_stack_get_status.c ****            We differentiate with the Windex, 0 or OTG status Selector.  */
 120:./Middlewares/ST/usbx/common/core/src/ux_device_stack_get_status.c ****         if (request_index == UX_OTG_STATUS_SELECTOR)
 121:./Middlewares/ST/usbx/common/core/src/ux_device_stack_get_status.c ****         {
 122:./Middlewares/ST/usbx/common/core/src/ux_device_stack_get_status.c **** 
 123:./Middlewares/ST/usbx/common/core/src/ux_device_stack_get_status.c ****             /* Set the data length to 1.  */
 124:./Middlewares/ST/usbx/common/core/src/ux_device_stack_get_status.c ****             data_length = 1;
 125:./Middlewares/ST/usbx/common/core/src/ux_device_stack_get_status.c ****             
 126:./Middlewares/ST/usbx/common/core/src/ux_device_stack_get_status.c **** #ifdef UX_OTG_SUPPORT
 127:./Middlewares/ST/usbx/common/core/src/ux_device_stack_get_status.c ****             /* Store the Role Swap flag.  */
 128:./Middlewares/ST/usbx/common/core/src/ux_device_stack_get_status.c ****             *transfer_request -> ux_slave_transfer_request_data_pointer =  (UCHAR) _ux_system_otg -
 129:./Middlewares/ST/usbx/common/core/src/ux_device_stack_get_status.c **** #endif
 130:./Middlewares/ST/usbx/common/core/src/ux_device_stack_get_status.c ****             
 131:./Middlewares/ST/usbx/common/core/src/ux_device_stack_get_status.c ****         }
 132:./Middlewares/ST/usbx/common/core/src/ux_device_stack_get_status.c ****         else
 133:./Middlewares/ST/usbx/common/core/src/ux_device_stack_get_status.c ****         {
 134:./Middlewares/ST/usbx/common/core/src/ux_device_stack_get_status.c **** 
 135:./Middlewares/ST/usbx/common/core/src/ux_device_stack_get_status.c ****             /* Store the current power state in the status buffer. */
 136:./Middlewares/ST/usbx/common/core/src/ux_device_stack_get_status.c ****             if (_ux_system_slave -> ux_system_slave_power_state == UX_DEVICE_SELF_POWERED)
 137:./Middlewares/ST/usbx/common/core/src/ux_device_stack_get_status.c ****                 *transfer_request -> ux_slave_transfer_request_data_pointer =  1;
 138:./Middlewares/ST/usbx/common/core/src/ux_device_stack_get_status.c **** 
 139:./Middlewares/ST/usbx/common/core/src/ux_device_stack_get_status.c ****             /* Store the remote wakeup capability state in the status buffer.  */
 140:./Middlewares/ST/usbx/common/core/src/ux_device_stack_get_status.c **** 
 141:./Middlewares/ST/usbx/common/core/src/ux_device_stack_get_status.c ****             if (_ux_system_slave -> ux_system_slave_remote_wakeup_enabled)
 142:./Middlewares/ST/usbx/common/core/src/ux_device_stack_get_status.c ****                 *transfer_request -> ux_slave_transfer_request_data_pointer |=  2;
 143:./Middlewares/ST/usbx/common/core/src/ux_device_stack_get_status.c ****         }
 144:./Middlewares/ST/usbx/common/core/src/ux_device_stack_get_status.c ****         
 145:./Middlewares/ST/usbx/common/core/src/ux_device_stack_get_status.c ****         break;
 146:./Middlewares/ST/usbx/common/core/src/ux_device_stack_get_status.c ****             
ARM GAS  C:\Users\Dennis\AppData\Local\Temp\ccguhq1f.s 			page 5


 147:./Middlewares/ST/usbx/common/core/src/ux_device_stack_get_status.c ****     case UX_REQUEST_TARGET_ENDPOINT:
 148:./Middlewares/ST/usbx/common/core/src/ux_device_stack_get_status.c **** 
 149:./Middlewares/ST/usbx/common/core/src/ux_device_stack_get_status.c **** #ifndef UX_DEVICE_BIDIRECTIONAL_ENDPOINT_SUPPORT
 150:./Middlewares/ST/usbx/common/core/src/ux_device_stack_get_status.c **** 
 151:./Middlewares/ST/usbx/common/core/src/ux_device_stack_get_status.c ****         /* This feature returns the halt state of a specific endpoint.  The endpoint index
 152:./Middlewares/ST/usbx/common/core/src/ux_device_stack_get_status.c ****            is used to retrieve the endpoint container.  */
 153:./Middlewares/ST/usbx/common/core/src/ux_device_stack_get_status.c ****         status =  dcd -> ux_slave_dcd_function(dcd, UX_DCD_ENDPOINT_STATUS, (VOID *)(ALIGN_TYPE)(re
 154:./Middlewares/ST/usbx/common/core/src/ux_device_stack_get_status.c **** #else
 155:./Middlewares/ST/usbx/common/core/src/ux_device_stack_get_status.c **** 
 156:./Middlewares/ST/usbx/common/core/src/ux_device_stack_get_status.c ****         /* This feature returns the halt state of a specific endpoint.  The endpoint address
 157:./Middlewares/ST/usbx/common/core/src/ux_device_stack_get_status.c ****            is used to retrieve the endpoint container.  */
 158:./Middlewares/ST/usbx/common/core/src/ux_device_stack_get_status.c ****         status =  dcd -> ux_slave_dcd_function(dcd, UX_DCD_ENDPOINT_STATUS, (VOID *)(ALIGN_TYPE)(re
 159:./Middlewares/ST/usbx/common/core/src/ux_device_stack_get_status.c **** #endif
 160:./Middlewares/ST/usbx/common/core/src/ux_device_stack_get_status.c **** 
 161:./Middlewares/ST/usbx/common/core/src/ux_device_stack_get_status.c ****         /* Check the status. We may have a unknown endpoint.  */
 162:./Middlewares/ST/usbx/common/core/src/ux_device_stack_get_status.c ****         if (status != UX_ERROR)
 163:./Middlewares/ST/usbx/common/core/src/ux_device_stack_get_status.c ****         {
 164:./Middlewares/ST/usbx/common/core/src/ux_device_stack_get_status.c **** 
 165:./Middlewares/ST/usbx/common/core/src/ux_device_stack_get_status.c ****             if (status == UX_TRUE)
 166:./Middlewares/ST/usbx/common/core/src/ux_device_stack_get_status.c ****                 *transfer_request -> ux_slave_transfer_request_data_pointer =  1;
 167:./Middlewares/ST/usbx/common/core/src/ux_device_stack_get_status.c ****         }                        
 168:./Middlewares/ST/usbx/common/core/src/ux_device_stack_get_status.c ****         else
 169:./Middlewares/ST/usbx/common/core/src/ux_device_stack_get_status.c ****         {
 170:./Middlewares/ST/usbx/common/core/src/ux_device_stack_get_status.c ****     
 171:./Middlewares/ST/usbx/common/core/src/ux_device_stack_get_status.c ****             /* We stall the command. Endpoint is wrong.  */
 172:./Middlewares/ST/usbx/common/core/src/ux_device_stack_get_status.c ****             dcd -> ux_slave_dcd_function(dcd, UX_DCD_STALL_ENDPOINT, endpoint);
 173:./Middlewares/ST/usbx/common/core/src/ux_device_stack_get_status.c ****     
 174:./Middlewares/ST/usbx/common/core/src/ux_device_stack_get_status.c ****             /* No more work to do here.  The command failed but the upper layer does not depend on 
 175:./Middlewares/ST/usbx/common/core/src/ux_device_stack_get_status.c ****             return(UX_SUCCESS);            
 176:./Middlewares/ST/usbx/common/core/src/ux_device_stack_get_status.c ****         }
 177:./Middlewares/ST/usbx/common/core/src/ux_device_stack_get_status.c ****         break;
 178:./Middlewares/ST/usbx/common/core/src/ux_device_stack_get_status.c **** 
 179:./Middlewares/ST/usbx/common/core/src/ux_device_stack_get_status.c ****     default:
 180:./Middlewares/ST/usbx/common/core/src/ux_device_stack_get_status.c ****         
 181:./Middlewares/ST/usbx/common/core/src/ux_device_stack_get_status.c ****         /* We stall the command.  */
 182:./Middlewares/ST/usbx/common/core/src/ux_device_stack_get_status.c ****         dcd -> ux_slave_dcd_function(dcd, UX_DCD_STALL_ENDPOINT, endpoint);
  84              		.loc 1 182 9 is_stmt 1 view .LVU24
  85              		.loc 1 182 13 is_stmt 0 view .LVU25
  86 0026 A369     		ldr	r3, [r4, #24]
  87              		.loc 1 182 9 view .LVU26
  88 0028 3A46     		mov	r2, r7
  89 002a 1421     		movs	r1, #20
  90              	.LVL6:
  91              		.loc 1 182 9 view .LVU27
  92 002c 2046     		mov	r0, r4
  93              	.LVL7:
  94              		.loc 1 182 9 view .LVU28
  95 002e 9847     		blx	r3
  96              	.LVL8:
 183:./Middlewares/ST/usbx/common/core/src/ux_device_stack_get_status.c ****     
 184:./Middlewares/ST/usbx/common/core/src/ux_device_stack_get_status.c ****         /* No more work to do here.  The command failed but the upper layer does not depend on it. 
 185:./Middlewares/ST/usbx/common/core/src/ux_device_stack_get_status.c ****         return(UX_SUCCESS);            
  97              		.loc 1 185 9 is_stmt 1 view .LVU29
  98              		.loc 1 185 15 is_stmt 0 view .LVU30
  99 0030 0020     		movs	r0, #0
 100 0032 2CE0     		b	.L1
 101              	.LVL9:
ARM GAS  C:\Users\Dennis\AppData\Local\Temp\ccguhq1f.s 			page 6


 102              	.L2:
 120:./Middlewares/ST/usbx/common/core/src/ux_device_stack_get_status.c ****         {
 103              		.loc 1 120 9 is_stmt 1 view .LVU31
 120:./Middlewares/ST/usbx/common/core/src/ux_device_stack_get_status.c ****         {
 104              		.loc 1 120 12 is_stmt 0 view .LVU32
 105 0034 B1F5704F 		cmp	r1, #61440
 106 0038 36D0     		beq	.L9
 136:./Middlewares/ST/usbx/common/core/src/ux_device_stack_get_status.c ****                 *transfer_request -> ux_slave_transfer_request_data_pointer =  1;
 107              		.loc 1 136 13 is_stmt 1 view .LVU33
 136:./Middlewares/ST/usbx/common/core/src/ux_device_stack_get_status.c ****                 *transfer_request -> ux_slave_transfer_request_data_pointer =  1;
 108              		.loc 1 136 34 is_stmt 0 view .LVU34
 109 003a 1D4B     		ldr	r3, .L15
 110 003c 1B68     		ldr	r3, [r3]
 111 003e D3F8A031 		ldr	r3, [r3, #416]
 136:./Middlewares/ST/usbx/common/core/src/ux_device_stack_get_status.c ****                 *transfer_request -> ux_slave_transfer_request_data_pointer =  1;
 112              		.loc 1 136 16 view .LVU35
 113 0042 022B     		cmp	r3, #2
 114 0044 0CD0     		beq	.L13
 115              	.L6:
 141:./Middlewares/ST/usbx/common/core/src/ux_device_stack_get_status.c ****                 *transfer_request -> ux_slave_transfer_request_data_pointer |=  2;
 116              		.loc 1 141 13 is_stmt 1 view .LVU36
 141:./Middlewares/ST/usbx/common/core/src/ux_device_stack_get_status.c ****                 *transfer_request -> ux_slave_transfer_request_data_pointer |=  2;
 117              		.loc 1 141 34 is_stmt 0 view .LVU37
 118 0046 1A4B     		ldr	r3, .L15
 119 0048 1B68     		ldr	r3, [r3]
 120 004a D3F8A831 		ldr	r3, [r3, #424]
 141:./Middlewares/ST/usbx/common/core/src/ux_device_stack_get_status.c ****                 *transfer_request -> ux_slave_transfer_request_data_pointer |=  2;
 121              		.loc 1 141 16 view .LVU38
 122 004e 6BB3     		cbz	r3, .L10
 142:./Middlewares/ST/usbx/common/core/src/ux_device_stack_get_status.c ****         }
 123              		.loc 1 142 17 is_stmt 1 view .LVU39
 142:./Middlewares/ST/usbx/common/core/src/ux_device_stack_get_status.c ****         }
 124              		.loc 1 142 35 is_stmt 0 view .LVU40
 125 0050 D4F89820 		ldr	r2, [r4, #152]
 142:./Middlewares/ST/usbx/common/core/src/ux_device_stack_get_status.c ****         }
 126              		.loc 1 142 77 view .LVU41
 127 0054 1378     		ldrb	r3, [r2]	@ zero_extendqisi2
 128 0056 43F00203 		orr	r3, r3, #2
 129 005a 1370     		strb	r3, [r2]
 110:./Middlewares/ST/usbx/common/core/src/ux_device_stack_get_status.c ****     
 130              		.loc 1 110 17 view .LVU42
 131 005c 0225     		movs	r5, #2
 132 005e 0EE0     		b	.L5
 133              	.L13:
 137:./Middlewares/ST/usbx/common/core/src/ux_device_stack_get_status.c **** 
 134              		.loc 1 137 17 is_stmt 1 view .LVU43
 137:./Middlewares/ST/usbx/common/core/src/ux_device_stack_get_status.c **** 
 135              		.loc 1 137 35 is_stmt 0 view .LVU44
 136 0060 D4F89830 		ldr	r3, [r4, #152]
 137:./Middlewares/ST/usbx/common/core/src/ux_device_stack_get_status.c **** 
 137              		.loc 1 137 77 view .LVU45
 138 0064 0122     		movs	r2, #1
 139 0066 1A70     		strb	r2, [r3]
 140 0068 EDE7     		b	.L6
 141              	.LVL10:
 142              	.L3:
 153:./Middlewares/ST/usbx/common/core/src/ux_device_stack_get_status.c **** #else
ARM GAS  C:\Users\Dennis\AppData\Local\Temp\ccguhq1f.s 			page 7


 143              		.loc 1 153 9 is_stmt 1 view .LVU46
 153:./Middlewares/ST/usbx/common/core/src/ux_device_stack_get_status.c **** #else
 144              		.loc 1 153 23 is_stmt 0 view .LVU47
 145 006a A369     		ldr	r3, [r4, #24]
 153:./Middlewares/ST/usbx/common/core/src/ux_device_stack_get_status.c **** #else
 146              		.loc 1 153 19 view .LVU48
 147 006c 21F08002 		bic	r2, r1, #128
 148 0070 1521     		movs	r1, #21
 149              	.LVL11:
 153:./Middlewares/ST/usbx/common/core/src/ux_device_stack_get_status.c **** #else
 150              		.loc 1 153 19 view .LVU49
 151 0072 2046     		mov	r0, r4
 152              	.LVL12:
 153:./Middlewares/ST/usbx/common/core/src/ux_device_stack_get_status.c **** #else
 153              		.loc 1 153 19 view .LVU50
 154 0074 9847     		blx	r3
 155              	.LVL13:
 162:./Middlewares/ST/usbx/common/core/src/ux_device_stack_get_status.c ****         {
 156              		.loc 1 162 9 is_stmt 1 view .LVU51
 162:./Middlewares/ST/usbx/common/core/src/ux_device_stack_get_status.c ****         {
 157              		.loc 1 162 12 is_stmt 0 view .LVU52
 158 0076 FF28     		cmp	r0, #255
 159 0078 0FD0     		beq	.L7
 165:./Middlewares/ST/usbx/common/core/src/ux_device_stack_get_status.c ****                 *transfer_request -> ux_slave_transfer_request_data_pointer =  1;
 160              		.loc 1 165 13 is_stmt 1 view .LVU53
 165:./Middlewares/ST/usbx/common/core/src/ux_device_stack_get_status.c ****                 *transfer_request -> ux_slave_transfer_request_data_pointer =  1;
 161              		.loc 1 165 16 is_stmt 0 view .LVU54
 162 007a 0128     		cmp	r0, #1
 163 007c 08D0     		beq	.L14
 164              	.LVL14:
 165              	.L5:
 186:./Middlewares/ST/usbx/common/core/src/ux_device_stack_get_status.c ****     }
 187:./Middlewares/ST/usbx/common/core/src/ux_device_stack_get_status.c ****     
 188:./Middlewares/ST/usbx/common/core/src/ux_device_stack_get_status.c ****     /* Set the phase of the transfer to data out.  */
 189:./Middlewares/ST/usbx/common/core/src/ux_device_stack_get_status.c ****     transfer_request -> ux_slave_transfer_request_phase =  UX_TRANSFER_PHASE_DATA_OUT;
 166              		.loc 1 189 5 is_stmt 1 view .LVU55
 167              		.loc 1 189 57 is_stmt 0 view .LVU56
 168 007e 0323     		movs	r3, #3
 169 0080 C4F8B430 		str	r3, [r4, #180]
 190:./Middlewares/ST/usbx/common/core/src/ux_device_stack_get_status.c **** 
 191:./Middlewares/ST/usbx/common/core/src/ux_device_stack_get_status.c ****     /* Send the descriptor with the appropriate length to the host.  */
 192:./Middlewares/ST/usbx/common/core/src/ux_device_stack_get_status.c ****     status =  _ux_device_stack_transfer_request(transfer_request, data_length, data_length);
 170              		.loc 1 192 5 is_stmt 1 view .LVU57
 171              		.loc 1 192 15 is_stmt 0 view .LVU58
 172 0084 2A46     		mov	r2, r5
 173 0086 2946     		mov	r1, r5
 174 0088 3046     		mov	r0, r6
 175 008a FFF7FEFF 		bl	_ux_device_stack_transfer_request
 176              	.LVL15:
 193:./Middlewares/ST/usbx/common/core/src/ux_device_stack_get_status.c **** 
 194:./Middlewares/ST/usbx/common/core/src/ux_device_stack_get_status.c ****     /* Return the function status.  */
 195:./Middlewares/ST/usbx/common/core/src/ux_device_stack_get_status.c ****     return(status);
 177              		.loc 1 195 5 is_stmt 1 view .LVU59
 178              	.L1:
 196:./Middlewares/ST/usbx/common/core/src/ux_device_stack_get_status.c **** }
 179              		.loc 1 196 1 is_stmt 0 view .LVU60
 180 008e F8BD     		pop	{r3, r4, r5, r6, r7, pc}
ARM GAS  C:\Users\Dennis\AppData\Local\Temp\ccguhq1f.s 			page 8


 181              	.LVL16:
 182              	.L14:
 166:./Middlewares/ST/usbx/common/core/src/ux_device_stack_get_status.c ****         }                        
 183              		.loc 1 166 17 is_stmt 1 view .LVU61
 166:./Middlewares/ST/usbx/common/core/src/ux_device_stack_get_status.c ****         }                        
 184              		.loc 1 166 35 is_stmt 0 view .LVU62
 185 0090 D4F89830 		ldr	r3, [r4, #152]
 166:./Middlewares/ST/usbx/common/core/src/ux_device_stack_get_status.c ****         }                        
 186              		.loc 1 166 77 view .LVU63
 187 0094 0122     		movs	r2, #1
 188 0096 1A70     		strb	r2, [r3]
 189 0098 F1E7     		b	.L5
 190              	.L7:
 172:./Middlewares/ST/usbx/common/core/src/ux_device_stack_get_status.c ****     
 191              		.loc 1 172 13 is_stmt 1 view .LVU64
 172:./Middlewares/ST/usbx/common/core/src/ux_device_stack_get_status.c ****     
 192              		.loc 1 172 17 is_stmt 0 view .LVU65
 193 009a A369     		ldr	r3, [r4, #24]
 172:./Middlewares/ST/usbx/common/core/src/ux_device_stack_get_status.c ****     
 194              		.loc 1 172 13 view .LVU66
 195 009c 3A46     		mov	r2, r7
 196 009e 1421     		movs	r1, #20
 197 00a0 2046     		mov	r0, r4
 198              	.LVL17:
 172:./Middlewares/ST/usbx/common/core/src/ux_device_stack_get_status.c ****     
 199              		.loc 1 172 13 view .LVU67
 200 00a2 9847     		blx	r3
 201              	.LVL18:
 175:./Middlewares/ST/usbx/common/core/src/ux_device_stack_get_status.c ****         }
 202              		.loc 1 175 13 is_stmt 1 view .LVU68
 175:./Middlewares/ST/usbx/common/core/src/ux_device_stack_get_status.c ****         }
 203              		.loc 1 175 19 is_stmt 0 view .LVU69
 204 00a4 0020     		movs	r0, #0
 205 00a6 F2E7     		b	.L1
 206              	.LVL19:
 207              	.L9:
 124:./Middlewares/ST/usbx/common/core/src/ux_device_stack_get_status.c ****             
 208              		.loc 1 124 25 view .LVU70
 209 00a8 0125     		movs	r5, #1
 210 00aa E8E7     		b	.L5
 211              	.L10:
 110:./Middlewares/ST/usbx/common/core/src/ux_device_stack_get_status.c ****     
 212              		.loc 1 110 17 view .LVU71
 213 00ac 0225     		movs	r5, #2
 214 00ae E6E7     		b	.L5
 215              	.L16:
 216              		.align	2
 217              	.L15:
 218 00b0 00000000 		.word	_ux_system_slave
 219              		.cfi_endproc
 220              	.LFE11:
 222              		.text
 223              	.Letext0:
 224              		.file 2 "./Middlewares/ST/threadx/ports/cortex_m4/gnu/inc/tx_port.h"
 225              		.file 3 "./Middlewares/ST/threadx/common/inc/tx_api.h"
 226              		.file 4 "./Middlewares/ST/usbx/common/core/inc/ux_api.h"
 227              		.file 5 "./Middlewares/ST/usbx/common/core/inc/ux_system.h"
ARM GAS  C:\Users\Dennis\AppData\Local\Temp\ccguhq1f.s 			page 9


 228              		.file 6 "./Middlewares/ST/usbx/common/core/inc/ux_device_stack.h"
ARM GAS  C:\Users\Dennis\AppData\Local\Temp\ccguhq1f.s 			page 10

