ARM GAS  /tmp/ccVsB1Pc.s 			page 1


   1              		.cpu cortex-m4
   2              		.arch armv7e-m
   3              		.fpu fpv4-sp-d16
   4              		.eabi_attribute 27, 1
   5              		.eabi_attribute 28, 1
   6              		.eabi_attribute 20, 1
   7              		.eabi_attribute 21, 1
   8              		.eabi_attribute 23, 3
   9              		.eabi_attribute 24, 1
  10              		.eabi_attribute 25, 1
  11              		.eabi_attribute 26, 1
  12              		.eabi_attribute 30, 1
  13              		.eabi_attribute 34, 1
  14              		.eabi_attribute 18, 4
  15              		.file	"ux_device_class_dfu_activate.c"
  16              		.text
  17              	.Ltext0:
  18              		.cfi_sections	.debug_frame
  19              		.file 1 "./Middlewares/ST/usbx/common/usbx_device_classes/src/ux_device_class_dfu_activate.c"
  20              		.section	.text._ux_device_class_dfu_activate,"ax",%progbits
  21              		.align	1
  22              		.global	_ux_device_class_dfu_activate
  23              		.syntax unified
  24              		.thumb
  25              		.thumb_func
  27              	_ux_device_class_dfu_activate:
  28              	.LVL0:
  29              	.LFB11:
   1:./Middlewares/ST/usbx/common/usbx_device_classes/src/ux_device_class_dfu_activate.c **** /**************************************************************************/
   2:./Middlewares/ST/usbx/common/usbx_device_classes/src/ux_device_class_dfu_activate.c **** /*                                                                        */
   3:./Middlewares/ST/usbx/common/usbx_device_classes/src/ux_device_class_dfu_activate.c **** /*       Copyright (c) Microsoft Corporation. All rights reserved.        */
   4:./Middlewares/ST/usbx/common/usbx_device_classes/src/ux_device_class_dfu_activate.c **** /*                                                                        */
   5:./Middlewares/ST/usbx/common/usbx_device_classes/src/ux_device_class_dfu_activate.c **** /*       This software is licensed under the Microsoft Software License   */
   6:./Middlewares/ST/usbx/common/usbx_device_classes/src/ux_device_class_dfu_activate.c **** /*       Terms for Microsoft Azure RTOS. Full text of the license can be  */
   7:./Middlewares/ST/usbx/common/usbx_device_classes/src/ux_device_class_dfu_activate.c **** /*       found in the LICENSE file at https://aka.ms/AzureRTOS_EULA       */
   8:./Middlewares/ST/usbx/common/usbx_device_classes/src/ux_device_class_dfu_activate.c **** /*       and in the root directory of this software.                      */
   9:./Middlewares/ST/usbx/common/usbx_device_classes/src/ux_device_class_dfu_activate.c **** /*                                                                        */
  10:./Middlewares/ST/usbx/common/usbx_device_classes/src/ux_device_class_dfu_activate.c **** /**************************************************************************/
  11:./Middlewares/ST/usbx/common/usbx_device_classes/src/ux_device_class_dfu_activate.c **** 
  12:./Middlewares/ST/usbx/common/usbx_device_classes/src/ux_device_class_dfu_activate.c **** /**************************************************************************/
  13:./Middlewares/ST/usbx/common/usbx_device_classes/src/ux_device_class_dfu_activate.c **** /**                                                                       */ 
  14:./Middlewares/ST/usbx/common/usbx_device_classes/src/ux_device_class_dfu_activate.c **** /** USBX Component                                                        */ 
  15:./Middlewares/ST/usbx/common/usbx_device_classes/src/ux_device_class_dfu_activate.c **** /**                                                                       */
  16:./Middlewares/ST/usbx/common/usbx_device_classes/src/ux_device_class_dfu_activate.c **** /**   Device DFU Class                                                    */
  17:./Middlewares/ST/usbx/common/usbx_device_classes/src/ux_device_class_dfu_activate.c **** /**                                                                       */
  18:./Middlewares/ST/usbx/common/usbx_device_classes/src/ux_device_class_dfu_activate.c **** /**************************************************************************/
  19:./Middlewares/ST/usbx/common/usbx_device_classes/src/ux_device_class_dfu_activate.c **** /**************************************************************************/
  20:./Middlewares/ST/usbx/common/usbx_device_classes/src/ux_device_class_dfu_activate.c **** 
  21:./Middlewares/ST/usbx/common/usbx_device_classes/src/ux_device_class_dfu_activate.c **** #define UX_SOURCE_CODE
  22:./Middlewares/ST/usbx/common/usbx_device_classes/src/ux_device_class_dfu_activate.c **** 
  23:./Middlewares/ST/usbx/common/usbx_device_classes/src/ux_device_class_dfu_activate.c **** 
  24:./Middlewares/ST/usbx/common/usbx_device_classes/src/ux_device_class_dfu_activate.c **** /* Include necessary system files.  */
  25:./Middlewares/ST/usbx/common/usbx_device_classes/src/ux_device_class_dfu_activate.c **** 
  26:./Middlewares/ST/usbx/common/usbx_device_classes/src/ux_device_class_dfu_activate.c **** #include "ux_api.h"
  27:./Middlewares/ST/usbx/common/usbx_device_classes/src/ux_device_class_dfu_activate.c **** #include "ux_device_class_dfu.h"
  28:./Middlewares/ST/usbx/common/usbx_device_classes/src/ux_device_class_dfu_activate.c **** #include "ux_device_stack.h"
  29:./Middlewares/ST/usbx/common/usbx_device_classes/src/ux_device_class_dfu_activate.c **** 
ARM GAS  /tmp/ccVsB1Pc.s 			page 2


  30:./Middlewares/ST/usbx/common/usbx_device_classes/src/ux_device_class_dfu_activate.c **** 
  31:./Middlewares/ST/usbx/common/usbx_device_classes/src/ux_device_class_dfu_activate.c **** /**************************************************************************/ 
  32:./Middlewares/ST/usbx/common/usbx_device_classes/src/ux_device_class_dfu_activate.c **** /*                                                                        */ 
  33:./Middlewares/ST/usbx/common/usbx_device_classes/src/ux_device_class_dfu_activate.c **** /*  FUNCTION                                               RELEASE        */ 
  34:./Middlewares/ST/usbx/common/usbx_device_classes/src/ux_device_class_dfu_activate.c **** /*                                                                        */ 
  35:./Middlewares/ST/usbx/common/usbx_device_classes/src/ux_device_class_dfu_activate.c **** /*    _ux_device_class_dfu_activate                       PORTABLE C      */ 
  36:./Middlewares/ST/usbx/common/usbx_device_classes/src/ux_device_class_dfu_activate.c **** /*                                                           6.1.10       */
  37:./Middlewares/ST/usbx/common/usbx_device_classes/src/ux_device_class_dfu_activate.c **** /*  AUTHOR                                                                */
  38:./Middlewares/ST/usbx/common/usbx_device_classes/src/ux_device_class_dfu_activate.c **** /*                                                                        */
  39:./Middlewares/ST/usbx/common/usbx_device_classes/src/ux_device_class_dfu_activate.c **** /*    Chaoqiong Xiao, Microsoft Corporation                               */
  40:./Middlewares/ST/usbx/common/usbx_device_classes/src/ux_device_class_dfu_activate.c **** /*                                                                        */
  41:./Middlewares/ST/usbx/common/usbx_device_classes/src/ux_device_class_dfu_activate.c **** /*  DESCRIPTION                                                           */
  42:./Middlewares/ST/usbx/common/usbx_device_classes/src/ux_device_class_dfu_activate.c **** /*                                                                        */ 
  43:./Middlewares/ST/usbx/common/usbx_device_classes/src/ux_device_class_dfu_activate.c **** /*    This function initializes the USB DFU device.                       */ 
  44:./Middlewares/ST/usbx/common/usbx_device_classes/src/ux_device_class_dfu_activate.c **** /*    This class can be activated either as part of the device primary    */ 
  45:./Middlewares/ST/usbx/common/usbx_device_classes/src/ux_device_class_dfu_activate.c **** /*    framework or after a PORT_RESET detected.                           */ 
  46:./Middlewares/ST/usbx/common/usbx_device_classes/src/ux_device_class_dfu_activate.c **** /*    This is detected through the protocol field. If 1, we are in the    */ 
  47:./Middlewares/ST/usbx/common/usbx_device_classes/src/ux_device_class_dfu_activate.c **** /*    device regular mode. If 2, we are activated through the DFU         */ 
  48:./Middlewares/ST/usbx/common/usbx_device_classes/src/ux_device_class_dfu_activate.c **** /*    mode.                                                               */ 
  49:./Middlewares/ST/usbx/common/usbx_device_classes/src/ux_device_class_dfu_activate.c **** /*                                                                        */ 
  50:./Middlewares/ST/usbx/common/usbx_device_classes/src/ux_device_class_dfu_activate.c **** /*  INPUT                                                                 */ 
  51:./Middlewares/ST/usbx/common/usbx_device_classes/src/ux_device_class_dfu_activate.c **** /*                                                                        */ 
  52:./Middlewares/ST/usbx/common/usbx_device_classes/src/ux_device_class_dfu_activate.c **** /*    command                               Pointer to dfu command        */ 
  53:./Middlewares/ST/usbx/common/usbx_device_classes/src/ux_device_class_dfu_activate.c **** /*                                                                        */ 
  54:./Middlewares/ST/usbx/common/usbx_device_classes/src/ux_device_class_dfu_activate.c **** /*  OUTPUT                                                                */ 
  55:./Middlewares/ST/usbx/common/usbx_device_classes/src/ux_device_class_dfu_activate.c **** /*                                                                        */ 
  56:./Middlewares/ST/usbx/common/usbx_device_classes/src/ux_device_class_dfu_activate.c **** /*    Completion Status                                                   */ 
  57:./Middlewares/ST/usbx/common/usbx_device_classes/src/ux_device_class_dfu_activate.c **** /*                                                                        */ 
  58:./Middlewares/ST/usbx/common/usbx_device_classes/src/ux_device_class_dfu_activate.c **** /*  CALLS                                                                 */ 
  59:./Middlewares/ST/usbx/common/usbx_device_classes/src/ux_device_class_dfu_activate.c **** /*                                                                        */ 
  60:./Middlewares/ST/usbx/common/usbx_device_classes/src/ux_device_class_dfu_activate.c **** /*    _ux_utility_memory_allocate           Allocate memory               */ 
  61:./Middlewares/ST/usbx/common/usbx_device_classes/src/ux_device_class_dfu_activate.c **** /*                                                                        */ 
  62:./Middlewares/ST/usbx/common/usbx_device_classes/src/ux_device_class_dfu_activate.c **** /*  CALLED BY                                                             */ 
  63:./Middlewares/ST/usbx/common/usbx_device_classes/src/ux_device_class_dfu_activate.c **** /*                                                                        */ 
  64:./Middlewares/ST/usbx/common/usbx_device_classes/src/ux_device_class_dfu_activate.c **** /*    USBX Source Code                                                    */ 
  65:./Middlewares/ST/usbx/common/usbx_device_classes/src/ux_device_class_dfu_activate.c **** /*                                                                        */ 
  66:./Middlewares/ST/usbx/common/usbx_device_classes/src/ux_device_class_dfu_activate.c **** /*  RELEASE HISTORY                                                       */ 
  67:./Middlewares/ST/usbx/common/usbx_device_classes/src/ux_device_class_dfu_activate.c **** /*                                                                        */ 
  68:./Middlewares/ST/usbx/common/usbx_device_classes/src/ux_device_class_dfu_activate.c **** /*    DATE              NAME                      DESCRIPTION             */ 
  69:./Middlewares/ST/usbx/common/usbx_device_classes/src/ux_device_class_dfu_activate.c **** /*                                                                        */ 
  70:./Middlewares/ST/usbx/common/usbx_device_classes/src/ux_device_class_dfu_activate.c **** /*  05-19-2020     Chaoqiong Xiao           Initial Version 6.0           */
  71:./Middlewares/ST/usbx/common/usbx_device_classes/src/ux_device_class_dfu_activate.c **** /*  09-30-2020     Chaoqiong Xiao           Modified comment(s),          */
  72:./Middlewares/ST/usbx/common/usbx_device_classes/src/ux_device_class_dfu_activate.c **** /*                                            resulting in version 6.1    */
  73:./Middlewares/ST/usbx/common/usbx_device_classes/src/ux_device_class_dfu_activate.c **** /*  04-02-2021     Chaoqiong Xiao           Modified comment(s),          */
  74:./Middlewares/ST/usbx/common/usbx_device_classes/src/ux_device_class_dfu_activate.c **** /*                                            removed block count (it's   */
  75:./Middlewares/ST/usbx/common/usbx_device_classes/src/ux_device_class_dfu_activate.c **** /*                                            from host request wValue),  */
  76:./Middlewares/ST/usbx/common/usbx_device_classes/src/ux_device_class_dfu_activate.c **** /*                                            resulting in version 6.1.6  */
  77:./Middlewares/ST/usbx/common/usbx_device_classes/src/ux_device_class_dfu_activate.c **** /*  01-31-2022     Chaoqiong Xiao           Modified comment(s),          */
  78:./Middlewares/ST/usbx/common/usbx_device_classes/src/ux_device_class_dfu_activate.c **** /*                                            resulting in version 6.1.10 */
  79:./Middlewares/ST/usbx/common/usbx_device_classes/src/ux_device_class_dfu_activate.c **** /*                                                                        */
  80:./Middlewares/ST/usbx/common/usbx_device_classes/src/ux_device_class_dfu_activate.c **** /**************************************************************************/
  81:./Middlewares/ST/usbx/common/usbx_device_classes/src/ux_device_class_dfu_activate.c **** UINT  _ux_device_class_dfu_activate(UX_SLAVE_CLASS_COMMAND *command)
  82:./Middlewares/ST/usbx/common/usbx_device_classes/src/ux_device_class_dfu_activate.c **** {
  30              		.loc 1 82 1 view -0
  31              		.cfi_startproc
  32              		@ args = 0, pretend = 0, frame = 0
  33              		@ frame_needed = 0, uses_anonymous_args = 0
ARM GAS  /tmp/ccVsB1Pc.s 			page 3


  34              		.loc 1 82 1 is_stmt 0 view .LVU1
  35 0000 08B5     		push	{r3, lr}
  36              	.LCFI0:
  37              		.cfi_def_cfa_offset 8
  38              		.cfi_offset 3, -8
  39              		.cfi_offset 14, -4
  40 0002 0346     		mov	r3, r0
  83:./Middlewares/ST/usbx/common/usbx_device_classes/src/ux_device_class_dfu_activate.c ****                                           
  84:./Middlewares/ST/usbx/common/usbx_device_classes/src/ux_device_class_dfu_activate.c **** UX_SLAVE_INTERFACE                      *interface;         
  41              		.loc 1 84 1 is_stmt 1 view .LVU2
  85:./Middlewares/ST/usbx/common/usbx_device_classes/src/ux_device_class_dfu_activate.c **** UX_SLAVE_CLASS_DFU                      *dfu;
  42              		.loc 1 85 1 view .LVU3
  86:./Middlewares/ST/usbx/common/usbx_device_classes/src/ux_device_class_dfu_activate.c **** UX_SLAVE_CLASS                          *class;
  43              		.loc 1 86 1 view .LVU4
  87:./Middlewares/ST/usbx/common/usbx_device_classes/src/ux_device_class_dfu_activate.c **** 
  88:./Middlewares/ST/usbx/common/usbx_device_classes/src/ux_device_class_dfu_activate.c ****     /* Get the class container.  */
  89:./Middlewares/ST/usbx/common/usbx_device_classes/src/ux_device_class_dfu_activate.c ****     class =  command -> ux_slave_class_command_class_ptr;
  44              		.loc 1 89 5 view .LVU5
  45              		.loc 1 89 11 is_stmt 0 view .LVU6
  46 0004 026A     		ldr	r2, [r0, #32]
  47              	.LVL1:
  90:./Middlewares/ST/usbx/common/usbx_device_classes/src/ux_device_class_dfu_activate.c **** 
  91:./Middlewares/ST/usbx/common/usbx_device_classes/src/ux_device_class_dfu_activate.c ****     /* Get the class instance in the container.  */
  92:./Middlewares/ST/usbx/common/usbx_device_classes/src/ux_device_class_dfu_activate.c ****     dfu = (UX_SLAVE_CLASS_DFU *) class -> ux_slave_class_instance;
  48              		.loc 1 92 5 is_stmt 1 view .LVU7
  49              		.loc 1 92 9 is_stmt 0 view .LVU8
  50 0006 906C     		ldr	r0, [r2, #72]
  51              	.LVL2:
  93:./Middlewares/ST/usbx/common/usbx_device_classes/src/ux_device_class_dfu_activate.c **** 
  94:./Middlewares/ST/usbx/common/usbx_device_classes/src/ux_device_class_dfu_activate.c ****     /* Get the interface that owns this instance.  */
  95:./Middlewares/ST/usbx/common/usbx_device_classes/src/ux_device_class_dfu_activate.c ****     interface =  (UX_SLAVE_INTERFACE  *) command -> ux_slave_class_command_interface;
  52              		.loc 1 95 5 is_stmt 1 view .LVU9
  53              		.loc 1 95 15 is_stmt 0 view .LVU10
  54 0008 9A68     		ldr	r2, [r3, #8]
  55              	.LVL3:
  96:./Middlewares/ST/usbx/common/usbx_device_classes/src/ux_device_class_dfu_activate.c ****     
  97:./Middlewares/ST/usbx/common/usbx_device_classes/src/ux_device_class_dfu_activate.c ****     /* Store the class instance into the interface.  */
  98:./Middlewares/ST/usbx/common/usbx_device_classes/src/ux_device_class_dfu_activate.c ****     interface -> ux_slave_interface_class_instance =  (VOID *)dfu;
  56              		.loc 1 98 5 is_stmt 1 view .LVU11
  57              		.loc 1 98 52 is_stmt 0 view .LVU12
  58 000a 9060     		str	r0, [r2, #8]
  59              	.LVL4:
  99:./Middlewares/ST/usbx/common/usbx_device_classes/src/ux_device_class_dfu_activate.c ****          
 100:./Middlewares/ST/usbx/common/usbx_device_classes/src/ux_device_class_dfu_activate.c ****     /* Now the opposite, store the interface in the class instance.  */
 101:./Middlewares/ST/usbx/common/usbx_device_classes/src/ux_device_class_dfu_activate.c ****     dfu -> ux_slave_class_dfu_interface =  interface;
  60              		.loc 1 101 5 is_stmt 1 view .LVU13
  61              		.loc 1 101 41 is_stmt 0 view .LVU14
  62 000c 0260     		str	r2, [r0]
 102:./Middlewares/ST/usbx/common/usbx_device_classes/src/ux_device_class_dfu_activate.c **** 
 103:./Middlewares/ST/usbx/common/usbx_device_classes/src/ux_device_class_dfu_activate.c ****     /* Check the protocol activation field to determine in which state of the DFU class
 104:./Middlewares/ST/usbx/common/usbx_device_classes/src/ux_device_class_dfu_activate.c ****        we are.  */
 105:./Middlewares/ST/usbx/common/usbx_device_classes/src/ux_device_class_dfu_activate.c ****     switch (command -> ux_slave_class_command_protocol)
  63              		.loc 1 105 5 is_stmt 1 view .LVU15
  64              		.loc 1 105 21 is_stmt 0 view .LVU16
  65 000e DB69     		ldr	r3, [r3, #28]
  66              	.LVL5:
  67              		.loc 1 105 5 view .LVU17
ARM GAS  /tmp/ccVsB1Pc.s 			page 4


  68 0010 012B     		cmp	r3, #1
  69 0012 03D0     		beq	.L2
  70 0014 022B     		cmp	r3, #2
  71 0016 0ED0     		beq	.L3
  72 0018 FF20     		movs	r0, #255
  73              	.LVL6:
  74              		.loc 1 105 5 view .LVU18
  75 001a 0BE0     		b	.L1
  76              	.LVL7:
  77              	.L2:
 106:./Middlewares/ST/usbx/common/usbx_device_classes/src/ux_device_class_dfu_activate.c ****     {
 107:./Middlewares/ST/usbx/common/usbx_device_classes/src/ux_device_class_dfu_activate.c ****     
 108:./Middlewares/ST/usbx/common/usbx_device_classes/src/ux_device_class_dfu_activate.c ****         case UX_SLAVE_CLASS_DFU_PROTOCOL_RUNTIME    :
 109:./Middlewares/ST/usbx/common/usbx_device_classes/src/ux_device_class_dfu_activate.c ****         
 110:./Middlewares/ST/usbx/common/usbx_device_classes/src/ux_device_class_dfu_activate.c ****             /* In the system, state the DFU state machine to application idle.  */
 111:./Middlewares/ST/usbx/common/usbx_device_classes/src/ux_device_class_dfu_activate.c ****             _ux_system_slave -> ux_system_slave_device_dfu_state_machine = UX_SYSTEM_DFU_STATE_APP_
  78              		.loc 1 111 13 is_stmt 1 view .LVU19
  79              		.loc 1 111 30 is_stmt 0 view .LVU20
  80 001c 0B4B     		ldr	r3, .L8
  81 001e 1B68     		ldr	r3, [r3]
  82              		.loc 1 111 74 view .LVU21
  83 0020 0022     		movs	r2, #0
  84              	.LVL8:
  85              		.loc 1 111 74 view .LVU22
  86 0022 C3F8B821 		str	r2, [r3, #440]
  87              	.LVL9:
 112:./Middlewares/ST/usbx/common/usbx_device_classes/src/ux_device_class_dfu_activate.c **** 
 113:./Middlewares/ST/usbx/common/usbx_device_classes/src/ux_device_class_dfu_activate.c ****             /* Set the mode to Runtime.  */
 114:./Middlewares/ST/usbx/common/usbx_device_classes/src/ux_device_class_dfu_activate.c ****             _ux_system_slave -> ux_system_slave_device_dfu_mode =  UX_DEVICE_CLASS_DFU_MODE_RUNTIME
  88              		.loc 1 114 13 is_stmt 1 view .LVU23
  89              		.loc 1 114 65 is_stmt 0 view .LVU24
  90 0026 0122     		movs	r2, #1
  91 0028 C3F8BC21 		str	r2, [r3, #444]
 115:./Middlewares/ST/usbx/common/usbx_device_classes/src/ux_device_class_dfu_activate.c **** 
 116:./Middlewares/ST/usbx/common/usbx_device_classes/src/ux_device_class_dfu_activate.c ****             break;
  92              		.loc 1 116 13 is_stmt 1 view .LVU25
  93              	.L5:
 117:./Middlewares/ST/usbx/common/usbx_device_classes/src/ux_device_class_dfu_activate.c **** 
 118:./Middlewares/ST/usbx/common/usbx_device_classes/src/ux_device_class_dfu_activate.c **** 
 119:./Middlewares/ST/usbx/common/usbx_device_classes/src/ux_device_class_dfu_activate.c ****         case UX_SLAVE_CLASS_DFU_PROTOCOL_DFU_MODE    :
 120:./Middlewares/ST/usbx/common/usbx_device_classes/src/ux_device_class_dfu_activate.c ****         
 121:./Middlewares/ST/usbx/common/usbx_device_classes/src/ux_device_class_dfu_activate.c ****             /* In the system, state the DFU state machine to DFU idle.  */
 122:./Middlewares/ST/usbx/common/usbx_device_classes/src/ux_device_class_dfu_activate.c ****             _ux_system_slave -> ux_system_slave_device_dfu_state_machine = UX_SYSTEM_DFU_STATE_DFU_
 123:./Middlewares/ST/usbx/common/usbx_device_classes/src/ux_device_class_dfu_activate.c **** 
 124:./Middlewares/ST/usbx/common/usbx_device_classes/src/ux_device_class_dfu_activate.c ****             /* Set the mode to DFU mode.  */
 125:./Middlewares/ST/usbx/common/usbx_device_classes/src/ux_device_class_dfu_activate.c ****             _ux_system_slave -> ux_system_slave_device_dfu_mode =  UX_DEVICE_CLASS_DFU_MODE_DFU ;
 126:./Middlewares/ST/usbx/common/usbx_device_classes/src/ux_device_class_dfu_activate.c **** 
 127:./Middlewares/ST/usbx/common/usbx_device_classes/src/ux_device_class_dfu_activate.c ****             break;       
 128:./Middlewares/ST/usbx/common/usbx_device_classes/src/ux_device_class_dfu_activate.c **** 
 129:./Middlewares/ST/usbx/common/usbx_device_classes/src/ux_device_class_dfu_activate.c ****         default :
 130:./Middlewares/ST/usbx/common/usbx_device_classes/src/ux_device_class_dfu_activate.c ****         
 131:./Middlewares/ST/usbx/common/usbx_device_classes/src/ux_device_class_dfu_activate.c ****             /* We should never get here.  */
 132:./Middlewares/ST/usbx/common/usbx_device_classes/src/ux_device_class_dfu_activate.c ****             return(UX_ERROR);
 133:./Middlewares/ST/usbx/common/usbx_device_classes/src/ux_device_class_dfu_activate.c ****             
 134:./Middlewares/ST/usbx/common/usbx_device_classes/src/ux_device_class_dfu_activate.c ****     }
 135:./Middlewares/ST/usbx/common/usbx_device_classes/src/ux_device_class_dfu_activate.c ****     
 136:./Middlewares/ST/usbx/common/usbx_device_classes/src/ux_device_class_dfu_activate.c ****     
ARM GAS  /tmp/ccVsB1Pc.s 			page 5


 137:./Middlewares/ST/usbx/common/usbx_device_classes/src/ux_device_class_dfu_activate.c ****     /* If there is a activate function call it.  */
 138:./Middlewares/ST/usbx/common/usbx_device_classes/src/ux_device_class_dfu_activate.c ****     if (dfu -> ux_slave_class_dfu_instance_activate != UX_NULL)
  94              		.loc 1 138 5 view .LVU26
  95              		.loc 1 138 13 is_stmt 0 view .LVU27
  96 002c 8368     		ldr	r3, [r0, #8]
  97              		.loc 1 138 8 view .LVU28
  98 002e 53B1     		cbz	r3, .L6
 139:./Middlewares/ST/usbx/common/usbx_device_classes/src/ux_device_class_dfu_activate.c ****     {        
 140:./Middlewares/ST/usbx/common/usbx_device_classes/src/ux_device_class_dfu_activate.c ****         /* Invoke the application.  */
 141:./Middlewares/ST/usbx/common/usbx_device_classes/src/ux_device_class_dfu_activate.c ****         dfu -> ux_slave_class_dfu_instance_activate(dfu);
  99              		.loc 1 141 9 is_stmt 1 view .LVU29
 100 0030 9847     		blx	r3
 101              	.LVL10:
 142:./Middlewares/ST/usbx/common/usbx_device_classes/src/ux_device_class_dfu_activate.c ****     }
 143:./Middlewares/ST/usbx/common/usbx_device_classes/src/ux_device_class_dfu_activate.c **** 
 144:./Middlewares/ST/usbx/common/usbx_device_classes/src/ux_device_class_dfu_activate.c ****     /* If trace is enabled, insert this event into the trace buffer.  */
 145:./Middlewares/ST/usbx/common/usbx_device_classes/src/ux_device_class_dfu_activate.c ****     UX_TRACE_IN_LINE_INSERT(UX_TRACE_DEVICE_CLASS_DFU_ACTIVATE, dfu, 0, 0, 0, UX_TRACE_DEVICE_CLASS
 146:./Middlewares/ST/usbx/common/usbx_device_classes/src/ux_device_class_dfu_activate.c **** 
 147:./Middlewares/ST/usbx/common/usbx_device_classes/src/ux_device_class_dfu_activate.c ****     /* If trace is enabled, register this object.  */
 148:./Middlewares/ST/usbx/common/usbx_device_classes/src/ux_device_class_dfu_activate.c ****     UX_TRACE_OBJECT_REGISTER(UX_TRACE_DEVICE_OBJECT_TYPE_INTERFACE, dfu, 0, 0, 0)
 149:./Middlewares/ST/usbx/common/usbx_device_classes/src/ux_device_class_dfu_activate.c **** 
 150:./Middlewares/ST/usbx/common/usbx_device_classes/src/ux_device_class_dfu_activate.c ****     /* Return completion status.  */
 151:./Middlewares/ST/usbx/common/usbx_device_classes/src/ux_device_class_dfu_activate.c ****     return(UX_SUCCESS);
 102              		.loc 1 151 11 is_stmt 0 view .LVU30
 103 0032 0020     		movs	r0, #0
 104              	.L1:
 152:./Middlewares/ST/usbx/common/usbx_device_classes/src/ux_device_class_dfu_activate.c **** }
 105              		.loc 1 152 1 view .LVU31
 106 0034 08BD     		pop	{r3, pc}
 107              	.LVL11:
 108              	.L3:
 122:./Middlewares/ST/usbx/common/usbx_device_classes/src/ux_device_class_dfu_activate.c **** 
 109              		.loc 1 122 13 is_stmt 1 view .LVU32
 122:./Middlewares/ST/usbx/common/usbx_device_classes/src/ux_device_class_dfu_activate.c **** 
 110              		.loc 1 122 30 is_stmt 0 view .LVU33
 111 0036 054B     		ldr	r3, .L8
 112 0038 1B68     		ldr	r3, [r3]
 122:./Middlewares/ST/usbx/common/usbx_device_classes/src/ux_device_class_dfu_activate.c **** 
 113              		.loc 1 122 74 view .LVU34
 114 003a 0222     		movs	r2, #2
 115              	.LVL12:
 122:./Middlewares/ST/usbx/common/usbx_device_classes/src/ux_device_class_dfu_activate.c **** 
 116              		.loc 1 122 74 view .LVU35
 117 003c C3F8B821 		str	r2, [r3, #440]
 118              	.LVL13:
 125:./Middlewares/ST/usbx/common/usbx_device_classes/src/ux_device_class_dfu_activate.c **** 
 119              		.loc 1 125 13 is_stmt 1 view .LVU36
 125:./Middlewares/ST/usbx/common/usbx_device_classes/src/ux_device_class_dfu_activate.c **** 
 120              		.loc 1 125 65 is_stmt 0 view .LVU37
 121 0040 C3F8BC21 		str	r2, [r3, #444]
 127:./Middlewares/ST/usbx/common/usbx_device_classes/src/ux_device_class_dfu_activate.c **** 
 122              		.loc 1 127 13 is_stmt 1 view .LVU38
 123 0044 F2E7     		b	.L5
 124              	.L6:
 151:./Middlewares/ST/usbx/common/usbx_device_classes/src/ux_device_class_dfu_activate.c **** }
 125              		.loc 1 151 11 is_stmt 0 view .LVU39
 126 0046 0020     		movs	r0, #0
ARM GAS  /tmp/ccVsB1Pc.s 			page 6


 127              	.LVL14:
 151:./Middlewares/ST/usbx/common/usbx_device_classes/src/ux_device_class_dfu_activate.c **** }
 128              		.loc 1 151 11 view .LVU40
 129 0048 F4E7     		b	.L1
 130              	.L9:
 131 004a 00BF     		.align	2
 132              	.L8:
 133 004c 00000000 		.word	_ux_system_slave
 134              		.cfi_endproc
 135              	.LFE11:
 137              		.text
 138              	.Letext0:
 139              		.file 2 "./Middlewares/ST/threadx/ports/cortex_m4/gnu/inc/tx_port.h"
 140              		.file 3 "./Middlewares/ST/threadx/common/inc/tx_api.h"
 141              		.file 4 "./Middlewares/ST/usbx/common/core/inc/ux_api.h"
 142              		.file 5 "./Middlewares/ST/usbx/common/usbx_device_classes/inc/ux_device_class_dfu.h"
 143              		.file 6 "./Middlewares/ST/usbx/common/core/inc/ux_system.h"
ARM GAS  /tmp/ccVsB1Pc.s 			page 7


DEFINED SYMBOLS
                            *ABS*:00000000 ux_device_class_dfu_activate.c
     /tmp/ccVsB1Pc.s:21     .text._ux_device_class_dfu_activate:00000000 $t
     /tmp/ccVsB1Pc.s:27     .text._ux_device_class_dfu_activate:00000000 _ux_device_class_dfu_activate
     /tmp/ccVsB1Pc.s:133    .text._ux_device_class_dfu_activate:0000004c $d

UNDEFINED SYMBOLS
_ux_system_slave
