ARM GAS  C:\Users\Dennis\AppData\Local\Temp\ccsZP7bb.s 			page 1


   1              		.cpu cortex-m4
   2              		.arch armv7e-m
   3              		.fpu fpv4-sp-d16
   4              		.eabi_attribute 27, 1
   5              		.eabi_attribute 28, 1
   6              		.eabi_attribute 20, 1
   7              		.eabi_attribute 21, 1
   8              		.eabi_attribute 23, 3
   9              		.eabi_attribute 24, 1
  10              		.eabi_attribute 25, 1
  11              		.eabi_attribute 26, 1
  12              		.eabi_attribute 30, 1
  13              		.eabi_attribute 34, 1
  14              		.eabi_attribute 18, 4
  15              		.file	"ux_dcd_stm32_endpoint_status.c"
  16              		.text
  17              	.Ltext0:
  18              		.cfi_sections	.debug_frame
  19              		.section	.text._ux_dcd_stm32_endpoint_status,"ax",%progbits
  20              		.align	1
  21              		.global	_ux_dcd_stm32_endpoint_status
  22              		.syntax unified
  23              		.thumb
  24              		.thumb_func
  26              	_ux_dcd_stm32_endpoint_status:
  27              	.LVL0:
  28              	.LFB251:
  29              		.file 1 "./Middlewares/ST/usbx/common/usbx_stm32_device_controllers/ux_dcd_stm32_endpoint_status.c
   1:./Middlewares/ST/usbx/common/usbx_stm32_device_controllers/ux_dcd_stm32_endpoint_status.c **** /**************************************************************************/
   2:./Middlewares/ST/usbx/common/usbx_stm32_device_controllers/ux_dcd_stm32_endpoint_status.c **** /*                                                                        */
   3:./Middlewares/ST/usbx/common/usbx_stm32_device_controllers/ux_dcd_stm32_endpoint_status.c **** /*       Copyright (c) Microsoft Corporation. All rights reserved.        */
   4:./Middlewares/ST/usbx/common/usbx_stm32_device_controllers/ux_dcd_stm32_endpoint_status.c **** /*                                                                        */
   5:./Middlewares/ST/usbx/common/usbx_stm32_device_controllers/ux_dcd_stm32_endpoint_status.c **** /*       This software is licensed under the Microsoft Software License   */
   6:./Middlewares/ST/usbx/common/usbx_stm32_device_controllers/ux_dcd_stm32_endpoint_status.c **** /*       Terms for Microsoft Azure RTOS. Full text of the license can be  */
   7:./Middlewares/ST/usbx/common/usbx_stm32_device_controllers/ux_dcd_stm32_endpoint_status.c **** /*       found in the LICENSE file at https://aka.ms/AzureRTOS_EULA       */
   8:./Middlewares/ST/usbx/common/usbx_stm32_device_controllers/ux_dcd_stm32_endpoint_status.c **** /*       and in the root directory of this software.                      */
   9:./Middlewares/ST/usbx/common/usbx_stm32_device_controllers/ux_dcd_stm32_endpoint_status.c **** /*                                                                        */
  10:./Middlewares/ST/usbx/common/usbx_stm32_device_controllers/ux_dcd_stm32_endpoint_status.c **** /**************************************************************************/
  11:./Middlewares/ST/usbx/common/usbx_stm32_device_controllers/ux_dcd_stm32_endpoint_status.c **** 
  12:./Middlewares/ST/usbx/common/usbx_stm32_device_controllers/ux_dcd_stm32_endpoint_status.c **** 
  13:./Middlewares/ST/usbx/common/usbx_stm32_device_controllers/ux_dcd_stm32_endpoint_status.c **** /**************************************************************************/
  14:./Middlewares/ST/usbx/common/usbx_stm32_device_controllers/ux_dcd_stm32_endpoint_status.c **** /**************************************************************************/
  15:./Middlewares/ST/usbx/common/usbx_stm32_device_controllers/ux_dcd_stm32_endpoint_status.c **** /**                                                                       */
  16:./Middlewares/ST/usbx/common/usbx_stm32_device_controllers/ux_dcd_stm32_endpoint_status.c **** /** USBX Component                                                        */
  17:./Middlewares/ST/usbx/common/usbx_stm32_device_controllers/ux_dcd_stm32_endpoint_status.c **** /**                                                                       */
  18:./Middlewares/ST/usbx/common/usbx_stm32_device_controllers/ux_dcd_stm32_endpoint_status.c **** /**   STM32 Controller Driver                                             */
  19:./Middlewares/ST/usbx/common/usbx_stm32_device_controllers/ux_dcd_stm32_endpoint_status.c **** /**                                                                       */
  20:./Middlewares/ST/usbx/common/usbx_stm32_device_controllers/ux_dcd_stm32_endpoint_status.c **** /**************************************************************************/
  21:./Middlewares/ST/usbx/common/usbx_stm32_device_controllers/ux_dcd_stm32_endpoint_status.c **** /**************************************************************************/
  22:./Middlewares/ST/usbx/common/usbx_stm32_device_controllers/ux_dcd_stm32_endpoint_status.c **** 
  23:./Middlewares/ST/usbx/common/usbx_stm32_device_controllers/ux_dcd_stm32_endpoint_status.c **** #define UX_SOURCE_CODE
  24:./Middlewares/ST/usbx/common/usbx_stm32_device_controllers/ux_dcd_stm32_endpoint_status.c **** #define UX_DCD_STM32_SOURCE_CODE
  25:./Middlewares/ST/usbx/common/usbx_stm32_device_controllers/ux_dcd_stm32_endpoint_status.c **** 
  26:./Middlewares/ST/usbx/common/usbx_stm32_device_controllers/ux_dcd_stm32_endpoint_status.c **** 
  27:./Middlewares/ST/usbx/common/usbx_stm32_device_controllers/ux_dcd_stm32_endpoint_status.c **** /* Include necessary system files.  */
  28:./Middlewares/ST/usbx/common/usbx_stm32_device_controllers/ux_dcd_stm32_endpoint_status.c **** 
  29:./Middlewares/ST/usbx/common/usbx_stm32_device_controllers/ux_dcd_stm32_endpoint_status.c **** #include "ux_api.h"
ARM GAS  C:\Users\Dennis\AppData\Local\Temp\ccsZP7bb.s 			page 2


  30:./Middlewares/ST/usbx/common/usbx_stm32_device_controllers/ux_dcd_stm32_endpoint_status.c **** #include "ux_dcd_stm32.h"
  31:./Middlewares/ST/usbx/common/usbx_stm32_device_controllers/ux_dcd_stm32_endpoint_status.c **** #include "ux_device_stack.h"
  32:./Middlewares/ST/usbx/common/usbx_stm32_device_controllers/ux_dcd_stm32_endpoint_status.c **** 
  33:./Middlewares/ST/usbx/common/usbx_stm32_device_controllers/ux_dcd_stm32_endpoint_status.c **** 
  34:./Middlewares/ST/usbx/common/usbx_stm32_device_controllers/ux_dcd_stm32_endpoint_status.c **** /**************************************************************************/
  35:./Middlewares/ST/usbx/common/usbx_stm32_device_controllers/ux_dcd_stm32_endpoint_status.c **** /*                                                                        */
  36:./Middlewares/ST/usbx/common/usbx_stm32_device_controllers/ux_dcd_stm32_endpoint_status.c **** /*  FUNCTION                                               RELEASE        */
  37:./Middlewares/ST/usbx/common/usbx_stm32_device_controllers/ux_dcd_stm32_endpoint_status.c **** /*                                                                        */
  38:./Middlewares/ST/usbx/common/usbx_stm32_device_controllers/ux_dcd_stm32_endpoint_status.c **** /*    _ux_dcd_stm32_endpoint_status                       PORTABLE C      */
  39:./Middlewares/ST/usbx/common/usbx_stm32_device_controllers/ux_dcd_stm32_endpoint_status.c **** /*                                                           6.1.10       */
  40:./Middlewares/ST/usbx/common/usbx_stm32_device_controllers/ux_dcd_stm32_endpoint_status.c **** /*  AUTHOR                                                                */
  41:./Middlewares/ST/usbx/common/usbx_stm32_device_controllers/ux_dcd_stm32_endpoint_status.c **** /*                                                                        */
  42:./Middlewares/ST/usbx/common/usbx_stm32_device_controllers/ux_dcd_stm32_endpoint_status.c **** /*    Chaoqiong Xiao, Microsoft Corporation                               */
  43:./Middlewares/ST/usbx/common/usbx_stm32_device_controllers/ux_dcd_stm32_endpoint_status.c **** /*                                                                        */
  44:./Middlewares/ST/usbx/common/usbx_stm32_device_controllers/ux_dcd_stm32_endpoint_status.c **** /*  DESCRIPTION                                                           */
  45:./Middlewares/ST/usbx/common/usbx_stm32_device_controllers/ux_dcd_stm32_endpoint_status.c **** /*                                                                        */
  46:./Middlewares/ST/usbx/common/usbx_stm32_device_controllers/ux_dcd_stm32_endpoint_status.c **** /*    This function will retrieve the status of the endpoint.             */
  47:./Middlewares/ST/usbx/common/usbx_stm32_device_controllers/ux_dcd_stm32_endpoint_status.c **** /*                                                                        */
  48:./Middlewares/ST/usbx/common/usbx_stm32_device_controllers/ux_dcd_stm32_endpoint_status.c **** /*  INPUT                                                                 */
  49:./Middlewares/ST/usbx/common/usbx_stm32_device_controllers/ux_dcd_stm32_endpoint_status.c **** /*                                                                        */
  50:./Middlewares/ST/usbx/common/usbx_stm32_device_controllers/ux_dcd_stm32_endpoint_status.c **** /*    dcd_stm32                             Pointer to device controller  */
  51:./Middlewares/ST/usbx/common/usbx_stm32_device_controllers/ux_dcd_stm32_endpoint_status.c **** /*    endpoint_index                        Endpoint index                */
  52:./Middlewares/ST/usbx/common/usbx_stm32_device_controllers/ux_dcd_stm32_endpoint_status.c **** /*                                                                        */
  53:./Middlewares/ST/usbx/common/usbx_stm32_device_controllers/ux_dcd_stm32_endpoint_status.c **** /*  OUTPUT                                                                */
  54:./Middlewares/ST/usbx/common/usbx_stm32_device_controllers/ux_dcd_stm32_endpoint_status.c **** /*                                                                        */
  55:./Middlewares/ST/usbx/common/usbx_stm32_device_controllers/ux_dcd_stm32_endpoint_status.c **** /*    Completion Status                                                   */
  56:./Middlewares/ST/usbx/common/usbx_stm32_device_controllers/ux_dcd_stm32_endpoint_status.c **** /*                                                                        */
  57:./Middlewares/ST/usbx/common/usbx_stm32_device_controllers/ux_dcd_stm32_endpoint_status.c **** /*  CALLS                                                                 */
  58:./Middlewares/ST/usbx/common/usbx_stm32_device_controllers/ux_dcd_stm32_endpoint_status.c **** /*                                                                        */
  59:./Middlewares/ST/usbx/common/usbx_stm32_device_controllers/ux_dcd_stm32_endpoint_status.c **** /*    None                                                                */
  60:./Middlewares/ST/usbx/common/usbx_stm32_device_controllers/ux_dcd_stm32_endpoint_status.c **** /*                                                                        */
  61:./Middlewares/ST/usbx/common/usbx_stm32_device_controllers/ux_dcd_stm32_endpoint_status.c **** /*  CALLED BY                                                             */
  62:./Middlewares/ST/usbx/common/usbx_stm32_device_controllers/ux_dcd_stm32_endpoint_status.c **** /*                                                                        */
  63:./Middlewares/ST/usbx/common/usbx_stm32_device_controllers/ux_dcd_stm32_endpoint_status.c **** /*    STM32 Controller Driver                                             */
  64:./Middlewares/ST/usbx/common/usbx_stm32_device_controllers/ux_dcd_stm32_endpoint_status.c **** /*                                                                        */
  65:./Middlewares/ST/usbx/common/usbx_stm32_device_controllers/ux_dcd_stm32_endpoint_status.c **** /*  RELEASE HISTORY                                                       */
  66:./Middlewares/ST/usbx/common/usbx_stm32_device_controllers/ux_dcd_stm32_endpoint_status.c **** /*                                                                        */
  67:./Middlewares/ST/usbx/common/usbx_stm32_device_controllers/ux_dcd_stm32_endpoint_status.c **** /*    DATE              NAME                      DESCRIPTION             */
  68:./Middlewares/ST/usbx/common/usbx_stm32_device_controllers/ux_dcd_stm32_endpoint_status.c **** /*                                                                        */
  69:./Middlewares/ST/usbx/common/usbx_stm32_device_controllers/ux_dcd_stm32_endpoint_status.c **** /*  05-19-2020     Chaoqiong Xiao           Initial Version 6.0           */
  70:./Middlewares/ST/usbx/common/usbx_stm32_device_controllers/ux_dcd_stm32_endpoint_status.c **** /*  09-30-2020     Chaoqiong Xiao           Modified comment(s), used ST  */
  71:./Middlewares/ST/usbx/common/usbx_stm32_device_controllers/ux_dcd_stm32_endpoint_status.c **** /*                                            HAL library to drive the    */
  72:./Middlewares/ST/usbx/common/usbx_stm32_device_controllers/ux_dcd_stm32_endpoint_status.c **** /*                                            controller,                 */
  73:./Middlewares/ST/usbx/common/usbx_stm32_device_controllers/ux_dcd_stm32_endpoint_status.c **** /*                                            resulting in version 6.1    */
  74:./Middlewares/ST/usbx/common/usbx_stm32_device_controllers/ux_dcd_stm32_endpoint_status.c **** /*  01-31-2022     Chaoqiong Xiao           Modified comment(s),          */
  75:./Middlewares/ST/usbx/common/usbx_stm32_device_controllers/ux_dcd_stm32_endpoint_status.c **** /*                                            added bi-dir EP support,    */
  76:./Middlewares/ST/usbx/common/usbx_stm32_device_controllers/ux_dcd_stm32_endpoint_status.c **** /*                                            resulting in version 6.1.10 */
  77:./Middlewares/ST/usbx/common/usbx_stm32_device_controllers/ux_dcd_stm32_endpoint_status.c **** /*                                                                        */
  78:./Middlewares/ST/usbx/common/usbx_stm32_device_controllers/ux_dcd_stm32_endpoint_status.c **** /**************************************************************************/
  79:./Middlewares/ST/usbx/common/usbx_stm32_device_controllers/ux_dcd_stm32_endpoint_status.c **** UINT  _ux_dcd_stm32_endpoint_status(UX_DCD_STM32 *dcd_stm32, ULONG endpoint_index)
  80:./Middlewares/ST/usbx/common/usbx_stm32_device_controllers/ux_dcd_stm32_endpoint_status.c **** {
  30              		.loc 1 80 1 view -0
  31              		.cfi_startproc
  32              		@ args = 0, pretend = 0, frame = 0
  33              		@ frame_needed = 0, uses_anonymous_args = 0
  34              		@ link register save eliminated.
  81:./Middlewares/ST/usbx/common/usbx_stm32_device_controllers/ux_dcd_stm32_endpoint_status.c **** 
ARM GAS  C:\Users\Dennis\AppData\Local\Temp\ccsZP7bb.s 			page 3


  82:./Middlewares/ST/usbx/common/usbx_stm32_device_controllers/ux_dcd_stm32_endpoint_status.c **** UX_DCD_STM32_ED      *ed;
  35              		.loc 1 82 1 view .LVU1
  83:./Middlewares/ST/usbx/common/usbx_stm32_device_controllers/ux_dcd_stm32_endpoint_status.c **** 
  84:./Middlewares/ST/usbx/common/usbx_stm32_device_controllers/ux_dcd_stm32_endpoint_status.c **** 
  85:./Middlewares/ST/usbx/common/usbx_stm32_device_controllers/ux_dcd_stm32_endpoint_status.c ****     /* Fetch the address of the physical endpoint.  */
  86:./Middlewares/ST/usbx/common/usbx_stm32_device_controllers/ux_dcd_stm32_endpoint_status.c ****     ed = _stm32_ed_get(dcd_stm32, endpoint_index);
  36              		.loc 1 86 5 view .LVU2
  37              	.LBB4:
  38              	.LBI4:
  39              		.file 2 "./Middlewares/ST/usbx/common/usbx_stm32_device_controllers/ux_dcd_stm32.h"
   1:./Middlewares/ST/usbx/common/usbx_stm32_device_controllers/ux_dcd_stm32.h **** /**************************************************************************/
   2:./Middlewares/ST/usbx/common/usbx_stm32_device_controllers/ux_dcd_stm32.h **** /*                                                                        */
   3:./Middlewares/ST/usbx/common/usbx_stm32_device_controllers/ux_dcd_stm32.h **** /*       Copyright (c) Microsoft Corporation. All rights reserved.        */
   4:./Middlewares/ST/usbx/common/usbx_stm32_device_controllers/ux_dcd_stm32.h **** /*                                                                        */
   5:./Middlewares/ST/usbx/common/usbx_stm32_device_controllers/ux_dcd_stm32.h **** /*       This software is licensed under the Microsoft Software License   */
   6:./Middlewares/ST/usbx/common/usbx_stm32_device_controllers/ux_dcd_stm32.h **** /*       Terms for Microsoft Azure RTOS. Full text of the license can be  */
   7:./Middlewares/ST/usbx/common/usbx_stm32_device_controllers/ux_dcd_stm32.h **** /*       found in the LICENSE file at https://aka.ms/AzureRTOS_EULA       */
   8:./Middlewares/ST/usbx/common/usbx_stm32_device_controllers/ux_dcd_stm32.h **** /*       and in the root directory of this software.                      */
   9:./Middlewares/ST/usbx/common/usbx_stm32_device_controllers/ux_dcd_stm32.h **** /*                                                                        */
  10:./Middlewares/ST/usbx/common/usbx_stm32_device_controllers/ux_dcd_stm32.h **** /**************************************************************************/
  11:./Middlewares/ST/usbx/common/usbx_stm32_device_controllers/ux_dcd_stm32.h **** 
  12:./Middlewares/ST/usbx/common/usbx_stm32_device_controllers/ux_dcd_stm32.h **** 
  13:./Middlewares/ST/usbx/common/usbx_stm32_device_controllers/ux_dcd_stm32.h **** /**************************************************************************/
  14:./Middlewares/ST/usbx/common/usbx_stm32_device_controllers/ux_dcd_stm32.h **** /**************************************************************************/
  15:./Middlewares/ST/usbx/common/usbx_stm32_device_controllers/ux_dcd_stm32.h **** /**                                                                       */
  16:./Middlewares/ST/usbx/common/usbx_stm32_device_controllers/ux_dcd_stm32.h **** /** USBX Component                                                        */
  17:./Middlewares/ST/usbx/common/usbx_stm32_device_controllers/ux_dcd_stm32.h **** /**                                                                       */
  18:./Middlewares/ST/usbx/common/usbx_stm32_device_controllers/ux_dcd_stm32.h **** /**   STM32 Controller Driver                                             */
  19:./Middlewares/ST/usbx/common/usbx_stm32_device_controllers/ux_dcd_stm32.h **** /**                                                                       */
  20:./Middlewares/ST/usbx/common/usbx_stm32_device_controllers/ux_dcd_stm32.h **** /**************************************************************************/
  21:./Middlewares/ST/usbx/common/usbx_stm32_device_controllers/ux_dcd_stm32.h **** /**************************************************************************/
  22:./Middlewares/ST/usbx/common/usbx_stm32_device_controllers/ux_dcd_stm32.h **** 
  23:./Middlewares/ST/usbx/common/usbx_stm32_device_controllers/ux_dcd_stm32.h **** /**************************************************************************/
  24:./Middlewares/ST/usbx/common/usbx_stm32_device_controllers/ux_dcd_stm32.h **** /*                                                                        */
  25:./Middlewares/ST/usbx/common/usbx_stm32_device_controllers/ux_dcd_stm32.h **** /*  COMPONENT DEFINITION                                   RELEASE        */
  26:./Middlewares/ST/usbx/common/usbx_stm32_device_controllers/ux_dcd_stm32.h **** /*                                                                        */
  27:./Middlewares/ST/usbx/common/usbx_stm32_device_controllers/ux_dcd_stm32.h **** /*    ux_dcd_stm32.h                                      PORTABLE C      */
  28:./Middlewares/ST/usbx/common/usbx_stm32_device_controllers/ux_dcd_stm32.h **** /*                                                           6.1.10       */
  29:./Middlewares/ST/usbx/common/usbx_stm32_device_controllers/ux_dcd_stm32.h **** /*  AUTHOR                                                                */
  30:./Middlewares/ST/usbx/common/usbx_stm32_device_controllers/ux_dcd_stm32.h **** /*                                                                        */
  31:./Middlewares/ST/usbx/common/usbx_stm32_device_controllers/ux_dcd_stm32.h **** /*    Chaoqiong Xiao, Microsoft Corporation                               */
  32:./Middlewares/ST/usbx/common/usbx_stm32_device_controllers/ux_dcd_stm32.h **** /*                                                                        */
  33:./Middlewares/ST/usbx/common/usbx_stm32_device_controllers/ux_dcd_stm32.h **** /*  DESCRIPTION                                                           */
  34:./Middlewares/ST/usbx/common/usbx_stm32_device_controllers/ux_dcd_stm32.h **** /*                                                                        */
  35:./Middlewares/ST/usbx/common/usbx_stm32_device_controllers/ux_dcd_stm32.h **** /*    This file defines the USB OTG device equivalences for the STM32     */
  36:./Middlewares/ST/usbx/common/usbx_stm32_device_controllers/ux_dcd_stm32.h **** /*    controller.                                                         */
  37:./Middlewares/ST/usbx/common/usbx_stm32_device_controllers/ux_dcd_stm32.h **** /*                                                                        */
  38:./Middlewares/ST/usbx/common/usbx_stm32_device_controllers/ux_dcd_stm32.h **** /*  RELEASE HISTORY                                                       */
  39:./Middlewares/ST/usbx/common/usbx_stm32_device_controllers/ux_dcd_stm32.h **** /*                                                                        */
  40:./Middlewares/ST/usbx/common/usbx_stm32_device_controllers/ux_dcd_stm32.h **** /*    DATE              NAME                      DESCRIPTION             */
  41:./Middlewares/ST/usbx/common/usbx_stm32_device_controllers/ux_dcd_stm32.h **** /*                                                                        */
  42:./Middlewares/ST/usbx/common/usbx_stm32_device_controllers/ux_dcd_stm32.h **** /*  05-19-2020     Chaoqiong Xiao           Initial Version 6.0           */
  43:./Middlewares/ST/usbx/common/usbx_stm32_device_controllers/ux_dcd_stm32.h **** /*  09-30-2020     Chaoqiong Xiao           Modified comment(s), used ST  */
  44:./Middlewares/ST/usbx/common/usbx_stm32_device_controllers/ux_dcd_stm32.h **** /*                                            HAL library to drive the    */
  45:./Middlewares/ST/usbx/common/usbx_stm32_device_controllers/ux_dcd_stm32.h **** /*                                            controller,                 */
  46:./Middlewares/ST/usbx/common/usbx_stm32_device_controllers/ux_dcd_stm32.h **** /*                                            resulting in version 6.1    */
  47:./Middlewares/ST/usbx/common/usbx_stm32_device_controllers/ux_dcd_stm32.h **** /*  01-31-2022     Chaoqiong Xiao           Modified comment(s),          */
ARM GAS  C:\Users\Dennis\AppData\Local\Temp\ccsZP7bb.s 			page 4


  48:./Middlewares/ST/usbx/common/usbx_stm32_device_controllers/ux_dcd_stm32.h **** /*                                            added standalone support,   */
  49:./Middlewares/ST/usbx/common/usbx_stm32_device_controllers/ux_dcd_stm32.h **** /*                                            added bi-dir EP support,    */
  50:./Middlewares/ST/usbx/common/usbx_stm32_device_controllers/ux_dcd_stm32.h **** /*                                            resulting in version 6.1.10 */
  51:./Middlewares/ST/usbx/common/usbx_stm32_device_controllers/ux_dcd_stm32.h **** /*                                                                        */
  52:./Middlewares/ST/usbx/common/usbx_stm32_device_controllers/ux_dcd_stm32.h **** /**************************************************************************/
  53:./Middlewares/ST/usbx/common/usbx_stm32_device_controllers/ux_dcd_stm32.h **** 
  54:./Middlewares/ST/usbx/common/usbx_stm32_device_controllers/ux_dcd_stm32.h **** #ifndef UX_DCD_STM32_H
  55:./Middlewares/ST/usbx/common/usbx_stm32_device_controllers/ux_dcd_stm32.h **** #define UX_DCD_STM32_H
  56:./Middlewares/ST/usbx/common/usbx_stm32_device_controllers/ux_dcd_stm32.h **** 
  57:./Middlewares/ST/usbx/common/usbx_stm32_device_controllers/ux_dcd_stm32.h **** #include "ux_stm32_config.h"
  58:./Middlewares/ST/usbx/common/usbx_stm32_device_controllers/ux_dcd_stm32.h **** 
  59:./Middlewares/ST/usbx/common/usbx_stm32_device_controllers/ux_dcd_stm32.h **** /* Define STM32 generic equivalences.  */
  60:./Middlewares/ST/usbx/common/usbx_stm32_device_controllers/ux_dcd_stm32.h **** 
  61:./Middlewares/ST/usbx/common/usbx_stm32_device_controllers/ux_dcd_stm32.h **** #define UX_DCD_STM32_SLAVE_CONTROLLER                           0x80
  62:./Middlewares/ST/usbx/common/usbx_stm32_device_controllers/ux_dcd_stm32.h **** #ifndef UX_DCD_STM32_MAX_ED
  63:./Middlewares/ST/usbx/common/usbx_stm32_device_controllers/ux_dcd_stm32.h **** #define UX_DCD_STM32_MAX_ED                                     4
  64:./Middlewares/ST/usbx/common/usbx_stm32_device_controllers/ux_dcd_stm32.h **** #endif /* UX_DCD_STM32_MAX_ED */
  65:./Middlewares/ST/usbx/common/usbx_stm32_device_controllers/ux_dcd_stm32.h **** #define UX_DCD_STM32_IN_FIFO                                    3
  66:./Middlewares/ST/usbx/common/usbx_stm32_device_controllers/ux_dcd_stm32.h **** 
  67:./Middlewares/ST/usbx/common/usbx_stm32_device_controllers/ux_dcd_stm32.h **** 
  68:./Middlewares/ST/usbx/common/usbx_stm32_device_controllers/ux_dcd_stm32.h **** #define UX_DCD_STM32_FLUSH_RX_FIFO                              0x00000010
  69:./Middlewares/ST/usbx/common/usbx_stm32_device_controllers/ux_dcd_stm32.h **** #define UX_DCD_STM32_FLUSH_TX_FIFO                              0x00000020
  70:./Middlewares/ST/usbx/common/usbx_stm32_device_controllers/ux_dcd_stm32.h **** #define UX_DCD_STM32_FLUSH_FIFO_ALL                             0x00000010
  71:./Middlewares/ST/usbx/common/usbx_stm32_device_controllers/ux_dcd_stm32.h **** #define UX_DCD_STM32_ENDPOINT_SPACE_SIZE                        0x00000020
  72:./Middlewares/ST/usbx/common/usbx_stm32_device_controllers/ux_dcd_stm32.h **** #define UX_DCD_STM32_ENDPOINT_CHANNEL_SIZE                      0x00000020
  73:./Middlewares/ST/usbx/common/usbx_stm32_device_controllers/ux_dcd_stm32.h **** 
  74:./Middlewares/ST/usbx/common/usbx_stm32_device_controllers/ux_dcd_stm32.h **** 
  75:./Middlewares/ST/usbx/common/usbx_stm32_device_controllers/ux_dcd_stm32.h **** /* Define USB STM32 physical endpoint status definition.  */
  76:./Middlewares/ST/usbx/common/usbx_stm32_device_controllers/ux_dcd_stm32.h **** 
  77:./Middlewares/ST/usbx/common/usbx_stm32_device_controllers/ux_dcd_stm32.h **** #define UX_DCD_STM32_ED_STATUS_UNUSED                            0u
  78:./Middlewares/ST/usbx/common/usbx_stm32_device_controllers/ux_dcd_stm32.h **** #define UX_DCD_STM32_ED_STATUS_USED                              1u
  79:./Middlewares/ST/usbx/common/usbx_stm32_device_controllers/ux_dcd_stm32.h **** #define UX_DCD_STM32_ED_STATUS_TRANSFER                          2u
  80:./Middlewares/ST/usbx/common/usbx_stm32_device_controllers/ux_dcd_stm32.h **** #define UX_DCD_STM32_ED_STATUS_STALLED                           4u
  81:./Middlewares/ST/usbx/common/usbx_stm32_device_controllers/ux_dcd_stm32.h **** #define UX_DCD_STM32_ED_STATUS_DONE                              8u
  82:./Middlewares/ST/usbx/common/usbx_stm32_device_controllers/ux_dcd_stm32.h **** #define UX_DCD_STM32_ED_STATUS_SETUP_IN                          (1u<<8)
  83:./Middlewares/ST/usbx/common/usbx_stm32_device_controllers/ux_dcd_stm32.h **** #define UX_DCD_STM32_ED_STATUS_SETUP_STATUS                      (2u<<8)
  84:./Middlewares/ST/usbx/common/usbx_stm32_device_controllers/ux_dcd_stm32.h **** #define UX_DCD_STM32_ED_STATUS_SETUP_OUT                         (3u<<8)
  85:./Middlewares/ST/usbx/common/usbx_stm32_device_controllers/ux_dcd_stm32.h **** #define UX_DCD_STM32_ED_STATUS_SETUP                             (3u<<8)
  86:./Middlewares/ST/usbx/common/usbx_stm32_device_controllers/ux_dcd_stm32.h **** #define UX_DCD_STM32_ED_STATUS_TASK_PENDING                      (1u<<10)
  87:./Middlewares/ST/usbx/common/usbx_stm32_device_controllers/ux_dcd_stm32.h **** 
  88:./Middlewares/ST/usbx/common/usbx_stm32_device_controllers/ux_dcd_stm32.h **** /* Define USB STM32 physical endpoint state machine definition.  */
  89:./Middlewares/ST/usbx/common/usbx_stm32_device_controllers/ux_dcd_stm32.h **** 
  90:./Middlewares/ST/usbx/common/usbx_stm32_device_controllers/ux_dcd_stm32.h **** #define UX_DCD_STM32_ED_STATE_IDLE                               0
  91:./Middlewares/ST/usbx/common/usbx_stm32_device_controllers/ux_dcd_stm32.h **** #define UX_DCD_STM32_ED_STATE_DATA_TX                            1
  92:./Middlewares/ST/usbx/common/usbx_stm32_device_controllers/ux_dcd_stm32.h **** #define UX_DCD_STM32_ED_STATE_DATA_RX                            2
  93:./Middlewares/ST/usbx/common/usbx_stm32_device_controllers/ux_dcd_stm32.h **** #define UX_DCD_STM32_ED_STATE_STATUS_TX                          3
  94:./Middlewares/ST/usbx/common/usbx_stm32_device_controllers/ux_dcd_stm32.h **** #define UX_DCD_STM32_ED_STATE_STATUS_RX                          4
  95:./Middlewares/ST/usbx/common/usbx_stm32_device_controllers/ux_dcd_stm32.h **** 
  96:./Middlewares/ST/usbx/common/usbx_stm32_device_controllers/ux_dcd_stm32.h **** /* Define USB STM32 endpoint transfer status definition.  */
  97:./Middlewares/ST/usbx/common/usbx_stm32_device_controllers/ux_dcd_stm32.h **** 
  98:./Middlewares/ST/usbx/common/usbx_stm32_device_controllers/ux_dcd_stm32.h **** #define UX_DCD_STM32_ED_TRANSFER_STATUS_IDLE                     0
  99:./Middlewares/ST/usbx/common/usbx_stm32_device_controllers/ux_dcd_stm32.h **** #define UX_DCD_STM32_ED_TRANSFER_STATUS_SETUP                    1
 100:./Middlewares/ST/usbx/common/usbx_stm32_device_controllers/ux_dcd_stm32.h **** #define UX_DCD_STM32_ED_TRANSFER_STATUS_IN_COMPLETION            2
 101:./Middlewares/ST/usbx/common/usbx_stm32_device_controllers/ux_dcd_stm32.h **** #define UX_DCD_STM32_ED_TRANSFER_STATUS_OUT_COMPLETION           3
 102:./Middlewares/ST/usbx/common/usbx_stm32_device_controllers/ux_dcd_stm32.h **** 
 103:./Middlewares/ST/usbx/common/usbx_stm32_device_controllers/ux_dcd_stm32.h **** /* Define USB STM32 physical endpoint structure.  */
 104:./Middlewares/ST/usbx/common/usbx_stm32_device_controllers/ux_dcd_stm32.h **** 
ARM GAS  C:\Users\Dennis\AppData\Local\Temp\ccsZP7bb.s 			page 5


 105:./Middlewares/ST/usbx/common/usbx_stm32_device_controllers/ux_dcd_stm32.h **** typedef struct UX_DCD_STM32_ED_STRUCT
 106:./Middlewares/ST/usbx/common/usbx_stm32_device_controllers/ux_dcd_stm32.h **** {
 107:./Middlewares/ST/usbx/common/usbx_stm32_device_controllers/ux_dcd_stm32.h ****     struct UX_SLAVE_ENDPOINT_STRUCT
 108:./Middlewares/ST/usbx/common/usbx_stm32_device_controllers/ux_dcd_stm32.h ****                     *ux_dcd_stm32_ed_endpoint;
 109:./Middlewares/ST/usbx/common/usbx_stm32_device_controllers/ux_dcd_stm32.h ****     ULONG           ux_dcd_stm32_ed_status;
 110:./Middlewares/ST/usbx/common/usbx_stm32_device_controllers/ux_dcd_stm32.h ****     UCHAR           ux_dcd_stm32_ed_state;
 111:./Middlewares/ST/usbx/common/usbx_stm32_device_controllers/ux_dcd_stm32.h ****     UCHAR           ux_dcd_stm32_ed_index;
 112:./Middlewares/ST/usbx/common/usbx_stm32_device_controllers/ux_dcd_stm32.h ****     UCHAR           ux_dcd_stm32_ed_direction;
 113:./Middlewares/ST/usbx/common/usbx_stm32_device_controllers/ux_dcd_stm32.h ****     UCHAR           reserved;
 114:./Middlewares/ST/usbx/common/usbx_stm32_device_controllers/ux_dcd_stm32.h **** } UX_DCD_STM32_ED;
 115:./Middlewares/ST/usbx/common/usbx_stm32_device_controllers/ux_dcd_stm32.h **** 
 116:./Middlewares/ST/usbx/common/usbx_stm32_device_controllers/ux_dcd_stm32.h **** 
 117:./Middlewares/ST/usbx/common/usbx_stm32_device_controllers/ux_dcd_stm32.h **** /* Define USB STM32 DCD structure definition.  */
 118:./Middlewares/ST/usbx/common/usbx_stm32_device_controllers/ux_dcd_stm32.h **** 
 119:./Middlewares/ST/usbx/common/usbx_stm32_device_controllers/ux_dcd_stm32.h **** typedef struct UX_DCD_STM32_STRUCT
 120:./Middlewares/ST/usbx/common/usbx_stm32_device_controllers/ux_dcd_stm32.h **** {
 121:./Middlewares/ST/usbx/common/usbx_stm32_device_controllers/ux_dcd_stm32.h **** 
 122:./Middlewares/ST/usbx/common/usbx_stm32_device_controllers/ux_dcd_stm32.h ****     struct UX_SLAVE_DCD_STRUCT
 123:./Middlewares/ST/usbx/common/usbx_stm32_device_controllers/ux_dcd_stm32.h ****                         *ux_dcd_stm32_dcd_owner;
 124:./Middlewares/ST/usbx/common/usbx_stm32_device_controllers/ux_dcd_stm32.h ****     struct UX_DCD_STM32_ED_STRUCT
 125:./Middlewares/ST/usbx/common/usbx_stm32_device_controllers/ux_dcd_stm32.h ****                         ux_dcd_stm32_ed[UX_DCD_STM32_MAX_ED];
 126:./Middlewares/ST/usbx/common/usbx_stm32_device_controllers/ux_dcd_stm32.h **** #if defined(UX_DEVICE_BIDIRECTIONAL_ENDPOINT_SUPPORT)
 127:./Middlewares/ST/usbx/common/usbx_stm32_device_controllers/ux_dcd_stm32.h ****     struct UX_DCD_STM32_ED_STRUCT
 128:./Middlewares/ST/usbx/common/usbx_stm32_device_controllers/ux_dcd_stm32.h ****                         ux_dcd_stm32_ed_in[UX_DCD_STM32_MAX_ED];
 129:./Middlewares/ST/usbx/common/usbx_stm32_device_controllers/ux_dcd_stm32.h **** #endif /* defined(UX_DEVICE_BIDIRECTIONAL_ENDPOINT_SUPPORT) */
 130:./Middlewares/ST/usbx/common/usbx_stm32_device_controllers/ux_dcd_stm32.h ****     PCD_HandleTypeDef   *pcd_handle;
 131:./Middlewares/ST/usbx/common/usbx_stm32_device_controllers/ux_dcd_stm32.h **** } UX_DCD_STM32;
 132:./Middlewares/ST/usbx/common/usbx_stm32_device_controllers/ux_dcd_stm32.h **** 
 133:./Middlewares/ST/usbx/common/usbx_stm32_device_controllers/ux_dcd_stm32.h **** static inline struct UX_DCD_STM32_ED_STRUCT *_stm32_ed_get(UX_DCD_STM32 *dcd_stm32, ULONG ep_addr)
  40              		.loc 2 133 46 view .LVU3
  41              	.LBB5:
 134:./Middlewares/ST/usbx/common/usbx_stm32_device_controllers/ux_dcd_stm32.h **** {
 135:./Middlewares/ST/usbx/common/usbx_stm32_device_controllers/ux_dcd_stm32.h **** #if defined(UX_DEVICE_BIDIRECTIONAL_ENDPOINT_SUPPORT)
 136:./Middlewares/ST/usbx/common/usbx_stm32_device_controllers/ux_dcd_stm32.h **** ULONG ep_dir = ep_addr & 0x80u;
 137:./Middlewares/ST/usbx/common/usbx_stm32_device_controllers/ux_dcd_stm32.h **** #endif /* defined(UX_DEVICE_BIDIRECTIONAL_ENDPOINT_SUPPORT) */
 138:./Middlewares/ST/usbx/common/usbx_stm32_device_controllers/ux_dcd_stm32.h **** ULONG ep_num = ep_addr & 0x7Fu;
  42              		.loc 2 138 1 view .LVU4
  43              		.loc 2 138 7 is_stmt 0 view .LVU5
  44 0000 01F07F01 		and	r1, r1, #127
  45              	.LVL1:
 139:./Middlewares/ST/usbx/common/usbx_stm32_device_controllers/ux_dcd_stm32.h **** 
 140:./Middlewares/ST/usbx/common/usbx_stm32_device_controllers/ux_dcd_stm32.h ****     if (ep_num >= UX_DCD_STM32_MAX_ED ||
  46              		.loc 2 140 5 is_stmt 1 view .LVU6
  47              		.loc 2 140 8 is_stmt 0 view .LVU7
  48 0004 0529     		cmp	r1, #5
  49 0006 10D8     		bhi	.L4
 141:./Middlewares/ST/usbx/common/usbx_stm32_device_controllers/ux_dcd_stm32.h ****         ep_num >= dcd_stm32->pcd_handle->Init.dev_endpoints)
  50              		.loc 2 141 28 view .LVU8
  51 0008 C36C     		ldr	r3, [r0, #76]
  52              		.loc 2 141 46 view .LVU9
  53 000a 1B79     		ldrb	r3, [r3, #4]	@ zero_extendqisi2
 140:./Middlewares/ST/usbx/common/usbx_stm32_device_controllers/ux_dcd_stm32.h ****         ep_num >= dcd_stm32->pcd_handle->Init.dev_endpoints)
  54              		.loc 2 140 39 view .LVU10
  55 000c 9942     		cmp	r1, r3
  56 000e 0ED2     		bcs	.L5
 142:./Middlewares/ST/usbx/common/usbx_stm32_device_controllers/ux_dcd_stm32.h ****         return(UX_NULL);
 143:./Middlewares/ST/usbx/common/usbx_stm32_device_controllers/ux_dcd_stm32.h **** 
ARM GAS  C:\Users\Dennis\AppData\Local\Temp\ccsZP7bb.s 			page 6


 144:./Middlewares/ST/usbx/common/usbx_stm32_device_controllers/ux_dcd_stm32.h **** #if defined(UX_DEVICE_BIDIRECTIONAL_ENDPOINT_SUPPORT)
 145:./Middlewares/ST/usbx/common/usbx_stm32_device_controllers/ux_dcd_stm32.h ****     if (ep_dir)
 146:./Middlewares/ST/usbx/common/usbx_stm32_device_controllers/ux_dcd_stm32.h ****         return(&dcd_stm32->ux_dcd_stm32_ed_in[ep_num]);
 147:./Middlewares/ST/usbx/common/usbx_stm32_device_controllers/ux_dcd_stm32.h **** #endif /* defined(UX_DEVICE_BIDIRECTIONAL_ENDPOINT_SUPPORT) */
 148:./Middlewares/ST/usbx/common/usbx_stm32_device_controllers/ux_dcd_stm32.h **** 
 149:./Middlewares/ST/usbx/common/usbx_stm32_device_controllers/ux_dcd_stm32.h ****     return(&dcd_stm32->ux_dcd_stm32_ed[ep_num]);
  57              		.loc 2 149 5 is_stmt 1 view .LVU11
  58              		.loc 2 149 12 is_stmt 0 view .LVU12
  59 0010 01EB4101 		add	r1, r1, r1, lsl #1
  60              	.LVL2:
  61              		.loc 2 149 12 view .LVU13
  62 0014 00EB8100 		add	r0, r0, r1, lsl #2
  63              	.LVL3:
  64              		.loc 2 149 12 view .LVU14
  65 0018 0430     		adds	r0, r0, #4
  66              	.L2:
  67              	.LVL4:
  68              		.loc 2 149 12 view .LVU15
  69              	.LBE5:
  70              	.LBE4:
  87:./Middlewares/ST/usbx/common/usbx_stm32_device_controllers/ux_dcd_stm32_endpoint_status.c **** 
  88:./Middlewares/ST/usbx/common/usbx_stm32_device_controllers/ux_dcd_stm32_endpoint_status.c ****     /* Check the endpoint status, if it is free, we have a illegal endpoint.  */
  89:./Middlewares/ST/usbx/common/usbx_stm32_device_controllers/ux_dcd_stm32_endpoint_status.c ****     if ((ed -> ux_dcd_stm32_ed_status & UX_DCD_STM32_ED_STATUS_USED) == 0)
  71              		.loc 1 89 5 is_stmt 1 view .LVU16
  72              		.loc 1 89 13 is_stmt 0 view .LVU17
  73 001a 4068     		ldr	r0, [r0, #4]
  74              	.LVL5:
  75              		.loc 1 89 8 view .LVU18
  76 001c 10F0010F 		tst	r0, #1
  77 0020 07D0     		beq	.L6
  90:./Middlewares/ST/usbx/common/usbx_stm32_device_controllers/ux_dcd_stm32_endpoint_status.c ****         return(UX_ERROR);
  91:./Middlewares/ST/usbx/common/usbx_stm32_device_controllers/ux_dcd_stm32_endpoint_status.c **** 
  92:./Middlewares/ST/usbx/common/usbx_stm32_device_controllers/ux_dcd_stm32_endpoint_status.c ****     /* Check if the endpoint is stalled.  */
  93:./Middlewares/ST/usbx/common/usbx_stm32_device_controllers/ux_dcd_stm32_endpoint_status.c ****     if ((ed -> ux_dcd_stm32_ed_status & UX_DCD_STM32_ED_STATUS_STALLED) == 0)
  78              		.loc 1 93 5 is_stmt 1 view .LVU19
  79              		.loc 1 93 8 is_stmt 0 view .LVU20
  80 0022 10F00400 		ands	r0, r0, #4
  81 0026 06D1     		bne	.L7
  82 0028 7047     		bx	lr
  83              	.LVL6:
  84              	.L4:
  85              	.LBB7:
  86              	.LBB6:
 142:./Middlewares/ST/usbx/common/usbx_stm32_device_controllers/ux_dcd_stm32.h **** 
  87              		.loc 2 142 15 view .LVU21
  88 002a 0020     		movs	r0, #0
  89              	.LVL7:
 142:./Middlewares/ST/usbx/common/usbx_stm32_device_controllers/ux_dcd_stm32.h **** 
  90              		.loc 2 142 15 view .LVU22
  91 002c F5E7     		b	.L2
  92              	.LVL8:
  93              	.L5:
 142:./Middlewares/ST/usbx/common/usbx_stm32_device_controllers/ux_dcd_stm32.h **** 
  94              		.loc 2 142 15 view .LVU23
  95 002e 0020     		movs	r0, #0
  96              	.LVL9:
 142:./Middlewares/ST/usbx/common/usbx_stm32_device_controllers/ux_dcd_stm32.h **** 
ARM GAS  C:\Users\Dennis\AppData\Local\Temp\ccsZP7bb.s 			page 7


  97              		.loc 2 142 15 view .LVU24
  98 0030 F3E7     		b	.L2
  99              	.LVL10:
 100              	.L6:
 142:./Middlewares/ST/usbx/common/usbx_stm32_device_controllers/ux_dcd_stm32.h **** 
 101              		.loc 2 142 15 view .LVU25
 102              	.LBE6:
 103              	.LBE7:
  90:./Middlewares/ST/usbx/common/usbx_stm32_device_controllers/ux_dcd_stm32_endpoint_status.c ****         return(UX_ERROR);
 104              		.loc 1 90 15 view .LVU26
 105 0032 FF20     		movs	r0, #255
 106 0034 7047     		bx	lr
 107              	.L7:
  94:./Middlewares/ST/usbx/common/usbx_stm32_device_controllers/ux_dcd_stm32_endpoint_status.c ****         return(UX_FALSE);
  95:./Middlewares/ST/usbx/common/usbx_stm32_device_controllers/ux_dcd_stm32_endpoint_status.c ****     else
  96:./Middlewares/ST/usbx/common/usbx_stm32_device_controllers/ux_dcd_stm32_endpoint_status.c ****         return(UX_TRUE);
 108              		.loc 1 96 15 view .LVU27
 109 0036 0120     		movs	r0, #1
  97:./Middlewares/ST/usbx/common/usbx_stm32_device_controllers/ux_dcd_stm32_endpoint_status.c **** }
 110              		.loc 1 97 1 view .LVU28
 111 0038 7047     		bx	lr
 112              		.cfi_endproc
 113              	.LFE251:
 115              		.text
 116              	.Letext0:
 117              		.file 3 "c:\\software_user\\armgcc\\arm-none-eabi\\include\\machine\\_default_types.h"
 118              		.file 4 "c:\\software_user\\armgcc\\arm-none-eabi\\include\\sys\\_stdint.h"
 119              		.file 5 "./Middlewares/ST/threadx/ports/cortex_m4/gnu/inc/tx_port.h"
 120              		.file 6 "./Middlewares/ST/threadx/common/inc/tx_api.h"
 121              		.file 7 "./Middlewares/ST/usbx/common/core/inc/ux_api.h"
 122              		.file 8 "./Drivers/CMSIS/Device/ST/STM32F4xx/Include/stm32f407xx.h"
 123              		.file 9 "./Drivers/STM32F4xx_HAL_Driver/Inc/stm32f4xx_hal_def.h"
 124              		.file 10 "./Drivers/STM32F4xx_HAL_Driver/Inc/stm32f4xx_ll_usb.h"
 125              		.file 11 "./Drivers/STM32F4xx_HAL_Driver/Inc/stm32f4xx_hal_pcd.h"
ARM GAS  C:\Users\Dennis\AppData\Local\Temp\ccsZP7bb.s 			page 8


DEFINED SYMBOLS
                            *ABS*:00000000 ux_dcd_stm32_endpoint_status.c
C:\Users\Dennis\AppData\Local\Temp\ccsZP7bb.s:20     .text._ux_dcd_stm32_endpoint_status:00000000 $t
C:\Users\Dennis\AppData\Local\Temp\ccsZP7bb.s:26     .text._ux_dcd_stm32_endpoint_status:00000000 _ux_dcd_stm32_endpoint_status

NO UNDEFINED SYMBOLS
