ARM GAS  C:\Users\Dennis\AppData\Local\Temp\ccGyPS9i.s 			page 1


   1              		.cpu cortex-m4
   2              		.arch armv7e-m
   3              		.fpu fpv4-sp-d16
   4              		.eabi_attribute 27, 1
   5              		.eabi_attribute 28, 1
   6              		.eabi_attribute 20, 1
   7              		.eabi_attribute 21, 1
   8              		.eabi_attribute 23, 3
   9              		.eabi_attribute 24, 1
  10              		.eabi_attribute 25, 1
  11              		.eabi_attribute 26, 1
  12              		.eabi_attribute 30, 1
  13              		.eabi_attribute 34, 1
  14              		.eabi_attribute 18, 4
  15              		.file	"ux_device_class_cdc_acm_write_with_callback.c"
  16              		.text
  17              	.Ltext0:
  18              		.cfi_sections	.debug_frame
  19              		.section	.text._ux_device_class_cdc_acm_write_with_callback,"ax",%progbits
  20              		.align	1
  21              		.global	_ux_device_class_cdc_acm_write_with_callback
  22              		.syntax unified
  23              		.thumb
  24              		.thumb_func
  26              	_ux_device_class_cdc_acm_write_with_callback:
  27              	.LVL0:
  28              	.LFB11:
  29              		.file 1 "./Middlewares/ST/usbx/common/usbx_device_classes/src/ux_device_class_cdc_acm_write_with_c
   1:./Middlewares/ST/usbx/common/usbx_device_classes/src/ux_device_class_cdc_acm_write_with_callback.c **** /**************************************************************************/
   2:./Middlewares/ST/usbx/common/usbx_device_classes/src/ux_device_class_cdc_acm_write_with_callback.c **** /*                                                                        */
   3:./Middlewares/ST/usbx/common/usbx_device_classes/src/ux_device_class_cdc_acm_write_with_callback.c **** /*       Copyright (c) Microsoft Corporation. All rights reserved.        */
   4:./Middlewares/ST/usbx/common/usbx_device_classes/src/ux_device_class_cdc_acm_write_with_callback.c **** /*                                                                        */
   5:./Middlewares/ST/usbx/common/usbx_device_classes/src/ux_device_class_cdc_acm_write_with_callback.c **** /*       This software is licensed under the Microsoft Software License   */
   6:./Middlewares/ST/usbx/common/usbx_device_classes/src/ux_device_class_cdc_acm_write_with_callback.c **** /*       Terms for Microsoft Azure RTOS. Full text of the license can be  */
   7:./Middlewares/ST/usbx/common/usbx_device_classes/src/ux_device_class_cdc_acm_write_with_callback.c **** /*       found in the LICENSE file at https://aka.ms/AzureRTOS_EULA       */
   8:./Middlewares/ST/usbx/common/usbx_device_classes/src/ux_device_class_cdc_acm_write_with_callback.c **** /*       and in the root directory of this software.                      */
   9:./Middlewares/ST/usbx/common/usbx_device_classes/src/ux_device_class_cdc_acm_write_with_callback.c **** /*                                                                        */
  10:./Middlewares/ST/usbx/common/usbx_device_classes/src/ux_device_class_cdc_acm_write_with_callback.c **** /**************************************************************************/
  11:./Middlewares/ST/usbx/common/usbx_device_classes/src/ux_device_class_cdc_acm_write_with_callback.c **** 
  12:./Middlewares/ST/usbx/common/usbx_device_classes/src/ux_device_class_cdc_acm_write_with_callback.c **** /**************************************************************************/
  13:./Middlewares/ST/usbx/common/usbx_device_classes/src/ux_device_class_cdc_acm_write_with_callback.c **** /**************************************************************************/
  14:./Middlewares/ST/usbx/common/usbx_device_classes/src/ux_device_class_cdc_acm_write_with_callback.c **** /**                                                                       */
  15:./Middlewares/ST/usbx/common/usbx_device_classes/src/ux_device_class_cdc_acm_write_with_callback.c **** /** USBX Component                                                        */
  16:./Middlewares/ST/usbx/common/usbx_device_classes/src/ux_device_class_cdc_acm_write_with_callback.c **** /**                                                                       */
  17:./Middlewares/ST/usbx/common/usbx_device_classes/src/ux_device_class_cdc_acm_write_with_callback.c **** /**   Device CDC Class                                                    */
  18:./Middlewares/ST/usbx/common/usbx_device_classes/src/ux_device_class_cdc_acm_write_with_callback.c **** /**                                                                       */
  19:./Middlewares/ST/usbx/common/usbx_device_classes/src/ux_device_class_cdc_acm_write_with_callback.c **** /**************************************************************************/
  20:./Middlewares/ST/usbx/common/usbx_device_classes/src/ux_device_class_cdc_acm_write_with_callback.c **** /**************************************************************************/
  21:./Middlewares/ST/usbx/common/usbx_device_classes/src/ux_device_class_cdc_acm_write_with_callback.c **** 
  22:./Middlewares/ST/usbx/common/usbx_device_classes/src/ux_device_class_cdc_acm_write_with_callback.c **** #define UX_SOURCE_CODE
  23:./Middlewares/ST/usbx/common/usbx_device_classes/src/ux_device_class_cdc_acm_write_with_callback.c **** 
  24:./Middlewares/ST/usbx/common/usbx_device_classes/src/ux_device_class_cdc_acm_write_with_callback.c **** 
  25:./Middlewares/ST/usbx/common/usbx_device_classes/src/ux_device_class_cdc_acm_write_with_callback.c **** /* Include necessary system files.  */
  26:./Middlewares/ST/usbx/common/usbx_device_classes/src/ux_device_class_cdc_acm_write_with_callback.c **** 
  27:./Middlewares/ST/usbx/common/usbx_device_classes/src/ux_device_class_cdc_acm_write_with_callback.c **** #include "ux_api.h"
  28:./Middlewares/ST/usbx/common/usbx_device_classes/src/ux_device_class_cdc_acm_write_with_callback.c **** #include "ux_device_class_cdc_acm.h"
  29:./Middlewares/ST/usbx/common/usbx_device_classes/src/ux_device_class_cdc_acm_write_with_callback.c **** #include "ux_device_stack.h"
ARM GAS  C:\Users\Dennis\AppData\Local\Temp\ccGyPS9i.s 			page 2


  30:./Middlewares/ST/usbx/common/usbx_device_classes/src/ux_device_class_cdc_acm_write_with_callback.c **** 
  31:./Middlewares/ST/usbx/common/usbx_device_classes/src/ux_device_class_cdc_acm_write_with_callback.c **** 
  32:./Middlewares/ST/usbx/common/usbx_device_classes/src/ux_device_class_cdc_acm_write_with_callback.c **** /**************************************************************************/
  33:./Middlewares/ST/usbx/common/usbx_device_classes/src/ux_device_class_cdc_acm_write_with_callback.c **** /*                                                                        */
  34:./Middlewares/ST/usbx/common/usbx_device_classes/src/ux_device_class_cdc_acm_write_with_callback.c **** /*  FUNCTION                                               RELEASE        */
  35:./Middlewares/ST/usbx/common/usbx_device_classes/src/ux_device_class_cdc_acm_write_with_callback.c **** /*                                                                        */
  36:./Middlewares/ST/usbx/common/usbx_device_classes/src/ux_device_class_cdc_acm_write_with_callback.c **** /*    _ux_device_class_cdc_acm_write_with_callback        PORTABLE C      */
  37:./Middlewares/ST/usbx/common/usbx_device_classes/src/ux_device_class_cdc_acm_write_with_callback.c **** /*                                                           6.1.10       */
  38:./Middlewares/ST/usbx/common/usbx_device_classes/src/ux_device_class_cdc_acm_write_with_callback.c **** /*  AUTHOR                                                                */
  39:./Middlewares/ST/usbx/common/usbx_device_classes/src/ux_device_class_cdc_acm_write_with_callback.c **** /*                                                                        */
  40:./Middlewares/ST/usbx/common/usbx_device_classes/src/ux_device_class_cdc_acm_write_with_callback.c **** /*    Chaoqiong Xiao, Microsoft Corporation                               */
  41:./Middlewares/ST/usbx/common/usbx_device_classes/src/ux_device_class_cdc_acm_write_with_callback.c **** /*                                                                        */
  42:./Middlewares/ST/usbx/common/usbx_device_classes/src/ux_device_class_cdc_acm_write_with_callback.c **** /*  DESCRIPTION                                                           */
  43:./Middlewares/ST/usbx/common/usbx_device_classes/src/ux_device_class_cdc_acm_write_with_callback.c **** /*                                                                        */
  44:./Middlewares/ST/usbx/common/usbx_device_classes/src/ux_device_class_cdc_acm_write_with_callback.c **** /*    This function writes to  the CDC class with callback                */
  45:./Middlewares/ST/usbx/common/usbx_device_classes/src/ux_device_class_cdc_acm_write_with_callback.c **** /*                                                                        */
  46:./Middlewares/ST/usbx/common/usbx_device_classes/src/ux_device_class_cdc_acm_write_with_callback.c **** /*  INPUT                                                                 */
  47:./Middlewares/ST/usbx/common/usbx_device_classes/src/ux_device_class_cdc_acm_write_with_callback.c **** /*                                                                        */
  48:./Middlewares/ST/usbx/common/usbx_device_classes/src/ux_device_class_cdc_acm_write_with_callback.c **** /*    cdc_acm                               Address of cdc_acm class      */
  49:./Middlewares/ST/usbx/common/usbx_device_classes/src/ux_device_class_cdc_acm_write_with_callback.c **** /*                                                instance                */
  50:./Middlewares/ST/usbx/common/usbx_device_classes/src/ux_device_class_cdc_acm_write_with_callback.c **** /*    buffer                                Pointer to data to write      */
  51:./Middlewares/ST/usbx/common/usbx_device_classes/src/ux_device_class_cdc_acm_write_with_callback.c **** /*    requested_length                      Length of bytes to write      */
  52:./Middlewares/ST/usbx/common/usbx_device_classes/src/ux_device_class_cdc_acm_write_with_callback.c **** /*                                                                        */
  53:./Middlewares/ST/usbx/common/usbx_device_classes/src/ux_device_class_cdc_acm_write_with_callback.c **** /*  OUTPUT                                                                */
  54:./Middlewares/ST/usbx/common/usbx_device_classes/src/ux_device_class_cdc_acm_write_with_callback.c **** /*                                                                        */
  55:./Middlewares/ST/usbx/common/usbx_device_classes/src/ux_device_class_cdc_acm_write_with_callback.c **** /*    None                                                                */
  56:./Middlewares/ST/usbx/common/usbx_device_classes/src/ux_device_class_cdc_acm_write_with_callback.c **** /*                                                                        */
  57:./Middlewares/ST/usbx/common/usbx_device_classes/src/ux_device_class_cdc_acm_write_with_callback.c **** /*  CALLS                                                                 */
  58:./Middlewares/ST/usbx/common/usbx_device_classes/src/ux_device_class_cdc_acm_write_with_callback.c **** /*                                                                        */
  59:./Middlewares/ST/usbx/common/usbx_device_classes/src/ux_device_class_cdc_acm_write_with_callback.c **** /*   _ux_device_stack_transfer_request                                    */
  60:./Middlewares/ST/usbx/common/usbx_device_classes/src/ux_device_class_cdc_acm_write_with_callback.c **** /*                                                                        */
  61:./Middlewares/ST/usbx/common/usbx_device_classes/src/ux_device_class_cdc_acm_write_with_callback.c **** /*  CALLED BY                                                             */
  62:./Middlewares/ST/usbx/common/usbx_device_classes/src/ux_device_class_cdc_acm_write_with_callback.c **** /*                                                                        */
  63:./Middlewares/ST/usbx/common/usbx_device_classes/src/ux_device_class_cdc_acm_write_with_callback.c **** /*    ThreadX                                                             */
  64:./Middlewares/ST/usbx/common/usbx_device_classes/src/ux_device_class_cdc_acm_write_with_callback.c **** /*                                                                        */
  65:./Middlewares/ST/usbx/common/usbx_device_classes/src/ux_device_class_cdc_acm_write_with_callback.c **** /*  RELEASE HISTORY                                                       */
  66:./Middlewares/ST/usbx/common/usbx_device_classes/src/ux_device_class_cdc_acm_write_with_callback.c **** /*                                                                        */
  67:./Middlewares/ST/usbx/common/usbx_device_classes/src/ux_device_class_cdc_acm_write_with_callback.c **** /*    DATE              NAME                      DESCRIPTION             */
  68:./Middlewares/ST/usbx/common/usbx_device_classes/src/ux_device_class_cdc_acm_write_with_callback.c **** /*                                                                        */
  69:./Middlewares/ST/usbx/common/usbx_device_classes/src/ux_device_class_cdc_acm_write_with_callback.c **** /*  05-19-2020     Chaoqiong Xiao           Initial Version 6.0           */
  70:./Middlewares/ST/usbx/common/usbx_device_classes/src/ux_device_class_cdc_acm_write_with_callback.c **** /*  09-30-2020     Chaoqiong Xiao           Modified comment(s),          */
  71:./Middlewares/ST/usbx/common/usbx_device_classes/src/ux_device_class_cdc_acm_write_with_callback.c **** /*                                            used UX prefix to refer to  */
  72:./Middlewares/ST/usbx/common/usbx_device_classes/src/ux_device_class_cdc_acm_write_with_callback.c **** /*                                            TX symbols instead of using */
  73:./Middlewares/ST/usbx/common/usbx_device_classes/src/ux_device_class_cdc_acm_write_with_callback.c **** /*                                            them directly,              */
  74:./Middlewares/ST/usbx/common/usbx_device_classes/src/ux_device_class_cdc_acm_write_with_callback.c **** /*                                            resulting in version 6.1    */
  75:./Middlewares/ST/usbx/common/usbx_device_classes/src/ux_device_class_cdc_acm_write_with_callback.c **** /*  04-02-2021     Chaoqiong Xiao           Modified comment(s),          */
  76:./Middlewares/ST/usbx/common/usbx_device_classes/src/ux_device_class_cdc_acm_write_with_callback.c **** /*                                            added macro to disable      */
  77:./Middlewares/ST/usbx/common/usbx_device_classes/src/ux_device_class_cdc_acm_write_with_callback.c **** /*                                            transmission support,       */
  78:./Middlewares/ST/usbx/common/usbx_device_classes/src/ux_device_class_cdc_acm_write_with_callback.c **** /*                                            resulting in version 6.1.6  */
  79:./Middlewares/ST/usbx/common/usbx_device_classes/src/ux_device_class_cdc_acm_write_with_callback.c **** /*  01-31-2022     Chaoqiong Xiao           Modified comment(s),          */
  80:./Middlewares/ST/usbx/common/usbx_device_classes/src/ux_device_class_cdc_acm_write_with_callback.c **** /*                                            added standalone support,   */
  81:./Middlewares/ST/usbx/common/usbx_device_classes/src/ux_device_class_cdc_acm_write_with_callback.c **** /*                                            resulting in version 6.1.10 */
  82:./Middlewares/ST/usbx/common/usbx_device_classes/src/ux_device_class_cdc_acm_write_with_callback.c **** /*                                                                        */
  83:./Middlewares/ST/usbx/common/usbx_device_classes/src/ux_device_class_cdc_acm_write_with_callback.c **** /**************************************************************************/
  84:./Middlewares/ST/usbx/common/usbx_device_classes/src/ux_device_class_cdc_acm_write_with_callback.c **** UINT _ux_device_class_cdc_acm_write_with_callback(UX_SLAVE_CLASS_CDC_ACM *cdc_acm, UCHAR *buffer,
  85:./Middlewares/ST/usbx/common/usbx_device_classes/src/ux_device_class_cdc_acm_write_with_callback.c ****                                 ULONG requested_length)
  86:./Middlewares/ST/usbx/common/usbx_device_classes/src/ux_device_class_cdc_acm_write_with_callback.c **** {
ARM GAS  C:\Users\Dennis\AppData\Local\Temp\ccGyPS9i.s 			page 3


  30              		.loc 1 86 1 view -0
  31              		.cfi_startproc
  32              		@ args = 0, pretend = 0, frame = 0
  33              		@ frame_needed = 0, uses_anonymous_args = 0
  34              		.loc 1 86 1 is_stmt 0 view .LVU1
  35 0000 08B5     		push	{r3, lr}
  36              	.LCFI0:
  37              		.cfi_def_cfa_offset 8
  38              		.cfi_offset 3, -8
  39              		.cfi_offset 14, -4
  87:./Middlewares/ST/usbx/common/usbx_device_classes/src/ux_device_class_cdc_acm_write_with_callback.c **** #ifdef UX_DEVICE_CLASS_CDC_ACM_TRANSMISSION_DISABLE
  88:./Middlewares/ST/usbx/common/usbx_device_classes/src/ux_device_class_cdc_acm_write_with_callback.c ****     UX_PARAMETER_NOT_USED(cdc_acm);
  89:./Middlewares/ST/usbx/common/usbx_device_classes/src/ux_device_class_cdc_acm_write_with_callback.c ****     UX_PARAMETER_NOT_USED(buffer);
  90:./Middlewares/ST/usbx/common/usbx_device_classes/src/ux_device_class_cdc_acm_write_with_callback.c ****     UX_PARAMETER_NOT_USED(requested_length);
  91:./Middlewares/ST/usbx/common/usbx_device_classes/src/ux_device_class_cdc_acm_write_with_callback.c ****     return(UX_FUNCTION_NOT_SUPPORTED);
  92:./Middlewares/ST/usbx/common/usbx_device_classes/src/ux_device_class_cdc_acm_write_with_callback.c **** #else
  93:./Middlewares/ST/usbx/common/usbx_device_classes/src/ux_device_class_cdc_acm_write_with_callback.c **** UX_SLAVE_DEVICE             *device;
  40              		.loc 1 93 1 is_stmt 1 view .LVU2
  94:./Middlewares/ST/usbx/common/usbx_device_classes/src/ux_device_class_cdc_acm_write_with_callback.c **** UINT                        status;
  41              		.loc 1 94 1 view .LVU3
  95:./Middlewares/ST/usbx/common/usbx_device_classes/src/ux_device_class_cdc_acm_write_with_callback.c **** 
  96:./Middlewares/ST/usbx/common/usbx_device_classes/src/ux_device_class_cdc_acm_write_with_callback.c ****     /* If trace is enabled, insert this event into the trace buffer.  */
  97:./Middlewares/ST/usbx/common/usbx_device_classes/src/ux_device_class_cdc_acm_write_with_callback.c ****     UX_TRACE_IN_LINE_INSERT(UX_TRACE_DEVICE_CLASS_CDC_ACM_WRITE, cdc_acm, buffer, requested_length,
  98:./Middlewares/ST/usbx/common/usbx_device_classes/src/ux_device_class_cdc_acm_write_with_callback.c **** 
  99:./Middlewares/ST/usbx/common/usbx_device_classes/src/ux_device_class_cdc_acm_write_with_callback.c ****     /* Get the pointer to the device.  */
 100:./Middlewares/ST/usbx/common/usbx_device_classes/src/ux_device_class_cdc_acm_write_with_callback.c ****     device =  &_ux_system_slave -> ux_system_slave_device;
  42              		.loc 1 100 5 view .LVU4
  43              		.loc 1 100 33 is_stmt 0 view .LVU5
  44 0002 124B     		ldr	r3, .L8
  45 0004 1B68     		ldr	r3, [r3]
  46              	.LVL1:
 101:./Middlewares/ST/usbx/common/usbx_device_classes/src/ux_device_class_cdc_acm_write_with_callback.c **** 
 102:./Middlewares/ST/usbx/common/usbx_device_classes/src/ux_device_class_cdc_acm_write_with_callback.c ****     /* As long as the device is in the CONFIGURED state.  */
 103:./Middlewares/ST/usbx/common/usbx_device_classes/src/ux_device_class_cdc_acm_write_with_callback.c ****     if (device -> ux_slave_device_state != UX_DEVICE_CONFIGURED)
  47              		.loc 1 103 5 is_stmt 1 view .LVU6
  48              		.loc 1 103 16 is_stmt 0 view .LVU7
  49 0006 1B6A     		ldr	r3, [r3, #32]
  50              	.LVL2:
  51              		.loc 1 103 8 view .LVU8
  52 0008 032B     		cmp	r3, #3
  53 000a 14D1     		bne	.L7
 104:./Middlewares/ST/usbx/common/usbx_device_classes/src/ux_device_class_cdc_acm_write_with_callback.c ****     {
 105:./Middlewares/ST/usbx/common/usbx_device_classes/src/ux_device_class_cdc_acm_write_with_callback.c **** 
 106:./Middlewares/ST/usbx/common/usbx_device_classes/src/ux_device_class_cdc_acm_write_with_callback.c ****         /* Error trap. */
 107:./Middlewares/ST/usbx/common/usbx_device_classes/src/ux_device_class_cdc_acm_write_with_callback.c ****         _ux_system_error_handler(UX_SYSTEM_LEVEL_THREAD, UX_SYSTEM_CONTEXT_CLASS, UX_CONFIGURATION_
 108:./Middlewares/ST/usbx/common/usbx_device_classes/src/ux_device_class_cdc_acm_write_with_callback.c **** 
 109:./Middlewares/ST/usbx/common/usbx_device_classes/src/ux_device_class_cdc_acm_write_with_callback.c ****         /* If trace is enabled, insert this event into the trace buffer.  */
 110:./Middlewares/ST/usbx/common/usbx_device_classes/src/ux_device_class_cdc_acm_write_with_callback.c ****         UX_TRACE_IN_LINE_INSERT(UX_TRACE_ERROR, UX_CONFIGURATION_HANDLE_UNKNOWN, device, 0, 0, UX_T
 111:./Middlewares/ST/usbx/common/usbx_device_classes/src/ux_device_class_cdc_acm_write_with_callback.c **** 
 112:./Middlewares/ST/usbx/common/usbx_device_classes/src/ux_device_class_cdc_acm_write_with_callback.c ****         /* Cannot proceed with command, the interface is down.  */
 113:./Middlewares/ST/usbx/common/usbx_device_classes/src/ux_device_class_cdc_acm_write_with_callback.c ****         return(UX_CONFIGURATION_HANDLE_UNKNOWN);
 114:./Middlewares/ST/usbx/common/usbx_device_classes/src/ux_device_class_cdc_acm_write_with_callback.c ****     }
 115:./Middlewares/ST/usbx/common/usbx_device_classes/src/ux_device_class_cdc_acm_write_with_callback.c **** 
 116:./Middlewares/ST/usbx/common/usbx_device_classes/src/ux_device_class_cdc_acm_write_with_callback.c ****     /* Are we already in transmission mode ?  */
 117:./Middlewares/ST/usbx/common/usbx_device_classes/src/ux_device_class_cdc_acm_write_with_callback.c ****     if (cdc_acm -> ux_slave_class_cdc_acm_transmission_status != UX_TRUE)
  54              		.loc 1 117 5 is_stmt 1 view .LVU9
  55              		.loc 1 117 17 is_stmt 0 view .LVU10
ARM GAS  C:\Users\Dennis\AppData\Local\Temp\ccGyPS9i.s 			page 4


  56 000c D0F81832 		ldr	r3, [r0, #536]
  57              		.loc 1 117 8 view .LVU11
  58 0010 012B     		cmp	r3, #1
  59 0012 17D1     		bne	.L4
 118:./Middlewares/ST/usbx/common/usbx_device_classes/src/ux_device_class_cdc_acm_write_with_callback.c ****     {
 119:./Middlewares/ST/usbx/common/usbx_device_classes/src/ux_device_class_cdc_acm_write_with_callback.c **** 
 120:./Middlewares/ST/usbx/common/usbx_device_classes/src/ux_device_class_cdc_acm_write_with_callback.c ****         /* We should not to that ! */
 121:./Middlewares/ST/usbx/common/usbx_device_classes/src/ux_device_class_cdc_acm_write_with_callback.c ****         return(UX_ERROR);
 122:./Middlewares/ST/usbx/common/usbx_device_classes/src/ux_device_class_cdc_acm_write_with_callback.c **** 
 123:./Middlewares/ST/usbx/common/usbx_device_classes/src/ux_device_class_cdc_acm_write_with_callback.c ****     }
 124:./Middlewares/ST/usbx/common/usbx_device_classes/src/ux_device_class_cdc_acm_write_with_callback.c **** 
 125:./Middlewares/ST/usbx/common/usbx_device_classes/src/ux_device_class_cdc_acm_write_with_callback.c ****     /* Have we already scheduled a buffer ?   */
 126:./Middlewares/ST/usbx/common/usbx_device_classes/src/ux_device_class_cdc_acm_write_with_callback.c ****     if (cdc_acm -> ux_slave_class_cdc_acm_scheduled_write == UX_TRUE)
  60              		.loc 1 126 5 is_stmt 1 view .LVU12
  61              		.loc 1 126 17 is_stmt 0 view .LVU13
  62 0014 D0F81C32 		ldr	r3, [r0, #540]
  63              		.loc 1 126 8 view .LVU14
  64 0018 012B     		cmp	r3, #1
  65 001a 15D0     		beq	.L5
 127:./Middlewares/ST/usbx/common/usbx_device_classes/src/ux_device_class_cdc_acm_write_with_callback.c ****     {
 128:./Middlewares/ST/usbx/common/usbx_device_classes/src/ux_device_class_cdc_acm_write_with_callback.c **** 
 129:./Middlewares/ST/usbx/common/usbx_device_classes/src/ux_device_class_cdc_acm_write_with_callback.c ****         /* We should not to that ! */
 130:./Middlewares/ST/usbx/common/usbx_device_classes/src/ux_device_class_cdc_acm_write_with_callback.c ****         return(UX_ERROR);
 131:./Middlewares/ST/usbx/common/usbx_device_classes/src/ux_device_class_cdc_acm_write_with_callback.c ****     }
 132:./Middlewares/ST/usbx/common/usbx_device_classes/src/ux_device_class_cdc_acm_write_with_callback.c **** 
 133:./Middlewares/ST/usbx/common/usbx_device_classes/src/ux_device_class_cdc_acm_write_with_callback.c **** #if defined(UX_DEVICE_STANDALONE)
 134:./Middlewares/ST/usbx/common/usbx_device_classes/src/ux_device_class_cdc_acm_write_with_callback.c **** 
 135:./Middlewares/ST/usbx/common/usbx_device_classes/src/ux_device_class_cdc_acm_write_with_callback.c ****     /* Save the length to be sent. */
 136:./Middlewares/ST/usbx/common/usbx_device_classes/src/ux_device_class_cdc_acm_write_with_callback.c ****     cdc_acm -> ux_device_class_cdc_acm_write_requested_length = requested_length;
 137:./Middlewares/ST/usbx/common/usbx_device_classes/src/ux_device_class_cdc_acm_write_with_callback.c **** 
 138:./Middlewares/ST/usbx/common/usbx_device_classes/src/ux_device_class_cdc_acm_write_with_callback.c ****     /* And the buffer pointer.  */
 139:./Middlewares/ST/usbx/common/usbx_device_classes/src/ux_device_class_cdc_acm_write_with_callback.c ****     cdc_acm -> ux_device_class_cdc_acm_write_buffer = buffer;
 140:./Middlewares/ST/usbx/common/usbx_device_classes/src/ux_device_class_cdc_acm_write_with_callback.c **** 
 141:./Middlewares/ST/usbx/common/usbx_device_classes/src/ux_device_class_cdc_acm_write_with_callback.c ****     /* Schedule a transmission.  */
 142:./Middlewares/ST/usbx/common/usbx_device_classes/src/ux_device_class_cdc_acm_write_with_callback.c ****     cdc_acm -> ux_slave_class_cdc_acm_scheduled_write = UX_TRUE;
 143:./Middlewares/ST/usbx/common/usbx_device_classes/src/ux_device_class_cdc_acm_write_with_callback.c **** 
 144:./Middlewares/ST/usbx/common/usbx_device_classes/src/ux_device_class_cdc_acm_write_with_callback.c ****     /* Status success.  */
 145:./Middlewares/ST/usbx/common/usbx_device_classes/src/ux_device_class_cdc_acm_write_with_callback.c ****     status = (UX_SUCCESS);
 146:./Middlewares/ST/usbx/common/usbx_device_classes/src/ux_device_class_cdc_acm_write_with_callback.c **** #else
 147:./Middlewares/ST/usbx/common/usbx_device_classes/src/ux_device_class_cdc_acm_write_with_callback.c **** 
 148:./Middlewares/ST/usbx/common/usbx_device_classes/src/ux_device_class_cdc_acm_write_with_callback.c ****     /* Save the length to be sent. */
 149:./Middlewares/ST/usbx/common/usbx_device_classes/src/ux_device_class_cdc_acm_write_with_callback.c ****     cdc_acm -> ux_slave_class_cdc_acm_callback_total_length = requested_length;
  66              		.loc 1 149 5 is_stmt 1 view .LVU15
  67              		.loc 1 149 61 is_stmt 0 view .LVU16
  68 001c C0F82022 		str	r2, [r0, #544]
 150:./Middlewares/ST/usbx/common/usbx_device_classes/src/ux_device_class_cdc_acm_write_with_callback.c **** 
 151:./Middlewares/ST/usbx/common/usbx_device_classes/src/ux_device_class_cdc_acm_write_with_callback.c ****     /* And the buffer pointer.  */
 152:./Middlewares/ST/usbx/common/usbx_device_classes/src/ux_device_class_cdc_acm_write_with_callback.c ****     cdc_acm -> ux_slave_class_cdc_acm_callback_data_pointer = buffer;
  69              		.loc 1 152 5 is_stmt 1 view .LVU17
  70              		.loc 1 152 61 is_stmt 0 view .LVU18
  71 0020 C0F82412 		str	r1, [r0, #548]
 153:./Middlewares/ST/usbx/common/usbx_device_classes/src/ux_device_class_cdc_acm_write_with_callback.c **** 
 154:./Middlewares/ST/usbx/common/usbx_device_classes/src/ux_device_class_cdc_acm_write_with_callback.c ****     /* Schedule a transmission.  */
 155:./Middlewares/ST/usbx/common/usbx_device_classes/src/ux_device_class_cdc_acm_write_with_callback.c ****     cdc_acm -> ux_slave_class_cdc_acm_scheduled_write = UX_TRUE;
  72              		.loc 1 155 5 is_stmt 1 view .LVU19
  73              		.loc 1 155 55 is_stmt 0 view .LVU20
  74 0024 0121     		movs	r1, #1
ARM GAS  C:\Users\Dennis\AppData\Local\Temp\ccGyPS9i.s 			page 5


  75              	.LVL3:
  76              		.loc 1 155 55 view .LVU21
  77 0026 C0F81C12 		str	r1, [r0, #540]
 156:./Middlewares/ST/usbx/common/usbx_device_classes/src/ux_device_class_cdc_acm_write_with_callback.c **** 
 157:./Middlewares/ST/usbx/common/usbx_device_classes/src/ux_device_class_cdc_acm_write_with_callback.c ****     /* Invoke the bulkin thread by sending a flag .  */
 158:./Middlewares/ST/usbx/common/usbx_device_classes/src/ux_device_class_cdc_acm_write_with_callback.c ****     status = _ux_utility_event_flags_set(&cdc_acm -> ux_slave_class_cdc_acm_event_flags_group, UX_D
  78              		.loc 1 158 5 is_stmt 1 view .LVU22
  79              		.loc 1 158 14 is_stmt 0 view .LVU23
  80 002a 0022     		movs	r2, #0
  81              	.LVL4:
  82              		.loc 1 158 14 view .LVU24
  83 002c 00F5F270 		add	r0, r0, #484
  84              	.LVL5:
  85              		.loc 1 158 14 view .LVU25
  86 0030 FFF7FEFF 		bl	_ux_utility_event_flags_set
  87              	.LVL6:
 159:./Middlewares/ST/usbx/common/usbx_device_classes/src/ux_device_class_cdc_acm_write_with_callback.c **** #endif
 160:./Middlewares/ST/usbx/common/usbx_device_classes/src/ux_device_class_cdc_acm_write_with_callback.c **** 
 161:./Middlewares/ST/usbx/common/usbx_device_classes/src/ux_device_class_cdc_acm_write_with_callback.c ****     /* Simply return the last function result.  When we leave this function, the deferred writing h
 162:./Middlewares/ST/usbx/common/usbx_device_classes/src/ux_device_class_cdc_acm_write_with_callback.c ****     return(status);
  88              		.loc 1 162 5 is_stmt 1 view .LVU26
  89              	.L1:
 163:./Middlewares/ST/usbx/common/usbx_device_classes/src/ux_device_class_cdc_acm_write_with_callback.c **** #endif
 164:./Middlewares/ST/usbx/common/usbx_device_classes/src/ux_device_class_cdc_acm_write_with_callback.c **** }
  90              		.loc 1 164 1 is_stmt 0 view .LVU27
  91 0034 08BD     		pop	{r3, pc}
  92              	.LVL7:
  93              	.L7:
 107:./Middlewares/ST/usbx/common/usbx_device_classes/src/ux_device_class_cdc_acm_write_with_callback.c **** 
  94              		.loc 1 107 9 is_stmt 1 view .LVU28
  95 0036 5122     		movs	r2, #81
  96              	.LVL8:
 107:./Middlewares/ST/usbx/common/usbx_device_classes/src/ux_device_class_cdc_acm_write_with_callback.c **** 
  97              		.loc 1 107 9 is_stmt 0 view .LVU29
  98 0038 0721     		movs	r1, #7
  99              	.LVL9:
 107:./Middlewares/ST/usbx/common/usbx_device_classes/src/ux_device_class_cdc_acm_write_with_callback.c **** 
 100              		.loc 1 107 9 view .LVU30
 101 003a 0220     		movs	r0, #2
 102              	.LVL10:
 107:./Middlewares/ST/usbx/common/usbx_device_classes/src/ux_device_class_cdc_acm_write_with_callback.c **** 
 103              		.loc 1 107 9 view .LVU31
 104 003c FFF7FEFF 		bl	_ux_system_error_handler
 105              	.LVL11:
 113:./Middlewares/ST/usbx/common/usbx_device_classes/src/ux_device_class_cdc_acm_write_with_callback.c ****     }
 106              		.loc 1 113 9 is_stmt 1 view .LVU32
 113:./Middlewares/ST/usbx/common/usbx_device_classes/src/ux_device_class_cdc_acm_write_with_callback.c ****     }
 107              		.loc 1 113 15 is_stmt 0 view .LVU33
 108 0040 5120     		movs	r0, #81
 109 0042 F7E7     		b	.L1
 110              	.LVL12:
 111              	.L4:
 121:./Middlewares/ST/usbx/common/usbx_device_classes/src/ux_device_class_cdc_acm_write_with_callback.c **** 
 112              		.loc 1 121 15 view .LVU34
 113 0044 FF20     		movs	r0, #255
 114              	.LVL13:
 121:./Middlewares/ST/usbx/common/usbx_device_classes/src/ux_device_class_cdc_acm_write_with_callback.c **** 
ARM GAS  C:\Users\Dennis\AppData\Local\Temp\ccGyPS9i.s 			page 6


 115              		.loc 1 121 15 view .LVU35
 116 0046 F5E7     		b	.L1
 117              	.LVL14:
 118              	.L5:
 130:./Middlewares/ST/usbx/common/usbx_device_classes/src/ux_device_class_cdc_acm_write_with_callback.c ****     }
 119              		.loc 1 130 15 view .LVU36
 120 0048 FF20     		movs	r0, #255
 121              	.LVL15:
 130:./Middlewares/ST/usbx/common/usbx_device_classes/src/ux_device_class_cdc_acm_write_with_callback.c ****     }
 122              		.loc 1 130 15 view .LVU37
 123 004a F3E7     		b	.L1
 124              	.L9:
 125              		.align	2
 126              	.L8:
 127 004c 00000000 		.word	_ux_system_slave
 128              		.cfi_endproc
 129              	.LFE11:
 131              		.text
 132              	.Letext0:
 133              		.file 2 "./Middlewares/ST/threadx/ports/cortex_m4/gnu/inc/tx_port.h"
 134              		.file 3 "./Middlewares/ST/threadx/common/inc/tx_api.h"
 135              		.file 4 "./Middlewares/ST/usbx/common/core/inc/ux_api.h"
 136              		.file 5 "./Middlewares/ST/usbx/common/usbx_device_classes/inc/ux_device_class_cdc_acm.h"
 137              		.file 6 "./Middlewares/ST/usbx/common/core/inc/ux_system.h"
 138              		.file 7 "./Middlewares/ST/usbx/common/core/inc/ux_utility.h"
ARM GAS  C:\Users\Dennis\AppData\Local\Temp\ccGyPS9i.s 			page 7


DEFINED SYMBOLS
                            *ABS*:00000000 ux_device_class_cdc_acm_write_with_callback.c
C:\Users\Dennis\AppData\Local\Temp\ccGyPS9i.s:20     .text._ux_device_class_cdc_acm_write_with_callback:00000000 $t
C:\Users\Dennis\AppData\Local\Temp\ccGyPS9i.s:26     .text._ux_device_class_cdc_acm_write_with_callback:00000000 _ux_device_class_cdc_acm_write_with_callback
C:\Users\Dennis\AppData\Local\Temp\ccGyPS9i.s:127    .text._ux_device_class_cdc_acm_write_with_callback:0000004c $d

UNDEFINED SYMBOLS
_ux_utility_event_flags_set
_ux_system_error_handler
_ux_system_slave
