ARM GAS  /tmp/ccDWVQKU.s 			page 1


   1              		.cpu cortex-m4
   2              		.arch armv7e-m
   3              		.fpu fpv4-sp-d16
   4              		.eabi_attribute 27, 1
   5              		.eabi_attribute 28, 1
   6              		.eabi_attribute 20, 1
   7              		.eabi_attribute 21, 1
   8              		.eabi_attribute 23, 3
   9              		.eabi_attribute 24, 1
  10              		.eabi_attribute 25, 1
  11              		.eabi_attribute 26, 1
  12              		.eabi_attribute 30, 1
  13              		.eabi_attribute 34, 1
  14              		.eabi_attribute 18, 4
  15              		.file	"ux_device_class_cdc_acm_initialize.c"
  16              		.text
  17              	.Ltext0:
  18              		.cfi_sections	.debug_frame
  19              		.file 1 "./Middlewares/ST/usbx/common/usbx_device_classes/src/ux_device_class_cdc_acm_initialize.c
  20              		.section	.rodata._ux_device_class_cdc_acm_initialize.str1.4,"aMS",%progbits,1
  21              		.align	2
  22              	.LC0:
  23 0000 75785F73 		.ascii	"ux_slave_class_cdc_acm_in_mutex\000"
  23      6C617665 
  23      5F636C61 
  23      73735F63 
  23      64635F61 
  24              		.align	2
  25              	.LC1:
  26 0020 75785F73 		.ascii	"ux_slave_class_cdc_acm_out_mutex\000"
  26      6C617665 
  26      5F636C61 
  26      73735F63 
  26      64635F61 
  27 0041 000000   		.align	2
  28              	.LC2:
  29 0044 75785F64 		.ascii	"ux_device_class_cdc_acm_event_flag\000"
  29      65766963 
  29      655F636C 
  29      6173735F 
  29      6364635F 
  30 0067 00       		.align	2
  31              	.LC3:
  32 0068 75785F73 		.ascii	"ux_slave_class_cdc_acm_bulkin_thread\000"
  32      6C617665 
  32      5F636C61 
  32      73735F63 
  32      64635F61 
  33 008d 000000   		.align	2
  34              	.LC4:
  35 0090 75785F73 		.ascii	"ux_slave_class_cdc_acm_bulkout_thread\000"
  35      6C617665 
  35      5F636C61 
  35      73735F63 
  35      64635F61 
  36              		.section	.text._ux_device_class_cdc_acm_initialize,"ax",%progbits
  37              		.align	1
ARM GAS  /tmp/ccDWVQKU.s 			page 2


  38              		.global	_ux_device_class_cdc_acm_initialize
  39              		.syntax unified
  40              		.thumb
  41              		.thumb_func
  43              	_ux_device_class_cdc_acm_initialize:
  44              	.LVL0:
  45              	.LFB11:
   1:./Middlewares/ST/usbx/common/usbx_device_classes/src/ux_device_class_cdc_acm_initialize.c **** /**************************************************************************/
   2:./Middlewares/ST/usbx/common/usbx_device_classes/src/ux_device_class_cdc_acm_initialize.c **** /*                                                                        */
   3:./Middlewares/ST/usbx/common/usbx_device_classes/src/ux_device_class_cdc_acm_initialize.c **** /*       Copyright (c) Microsoft Corporation. All rights reserved.        */
   4:./Middlewares/ST/usbx/common/usbx_device_classes/src/ux_device_class_cdc_acm_initialize.c **** /*                                                                        */
   5:./Middlewares/ST/usbx/common/usbx_device_classes/src/ux_device_class_cdc_acm_initialize.c **** /*       This software is licensed under the Microsoft Software License   */
   6:./Middlewares/ST/usbx/common/usbx_device_classes/src/ux_device_class_cdc_acm_initialize.c **** /*       Terms for Microsoft Azure RTOS. Full text of the license can be  */
   7:./Middlewares/ST/usbx/common/usbx_device_classes/src/ux_device_class_cdc_acm_initialize.c **** /*       found in the LICENSE file at https://aka.ms/AzureRTOS_EULA       */
   8:./Middlewares/ST/usbx/common/usbx_device_classes/src/ux_device_class_cdc_acm_initialize.c **** /*       and in the root directory of this software.                      */
   9:./Middlewares/ST/usbx/common/usbx_device_classes/src/ux_device_class_cdc_acm_initialize.c **** /*                                                                        */
  10:./Middlewares/ST/usbx/common/usbx_device_classes/src/ux_device_class_cdc_acm_initialize.c **** /**************************************************************************/
  11:./Middlewares/ST/usbx/common/usbx_device_classes/src/ux_device_class_cdc_acm_initialize.c **** 
  12:./Middlewares/ST/usbx/common/usbx_device_classes/src/ux_device_class_cdc_acm_initialize.c **** /**************************************************************************/
  13:./Middlewares/ST/usbx/common/usbx_device_classes/src/ux_device_class_cdc_acm_initialize.c **** /**                                                                       */ 
  14:./Middlewares/ST/usbx/common/usbx_device_classes/src/ux_device_class_cdc_acm_initialize.c **** /** USBX Component                                                        */ 
  15:./Middlewares/ST/usbx/common/usbx_device_classes/src/ux_device_class_cdc_acm_initialize.c **** /**                                                                       */
  16:./Middlewares/ST/usbx/common/usbx_device_classes/src/ux_device_class_cdc_acm_initialize.c **** /**   Device CDC Class                                                    */
  17:./Middlewares/ST/usbx/common/usbx_device_classes/src/ux_device_class_cdc_acm_initialize.c **** /**                                                                       */
  18:./Middlewares/ST/usbx/common/usbx_device_classes/src/ux_device_class_cdc_acm_initialize.c **** /**************************************************************************/
  19:./Middlewares/ST/usbx/common/usbx_device_classes/src/ux_device_class_cdc_acm_initialize.c **** /**************************************************************************/
  20:./Middlewares/ST/usbx/common/usbx_device_classes/src/ux_device_class_cdc_acm_initialize.c **** 
  21:./Middlewares/ST/usbx/common/usbx_device_classes/src/ux_device_class_cdc_acm_initialize.c **** #define UX_SOURCE_CODE
  22:./Middlewares/ST/usbx/common/usbx_device_classes/src/ux_device_class_cdc_acm_initialize.c **** 
  23:./Middlewares/ST/usbx/common/usbx_device_classes/src/ux_device_class_cdc_acm_initialize.c **** 
  24:./Middlewares/ST/usbx/common/usbx_device_classes/src/ux_device_class_cdc_acm_initialize.c **** /* Include necessary system files.  */
  25:./Middlewares/ST/usbx/common/usbx_device_classes/src/ux_device_class_cdc_acm_initialize.c **** 
  26:./Middlewares/ST/usbx/common/usbx_device_classes/src/ux_device_class_cdc_acm_initialize.c **** #include "ux_api.h"
  27:./Middlewares/ST/usbx/common/usbx_device_classes/src/ux_device_class_cdc_acm_initialize.c **** #include "ux_device_class_cdc_acm.h"
  28:./Middlewares/ST/usbx/common/usbx_device_classes/src/ux_device_class_cdc_acm_initialize.c **** #include "ux_device_stack.h"
  29:./Middlewares/ST/usbx/common/usbx_device_classes/src/ux_device_class_cdc_acm_initialize.c **** 
  30:./Middlewares/ST/usbx/common/usbx_device_classes/src/ux_device_class_cdc_acm_initialize.c **** 
  31:./Middlewares/ST/usbx/common/usbx_device_classes/src/ux_device_class_cdc_acm_initialize.c **** #if UX_OVERFLOW_CHECK_MULC_ULONG(UX_THREAD_STACK_SIZE, 2)
  32:./Middlewares/ST/usbx/common/usbx_device_classes/src/ux_device_class_cdc_acm_initialize.c **** #error UX_THREAD_STACK_SIZE too large
  33:./Middlewares/ST/usbx/common/usbx_device_classes/src/ux_device_class_cdc_acm_initialize.c **** #endif
  34:./Middlewares/ST/usbx/common/usbx_device_classes/src/ux_device_class_cdc_acm_initialize.c **** 
  35:./Middlewares/ST/usbx/common/usbx_device_classes/src/ux_device_class_cdc_acm_initialize.c **** /**************************************************************************/ 
  36:./Middlewares/ST/usbx/common/usbx_device_classes/src/ux_device_class_cdc_acm_initialize.c **** /*                                                                        */ 
  37:./Middlewares/ST/usbx/common/usbx_device_classes/src/ux_device_class_cdc_acm_initialize.c **** /*  FUNCTION                                               RELEASE        */ 
  38:./Middlewares/ST/usbx/common/usbx_device_classes/src/ux_device_class_cdc_acm_initialize.c **** /*                                                                        */ 
  39:./Middlewares/ST/usbx/common/usbx_device_classes/src/ux_device_class_cdc_acm_initialize.c **** /*    _ux_device_class_cdc_acm_initialize                 PORTABLE C      */ 
  40:./Middlewares/ST/usbx/common/usbx_device_classes/src/ux_device_class_cdc_acm_initialize.c **** /*                                                           6.1.10       */
  41:./Middlewares/ST/usbx/common/usbx_device_classes/src/ux_device_class_cdc_acm_initialize.c **** /*  AUTHOR                                                                */
  42:./Middlewares/ST/usbx/common/usbx_device_classes/src/ux_device_class_cdc_acm_initialize.c **** /*                                                                        */
  43:./Middlewares/ST/usbx/common/usbx_device_classes/src/ux_device_class_cdc_acm_initialize.c **** /*    Chaoqiong Xiao, Microsoft Corporation                               */
  44:./Middlewares/ST/usbx/common/usbx_device_classes/src/ux_device_class_cdc_acm_initialize.c **** /*                                                                        */
  45:./Middlewares/ST/usbx/common/usbx_device_classes/src/ux_device_class_cdc_acm_initialize.c **** /*  DESCRIPTION                                                           */
  46:./Middlewares/ST/usbx/common/usbx_device_classes/src/ux_device_class_cdc_acm_initialize.c **** /*                                                                        */ 
  47:./Middlewares/ST/usbx/common/usbx_device_classes/src/ux_device_class_cdc_acm_initialize.c **** /*    This function initializes the USB CDC device.                       */ 
  48:./Middlewares/ST/usbx/common/usbx_device_classes/src/ux_device_class_cdc_acm_initialize.c **** /*                                                                        */ 
  49:./Middlewares/ST/usbx/common/usbx_device_classes/src/ux_device_class_cdc_acm_initialize.c **** /*  INPUT                                                                 */ 
  50:./Middlewares/ST/usbx/common/usbx_device_classes/src/ux_device_class_cdc_acm_initialize.c **** /*                                                                        */ 
ARM GAS  /tmp/ccDWVQKU.s 			page 3


  51:./Middlewares/ST/usbx/common/usbx_device_classes/src/ux_device_class_cdc_acm_initialize.c **** /*    command                               Pointer to cdc_acm command    */ 
  52:./Middlewares/ST/usbx/common/usbx_device_classes/src/ux_device_class_cdc_acm_initialize.c **** /*                                                                        */ 
  53:./Middlewares/ST/usbx/common/usbx_device_classes/src/ux_device_class_cdc_acm_initialize.c **** /*  OUTPUT                                                                */ 
  54:./Middlewares/ST/usbx/common/usbx_device_classes/src/ux_device_class_cdc_acm_initialize.c **** /*                                                                        */ 
  55:./Middlewares/ST/usbx/common/usbx_device_classes/src/ux_device_class_cdc_acm_initialize.c **** /*    Completion Status                                                   */ 
  56:./Middlewares/ST/usbx/common/usbx_device_classes/src/ux_device_class_cdc_acm_initialize.c **** /*                                                                        */ 
  57:./Middlewares/ST/usbx/common/usbx_device_classes/src/ux_device_class_cdc_acm_initialize.c **** /*  CALLS                                                                 */ 
  58:./Middlewares/ST/usbx/common/usbx_device_classes/src/ux_device_class_cdc_acm_initialize.c **** /*                                                                        */ 
  59:./Middlewares/ST/usbx/common/usbx_device_classes/src/ux_device_class_cdc_acm_initialize.c **** /*    _ux_utility_memory_allocate           Allocate memory               */ 
  60:./Middlewares/ST/usbx/common/usbx_device_classes/src/ux_device_class_cdc_acm_initialize.c **** /*    _ux_utility_memory_free               Free memory                   */ 
  61:./Middlewares/ST/usbx/common/usbx_device_classes/src/ux_device_class_cdc_acm_initialize.c **** /*    _ux_utility_mutex_create              Create mutex                  */ 
  62:./Middlewares/ST/usbx/common/usbx_device_classes/src/ux_device_class_cdc_acm_initialize.c **** /*    _ux_utility_mutex_delete              Delete mutex                  */ 
  63:./Middlewares/ST/usbx/common/usbx_device_classes/src/ux_device_class_cdc_acm_initialize.c **** /*                                                                        */ 
  64:./Middlewares/ST/usbx/common/usbx_device_classes/src/ux_device_class_cdc_acm_initialize.c **** /*  CALLED BY                                                             */ 
  65:./Middlewares/ST/usbx/common/usbx_device_classes/src/ux_device_class_cdc_acm_initialize.c **** /*                                                                        */ 
  66:./Middlewares/ST/usbx/common/usbx_device_classes/src/ux_device_class_cdc_acm_initialize.c **** /*    USBX Source Code                                                    */ 
  67:./Middlewares/ST/usbx/common/usbx_device_classes/src/ux_device_class_cdc_acm_initialize.c **** /*                                                                        */ 
  68:./Middlewares/ST/usbx/common/usbx_device_classes/src/ux_device_class_cdc_acm_initialize.c **** /*  RELEASE HISTORY                                                       */ 
  69:./Middlewares/ST/usbx/common/usbx_device_classes/src/ux_device_class_cdc_acm_initialize.c **** /*                                                                        */ 
  70:./Middlewares/ST/usbx/common/usbx_device_classes/src/ux_device_class_cdc_acm_initialize.c **** /*    DATE              NAME                      DESCRIPTION             */ 
  71:./Middlewares/ST/usbx/common/usbx_device_classes/src/ux_device_class_cdc_acm_initialize.c **** /*                                                                        */ 
  72:./Middlewares/ST/usbx/common/usbx_device_classes/src/ux_device_class_cdc_acm_initialize.c **** /*  05-19-2020     Chaoqiong Xiao           Initial Version 6.0           */
  73:./Middlewares/ST/usbx/common/usbx_device_classes/src/ux_device_class_cdc_acm_initialize.c **** /*  09-30-2020     Chaoqiong Xiao           Modified comment(s),          */
  74:./Middlewares/ST/usbx/common/usbx_device_classes/src/ux_device_class_cdc_acm_initialize.c **** /*                                            resulting in version 6.1    */
  75:./Middlewares/ST/usbx/common/usbx_device_classes/src/ux_device_class_cdc_acm_initialize.c **** /*  04-02-2021     Chaoqiong Xiao           Modified comment(s),          */
  76:./Middlewares/ST/usbx/common/usbx_device_classes/src/ux_device_class_cdc_acm_initialize.c **** /*                                            added macro to disable      */
  77:./Middlewares/ST/usbx/common/usbx_device_classes/src/ux_device_class_cdc_acm_initialize.c **** /*                                            transmission support,       */
  78:./Middlewares/ST/usbx/common/usbx_device_classes/src/ux_device_class_cdc_acm_initialize.c **** /*                                            moved transmission resource */
  79:./Middlewares/ST/usbx/common/usbx_device_classes/src/ux_device_class_cdc_acm_initialize.c **** /*                                            allocate to here (init),    */
  80:./Middlewares/ST/usbx/common/usbx_device_classes/src/ux_device_class_cdc_acm_initialize.c **** /*                                            resulting in version 6.1.6  */
  81:./Middlewares/ST/usbx/common/usbx_device_classes/src/ux_device_class_cdc_acm_initialize.c **** /*  01-31-2022     Chaoqiong Xiao           Modified comment(s),          */
  82:./Middlewares/ST/usbx/common/usbx_device_classes/src/ux_device_class_cdc_acm_initialize.c **** /*                                            added standalone support,   */
  83:./Middlewares/ST/usbx/common/usbx_device_classes/src/ux_device_class_cdc_acm_initialize.c **** /*                                            resulting in version 6.1.10 */
  84:./Middlewares/ST/usbx/common/usbx_device_classes/src/ux_device_class_cdc_acm_initialize.c **** /*                                                                        */
  85:./Middlewares/ST/usbx/common/usbx_device_classes/src/ux_device_class_cdc_acm_initialize.c **** /**************************************************************************/
  86:./Middlewares/ST/usbx/common/usbx_device_classes/src/ux_device_class_cdc_acm_initialize.c **** UINT  _ux_device_class_cdc_acm_initialize(UX_SLAVE_CLASS_COMMAND *command)
  87:./Middlewares/ST/usbx/common/usbx_device_classes/src/ux_device_class_cdc_acm_initialize.c **** {
  46              		.loc 1 87 1 view -0
  47              		.cfi_startproc
  48              		@ args = 0, pretend = 0, frame = 0
  49              		@ frame_needed = 0, uses_anonymous_args = 0
  50              		.loc 1 87 1 is_stmt 0 view .LVU1
  51 0000 F0B5     		push	{r4, r5, r6, r7, lr}
  52              	.LCFI0:
  53              		.cfi_def_cfa_offset 20
  54              		.cfi_offset 4, -20
  55              		.cfi_offset 5, -16
  56              		.cfi_offset 6, -12
  57              		.cfi_offset 7, -8
  58              		.cfi_offset 14, -4
  59 0002 87B0     		sub	sp, sp, #28
  60              	.LCFI1:
  61              		.cfi_def_cfa_offset 48
  62 0004 0546     		mov	r5, r0
  88:./Middlewares/ST/usbx/common/usbx_device_classes/src/ux_device_class_cdc_acm_initialize.c ****                                           
  89:./Middlewares/ST/usbx/common/usbx_device_classes/src/ux_device_class_cdc_acm_initialize.c **** UX_SLAVE_CLASS_CDC_ACM                  *cdc_acm;
  63              		.loc 1 89 1 is_stmt 1 view .LVU2
ARM GAS  /tmp/ccDWVQKU.s 			page 4


  90:./Middlewares/ST/usbx/common/usbx_device_classes/src/ux_device_class_cdc_acm_initialize.c **** UX_SLAVE_CLASS_CDC_ACM_PARAMETER        *cdc_acm_parameter;
  64              		.loc 1 90 1 view .LVU3
  91:./Middlewares/ST/usbx/common/usbx_device_classes/src/ux_device_class_cdc_acm_initialize.c **** UX_SLAVE_CLASS                          *class;
  65              		.loc 1 91 1 view .LVU4
  92:./Middlewares/ST/usbx/common/usbx_device_classes/src/ux_device_class_cdc_acm_initialize.c **** #if !defined(UX_DEVICE_STANDALONE)
  93:./Middlewares/ST/usbx/common/usbx_device_classes/src/ux_device_class_cdc_acm_initialize.c **** UINT                                    status;
  66              		.loc 1 93 1 view .LVU5
  94:./Middlewares/ST/usbx/common/usbx_device_classes/src/ux_device_class_cdc_acm_initialize.c **** #endif
  95:./Middlewares/ST/usbx/common/usbx_device_classes/src/ux_device_class_cdc_acm_initialize.c **** 
  96:./Middlewares/ST/usbx/common/usbx_device_classes/src/ux_device_class_cdc_acm_initialize.c ****     /* Get the class container.  */
  97:./Middlewares/ST/usbx/common/usbx_device_classes/src/ux_device_class_cdc_acm_initialize.c ****     class =  command -> ux_slave_class_command_class_ptr;
  67              		.loc 1 97 5 view .LVU6
  68              		.loc 1 97 11 is_stmt 0 view .LVU7
  69 0006 066A     		ldr	r6, [r0, #32]
  70              	.LVL1:
  98:./Middlewares/ST/usbx/common/usbx_device_classes/src/ux_device_class_cdc_acm_initialize.c **** 
  99:./Middlewares/ST/usbx/common/usbx_device_classes/src/ux_device_class_cdc_acm_initialize.c ****     /* Create an instance of the device cdc_acm class.  */
 100:./Middlewares/ST/usbx/common/usbx_device_classes/src/ux_device_class_cdc_acm_initialize.c ****     cdc_acm =  _ux_utility_memory_allocate(UX_NO_ALIGN, UX_REGULAR_MEMORY, sizeof(UX_SLAVE_CLASS_CD
  71              		.loc 1 100 5 is_stmt 1 view .LVU8
  72              		.loc 1 100 16 is_stmt 0 view .LVU9
  73 0008 4FF40B72 		mov	r2, #556
  74 000c 0021     		movs	r1, #0
  75 000e 0846     		mov	r0, r1
  76              	.LVL2:
  77              		.loc 1 100 16 view .LVU10
  78 0010 FFF7FEFF 		bl	_ux_utility_memory_allocate
  79              	.LVL3:
 101:./Middlewares/ST/usbx/common/usbx_device_classes/src/ux_device_class_cdc_acm_initialize.c **** 
 102:./Middlewares/ST/usbx/common/usbx_device_classes/src/ux_device_class_cdc_acm_initialize.c ****     /* Check for successful allocation.  */
 103:./Middlewares/ST/usbx/common/usbx_device_classes/src/ux_device_class_cdc_acm_initialize.c ****     if (cdc_acm == UX_NULL)
  80              		.loc 1 103 5 is_stmt 1 view .LVU11
  81              		.loc 1 103 8 is_stmt 0 view .LVU12
  82 0014 0028     		cmp	r0, #0
  83 0016 00F09980 		beq	.L9
  84 001a 0446     		mov	r4, r0
 104:./Middlewares/ST/usbx/common/usbx_device_classes/src/ux_device_class_cdc_acm_initialize.c ****         return(UX_MEMORY_INSUFFICIENT);
 105:./Middlewares/ST/usbx/common/usbx_device_classes/src/ux_device_class_cdc_acm_initialize.c **** 
 106:./Middlewares/ST/usbx/common/usbx_device_classes/src/ux_device_class_cdc_acm_initialize.c ****     /* Save the address of the CDC instance inside the CDC container.  */
 107:./Middlewares/ST/usbx/common/usbx_device_classes/src/ux_device_class_cdc_acm_initialize.c ****     class -> ux_slave_class_instance = (VOID *) cdc_acm;
  85              		.loc 1 107 5 is_stmt 1 view .LVU13
  86              		.loc 1 107 38 is_stmt 0 view .LVU14
  87 001c B064     		str	r0, [r6, #72]
 108:./Middlewares/ST/usbx/common/usbx_device_classes/src/ux_device_class_cdc_acm_initialize.c **** 
 109:./Middlewares/ST/usbx/common/usbx_device_classes/src/ux_device_class_cdc_acm_initialize.c ****     /* Get the pointer to the application parameters for the cdc_acm class.  */
 110:./Middlewares/ST/usbx/common/usbx_device_classes/src/ux_device_class_cdc_acm_initialize.c ****     cdc_acm_parameter =  command -> ux_slave_class_command_parameter;
  88              		.loc 1 110 5 is_stmt 1 view .LVU15
  89              		.loc 1 110 23 is_stmt 0 view .LVU16
  90 001e 6B6A     		ldr	r3, [r5, #36]
  91              	.LVL4:
 111:./Middlewares/ST/usbx/common/usbx_device_classes/src/ux_device_class_cdc_acm_initialize.c **** 
 112:./Middlewares/ST/usbx/common/usbx_device_classes/src/ux_device_class_cdc_acm_initialize.c ****     /* Store the start and stop signals if needed by the application.  */
 113:./Middlewares/ST/usbx/common/usbx_device_classes/src/ux_device_class_cdc_acm_initialize.c ****     cdc_acm -> ux_slave_class_cdc_acm_parameter.ux_slave_class_cdc_acm_instance_activate = cdc_acm_
  92              		.loc 1 113 5 is_stmt 1 view .LVU17
  93              		.loc 1 113 110 is_stmt 0 view .LVU18
  94 0020 1A68     		ldr	r2, [r3]
  95              		.loc 1 113 90 view .LVU19
  96 0022 4260     		str	r2, [r0, #4]
ARM GAS  /tmp/ccDWVQKU.s 			page 5


 114:./Middlewares/ST/usbx/common/usbx_device_classes/src/ux_device_class_cdc_acm_initialize.c ****     cdc_acm -> ux_slave_class_cdc_acm_parameter.ux_slave_class_cdc_acm_instance_deactivate = cdc_ac
  97              		.loc 1 114 5 is_stmt 1 view .LVU20
  98              		.loc 1 114 112 is_stmt 0 view .LVU21
  99 0024 5A68     		ldr	r2, [r3, #4]
 100              		.loc 1 114 92 view .LVU22
 101 0026 8260     		str	r2, [r0, #8]
 115:./Middlewares/ST/usbx/common/usbx_device_classes/src/ux_device_class_cdc_acm_initialize.c ****     cdc_acm -> ux_slave_class_cdc_acm_parameter.ux_slave_class_cdc_acm_parameter_change = cdc_acm_p
 102              		.loc 1 115 5 is_stmt 1 view .LVU23
 103              		.loc 1 115 109 is_stmt 0 view .LVU24
 104 0028 9B68     		ldr	r3, [r3, #8]
 105              	.LVL5:
 106              		.loc 1 115 89 view .LVU25
 107 002a C360     		str	r3, [r0, #12]
 116:./Middlewares/ST/usbx/common/usbx_device_classes/src/ux_device_class_cdc_acm_initialize.c **** 
 117:./Middlewares/ST/usbx/common/usbx_device_classes/src/ux_device_class_cdc_acm_initialize.c **** #if !defined(UX_DEVICE_STANDALONE)
 118:./Middlewares/ST/usbx/common/usbx_device_classes/src/ux_device_class_cdc_acm_initialize.c **** 
 119:./Middlewares/ST/usbx/common/usbx_device_classes/src/ux_device_class_cdc_acm_initialize.c ****     /* Create the Mutex for each endpoint as multiple threads cannot access each pipe at the same t
 120:./Middlewares/ST/usbx/common/usbx_device_classes/src/ux_device_class_cdc_acm_initialize.c ****     status =  _ux_utility_mutex_create(&cdc_acm -> ux_slave_class_cdc_acm_endpoint_in_mutex, "ux_sl
 108              		.loc 1 120 5 is_stmt 1 view .LVU26
 109              		.loc 1 120 15 is_stmt 0 view .LVU27
 110 002c 00F11005 		add	r5, r0, #16
 111              	.LVL6:
 112              		.loc 1 120 15 view .LVU28
 113 0030 4749     		ldr	r1, .L20
 114 0032 2846     		mov	r0, r5
 115              	.LVL7:
 116              		.loc 1 120 15 view .LVU29
 117 0034 FFF7FEFF 		bl	_ux_utility_mutex_create
 118              	.LVL8:
 121:./Middlewares/ST/usbx/common/usbx_device_classes/src/ux_device_class_cdc_acm_initialize.c **** 
 122:./Middlewares/ST/usbx/common/usbx_device_classes/src/ux_device_class_cdc_acm_initialize.c ****     /* Check Mutex creation error.  */
 123:./Middlewares/ST/usbx/common/usbx_device_classes/src/ux_device_class_cdc_acm_initialize.c ****     if(status != UX_SUCCESS)
 119              		.loc 1 123 5 is_stmt 1 view .LVU30
 120              		.loc 1 123 7 is_stmt 0 view .LVU31
 121 0038 0028     		cmp	r0, #0
 122 003a 40D1     		bne	.L14
 124:./Middlewares/ST/usbx/common/usbx_device_classes/src/ux_device_class_cdc_acm_initialize.c ****     {
 125:./Middlewares/ST/usbx/common/usbx_device_classes/src/ux_device_class_cdc_acm_initialize.c **** 
 126:./Middlewares/ST/usbx/common/usbx_device_classes/src/ux_device_class_cdc_acm_initialize.c ****         /* Free the resources.  */
 127:./Middlewares/ST/usbx/common/usbx_device_classes/src/ux_device_class_cdc_acm_initialize.c ****         _ux_utility_memory_free(cdc_acm);
 128:./Middlewares/ST/usbx/common/usbx_device_classes/src/ux_device_class_cdc_acm_initialize.c ****         
 129:./Middlewares/ST/usbx/common/usbx_device_classes/src/ux_device_class_cdc_acm_initialize.c ****         /* Return fatal error.  */
 130:./Middlewares/ST/usbx/common/usbx_device_classes/src/ux_device_class_cdc_acm_initialize.c ****         return(UX_MUTEX_ERROR);
 131:./Middlewares/ST/usbx/common/usbx_device_classes/src/ux_device_class_cdc_acm_initialize.c ****     }        
 132:./Middlewares/ST/usbx/common/usbx_device_classes/src/ux_device_class_cdc_acm_initialize.c **** 
 133:./Middlewares/ST/usbx/common/usbx_device_classes/src/ux_device_class_cdc_acm_initialize.c ****     /* Out Mutex. */
 134:./Middlewares/ST/usbx/common/usbx_device_classes/src/ux_device_class_cdc_acm_initialize.c ****     status =  _ux_utility_mutex_create(&cdc_acm -> ux_slave_class_cdc_acm_endpoint_out_mutex, "ux_s
 123              		.loc 1 134 5 is_stmt 1 view .LVU32
 124              		.loc 1 134 15 is_stmt 0 view .LVU33
 125 003c 04F14407 		add	r7, r4, #68
 126 0040 4449     		ldr	r1, .L20+4
 127 0042 3846     		mov	r0, r7
 128              	.LVL9:
 129              		.loc 1 134 15 view .LVU34
 130 0044 FFF7FEFF 		bl	_ux_utility_mutex_create
 131              	.LVL10:
 135:./Middlewares/ST/usbx/common/usbx_device_classes/src/ux_device_class_cdc_acm_initialize.c **** 
ARM GAS  /tmp/ccDWVQKU.s 			page 6


 136:./Middlewares/ST/usbx/common/usbx_device_classes/src/ux_device_class_cdc_acm_initialize.c ****     /* Check Mutex creation error.  */
 137:./Middlewares/ST/usbx/common/usbx_device_classes/src/ux_device_class_cdc_acm_initialize.c ****     if(status != UX_SUCCESS)
 132              		.loc 1 137 5 is_stmt 1 view .LVU35
 133              		.loc 1 137 7 is_stmt 0 view .LVU36
 134 0048 0028     		cmp	r0, #0
 135 004a 3DD1     		bne	.L15
 138:./Middlewares/ST/usbx/common/usbx_device_classes/src/ux_device_class_cdc_acm_initialize.c ****     {
 139:./Middlewares/ST/usbx/common/usbx_device_classes/src/ux_device_class_cdc_acm_initialize.c **** 
 140:./Middlewares/ST/usbx/common/usbx_device_classes/src/ux_device_class_cdc_acm_initialize.c ****         /* Delete the endpoint IN mutex.  */
 141:./Middlewares/ST/usbx/common/usbx_device_classes/src/ux_device_class_cdc_acm_initialize.c ****         _ux_utility_mutex_delete(&cdc_acm -> ux_slave_class_cdc_acm_endpoint_in_mutex);
 142:./Middlewares/ST/usbx/common/usbx_device_classes/src/ux_device_class_cdc_acm_initialize.c **** 
 143:./Middlewares/ST/usbx/common/usbx_device_classes/src/ux_device_class_cdc_acm_initialize.c ****         /* Free the resources.  */
 144:./Middlewares/ST/usbx/common/usbx_device_classes/src/ux_device_class_cdc_acm_initialize.c ****         _ux_utility_memory_free(cdc_acm);
 145:./Middlewares/ST/usbx/common/usbx_device_classes/src/ux_device_class_cdc_acm_initialize.c ****         
 146:./Middlewares/ST/usbx/common/usbx_device_classes/src/ux_device_class_cdc_acm_initialize.c ****         /* Return fatal error.  */
 147:./Middlewares/ST/usbx/common/usbx_device_classes/src/ux_device_class_cdc_acm_initialize.c ****         return(UX_MUTEX_ERROR);
 148:./Middlewares/ST/usbx/common/usbx_device_classes/src/ux_device_class_cdc_acm_initialize.c ****     }        
 149:./Middlewares/ST/usbx/common/usbx_device_classes/src/ux_device_class_cdc_acm_initialize.c ****     
 150:./Middlewares/ST/usbx/common/usbx_device_classes/src/ux_device_class_cdc_acm_initialize.c **** #endif
 151:./Middlewares/ST/usbx/common/usbx_device_classes/src/ux_device_class_cdc_acm_initialize.c **** 
 152:./Middlewares/ST/usbx/common/usbx_device_classes/src/ux_device_class_cdc_acm_initialize.c ****     /* Update the line coding fields with default values.  */
 153:./Middlewares/ST/usbx/common/usbx_device_classes/src/ux_device_class_cdc_acm_initialize.c ****     cdc_acm -> ux_slave_class_cdc_acm_baudrate  =  UX_SLAVE_CLASS_CDC_ACM_LINE_CODING_BAUDRATE;
 136              		.loc 1 153 5 is_stmt 1 view .LVU37
 137              		.loc 1 153 49 is_stmt 0 view .LVU38
 138 004c 4FF4E133 		mov	r3, #115200
 139 0050 A367     		str	r3, [r4, #120]
 154:./Middlewares/ST/usbx/common/usbx_device_classes/src/ux_device_class_cdc_acm_initialize.c ****     cdc_acm -> ux_slave_class_cdc_acm_stop_bit  =  UX_SLAVE_CLASS_CDC_ACM_LINE_CODING_STOP_BIT;
 140              		.loc 1 154 5 is_stmt 1 view .LVU39
 141              		.loc 1 154 49 is_stmt 0 view .LVU40
 142 0052 0123     		movs	r3, #1
 143 0054 84F87C30 		strb	r3, [r4, #124]
 155:./Middlewares/ST/usbx/common/usbx_device_classes/src/ux_device_class_cdc_acm_initialize.c ****     cdc_acm -> ux_slave_class_cdc_acm_parity    =  UX_SLAVE_CLASS_CDC_ACM_LINE_CODING_PARITY;
 144              		.loc 1 155 5 is_stmt 1 view .LVU41
 145              		.loc 1 155 49 is_stmt 0 view .LVU42
 146 0058 0020     		movs	r0, #0
 147              	.LVL11:
 148              		.loc 1 155 49 view .LVU43
 149 005a 84F87D00 		strb	r0, [r4, #125]
 156:./Middlewares/ST/usbx/common/usbx_device_classes/src/ux_device_class_cdc_acm_initialize.c ****     cdc_acm -> ux_slave_class_cdc_acm_data_bit  =  UX_SLAVE_CLASS_CDC_ACM_LINE_CODING_DATA_BIT;
 150              		.loc 1 156 5 is_stmt 1 view .LVU44
 151              		.loc 1 156 49 is_stmt 0 view .LVU45
 152 005e 0823     		movs	r3, #8
 153 0060 84F87E30 		strb	r3, [r4, #126]
 157:./Middlewares/ST/usbx/common/usbx_device_classes/src/ux_device_class_cdc_acm_initialize.c **** 
 158:./Middlewares/ST/usbx/common/usbx_device_classes/src/ux_device_class_cdc_acm_initialize.c **** #ifndef UX_DEVICE_CLASS_CDC_ACM_TRANSMISSION_DISABLE
 159:./Middlewares/ST/usbx/common/usbx_device_classes/src/ux_device_class_cdc_acm_initialize.c **** 
 160:./Middlewares/ST/usbx/common/usbx_device_classes/src/ux_device_class_cdc_acm_initialize.c **** #if defined(UX_DEVICE_STANDALONE)
 161:./Middlewares/ST/usbx/common/usbx_device_classes/src/ux_device_class_cdc_acm_initialize.c **** 
 162:./Middlewares/ST/usbx/common/usbx_device_classes/src/ux_device_class_cdc_acm_initialize.c ****     /* Set task function.  */
 163:./Middlewares/ST/usbx/common/usbx_device_classes/src/ux_device_class_cdc_acm_initialize.c ****     class -> ux_slave_class_task_function = _ux_device_class_cdc_acm_tasks_run;
 164:./Middlewares/ST/usbx/common/usbx_device_classes/src/ux_device_class_cdc_acm_initialize.c **** #else
 165:./Middlewares/ST/usbx/common/usbx_device_classes/src/ux_device_class_cdc_acm_initialize.c **** 
 166:./Middlewares/ST/usbx/common/usbx_device_classes/src/ux_device_class_cdc_acm_initialize.c ****     /* We need to prepare the 2 threads for sending and receiving.  */
 167:./Middlewares/ST/usbx/common/usbx_device_classes/src/ux_device_class_cdc_acm_initialize.c ****     /* Allocate some memory for the bulk out and in thread stack. */
 168:./Middlewares/ST/usbx/common/usbx_device_classes/src/ux_device_class_cdc_acm_initialize.c ****     cdc_acm -> ux_slave_class_cdc_acm_bulkout_thread_stack =  
 154              		.loc 1 168 5 is_stmt 1 view .LVU46
 169:./Middlewares/ST/usbx/common/usbx_device_classes/src/ux_device_class_cdc_acm_initialize.c ****             _ux_utility_memory_allocate(UX_NO_ALIGN, UX_REGULAR_MEMORY, UX_THREAD_STACK_SIZE * 2);
ARM GAS  /tmp/ccDWVQKU.s 			page 7


 155              		.loc 1 169 13 is_stmt 0 view .LVU47
 156 0064 4FF40062 		mov	r2, #2048
 157 0068 0146     		mov	r1, r0
 158 006a FFF7FEFF 		bl	_ux_utility_memory_allocate
 159              	.LVL12:
 168:./Middlewares/ST/usbx/common/usbx_device_classes/src/ux_device_class_cdc_acm_initialize.c ****             _ux_utility_memory_allocate(UX_NO_ALIGN, UX_REGULAR_MEMORY, UX_THREAD_STACK_SIZE * 2);
 160              		.loc 1 168 60 view .LVU48
 161 006e C4F80C02 		str	r0, [r4, #524]
 170:./Middlewares/ST/usbx/common/usbx_device_classes/src/ux_device_class_cdc_acm_initialize.c **** 
 171:./Middlewares/ST/usbx/common/usbx_device_classes/src/ux_device_class_cdc_acm_initialize.c ****     /* Check for successful allocation.  */
 172:./Middlewares/ST/usbx/common/usbx_device_classes/src/ux_device_class_cdc_acm_initialize.c ****     if (cdc_acm -> ux_slave_class_cdc_acm_bulkout_thread_stack == UX_NULL)
 162              		.loc 1 172 5 is_stmt 1 view .LVU49
 163              		.loc 1 172 8 is_stmt 0 view .LVU50
 164 0072 0028     		cmp	r0, #0
 165 0074 5ED0     		beq	.L10
 173:./Middlewares/ST/usbx/common/usbx_device_classes/src/ux_device_class_cdc_acm_initialize.c **** 
 174:./Middlewares/ST/usbx/common/usbx_device_classes/src/ux_device_class_cdc_acm_initialize.c ****         /* Return the status to the caller.  */
 175:./Middlewares/ST/usbx/common/usbx_device_classes/src/ux_device_class_cdc_acm_initialize.c ****         status = (UX_MEMORY_INSUFFICIENT);
 176:./Middlewares/ST/usbx/common/usbx_device_classes/src/ux_device_class_cdc_acm_initialize.c **** 
 177:./Middlewares/ST/usbx/common/usbx_device_classes/src/ux_device_class_cdc_acm_initialize.c ****     /* If success, go on to create event flags.  */
 178:./Middlewares/ST/usbx/common/usbx_device_classes/src/ux_device_class_cdc_acm_initialize.c ****     if (status == UX_SUCCESS)
 166              		.loc 1 178 5 is_stmt 1 view .LVU51
 179:./Middlewares/ST/usbx/common/usbx_device_classes/src/ux_device_class_cdc_acm_initialize.c ****     {
 180:./Middlewares/ST/usbx/common/usbx_device_classes/src/ux_device_class_cdc_acm_initialize.c **** 
 181:./Middlewares/ST/usbx/common/usbx_device_classes/src/ux_device_class_cdc_acm_initialize.c ****         /* Allocate some memory for the bulk in thread stack. */
 182:./Middlewares/ST/usbx/common/usbx_device_classes/src/ux_device_class_cdc_acm_initialize.c ****         cdc_acm -> ux_slave_class_cdc_acm_bulkin_thread_stack =
 167              		.loc 1 182 9 view .LVU52
 183:./Middlewares/ST/usbx/common/usbx_device_classes/src/ux_device_class_cdc_acm_initialize.c ****             cdc_acm -> ux_slave_class_cdc_acm_bulkout_thread_stack + UX_THREAD_STACK_SIZE;
 168              		.loc 1 183 68 is_stmt 0 view .LVU53
 169 0076 00F58060 		add	r0, r0, #1024
 182:./Middlewares/ST/usbx/common/usbx_device_classes/src/ux_device_class_cdc_acm_initialize.c ****             cdc_acm -> ux_slave_class_cdc_acm_bulkout_thread_stack + UX_THREAD_STACK_SIZE;
 170              		.loc 1 182 63 view .LVU54
 171 007a C4F80802 		str	r0, [r4, #520]
 184:./Middlewares/ST/usbx/common/usbx_device_classes/src/ux_device_class_cdc_acm_initialize.c **** 
 185:./Middlewares/ST/usbx/common/usbx_device_classes/src/ux_device_class_cdc_acm_initialize.c ****         /* Create a event flag group for the cdc_acm class to synchronize with the application writ
 186:./Middlewares/ST/usbx/common/usbx_device_classes/src/ux_device_class_cdc_acm_initialize.c ****         status =  _ux_utility_event_flags_create(
 172              		.loc 1 186 9 is_stmt 1 view .LVU55
 173              		.loc 1 186 19 is_stmt 0 view .LVU56
 174 007e 3649     		ldr	r1, .L20+8
 175 0080 04F5F270 		add	r0, r4, #484
 176 0084 FFF7FEFF 		bl	_ux_utility_event_flags_create
 177              	.LVL13:
 187:./Middlewares/ST/usbx/common/usbx_device_classes/src/ux_device_class_cdc_acm_initialize.c ****                         &cdc_acm -> ux_slave_class_cdc_acm_event_flags_group,
 188:./Middlewares/ST/usbx/common/usbx_device_classes/src/ux_device_class_cdc_acm_initialize.c ****                         "ux_device_class_cdc_acm_event_flag");
 189:./Middlewares/ST/usbx/common/usbx_device_classes/src/ux_device_class_cdc_acm_initialize.c **** 
 190:./Middlewares/ST/usbx/common/usbx_device_classes/src/ux_device_class_cdc_acm_initialize.c ****         /* Check status.  */
 191:./Middlewares/ST/usbx/common/usbx_device_classes/src/ux_device_class_cdc_acm_initialize.c ****         if (status != UX_SUCCESS)
 178              		.loc 1 191 9 is_stmt 1 view .LVU57
 179              		.loc 1 191 12 is_stmt 0 view .LVU58
 180 0088 30B3     		cbz	r0, .L16
 192:./Middlewares/ST/usbx/common/usbx_device_classes/src/ux_device_class_cdc_acm_initialize.c ****         {
 193:./Middlewares/ST/usbx/common/usbx_device_classes/src/ux_device_class_cdc_acm_initialize.c ****             status = (UX_EVENT_ERROR);
 181              		.loc 1 193 20 view .LVU59
 182 008a 1826     		movs	r6, #24
 183              	.LVL14:
 184              	.L5:
 194:./Middlewares/ST/usbx/common/usbx_device_classes/src/ux_device_class_cdc_acm_initialize.c ****         }
ARM GAS  /tmp/ccDWVQKU.s 			page 8


 195:./Middlewares/ST/usbx/common/usbx_device_classes/src/ux_device_class_cdc_acm_initialize.c ****     }
 196:./Middlewares/ST/usbx/common/usbx_device_classes/src/ux_device_class_cdc_acm_initialize.c **** 
 197:./Middlewares/ST/usbx/common/usbx_device_classes/src/ux_device_class_cdc_acm_initialize.c ****     /* If success, go on to create bulkin thread.  */
 198:./Middlewares/ST/usbx/common/usbx_device_classes/src/ux_device_class_cdc_acm_initialize.c ****     if (status == UX_SUCCESS)
 199:./Middlewares/ST/usbx/common/usbx_device_classes/src/ux_device_class_cdc_acm_initialize.c ****     {
 200:./Middlewares/ST/usbx/common/usbx_device_classes/src/ux_device_class_cdc_acm_initialize.c **** 
 201:./Middlewares/ST/usbx/common/usbx_device_classes/src/ux_device_class_cdc_acm_initialize.c ****         /* Bulk endpoint treatment needs to be running in a different thread. So start
 202:./Middlewares/ST/usbx/common/usbx_device_classes/src/ux_device_class_cdc_acm_initialize.c ****             a new thread. We pass a pointer to the cdc_acm instance to the new thread.  This thread
 203:./Middlewares/ST/usbx/common/usbx_device_classes/src/ux_device_class_cdc_acm_initialize.c ****             does not start until we have a instance of the class. */
 204:./Middlewares/ST/usbx/common/usbx_device_classes/src/ux_device_class_cdc_acm_initialize.c ****         status =  _ux_utility_thread_create(
 205:./Middlewares/ST/usbx/common/usbx_device_classes/src/ux_device_class_cdc_acm_initialize.c ****                     &cdc_acm -> ux_slave_class_cdc_acm_bulkin_thread,
 206:./Middlewares/ST/usbx/common/usbx_device_classes/src/ux_device_class_cdc_acm_initialize.c ****                     "ux_slave_class_cdc_acm_bulkin_thread", 
 207:./Middlewares/ST/usbx/common/usbx_device_classes/src/ux_device_class_cdc_acm_initialize.c ****                     _ux_device_class_cdc_acm_bulkin_thread,
 208:./Middlewares/ST/usbx/common/usbx_device_classes/src/ux_device_class_cdc_acm_initialize.c ****                     (ULONG) (ALIGN_TYPE) cdc_acm,
 209:./Middlewares/ST/usbx/common/usbx_device_classes/src/ux_device_class_cdc_acm_initialize.c ****                     (VOID *) cdc_acm -> ux_slave_class_cdc_acm_bulkin_thread_stack,
 210:./Middlewares/ST/usbx/common/usbx_device_classes/src/ux_device_class_cdc_acm_initialize.c ****                     UX_THREAD_STACK_SIZE, UX_THREAD_PRIORITY_CLASS,
 211:./Middlewares/ST/usbx/common/usbx_device_classes/src/ux_device_class_cdc_acm_initialize.c ****                     UX_THREAD_PRIORITY_CLASS, UX_NO_TIME_SLICE, UX_DONT_START);
 212:./Middlewares/ST/usbx/common/usbx_device_classes/src/ux_device_class_cdc_acm_initialize.c **** 
 213:./Middlewares/ST/usbx/common/usbx_device_classes/src/ux_device_class_cdc_acm_initialize.c ****         /* Check the creation of this thread.  */
 214:./Middlewares/ST/usbx/common/usbx_device_classes/src/ux_device_class_cdc_acm_initialize.c ****         if (status != UX_SUCCESS)
 215:./Middlewares/ST/usbx/common/usbx_device_classes/src/ux_device_class_cdc_acm_initialize.c ****         {
 216:./Middlewares/ST/usbx/common/usbx_device_classes/src/ux_device_class_cdc_acm_initialize.c ****             status = (UX_THREAD_ERROR);
 217:./Middlewares/ST/usbx/common/usbx_device_classes/src/ux_device_class_cdc_acm_initialize.c ****         }
 218:./Middlewares/ST/usbx/common/usbx_device_classes/src/ux_device_class_cdc_acm_initialize.c ****         else
 219:./Middlewares/ST/usbx/common/usbx_device_classes/src/ux_device_class_cdc_acm_initialize.c ****         {
 220:./Middlewares/ST/usbx/common/usbx_device_classes/src/ux_device_class_cdc_acm_initialize.c ****             UX_THREAD_EXTENSION_PTR_SET(
 221:./Middlewares/ST/usbx/common/usbx_device_classes/src/ux_device_class_cdc_acm_initialize.c ****                 &(cdc_acm -> ux_slave_class_cdc_acm_bulkin_thread), cdc_acm)
 222:./Middlewares/ST/usbx/common/usbx_device_classes/src/ux_device_class_cdc_acm_initialize.c ****         }
 223:./Middlewares/ST/usbx/common/usbx_device_classes/src/ux_device_class_cdc_acm_initialize.c ****     }
 224:./Middlewares/ST/usbx/common/usbx_device_classes/src/ux_device_class_cdc_acm_initialize.c **** 
 225:./Middlewares/ST/usbx/common/usbx_device_classes/src/ux_device_class_cdc_acm_initialize.c ****     /* If success, go on to create bulkout thread.  */
 226:./Middlewares/ST/usbx/common/usbx_device_classes/src/ux_device_class_cdc_acm_initialize.c ****     if (status == UX_SUCCESS)
 227:./Middlewares/ST/usbx/common/usbx_device_classes/src/ux_device_class_cdc_acm_initialize.c ****     {
 228:./Middlewares/ST/usbx/common/usbx_device_classes/src/ux_device_class_cdc_acm_initialize.c **** 
 229:./Middlewares/ST/usbx/common/usbx_device_classes/src/ux_device_class_cdc_acm_initialize.c ****         /* Bulk endpoint treatment needs to be running in a different thread. So start
 230:./Middlewares/ST/usbx/common/usbx_device_classes/src/ux_device_class_cdc_acm_initialize.c ****             a new thread. We pass a pointer to the cdc_acm instance to the new thread.  This thread
 231:./Middlewares/ST/usbx/common/usbx_device_classes/src/ux_device_class_cdc_acm_initialize.c ****             does not start until we have a instance of the class. */
 232:./Middlewares/ST/usbx/common/usbx_device_classes/src/ux_device_class_cdc_acm_initialize.c ****         status =  _ux_utility_thread_create(
 233:./Middlewares/ST/usbx/common/usbx_device_classes/src/ux_device_class_cdc_acm_initialize.c ****                     &cdc_acm -> ux_slave_class_cdc_acm_bulkout_thread,
 234:./Middlewares/ST/usbx/common/usbx_device_classes/src/ux_device_class_cdc_acm_initialize.c ****                     "ux_slave_class_cdc_acm_bulkout_thread", 
 235:./Middlewares/ST/usbx/common/usbx_device_classes/src/ux_device_class_cdc_acm_initialize.c ****                     _ux_device_class_cdc_acm_bulkout_thread,
 236:./Middlewares/ST/usbx/common/usbx_device_classes/src/ux_device_class_cdc_acm_initialize.c ****                     (ULONG) (ALIGN_TYPE) cdc_acm,
 237:./Middlewares/ST/usbx/common/usbx_device_classes/src/ux_device_class_cdc_acm_initialize.c ****                     (VOID *) cdc_acm -> ux_slave_class_cdc_acm_bulkout_thread_stack,
 238:./Middlewares/ST/usbx/common/usbx_device_classes/src/ux_device_class_cdc_acm_initialize.c ****                     UX_THREAD_STACK_SIZE, UX_THREAD_PRIORITY_CLASS,
 239:./Middlewares/ST/usbx/common/usbx_device_classes/src/ux_device_class_cdc_acm_initialize.c ****                     UX_THREAD_PRIORITY_CLASS, UX_NO_TIME_SLICE, UX_DONT_START);
 240:./Middlewares/ST/usbx/common/usbx_device_classes/src/ux_device_class_cdc_acm_initialize.c **** 
 241:./Middlewares/ST/usbx/common/usbx_device_classes/src/ux_device_class_cdc_acm_initialize.c ****         /* Check the creation of this thread.  */
 242:./Middlewares/ST/usbx/common/usbx_device_classes/src/ux_device_class_cdc_acm_initialize.c ****         if (status != UX_SUCCESS)
 243:./Middlewares/ST/usbx/common/usbx_device_classes/src/ux_device_class_cdc_acm_initialize.c ****         {
 244:./Middlewares/ST/usbx/common/usbx_device_classes/src/ux_device_class_cdc_acm_initialize.c ****             status = (UX_THREAD_ERROR);
 245:./Middlewares/ST/usbx/common/usbx_device_classes/src/ux_device_class_cdc_acm_initialize.c ****         }
 246:./Middlewares/ST/usbx/common/usbx_device_classes/src/ux_device_class_cdc_acm_initialize.c ****         else
 247:./Middlewares/ST/usbx/common/usbx_device_classes/src/ux_device_class_cdc_acm_initialize.c ****         {
 248:./Middlewares/ST/usbx/common/usbx_device_classes/src/ux_device_class_cdc_acm_initialize.c ****             UX_THREAD_EXTENSION_PTR_SET(
 249:./Middlewares/ST/usbx/common/usbx_device_classes/src/ux_device_class_cdc_acm_initialize.c ****                 &(cdc_acm -> ux_slave_class_cdc_acm_bulkout_thread), cdc_acm)
 250:./Middlewares/ST/usbx/common/usbx_device_classes/src/ux_device_class_cdc_acm_initialize.c ****         }
 251:./Middlewares/ST/usbx/common/usbx_device_classes/src/ux_device_class_cdc_acm_initialize.c ****     }
ARM GAS  /tmp/ccDWVQKU.s 			page 9


 252:./Middlewares/ST/usbx/common/usbx_device_classes/src/ux_device_class_cdc_acm_initialize.c **** 
 253:./Middlewares/ST/usbx/common/usbx_device_classes/src/ux_device_class_cdc_acm_initialize.c ****     /* Check error.  */
 254:./Middlewares/ST/usbx/common/usbx_device_classes/src/ux_device_class_cdc_acm_initialize.c ****     if (status != UX_SUCCESS)
 255:./Middlewares/ST/usbx/common/usbx_device_classes/src/ux_device_class_cdc_acm_initialize.c ****     {
 256:./Middlewares/ST/usbx/common/usbx_device_classes/src/ux_device_class_cdc_acm_initialize.c **** 
 257:./Middlewares/ST/usbx/common/usbx_device_classes/src/ux_device_class_cdc_acm_initialize.c ****         /* Free resources and return error.  */
 258:./Middlewares/ST/usbx/common/usbx_device_classes/src/ux_device_class_cdc_acm_initialize.c ****         if (cdc_acm -> ux_slave_class_cdc_acm_bulkin_thread.tx_thread_id)
 185              		.loc 1 258 9 is_stmt 1 view .LVU60
 186              		.loc 1 258 60 is_stmt 0 view .LVU61
 187 008c D4F88430 		ldr	r3, [r4, #132]
 188              		.loc 1 258 12 view .LVU62
 189 0090 002B     		cmp	r3, #0
 190 0092 51D1     		bne	.L17
 191              	.L6:
 259:./Middlewares/ST/usbx/common/usbx_device_classes/src/ux_device_class_cdc_acm_initialize.c ****             _ux_utility_thread_delete(&cdc_acm -> ux_slave_class_cdc_acm_bulkin_thread);
 260:./Middlewares/ST/usbx/common/usbx_device_classes/src/ux_device_class_cdc_acm_initialize.c ****         if (cdc_acm -> ux_slave_class_cdc_acm_event_flags_group.tx_event_flags_group_id)
 192              		.loc 1 260 9 is_stmt 1 view .LVU63
 193              		.loc 1 260 64 is_stmt 0 view .LVU64
 194 0094 D4F8E431 		ldr	r3, [r4, #484]
 195              		.loc 1 260 12 view .LVU65
 196 0098 002B     		cmp	r3, #0
 197 009a 52D1     		bne	.L18
 198              	.L7:
 261:./Middlewares/ST/usbx/common/usbx_device_classes/src/ux_device_class_cdc_acm_initialize.c ****             _ux_utility_event_flags_delete(&cdc_acm -> ux_slave_class_cdc_acm_event_flags_group);
 262:./Middlewares/ST/usbx/common/usbx_device_classes/src/ux_device_class_cdc_acm_initialize.c ****         if (cdc_acm -> ux_slave_class_cdc_acm_bulkout_thread_stack)
 199              		.loc 1 262 9 is_stmt 1 view .LVU66
 200              		.loc 1 262 21 is_stmt 0 view .LVU67
 201 009c D4F80C02 		ldr	r0, [r4, #524]
 202              		.loc 1 262 12 view .LVU68
 203 00a0 08B1     		cbz	r0, .L8
 263:./Middlewares/ST/usbx/common/usbx_device_classes/src/ux_device_class_cdc_acm_initialize.c ****             _ux_utility_memory_free(cdc_acm -> ux_slave_class_cdc_acm_bulkout_thread_stack);
 204              		.loc 1 263 13 is_stmt 1 view .LVU69
 205 00a2 FFF7FEFF 		bl	_ux_utility_memory_free
 206              	.LVL15:
 207              	.L8:
 264:./Middlewares/ST/usbx/common/usbx_device_classes/src/ux_device_class_cdc_acm_initialize.c ****         _ux_utility_mutex_delete(&cdc_acm -> ux_slave_class_cdc_acm_endpoint_in_mutex);
 208              		.loc 1 264 9 view .LVU70
 209 00a6 2846     		mov	r0, r5
 210 00a8 FFF7FEFF 		bl	_ux_utility_mutex_delete
 211              	.LVL16:
 265:./Middlewares/ST/usbx/common/usbx_device_classes/src/ux_device_class_cdc_acm_initialize.c ****         _ux_utility_mutex_delete(&cdc_acm -> ux_slave_class_cdc_acm_endpoint_out_mutex);
 212              		.loc 1 265 9 view .LVU71
 213 00ac 3846     		mov	r0, r7
 214 00ae FFF7FEFF 		bl	_ux_utility_mutex_delete
 215              	.LVL17:
 266:./Middlewares/ST/usbx/common/usbx_device_classes/src/ux_device_class_cdc_acm_initialize.c ****         _ux_utility_memory_free(cdc_acm);
 216              		.loc 1 266 9 view .LVU72
 217 00b2 2046     		mov	r0, r4
 218 00b4 FFF7FEFF 		bl	_ux_utility_memory_free
 219              	.LVL18:
 267:./Middlewares/ST/usbx/common/usbx_device_classes/src/ux_device_class_cdc_acm_initialize.c ****         return(status);
 220              		.loc 1 267 9 view .LVU73
 221              	.L1:
 268:./Middlewares/ST/usbx/common/usbx_device_classes/src/ux_device_class_cdc_acm_initialize.c ****     }
 269:./Middlewares/ST/usbx/common/usbx_device_classes/src/ux_device_class_cdc_acm_initialize.c **** 
 270:./Middlewares/ST/usbx/common/usbx_device_classes/src/ux_device_class_cdc_acm_initialize.c **** #endif
 271:./Middlewares/ST/usbx/common/usbx_device_classes/src/ux_device_class_cdc_acm_initialize.c **** #endif
ARM GAS  /tmp/ccDWVQKU.s 			page 10


 272:./Middlewares/ST/usbx/common/usbx_device_classes/src/ux_device_class_cdc_acm_initialize.c **** 
 273:./Middlewares/ST/usbx/common/usbx_device_classes/src/ux_device_class_cdc_acm_initialize.c ****     /* Return completion status.  */
 274:./Middlewares/ST/usbx/common/usbx_device_classes/src/ux_device_class_cdc_acm_initialize.c ****     return(UX_SUCCESS);
 275:./Middlewares/ST/usbx/common/usbx_device_classes/src/ux_device_class_cdc_acm_initialize.c **** }
 222              		.loc 1 275 1 is_stmt 0 view .LVU74
 223 00b8 3046     		mov	r0, r6
 224 00ba 07B0     		add	sp, sp, #28
 225              	.LCFI2:
 226              		.cfi_remember_state
 227              		.cfi_def_cfa_offset 20
 228              		@ sp needed
 229 00bc F0BD     		pop	{r4, r5, r6, r7, pc}
 230              	.LVL19:
 231              	.L14:
 232              	.LCFI3:
 233              		.cfi_restore_state
 127:./Middlewares/ST/usbx/common/usbx_device_classes/src/ux_device_class_cdc_acm_initialize.c ****         
 234              		.loc 1 127 9 is_stmt 1 view .LVU75
 235 00be 2046     		mov	r0, r4
 236              	.LVL20:
 127:./Middlewares/ST/usbx/common/usbx_device_classes/src/ux_device_class_cdc_acm_initialize.c ****         
 237              		.loc 1 127 9 is_stmt 0 view .LVU76
 238 00c0 FFF7FEFF 		bl	_ux_utility_memory_free
 239              	.LVL21:
 130:./Middlewares/ST/usbx/common/usbx_device_classes/src/ux_device_class_cdc_acm_initialize.c ****     }        
 240              		.loc 1 130 9 is_stmt 1 view .LVU77
 130:./Middlewares/ST/usbx/common/usbx_device_classes/src/ux_device_class_cdc_acm_initialize.c ****     }        
 241              		.loc 1 130 15 is_stmt 0 view .LVU78
 242 00c4 1726     		movs	r6, #23
 243              	.LVL22:
 130:./Middlewares/ST/usbx/common/usbx_device_classes/src/ux_device_class_cdc_acm_initialize.c ****     }        
 244              		.loc 1 130 15 view .LVU79
 245 00c6 F7E7     		b	.L1
 246              	.LVL23:
 247              	.L15:
 141:./Middlewares/ST/usbx/common/usbx_device_classes/src/ux_device_class_cdc_acm_initialize.c **** 
 248              		.loc 1 141 9 is_stmt 1 view .LVU80
 249 00c8 2846     		mov	r0, r5
 250              	.LVL24:
 141:./Middlewares/ST/usbx/common/usbx_device_classes/src/ux_device_class_cdc_acm_initialize.c **** 
 251              		.loc 1 141 9 is_stmt 0 view .LVU81
 252 00ca FFF7FEFF 		bl	_ux_utility_mutex_delete
 253              	.LVL25:
 144:./Middlewares/ST/usbx/common/usbx_device_classes/src/ux_device_class_cdc_acm_initialize.c ****         
 254              		.loc 1 144 9 is_stmt 1 view .LVU82
 255 00ce 2046     		mov	r0, r4
 256 00d0 FFF7FEFF 		bl	_ux_utility_memory_free
 257              	.LVL26:
 147:./Middlewares/ST/usbx/common/usbx_device_classes/src/ux_device_class_cdc_acm_initialize.c ****     }        
 258              		.loc 1 147 9 view .LVU83
 147:./Middlewares/ST/usbx/common/usbx_device_classes/src/ux_device_class_cdc_acm_initialize.c ****     }        
 259              		.loc 1 147 15 is_stmt 0 view .LVU84
 260 00d4 1726     		movs	r6, #23
 261              	.LVL27:
 147:./Middlewares/ST/usbx/common/usbx_device_classes/src/ux_device_class_cdc_acm_initialize.c ****     }        
 262              		.loc 1 147 15 view .LVU85
 263 00d6 EFE7     		b	.L1
ARM GAS  /tmp/ccDWVQKU.s 			page 11


 264              	.LVL28:
 265              	.L16:
 198:./Middlewares/ST/usbx/common/usbx_device_classes/src/ux_device_class_cdc_acm_initialize.c ****     {
 266              		.loc 1 198 5 is_stmt 1 view .LVU86
 204:./Middlewares/ST/usbx/common/usbx_device_classes/src/ux_device_class_cdc_acm_initialize.c ****                     &cdc_acm -> ux_slave_class_cdc_acm_bulkin_thread,
 267              		.loc 1 204 9 view .LVU87
 209:./Middlewares/ST/usbx/common/usbx_device_classes/src/ux_device_class_cdc_acm_initialize.c ****                     UX_THREAD_STACK_SIZE, UX_THREAD_PRIORITY_CLASS,
 268              		.loc 1 209 38 is_stmt 0 view .LVU88
 269 00d8 D4F80822 		ldr	r2, [r4, #520]
 204:./Middlewares/ST/usbx/common/usbx_device_classes/src/ux_device_class_cdc_acm_initialize.c ****                     &cdc_acm -> ux_slave_class_cdc_acm_bulkin_thread,
 270              		.loc 1 204 19 view .LVU89
 271 00dc 0023     		movs	r3, #0
 272 00de 0593     		str	r3, [sp, #20]
 273 00e0 0493     		str	r3, [sp, #16]
 274 00e2 1423     		movs	r3, #20
 275 00e4 0393     		str	r3, [sp, #12]
 276 00e6 0293     		str	r3, [sp, #8]
 277 00e8 4FF48063 		mov	r3, #1024
 278 00ec 0193     		str	r3, [sp, #4]
 279 00ee 0092     		str	r2, [sp]
 280 00f0 2346     		mov	r3, r4
 281 00f2 1A4A     		ldr	r2, .L20+12
 282 00f4 1A49     		ldr	r1, .L20+16
 283 00f6 04F18400 		add	r0, r4, #132
 284              	.LVL29:
 204:./Middlewares/ST/usbx/common/usbx_device_classes/src/ux_device_class_cdc_acm_initialize.c ****                     &cdc_acm -> ux_slave_class_cdc_acm_bulkin_thread,
 285              		.loc 1 204 19 view .LVU90
 286 00fa FFF7FEFF 		bl	_ux_utility_thread_create
 287              	.LVL30:
 214:./Middlewares/ST/usbx/common/usbx_device_classes/src/ux_device_class_cdc_acm_initialize.c ****         {
 288              		.loc 1 214 9 is_stmt 1 view .LVU91
 214:./Middlewares/ST/usbx/common/usbx_device_classes/src/ux_device_class_cdc_acm_initialize.c ****         {
 289              		.loc 1 214 12 is_stmt 0 view .LVU92
 290 00fe 08B1     		cbz	r0, .L19
 216:./Middlewares/ST/usbx/common/usbx_device_classes/src/ux_device_class_cdc_acm_initialize.c ****         }
 291              		.loc 1 216 20 view .LVU93
 292 0100 1626     		movs	r6, #22
 293              	.LVL31:
 216:./Middlewares/ST/usbx/common/usbx_device_classes/src/ux_device_class_cdc_acm_initialize.c ****         }
 294              		.loc 1 216 20 view .LVU94
 295 0102 C3E7     		b	.L5
 296              	.LVL32:
 297              	.L19:
 222:./Middlewares/ST/usbx/common/usbx_device_classes/src/ux_device_class_cdc_acm_initialize.c ****     }
 298              		.loc 1 222 9 is_stmt 1 view .LVU95
 226:./Middlewares/ST/usbx/common/usbx_device_classes/src/ux_device_class_cdc_acm_initialize.c ****     {
 299              		.loc 1 226 5 view .LVU96
 232:./Middlewares/ST/usbx/common/usbx_device_classes/src/ux_device_class_cdc_acm_initialize.c ****                     &cdc_acm -> ux_slave_class_cdc_acm_bulkout_thread,
 300              		.loc 1 232 9 view .LVU97
 237:./Middlewares/ST/usbx/common/usbx_device_classes/src/ux_device_class_cdc_acm_initialize.c ****                     UX_THREAD_STACK_SIZE, UX_THREAD_PRIORITY_CLASS,
 301              		.loc 1 237 38 is_stmt 0 view .LVU98
 302 0104 D4F80C22 		ldr	r2, [r4, #524]
 232:./Middlewares/ST/usbx/common/usbx_device_classes/src/ux_device_class_cdc_acm_initialize.c ****                     &cdc_acm -> ux_slave_class_cdc_acm_bulkout_thread,
 303              		.loc 1 232 19 view .LVU99
 304 0108 0023     		movs	r3, #0
 305 010a 0593     		str	r3, [sp, #20]
 306 010c 0493     		str	r3, [sp, #16]
ARM GAS  /tmp/ccDWVQKU.s 			page 12


 307 010e 1423     		movs	r3, #20
 308 0110 0393     		str	r3, [sp, #12]
 309 0112 0293     		str	r3, [sp, #8]
 310 0114 4FF48063 		mov	r3, #1024
 311 0118 0193     		str	r3, [sp, #4]
 312 011a 0092     		str	r2, [sp]
 313 011c 2346     		mov	r3, r4
 314 011e 114A     		ldr	r2, .L20+20
 315 0120 1149     		ldr	r1, .L20+24
 316 0122 04F59A70 		add	r0, r4, #308
 317              	.LVL33:
 232:./Middlewares/ST/usbx/common/usbx_device_classes/src/ux_device_class_cdc_acm_initialize.c ****                     &cdc_acm -> ux_slave_class_cdc_acm_bulkout_thread,
 318              		.loc 1 232 19 view .LVU100
 319 0126 FFF7FEFF 		bl	_ux_utility_thread_create
 320              	.LVL34:
 242:./Middlewares/ST/usbx/common/usbx_device_classes/src/ux_device_class_cdc_acm_initialize.c ****         {
 321              		.loc 1 242 9 is_stmt 1 view .LVU101
 242:./Middlewares/ST/usbx/common/usbx_device_classes/src/ux_device_class_cdc_acm_initialize.c ****         {
 322              		.loc 1 242 12 is_stmt 0 view .LVU102
 323 012a 0646     		mov	r6, r0
 324              	.LVL35:
 242:./Middlewares/ST/usbx/common/usbx_device_classes/src/ux_device_class_cdc_acm_initialize.c ****         {
 325              		.loc 1 242 12 view .LVU103
 326 012c 0028     		cmp	r0, #0
 327 012e C3D0     		beq	.L1
 244:./Middlewares/ST/usbx/common/usbx_device_classes/src/ux_device_class_cdc_acm_initialize.c ****         }
 328              		.loc 1 244 20 view .LVU104
 329 0130 1626     		movs	r6, #22
 330 0132 ABE7     		b	.L5
 331              	.LVL36:
 332              	.L10:
 244:./Middlewares/ST/usbx/common/usbx_device_classes/src/ux_device_class_cdc_acm_initialize.c ****         }
 333              		.loc 1 244 20 view .LVU105
 334 0134 1226     		movs	r6, #18
 335              	.LVL37:
 244:./Middlewares/ST/usbx/common/usbx_device_classes/src/ux_device_class_cdc_acm_initialize.c ****         }
 336              		.loc 1 244 20 view .LVU106
 337 0136 A9E7     		b	.L5
 338              	.LVL38:
 339              	.L17:
 259:./Middlewares/ST/usbx/common/usbx_device_classes/src/ux_device_class_cdc_acm_initialize.c ****         if (cdc_acm -> ux_slave_class_cdc_acm_event_flags_group.tx_event_flags_group_id)
 340              		.loc 1 259 13 is_stmt 1 view .LVU107
 341 0138 04F18400 		add	r0, r4, #132
 342 013c FFF7FEFF 		bl	_ux_utility_thread_delete
 343              	.LVL39:
 344 0140 A8E7     		b	.L6
 345              	.L18:
 261:./Middlewares/ST/usbx/common/usbx_device_classes/src/ux_device_class_cdc_acm_initialize.c ****         if (cdc_acm -> ux_slave_class_cdc_acm_bulkout_thread_stack)
 346              		.loc 1 261 13 view .LVU108
 347 0142 04F5F270 		add	r0, r4, #484
 348 0146 FFF7FEFF 		bl	_ux_utility_event_flags_delete
 349              	.LVL40:
 350 014a A7E7     		b	.L7
 351              	.LVL41:
 352              	.L9:
 104:./Middlewares/ST/usbx/common/usbx_device_classes/src/ux_device_class_cdc_acm_initialize.c **** 
 353              		.loc 1 104 15 is_stmt 0 view .LVU109
ARM GAS  /tmp/ccDWVQKU.s 			page 13


 354 014c 1226     		movs	r6, #18
 355              	.LVL42:
 104:./Middlewares/ST/usbx/common/usbx_device_classes/src/ux_device_class_cdc_acm_initialize.c **** 
 356              		.loc 1 104 15 view .LVU110
 357 014e B3E7     		b	.L1
 358              	.L21:
 359              		.align	2
 360              	.L20:
 361 0150 00000000 		.word	.LC0
 362 0154 20000000 		.word	.LC1
 363 0158 44000000 		.word	.LC2
 364 015c 00000000 		.word	_ux_device_class_cdc_acm_bulkin_thread
 365 0160 68000000 		.word	.LC3
 366 0164 00000000 		.word	_ux_device_class_cdc_acm_bulkout_thread
 367 0168 90000000 		.word	.LC4
 368              		.cfi_endproc
 369              	.LFE11:
 371              		.text
 372              	.Letext0:
 373              		.file 2 "./Middlewares/ST/threadx/ports/cortex_m4/gnu/inc/tx_port.h"
 374              		.file 3 "./Middlewares/ST/threadx/common/inc/tx_api.h"
 375              		.file 4 "./Middlewares/ST/usbx/common/core/inc/ux_api.h"
 376              		.file 5 "./Middlewares/ST/usbx/common/usbx_device_classes/inc/ux_device_class_cdc_acm.h"
 377              		.file 6 "./Middlewares/ST/usbx/common/core/inc/ux_utility.h"
ARM GAS  /tmp/ccDWVQKU.s 			page 14

