ARM GAS  C:\Users\Dennis\AppData\Local\Temp\ccNYlVsa.s 			page 1


   1              		.cpu cortex-m4
   2              		.arch armv7e-m
   3              		.fpu fpv4-sp-d16
   4              		.eabi_attribute 27, 1
   5              		.eabi_attribute 28, 1
   6              		.eabi_attribute 20, 1
   7              		.eabi_attribute 21, 1
   8              		.eabi_attribute 23, 3
   9              		.eabi_attribute 24, 1
  10              		.eabi_attribute 25, 1
  11              		.eabi_attribute 26, 1
  12              		.eabi_attribute 30, 1
  13              		.eabi_attribute 34, 1
  14              		.eabi_attribute 18, 4
  15              		.file	"ux_host_stack_class_interface_scan.c"
  16              		.text
  17              	.Ltext0:
  18              		.cfi_sections	.debug_frame
  19              		.section	.text._ux_host_stack_class_interface_scan,"ax",%progbits
  20              		.align	1
  21              		.global	_ux_host_stack_class_interface_scan
  22              		.syntax unified
  23              		.thumb
  24              		.thumb_func
  26              	_ux_host_stack_class_interface_scan:
  27              	.LVL0:
  28              	.LFB11:
  29              		.file 1 "./Middlewares/ST/usbx/common/core/src/ux_host_stack_class_interface_scan.c"
   1:./Middlewares/ST/usbx/common/core/src/ux_host_stack_class_interface_scan.c **** /**************************************************************************/
   2:./Middlewares/ST/usbx/common/core/src/ux_host_stack_class_interface_scan.c **** /*                                                                        */
   3:./Middlewares/ST/usbx/common/core/src/ux_host_stack_class_interface_scan.c **** /*       Copyright (c) Microsoft Corporation. All rights reserved.        */
   4:./Middlewares/ST/usbx/common/core/src/ux_host_stack_class_interface_scan.c **** /*                                                                        */
   5:./Middlewares/ST/usbx/common/core/src/ux_host_stack_class_interface_scan.c **** /*       This software is licensed under the Microsoft Software License   */
   6:./Middlewares/ST/usbx/common/core/src/ux_host_stack_class_interface_scan.c **** /*       Terms for Microsoft Azure RTOS. Full text of the license can be  */
   7:./Middlewares/ST/usbx/common/core/src/ux_host_stack_class_interface_scan.c **** /*       found in the LICENSE file at https://aka.ms/AzureRTOS_EULA       */
   8:./Middlewares/ST/usbx/common/core/src/ux_host_stack_class_interface_scan.c **** /*       and in the root directory of this software.                      */
   9:./Middlewares/ST/usbx/common/core/src/ux_host_stack_class_interface_scan.c **** /*                                                                        */
  10:./Middlewares/ST/usbx/common/core/src/ux_host_stack_class_interface_scan.c **** /**************************************************************************/
  11:./Middlewares/ST/usbx/common/core/src/ux_host_stack_class_interface_scan.c **** 
  12:./Middlewares/ST/usbx/common/core/src/ux_host_stack_class_interface_scan.c **** 
  13:./Middlewares/ST/usbx/common/core/src/ux_host_stack_class_interface_scan.c **** /**************************************************************************/
  14:./Middlewares/ST/usbx/common/core/src/ux_host_stack_class_interface_scan.c **** /**************************************************************************/
  15:./Middlewares/ST/usbx/common/core/src/ux_host_stack_class_interface_scan.c **** /**                                                                       */ 
  16:./Middlewares/ST/usbx/common/core/src/ux_host_stack_class_interface_scan.c **** /** USBX Component                                                        */ 
  17:./Middlewares/ST/usbx/common/core/src/ux_host_stack_class_interface_scan.c **** /**                                                                       */
  18:./Middlewares/ST/usbx/common/core/src/ux_host_stack_class_interface_scan.c **** /**   Host Stack                                                          */
  19:./Middlewares/ST/usbx/common/core/src/ux_host_stack_class_interface_scan.c **** /**                                                                       */
  20:./Middlewares/ST/usbx/common/core/src/ux_host_stack_class_interface_scan.c **** /**************************************************************************/
  21:./Middlewares/ST/usbx/common/core/src/ux_host_stack_class_interface_scan.c **** /**************************************************************************/
  22:./Middlewares/ST/usbx/common/core/src/ux_host_stack_class_interface_scan.c **** 
  23:./Middlewares/ST/usbx/common/core/src/ux_host_stack_class_interface_scan.c **** 
  24:./Middlewares/ST/usbx/common/core/src/ux_host_stack_class_interface_scan.c **** /* Include necessary system files.  */
  25:./Middlewares/ST/usbx/common/core/src/ux_host_stack_class_interface_scan.c **** 
  26:./Middlewares/ST/usbx/common/core/src/ux_host_stack_class_interface_scan.c **** #define UX_SOURCE_CODE
  27:./Middlewares/ST/usbx/common/core/src/ux_host_stack_class_interface_scan.c **** 
  28:./Middlewares/ST/usbx/common/core/src/ux_host_stack_class_interface_scan.c **** #include "ux_api.h"
  29:./Middlewares/ST/usbx/common/core/src/ux_host_stack_class_interface_scan.c **** #include "ux_host_stack.h"
ARM GAS  C:\Users\Dennis\AppData\Local\Temp\ccNYlVsa.s 			page 2


  30:./Middlewares/ST/usbx/common/core/src/ux_host_stack_class_interface_scan.c **** 
  31:./Middlewares/ST/usbx/common/core/src/ux_host_stack_class_interface_scan.c **** 
  32:./Middlewares/ST/usbx/common/core/src/ux_host_stack_class_interface_scan.c **** /**************************************************************************/ 
  33:./Middlewares/ST/usbx/common/core/src/ux_host_stack_class_interface_scan.c **** /*                                                                        */ 
  34:./Middlewares/ST/usbx/common/core/src/ux_host_stack_class_interface_scan.c **** /*  FUNCTION                                               RELEASE        */ 
  35:./Middlewares/ST/usbx/common/core/src/ux_host_stack_class_interface_scan.c **** /*                                                                        */ 
  36:./Middlewares/ST/usbx/common/core/src/ux_host_stack_class_interface_scan.c **** /*    _ux_host_stack_class_interface_scan                 PORTABLE C      */ 
  37:./Middlewares/ST/usbx/common/core/src/ux_host_stack_class_interface_scan.c **** /*                                                           6.1.4        */
  38:./Middlewares/ST/usbx/common/core/src/ux_host_stack_class_interface_scan.c **** /*  AUTHOR                                                                */
  39:./Middlewares/ST/usbx/common/core/src/ux_host_stack_class_interface_scan.c **** /*                                                                        */
  40:./Middlewares/ST/usbx/common/core/src/ux_host_stack_class_interface_scan.c **** /*    Chaoqiong Xiao, Microsoft Corporation                               */
  41:./Middlewares/ST/usbx/common/core/src/ux_host_stack_class_interface_scan.c **** /*                                                                        */
  42:./Middlewares/ST/usbx/common/core/src/ux_host_stack_class_interface_scan.c **** /*  DESCRIPTION                                                           */
  43:./Middlewares/ST/usbx/common/core/src/ux_host_stack_class_interface_scan.c **** /*                                                                        */ 
  44:./Middlewares/ST/usbx/common/core/src/ux_host_stack_class_interface_scan.c **** /*    This function will scan all default interfaces for a single         */ 
  45:./Middlewares/ST/usbx/common/core/src/ux_host_stack_class_interface_scan.c **** /*    configuration and call the registered class with the                */ 
  46:./Middlewares/ST/usbx/common/core/src/ux_host_stack_class_interface_scan.c **** /*    Class/SubClass/Protocol of the interface.                           */
  47:./Middlewares/ST/usbx/common/core/src/ux_host_stack_class_interface_scan.c **** /*                                                                        */
  48:./Middlewares/ST/usbx/common/core/src/ux_host_stack_class_interface_scan.c **** /*    If the device has multiple configurations (like the Apple iPod),    */
  49:./Middlewares/ST/usbx/common/core/src/ux_host_stack_class_interface_scan.c **** /*    the first configuration is treated as the default configuration.    */
  50:./Middlewares/ST/usbx/common/core/src/ux_host_stack_class_interface_scan.c **** /*    If a device which has multiple configurations wants to control the  */
  51:./Middlewares/ST/usbx/common/core/src/ux_host_stack_class_interface_scan.c **** /*    configuration selection, it must ensure that the PID/VID based      */
  52:./Middlewares/ST/usbx/common/core/src/ux_host_stack_class_interface_scan.c **** /*    class at the device level claims the entire device.                 */
  53:./Middlewares/ST/usbx/common/core/src/ux_host_stack_class_interface_scan.c **** /*                                                                        */
  54:./Middlewares/ST/usbx/common/core/src/ux_host_stack_class_interface_scan.c **** /*                                                                        */
  55:./Middlewares/ST/usbx/common/core/src/ux_host_stack_class_interface_scan.c **** /*    For the interface, there is no reason to use the PID/VID has a      */ 
  56:./Middlewares/ST/usbx/common/core/src/ux_host_stack_class_interface_scan.c **** /*    binding element as classes that trigger on PID/VID will be called   */ 
  57:./Middlewares/ST/usbx/common/core/src/ux_host_stack_class_interface_scan.c **** /*    by the device descriptor scanning process.                          */ 
  58:./Middlewares/ST/usbx/common/core/src/ux_host_stack_class_interface_scan.c **** /*                                                                        */ 
  59:./Middlewares/ST/usbx/common/core/src/ux_host_stack_class_interface_scan.c **** /*  INPUT                                                                 */ 
  60:./Middlewares/ST/usbx/common/core/src/ux_host_stack_class_interface_scan.c **** /*                                                                        */ 
  61:./Middlewares/ST/usbx/common/core/src/ux_host_stack_class_interface_scan.c **** /*    device                                Device pointer                */ 
  62:./Middlewares/ST/usbx/common/core/src/ux_host_stack_class_interface_scan.c **** /*                                                                        */ 
  63:./Middlewares/ST/usbx/common/core/src/ux_host_stack_class_interface_scan.c **** /*  OUTPUT                                                                */ 
  64:./Middlewares/ST/usbx/common/core/src/ux_host_stack_class_interface_scan.c **** /*                                                                        */ 
  65:./Middlewares/ST/usbx/common/core/src/ux_host_stack_class_interface_scan.c **** /*    Result of operation                                                 */ 
  66:./Middlewares/ST/usbx/common/core/src/ux_host_stack_class_interface_scan.c **** /*                                                                        */ 
  67:./Middlewares/ST/usbx/common/core/src/ux_host_stack_class_interface_scan.c **** /*  CALLS                                                                 */ 
  68:./Middlewares/ST/usbx/common/core/src/ux_host_stack_class_interface_scan.c **** /*                                                                        */ 
  69:./Middlewares/ST/usbx/common/core/src/ux_host_stack_class_interface_scan.c **** /*    _ux_host_stack_class_call             Call class command            */
  70:./Middlewares/ST/usbx/common/core/src/ux_host_stack_class_interface_scan.c **** /*    _ux_host_stack_device_configuration_select                          */
  71:./Middlewares/ST/usbx/common/core/src/ux_host_stack_class_interface_scan.c **** /*                                          Select configuration          */ 
  72:./Middlewares/ST/usbx/common/core/src/ux_host_stack_class_interface_scan.c **** /*    (ux_host_stack_class_call)            Call class from host stack    */ 
  73:./Middlewares/ST/usbx/common/core/src/ux_host_stack_class_interface_scan.c **** /*    (ux_host_class_entry_function)        Class entry function          */ 
  74:./Middlewares/ST/usbx/common/core/src/ux_host_stack_class_interface_scan.c **** /*                                                                        */ 
  75:./Middlewares/ST/usbx/common/core/src/ux_host_stack_class_interface_scan.c **** /*  CALLED BY                                                             */ 
  76:./Middlewares/ST/usbx/common/core/src/ux_host_stack_class_interface_scan.c **** /*                                                                        */ 
  77:./Middlewares/ST/usbx/common/core/src/ux_host_stack_class_interface_scan.c **** /*    USBX Components                                                     */ 
  78:./Middlewares/ST/usbx/common/core/src/ux_host_stack_class_interface_scan.c **** /*                                                                        */ 
  79:./Middlewares/ST/usbx/common/core/src/ux_host_stack_class_interface_scan.c **** /*  RELEASE HISTORY                                                       */ 
  80:./Middlewares/ST/usbx/common/core/src/ux_host_stack_class_interface_scan.c **** /*                                                                        */ 
  81:./Middlewares/ST/usbx/common/core/src/ux_host_stack_class_interface_scan.c **** /*    DATE              NAME                      DESCRIPTION             */ 
  82:./Middlewares/ST/usbx/common/core/src/ux_host_stack_class_interface_scan.c **** /*                                                                        */ 
  83:./Middlewares/ST/usbx/common/core/src/ux_host_stack_class_interface_scan.c **** /*  05-19-2020     Chaoqiong Xiao           Initial Version 6.0           */
  84:./Middlewares/ST/usbx/common/core/src/ux_host_stack_class_interface_scan.c **** /*  09-30-2020     Chaoqiong Xiao           Modified comment(s),          */
  85:./Middlewares/ST/usbx/common/core/src/ux_host_stack_class_interface_scan.c **** /*                                            resulting in version 6.1    */
  86:./Middlewares/ST/usbx/common/core/src/ux_host_stack_class_interface_scan.c **** /*  02-02-2021     Chaoqiong Xiao           Modified comment(s),          */
ARM GAS  C:\Users\Dennis\AppData\Local\Temp\ccNYlVsa.s 			page 3


  87:./Middlewares/ST/usbx/common/core/src/ux_host_stack_class_interface_scan.c **** /*                                            used internal function call */
  88:./Middlewares/ST/usbx/common/core/src/ux_host_stack_class_interface_scan.c **** /*                                            to scan interfaces,         */
  89:./Middlewares/ST/usbx/common/core/src/ux_host_stack_class_interface_scan.c **** /*                                            resulting in version 6.1.4  */
  90:./Middlewares/ST/usbx/common/core/src/ux_host_stack_class_interface_scan.c **** /*                                                                        */
  91:./Middlewares/ST/usbx/common/core/src/ux_host_stack_class_interface_scan.c **** /**************************************************************************/
  92:./Middlewares/ST/usbx/common/core/src/ux_host_stack_class_interface_scan.c **** UINT  _ux_host_stack_class_interface_scan(UX_DEVICE *device)
  93:./Middlewares/ST/usbx/common/core/src/ux_host_stack_class_interface_scan.c **** {
  30              		.loc 1 93 1 view -0
  31              		.cfi_startproc
  32              		@ args = 0, pretend = 0, frame = 0
  33              		@ frame_needed = 0, uses_anonymous_args = 0
  94:./Middlewares/ST/usbx/common/core/src/ux_host_stack_class_interface_scan.c **** 
  95:./Middlewares/ST/usbx/common/core/src/ux_host_stack_class_interface_scan.c **** UX_CONFIGURATION        *configuration;
  34              		.loc 1 95 1 view .LVU1
  96:./Middlewares/ST/usbx/common/core/src/ux_host_stack_class_interface_scan.c **** UINT                    status;
  35              		.loc 1 96 1 view .LVU2
  97:./Middlewares/ST/usbx/common/core/src/ux_host_stack_class_interface_scan.c **** 
  98:./Middlewares/ST/usbx/common/core/src/ux_host_stack_class_interface_scan.c **** 
  99:./Middlewares/ST/usbx/common/core/src/ux_host_stack_class_interface_scan.c ****     /* Get the 1st and only configuration.  If the device has multiple
 100:./Middlewares/ST/usbx/common/core/src/ux_host_stack_class_interface_scan.c ****        configurations, we simply use the first one as default. */
 101:./Middlewares/ST/usbx/common/core/src/ux_host_stack_class_interface_scan.c ****     configuration =  device -> ux_device_first_configuration;
  36              		.loc 1 101 5 view .LVU3
  37              		.loc 1 101 19 is_stmt 0 view .LVU4
  38 0000 006C     		ldr	r0, [r0, #64]
  39              	.LVL1:
 102:./Middlewares/ST/usbx/common/core/src/ux_host_stack_class_interface_scan.c ****     if (configuration == UX_NULL)
  40              		.loc 1 102 5 is_stmt 1 view .LVU5
  41              		.loc 1 102 8 is_stmt 0 view .LVU6
  42 0002 18B1     		cbz	r0, .L3
  93:./Middlewares/ST/usbx/common/core/src/ux_host_stack_class_interface_scan.c **** 
  43              		.loc 1 93 1 view .LVU7
  44 0004 08B5     		push	{r3, lr}
  45              	.LCFI0:
  46              		.cfi_def_cfa_offset 8
  47              		.cfi_offset 3, -8
  48              		.cfi_offset 14, -4
 103:./Middlewares/ST/usbx/common/core/src/ux_host_stack_class_interface_scan.c ****         return(UX_ERROR);
 104:./Middlewares/ST/usbx/common/core/src/ux_host_stack_class_interface_scan.c **** 
 105:./Middlewares/ST/usbx/common/core/src/ux_host_stack_class_interface_scan.c ****     /* Scan interfaces for this configuration.  */
 106:./Middlewares/ST/usbx/common/core/src/ux_host_stack_class_interface_scan.c ****     status = _ux_host_stack_configuration_interface_scan(configuration);
  49              		.loc 1 106 5 is_stmt 1 view .LVU8
  50              		.loc 1 106 14 is_stmt 0 view .LVU9
  51 0006 FFF7FEFF 		bl	_ux_host_stack_configuration_interface_scan
  52              	.LVL2:
 107:./Middlewares/ST/usbx/common/core/src/ux_host_stack_class_interface_scan.c **** 
 108:./Middlewares/ST/usbx/common/core/src/ux_host_stack_class_interface_scan.c ****     /* Return operation result.  */
 109:./Middlewares/ST/usbx/common/core/src/ux_host_stack_class_interface_scan.c ****     return(status);
  53              		.loc 1 109 5 is_stmt 1 view .LVU10
 110:./Middlewares/ST/usbx/common/core/src/ux_host_stack_class_interface_scan.c **** }
  54              		.loc 1 110 1 is_stmt 0 view .LVU11
  55 000a 08BD     		pop	{r3, pc}
  56              	.LVL3:
  57              	.L3:
  58              	.LCFI1:
  59              		.cfi_def_cfa_offset 0
  60              		.cfi_restore 3
  61              		.cfi_restore 14
ARM GAS  C:\Users\Dennis\AppData\Local\Temp\ccNYlVsa.s 			page 4


 103:./Middlewares/ST/usbx/common/core/src/ux_host_stack_class_interface_scan.c ****         return(UX_ERROR);
  62              		.loc 1 103 15 view .LVU12
  63 000c FF20     		movs	r0, #255
  64              	.LVL4:
  65              		.loc 1 110 1 view .LVU13
  66 000e 7047     		bx	lr
  67              		.cfi_endproc
  68              	.LFE11:
  70              		.text
  71              	.Letext0:
  72              		.file 2 "./Middlewares/ST/threadx/ports/cortex_m4/gnu/inc/tx_port.h"
  73              		.file 3 "./Middlewares/ST/threadx/common/inc/tx_api.h"
  74              		.file 4 "./Middlewares/ST/usbx/common/core/inc/ux_api.h"
  75              		.file 5 "./Middlewares/ST/usbx/common/core/inc/ux_host_stack.h"
ARM GAS  C:\Users\Dennis\AppData\Local\Temp\ccNYlVsa.s 			page 5

