ARM GAS  C:\Users\Dennis\AppData\Local\Temp\cc60NQxZ.s 			page 1


   1              		.cpu cortex-m4
   2              		.arch armv7e-m
   3              		.fpu fpv4-sp-d16
   4              		.eabi_attribute 27, 1
   5              		.eabi_attribute 28, 1
   6              		.eabi_attribute 20, 1
   7              		.eabi_attribute 21, 1
   8              		.eabi_attribute 23, 3
   9              		.eabi_attribute 24, 1
  10              		.eabi_attribute 25, 1
  11              		.eabi_attribute 26, 1
  12              		.eabi_attribute 30, 1
  13              		.eabi_attribute 34, 1
  14              		.eabi_attribute 18, 4
  15              		.file	"ux_host_stack_configuration_descriptor_parse.c"
  16              		.text
  17              	.Ltext0:
  18              		.cfi_sections	.debug_frame
  19              		.section	.text._ux_host_stack_configuration_descriptor_parse,"ax",%progbits
  20              		.align	1
  21              		.global	_ux_host_stack_configuration_descriptor_parse
  22              		.syntax unified
  23              		.thumb
  24              		.thumb_func
  26              	_ux_host_stack_configuration_descriptor_parse:
  27              	.LVL0:
  28              	.LFB11:
  29              		.file 1 "./Middlewares/ST/usbx/common/core/src/ux_host_stack_configuration_descriptor_parse.c"
   1:./Middlewares/ST/usbx/common/core/src/ux_host_stack_configuration_descriptor_parse.c **** /**************************************************************************/
   2:./Middlewares/ST/usbx/common/core/src/ux_host_stack_configuration_descriptor_parse.c **** /*                                                                        */
   3:./Middlewares/ST/usbx/common/core/src/ux_host_stack_configuration_descriptor_parse.c **** /*       Copyright (c) Microsoft Corporation. All rights reserved.        */
   4:./Middlewares/ST/usbx/common/core/src/ux_host_stack_configuration_descriptor_parse.c **** /*                                                                        */
   5:./Middlewares/ST/usbx/common/core/src/ux_host_stack_configuration_descriptor_parse.c **** /*       This software is licensed under the Microsoft Software License   */
   6:./Middlewares/ST/usbx/common/core/src/ux_host_stack_configuration_descriptor_parse.c **** /*       Terms for Microsoft Azure RTOS. Full text of the license can be  */
   7:./Middlewares/ST/usbx/common/core/src/ux_host_stack_configuration_descriptor_parse.c **** /*       found in the LICENSE file at https://aka.ms/AzureRTOS_EULA       */
   8:./Middlewares/ST/usbx/common/core/src/ux_host_stack_configuration_descriptor_parse.c **** /*       and in the root directory of this software.                      */
   9:./Middlewares/ST/usbx/common/core/src/ux_host_stack_configuration_descriptor_parse.c **** /*                                                                        */
  10:./Middlewares/ST/usbx/common/core/src/ux_host_stack_configuration_descriptor_parse.c **** /**************************************************************************/
  11:./Middlewares/ST/usbx/common/core/src/ux_host_stack_configuration_descriptor_parse.c **** 
  12:./Middlewares/ST/usbx/common/core/src/ux_host_stack_configuration_descriptor_parse.c **** 
  13:./Middlewares/ST/usbx/common/core/src/ux_host_stack_configuration_descriptor_parse.c **** /**************************************************************************/
  14:./Middlewares/ST/usbx/common/core/src/ux_host_stack_configuration_descriptor_parse.c **** /**************************************************************************/
  15:./Middlewares/ST/usbx/common/core/src/ux_host_stack_configuration_descriptor_parse.c **** /**                                                                       */ 
  16:./Middlewares/ST/usbx/common/core/src/ux_host_stack_configuration_descriptor_parse.c **** /** USBX Component                                                        */ 
  17:./Middlewares/ST/usbx/common/core/src/ux_host_stack_configuration_descriptor_parse.c **** /**                                                                       */
  18:./Middlewares/ST/usbx/common/core/src/ux_host_stack_configuration_descriptor_parse.c **** /**   Host Stack                                                          */
  19:./Middlewares/ST/usbx/common/core/src/ux_host_stack_configuration_descriptor_parse.c **** /**                                                                       */
  20:./Middlewares/ST/usbx/common/core/src/ux_host_stack_configuration_descriptor_parse.c **** /**************************************************************************/
  21:./Middlewares/ST/usbx/common/core/src/ux_host_stack_configuration_descriptor_parse.c **** /**************************************************************************/
  22:./Middlewares/ST/usbx/common/core/src/ux_host_stack_configuration_descriptor_parse.c **** 
  23:./Middlewares/ST/usbx/common/core/src/ux_host_stack_configuration_descriptor_parse.c **** 
  24:./Middlewares/ST/usbx/common/core/src/ux_host_stack_configuration_descriptor_parse.c **** /* Include necessary system files.  */
  25:./Middlewares/ST/usbx/common/core/src/ux_host_stack_configuration_descriptor_parse.c **** 
  26:./Middlewares/ST/usbx/common/core/src/ux_host_stack_configuration_descriptor_parse.c **** #define UX_SOURCE_CODE
  27:./Middlewares/ST/usbx/common/core/src/ux_host_stack_configuration_descriptor_parse.c **** 
  28:./Middlewares/ST/usbx/common/core/src/ux_host_stack_configuration_descriptor_parse.c **** #include "ux_api.h"
  29:./Middlewares/ST/usbx/common/core/src/ux_host_stack_configuration_descriptor_parse.c **** #include "ux_host_stack.h"
ARM GAS  C:\Users\Dennis\AppData\Local\Temp\cc60NQxZ.s 			page 2


  30:./Middlewares/ST/usbx/common/core/src/ux_host_stack_configuration_descriptor_parse.c **** 
  31:./Middlewares/ST/usbx/common/core/src/ux_host_stack_configuration_descriptor_parse.c **** 
  32:./Middlewares/ST/usbx/common/core/src/ux_host_stack_configuration_descriptor_parse.c **** /**************************************************************************/ 
  33:./Middlewares/ST/usbx/common/core/src/ux_host_stack_configuration_descriptor_parse.c **** /*                                                                        */ 
  34:./Middlewares/ST/usbx/common/core/src/ux_host_stack_configuration_descriptor_parse.c **** /*  FUNCTION                                               RELEASE        */ 
  35:./Middlewares/ST/usbx/common/core/src/ux_host_stack_configuration_descriptor_parse.c **** /*                                                                        */ 
  36:./Middlewares/ST/usbx/common/core/src/ux_host_stack_configuration_descriptor_parse.c **** /*    _ux_host_stack_configuration_descriptor_parse       PORTABLE C      */ 
  37:./Middlewares/ST/usbx/common/core/src/ux_host_stack_configuration_descriptor_parse.c **** /*                                                           6.1          */
  38:./Middlewares/ST/usbx/common/core/src/ux_host_stack_configuration_descriptor_parse.c **** /*  AUTHOR                                                                */
  39:./Middlewares/ST/usbx/common/core/src/ux_host_stack_configuration_descriptor_parse.c **** /*                                                                        */
  40:./Middlewares/ST/usbx/common/core/src/ux_host_stack_configuration_descriptor_parse.c **** /*    Chaoqiong Xiao, Microsoft Corporation                               */
  41:./Middlewares/ST/usbx/common/core/src/ux_host_stack_configuration_descriptor_parse.c **** /*                                                                        */
  42:./Middlewares/ST/usbx/common/core/src/ux_host_stack_configuration_descriptor_parse.c **** /*  DESCRIPTION                                                           */
  43:./Middlewares/ST/usbx/common/core/src/ux_host_stack_configuration_descriptor_parse.c **** /*                                                                        */ 
  44:./Middlewares/ST/usbx/common/core/src/ux_host_stack_configuration_descriptor_parse.c **** /*    This function reads the entire configuration descriptor and         */ 
  45:./Middlewares/ST/usbx/common/core/src/ux_host_stack_configuration_descriptor_parse.c **** /*    enumerates the interfaces, binds the interface to a class driver... */
  46:./Middlewares/ST/usbx/common/core/src/ux_host_stack_configuration_descriptor_parse.c **** /*    if the device has multiple configurations, we read all the          */ 
  47:./Middlewares/ST/usbx/common/core/src/ux_host_stack_configuration_descriptor_parse.c **** /*    configurations but do not instantiate any configuration. Rather we  */ 
  48:./Middlewares/ST/usbx/common/core/src/ux_host_stack_configuration_descriptor_parse.c **** /*    let a class driver do the work.                                     */
  49:./Middlewares/ST/usbx/common/core/src/ux_host_stack_configuration_descriptor_parse.c **** /*                                                                        */ 
  50:./Middlewares/ST/usbx/common/core/src/ux_host_stack_configuration_descriptor_parse.c **** /*  INPUT                                                                 */ 
  51:./Middlewares/ST/usbx/common/core/src/ux_host_stack_configuration_descriptor_parse.c **** /*                                                                        */ 
  52:./Middlewares/ST/usbx/common/core/src/ux_host_stack_configuration_descriptor_parse.c **** /*    device                                Pointer to device             */ 
  53:./Middlewares/ST/usbx/common/core/src/ux_host_stack_configuration_descriptor_parse.c **** /*    configuration                         Pointer to configuration      */ 
  54:./Middlewares/ST/usbx/common/core/src/ux_host_stack_configuration_descriptor_parse.c **** /*    configuration_index                   Index of configuration        */ 
  55:./Middlewares/ST/usbx/common/core/src/ux_host_stack_configuration_descriptor_parse.c **** /*                                                                        */ 
  56:./Middlewares/ST/usbx/common/core/src/ux_host_stack_configuration_descriptor_parse.c **** /*  OUTPUT                                                                */ 
  57:./Middlewares/ST/usbx/common/core/src/ux_host_stack_configuration_descriptor_parse.c **** /*                                                                        */ 
  58:./Middlewares/ST/usbx/common/core/src/ux_host_stack_configuration_descriptor_parse.c **** /*    Completion Status                                                   */ 
  59:./Middlewares/ST/usbx/common/core/src/ux_host_stack_configuration_descriptor_parse.c **** /*                                                                        */ 
  60:./Middlewares/ST/usbx/common/core/src/ux_host_stack_configuration_descriptor_parse.c **** /*  CALLS                                                                 */ 
  61:./Middlewares/ST/usbx/common/core/src/ux_host_stack_configuration_descriptor_parse.c **** /*                                                                        */ 
  62:./Middlewares/ST/usbx/common/core/src/ux_host_stack_configuration_descriptor_parse.c **** /*    _ux_host_stack_interfaces_scan        Scan host interfaces          */ 
  63:./Middlewares/ST/usbx/common/core/src/ux_host_stack_configuration_descriptor_parse.c **** /*    _ux_host_stack_transfer_request       Process transfer request      */ 
  64:./Middlewares/ST/usbx/common/core/src/ux_host_stack_configuration_descriptor_parse.c **** /*    _ux_utility_memory_allocate           Allocate block of memory      */
  65:./Middlewares/ST/usbx/common/core/src/ux_host_stack_configuration_descriptor_parse.c **** /*    _ux_utility_memory_free               Free block of memory          */ 
  66:./Middlewares/ST/usbx/common/core/src/ux_host_stack_configuration_descriptor_parse.c **** /*                                                                        */ 
  67:./Middlewares/ST/usbx/common/core/src/ux_host_stack_configuration_descriptor_parse.c **** /*  CALLED BY                                                             */ 
  68:./Middlewares/ST/usbx/common/core/src/ux_host_stack_configuration_descriptor_parse.c **** /*                                                                        */ 
  69:./Middlewares/ST/usbx/common/core/src/ux_host_stack_configuration_descriptor_parse.c **** /*    USBX Components                                                     */ 
  70:./Middlewares/ST/usbx/common/core/src/ux_host_stack_configuration_descriptor_parse.c **** /*                                                                        */ 
  71:./Middlewares/ST/usbx/common/core/src/ux_host_stack_configuration_descriptor_parse.c **** /*  RELEASE HISTORY                                                       */ 
  72:./Middlewares/ST/usbx/common/core/src/ux_host_stack_configuration_descriptor_parse.c **** /*                                                                        */ 
  73:./Middlewares/ST/usbx/common/core/src/ux_host_stack_configuration_descriptor_parse.c **** /*    DATE              NAME                      DESCRIPTION             */ 
  74:./Middlewares/ST/usbx/common/core/src/ux_host_stack_configuration_descriptor_parse.c **** /*                                                                        */ 
  75:./Middlewares/ST/usbx/common/core/src/ux_host_stack_configuration_descriptor_parse.c **** /*  05-19-2020     Chaoqiong Xiao           Initial Version 6.0           */
  76:./Middlewares/ST/usbx/common/core/src/ux_host_stack_configuration_descriptor_parse.c **** /*  09-30-2020     Chaoqiong Xiao           Modified comment(s),          */
  77:./Middlewares/ST/usbx/common/core/src/ux_host_stack_configuration_descriptor_parse.c **** /*                                            resulting in version 6.1    */
  78:./Middlewares/ST/usbx/common/core/src/ux_host_stack_configuration_descriptor_parse.c **** /*                                                                        */
  79:./Middlewares/ST/usbx/common/core/src/ux_host_stack_configuration_descriptor_parse.c **** /**************************************************************************/
  80:./Middlewares/ST/usbx/common/core/src/ux_host_stack_configuration_descriptor_parse.c **** UINT  _ux_host_stack_configuration_descriptor_parse(UX_DEVICE *device, UX_CONFIGURATION *configurat
  81:./Middlewares/ST/usbx/common/core/src/ux_host_stack_configuration_descriptor_parse.c ****                                                                         UINT configuration_index)
  82:./Middlewares/ST/usbx/common/core/src/ux_host_stack_configuration_descriptor_parse.c **** {
  30              		.loc 1 82 1 view -0
  31              		.cfi_startproc
  32              		@ args = 0, pretend = 0, frame = 0
  33              		@ frame_needed = 0, uses_anonymous_args = 0
ARM GAS  C:\Users\Dennis\AppData\Local\Temp\cc60NQxZ.s 			page 3


  34              		.loc 1 82 1 is_stmt 0 view .LVU1
  35 0000 2DE9F843 		push	{r3, r4, r5, r6, r7, r8, r9, lr}
  36              	.LCFI0:
  37              		.cfi_def_cfa_offset 32
  38              		.cfi_offset 3, -32
  39              		.cfi_offset 4, -28
  40              		.cfi_offset 5, -24
  41              		.cfi_offset 6, -20
  42              		.cfi_offset 7, -16
  43              		.cfi_offset 8, -12
  44              		.cfi_offset 9, -8
  45              		.cfi_offset 14, -4
  46 0004 0446     		mov	r4, r0
  47 0006 0E46     		mov	r6, r1
  48 0008 1546     		mov	r5, r2
  83:./Middlewares/ST/usbx/common/core/src/ux_host_stack_configuration_descriptor_parse.c **** 
  84:./Middlewares/ST/usbx/common/core/src/ux_host_stack_configuration_descriptor_parse.c **** UX_TRANSFER     *transfer_request;
  49              		.loc 1 84 1 is_stmt 1 view .LVU2
  85:./Middlewares/ST/usbx/common/core/src/ux_host_stack_configuration_descriptor_parse.c **** UINT            status;
  50              		.loc 1 85 1 view .LVU3
  86:./Middlewares/ST/usbx/common/core/src/ux_host_stack_configuration_descriptor_parse.c **** UCHAR           *descriptor;
  51              		.loc 1 86 1 view .LVU4
  87:./Middlewares/ST/usbx/common/core/src/ux_host_stack_configuration_descriptor_parse.c **** UX_ENDPOINT     *control_endpoint;
  52              		.loc 1 87 1 view .LVU5
  88:./Middlewares/ST/usbx/common/core/src/ux_host_stack_configuration_descriptor_parse.c **** ULONG           total_configuration_length;
  53              		.loc 1 88 1 view .LVU6
  89:./Middlewares/ST/usbx/common/core/src/ux_host_stack_configuration_descriptor_parse.c **** 
  90:./Middlewares/ST/usbx/common/core/src/ux_host_stack_configuration_descriptor_parse.c **** 
  91:./Middlewares/ST/usbx/common/core/src/ux_host_stack_configuration_descriptor_parse.c ****     /* Retrieve the pointer to the control endpoint and its transfer_request.  */
  92:./Middlewares/ST/usbx/common/core/src/ux_host_stack_configuration_descriptor_parse.c ****     control_endpoint =  &device -> ux_device_control_endpoint;
  54              		.loc 1 92 5 view .LVU7
  55              	.LVL1:
  93:./Middlewares/ST/usbx/common/core/src/ux_host_stack_configuration_descriptor_parse.c ****     transfer_request =  &control_endpoint -> ux_endpoint_transfer_request;
  56              		.loc 1 93 5 view .LVU8
  57              		.loc 1 93 22 is_stmt 0 view .LVU9
  58 000a 00F1AC09 		add	r9, r0, #172
  59              	.LVL2:
  94:./Middlewares/ST/usbx/common/core/src/ux_host_stack_configuration_descriptor_parse.c **** 
  95:./Middlewares/ST/usbx/common/core/src/ux_host_stack_configuration_descriptor_parse.c ****     /* Retrieve the size of all the configuration descriptor.  */
  96:./Middlewares/ST/usbx/common/core/src/ux_host_stack_configuration_descriptor_parse.c ****     total_configuration_length =  configuration -> ux_configuration_descriptor.wTotalLength;
  60              		.loc 1 96 5 is_stmt 1 view .LVU10
  61              		.loc 1 96 32 is_stmt 0 view .LVU11
  62 000e D1F81480 		ldr	r8, [r1, #20]
  63              	.LVL3:
  97:./Middlewares/ST/usbx/common/core/src/ux_host_stack_configuration_descriptor_parse.c **** 
  98:./Middlewares/ST/usbx/common/core/src/ux_host_stack_configuration_descriptor_parse.c ****     /* Allocate enough memory to read all descriptors attached to this configuration.  */
  99:./Middlewares/ST/usbx/common/core/src/ux_host_stack_configuration_descriptor_parse.c ****     descriptor =  _ux_utility_memory_allocate(UX_SAFE_ALIGN, UX_CACHE_SAFE_MEMORY, total_configurat
  64              		.loc 1 99 5 is_stmt 1 view .LVU12
  65              		.loc 1 99 19 is_stmt 0 view .LVU13
  66 0012 4246     		mov	r2, r8
  67              	.LVL4:
  68              		.loc 1 99 19 view .LVU14
  69 0014 0121     		movs	r1, #1
  70              	.LVL5:
  71              		.loc 1 99 19 view .LVU15
  72 0016 4FF0FF30 		mov	r0, #-1
  73              	.LVL6:
ARM GAS  C:\Users\Dennis\AppData\Local\Temp\cc60NQxZ.s 			page 4


  74              		.loc 1 99 19 view .LVU16
  75 001a FFF7FEFF 		bl	_ux_utility_memory_allocate
  76              	.LVL7:
 100:./Middlewares/ST/usbx/common/core/src/ux_host_stack_configuration_descriptor_parse.c **** 
 101:./Middlewares/ST/usbx/common/core/src/ux_host_stack_configuration_descriptor_parse.c ****     /* Determine if the memory was allocated.  */
 102:./Middlewares/ST/usbx/common/core/src/ux_host_stack_configuration_descriptor_parse.c ****     if (descriptor == UX_NULL)
  77              		.loc 1 102 5 is_stmt 1 view .LVU17
  78              		.loc 1 102 8 is_stmt 0 view .LVU18
  79 001e 30B3     		cbz	r0, .L4
  80 0020 0746     		mov	r7, r0
 103:./Middlewares/ST/usbx/common/core/src/ux_host_stack_configuration_descriptor_parse.c ****     {
 104:./Middlewares/ST/usbx/common/core/src/ux_host_stack_configuration_descriptor_parse.c **** 
 105:./Middlewares/ST/usbx/common/core/src/ux_host_stack_configuration_descriptor_parse.c ****         /* No, return an error.  */
 106:./Middlewares/ST/usbx/common/core/src/ux_host_stack_configuration_descriptor_parse.c ****         return(UX_MEMORY_INSUFFICIENT);
 107:./Middlewares/ST/usbx/common/core/src/ux_host_stack_configuration_descriptor_parse.c ****     }
 108:./Middlewares/ST/usbx/common/core/src/ux_host_stack_configuration_descriptor_parse.c ****     else
 109:./Middlewares/ST/usbx/common/core/src/ux_host_stack_configuration_descriptor_parse.c ****     {
 110:./Middlewares/ST/usbx/common/core/src/ux_host_stack_configuration_descriptor_parse.c **** 
 111:./Middlewares/ST/usbx/common/core/src/ux_host_stack_configuration_descriptor_parse.c ****         /* Create a transfer_request for the GET_DESCRIPTOR request.  */
 112:./Middlewares/ST/usbx/common/core/src/ux_host_stack_configuration_descriptor_parse.c ****         transfer_request -> ux_transfer_request_data_pointer =      descriptor;
  81              		.loc 1 112 9 is_stmt 1 view .LVU19
  82              		.loc 1 112 62 is_stmt 0 view .LVU20
  83 0022 C4F8B400 		str	r0, [r4, #180]
 113:./Middlewares/ST/usbx/common/core/src/ux_host_stack_configuration_descriptor_parse.c ****         transfer_request -> ux_transfer_request_requested_length =  total_configuration_length;
  84              		.loc 1 113 9 is_stmt 1 view .LVU21
  85              		.loc 1 113 66 is_stmt 0 view .LVU22
  86 0026 C4F8B880 		str	r8, [r4, #184]
 114:./Middlewares/ST/usbx/common/core/src/ux_host_stack_configuration_descriptor_parse.c ****         transfer_request -> ux_transfer_request_function =          UX_GET_DESCRIPTOR;
  87              		.loc 1 114 9 is_stmt 1 view .LVU23
  88              		.loc 1 114 58 is_stmt 0 view .LVU24
  89 002a 0623     		movs	r3, #6
  90 002c C4F8C430 		str	r3, [r4, #196]
 115:./Middlewares/ST/usbx/common/core/src/ux_host_stack_configuration_descriptor_parse.c ****         transfer_request -> ux_transfer_request_type =              UX_REQUEST_IN | UX_REQUEST_TYPE
  91              		.loc 1 115 9 is_stmt 1 view .LVU25
  92              		.loc 1 115 54 is_stmt 0 view .LVU26
  93 0030 8023     		movs	r3, #128
  94 0032 C4F8C030 		str	r3, [r4, #192]
 116:./Middlewares/ST/usbx/common/core/src/ux_host_stack_configuration_descriptor_parse.c ****         transfer_request -> ux_transfer_request_value =             configuration_index | (UINT)(UX
  95              		.loc 1 116 9 is_stmt 1 view .LVU27
  96              		.loc 1 116 89 is_stmt 0 view .LVU28
  97 0036 45F40075 		orr	r5, r5, #512
  98              	.LVL8:
  99              		.loc 1 116 55 view .LVU29
 100 003a C4F8C850 		str	r5, [r4, #200]
 117:./Middlewares/ST/usbx/common/core/src/ux_host_stack_configuration_descriptor_parse.c ****         transfer_request -> ux_transfer_request_index =             0;
 101              		.loc 1 117 9 is_stmt 1 view .LVU30
 102              		.loc 1 117 55 is_stmt 0 view .LVU31
 103 003e 0023     		movs	r3, #0
 104 0040 C4F8CC30 		str	r3, [r4, #204]
 118:./Middlewares/ST/usbx/common/core/src/ux_host_stack_configuration_descriptor_parse.c **** 
 119:./Middlewares/ST/usbx/common/core/src/ux_host_stack_configuration_descriptor_parse.c ****         /* Send request to HCD layer.  */
 120:./Middlewares/ST/usbx/common/core/src/ux_host_stack_configuration_descriptor_parse.c ****         status =  _ux_host_stack_transfer_request(transfer_request);
 105              		.loc 1 120 9 is_stmt 1 view .LVU32
 106              		.loc 1 120 19 is_stmt 0 view .LVU33
 107 0044 4846     		mov	r0, r9
 108              	.LVL9:
 109              		.loc 1 120 19 view .LVU34
ARM GAS  C:\Users\Dennis\AppData\Local\Temp\cc60NQxZ.s 			page 5


 110 0046 FFF7FEFF 		bl	_ux_host_stack_transfer_request
 111              	.LVL10:
 121:./Middlewares/ST/usbx/common/core/src/ux_host_stack_configuration_descriptor_parse.c **** 
 122:./Middlewares/ST/usbx/common/core/src/ux_host_stack_configuration_descriptor_parse.c ****         /* Check for correct transfer and entire descriptor returned.  */
 123:./Middlewares/ST/usbx/common/core/src/ux_host_stack_configuration_descriptor_parse.c ****         if((status == UX_SUCCESS) && (transfer_request -> ux_transfer_request_actual_length == tota
 112              		.loc 1 123 9 is_stmt 1 view .LVU35
 113              		.loc 1 123 11 is_stmt 0 view .LVU36
 114 004a 0546     		mov	r5, r0
 115 004c 18B9     		cbnz	r0, .L3
 116              		.loc 1 123 56 discriminator 1 view .LVU37
 117 004e D4F8BC30 		ldr	r3, [r4, #188]
 118              		.loc 1 123 35 discriminator 1 view .LVU38
 119 0052 4345     		cmp	r3, r8
 120 0054 05D0     		beq	.L6
 121              	.L3:
 124:./Middlewares/ST/usbx/common/core/src/ux_host_stack_configuration_descriptor_parse.c ****         {
 125:./Middlewares/ST/usbx/common/core/src/ux_host_stack_configuration_descriptor_parse.c **** 
 126:./Middlewares/ST/usbx/common/core/src/ux_host_stack_configuration_descriptor_parse.c ****             /* The entire descriptor now contains the configuration descriptor,
 127:./Middlewares/ST/usbx/common/core/src/ux_host_stack_configuration_descriptor_parse.c ****                the interface(s) descriptors, all alternate settings, endpoints
 128:./Middlewares/ST/usbx/common/core/src/ux_host_stack_configuration_descriptor_parse.c ****                and descriptor specific to the class. The descriptor is parsed for all interfaces.  
 129:./Middlewares/ST/usbx/common/core/src/ux_host_stack_configuration_descriptor_parse.c ****             status =  _ux_host_stack_interfaces_scan(configuration, descriptor);
 130:./Middlewares/ST/usbx/common/core/src/ux_host_stack_configuration_descriptor_parse.c ****         }
 131:./Middlewares/ST/usbx/common/core/src/ux_host_stack_configuration_descriptor_parse.c ****     }
 132:./Middlewares/ST/usbx/common/core/src/ux_host_stack_configuration_descriptor_parse.c **** 
 133:./Middlewares/ST/usbx/common/core/src/ux_host_stack_configuration_descriptor_parse.c ****     /* Free all used resources.  */
 134:./Middlewares/ST/usbx/common/core/src/ux_host_stack_configuration_descriptor_parse.c ****     _ux_utility_memory_free(descriptor);
 122              		.loc 1 134 5 is_stmt 1 view .LVU39
 123 0056 3846     		mov	r0, r7
 124              	.LVL11:
 125              		.loc 1 134 5 is_stmt 0 view .LVU40
 126 0058 FFF7FEFF 		bl	_ux_utility_memory_free
 127              	.LVL12:
 135:./Middlewares/ST/usbx/common/core/src/ux_host_stack_configuration_descriptor_parse.c **** 
 136:./Middlewares/ST/usbx/common/core/src/ux_host_stack_configuration_descriptor_parse.c ****     /* Return completion status.  */
 137:./Middlewares/ST/usbx/common/core/src/ux_host_stack_configuration_descriptor_parse.c ****     return(status);
 128              		.loc 1 137 5 is_stmt 1 view .LVU41
 129              	.L1:
 138:./Middlewares/ST/usbx/common/core/src/ux_host_stack_configuration_descriptor_parse.c **** }
 130              		.loc 1 138 1 is_stmt 0 view .LVU42
 131 005c 2846     		mov	r0, r5
 132 005e BDE8F883 		pop	{r3, r4, r5, r6, r7, r8, r9, pc}
 133              	.LVL13:
 134              	.L6:
 129:./Middlewares/ST/usbx/common/core/src/ux_host_stack_configuration_descriptor_parse.c ****         }
 135              		.loc 1 129 13 is_stmt 1 view .LVU43
 129:./Middlewares/ST/usbx/common/core/src/ux_host_stack_configuration_descriptor_parse.c ****         }
 136              		.loc 1 129 23 is_stmt 0 view .LVU44
 137 0062 3946     		mov	r1, r7
 138 0064 3046     		mov	r0, r6
 139              	.LVL14:
 129:./Middlewares/ST/usbx/common/core/src/ux_host_stack_configuration_descriptor_parse.c ****         }
 140              		.loc 1 129 23 view .LVU45
 141 0066 FFF7FEFF 		bl	_ux_host_stack_interfaces_scan
 142              	.LVL15:
 143 006a 0546     		mov	r5, r0
 144              	.LVL16:
 129:./Middlewares/ST/usbx/common/core/src/ux_host_stack_configuration_descriptor_parse.c ****         }
ARM GAS  C:\Users\Dennis\AppData\Local\Temp\cc60NQxZ.s 			page 6


 145              		.loc 1 129 23 view .LVU46
 146 006c F3E7     		b	.L3
 147              	.LVL17:
 148              	.L4:
 106:./Middlewares/ST/usbx/common/core/src/ux_host_stack_configuration_descriptor_parse.c ****     }
 149              		.loc 1 106 15 view .LVU47
 150 006e 1225     		movs	r5, #18
 151              	.LVL18:
 106:./Middlewares/ST/usbx/common/core/src/ux_host_stack_configuration_descriptor_parse.c ****     }
 152              		.loc 1 106 15 view .LVU48
 153 0070 F4E7     		b	.L1
 154              		.cfi_endproc
 155              	.LFE11:
 157              		.text
 158              	.Letext0:
 159              		.file 2 "./Middlewares/ST/threadx/ports/cortex_m4/gnu/inc/tx_port.h"
 160              		.file 3 "./Middlewares/ST/threadx/common/inc/tx_api.h"
 161              		.file 4 "./Middlewares/ST/usbx/common/core/inc/ux_api.h"
 162              		.file 5 "./Middlewares/ST/usbx/common/core/inc/ux_utility.h"
 163              		.file 6 "./Middlewares/ST/usbx/common/core/inc/ux_host_stack.h"
ARM GAS  C:\Users\Dennis\AppData\Local\Temp\cc60NQxZ.s 			page 7

