ARM GAS  C:\Users\Dennis\AppData\Local\Temp\ccOQqFsa.s 			page 1


   1              		.cpu cortex-m4
   2              		.arch armv7e-m
   3              		.fpu fpv4-sp-d16
   4              		.eabi_attribute 27, 1
   5              		.eabi_attribute 28, 1
   6              		.eabi_attribute 20, 1
   7              		.eabi_attribute 21, 1
   8              		.eabi_attribute 23, 3
   9              		.eabi_attribute 24, 1
  10              		.eabi_attribute 25, 1
  11              		.eabi_attribute 26, 1
  12              		.eabi_attribute 30, 1
  13              		.eabi_attribute 34, 1
  14              		.eabi_attribute 18, 4
  15              		.file	"ux_host_stack_interface_setting_select.c"
  16              		.text
  17              	.Ltext0:
  18              		.cfi_sections	.debug_frame
  19              		.section	.text._ux_host_stack_interface_setting_select,"ax",%progbits
  20              		.align	1
  21              		.global	_ux_host_stack_interface_setting_select
  22              		.syntax unified
  23              		.thumb
  24              		.thumb_func
  26              	_ux_host_stack_interface_setting_select:
  27              	.LVL0:
  28              	.LFB11:
  29              		.file 1 "./Middlewares/ST/usbx/common/core/src/ux_host_stack_interface_setting_select.c"
   1:./Middlewares/ST/usbx/common/core/src/ux_host_stack_interface_setting_select.c **** /**************************************************************************/
   2:./Middlewares/ST/usbx/common/core/src/ux_host_stack_interface_setting_select.c **** /*                                                                        */
   3:./Middlewares/ST/usbx/common/core/src/ux_host_stack_interface_setting_select.c **** /*       Copyright (c) Microsoft Corporation. All rights reserved.        */
   4:./Middlewares/ST/usbx/common/core/src/ux_host_stack_interface_setting_select.c **** /*                                                                        */
   5:./Middlewares/ST/usbx/common/core/src/ux_host_stack_interface_setting_select.c **** /*       This software is licensed under the Microsoft Software License   */
   6:./Middlewares/ST/usbx/common/core/src/ux_host_stack_interface_setting_select.c **** /*       Terms for Microsoft Azure RTOS. Full text of the license can be  */
   7:./Middlewares/ST/usbx/common/core/src/ux_host_stack_interface_setting_select.c **** /*       found in the LICENSE file at https://aka.ms/AzureRTOS_EULA       */
   8:./Middlewares/ST/usbx/common/core/src/ux_host_stack_interface_setting_select.c **** /*       and in the root directory of this software.                      */
   9:./Middlewares/ST/usbx/common/core/src/ux_host_stack_interface_setting_select.c **** /*                                                                        */
  10:./Middlewares/ST/usbx/common/core/src/ux_host_stack_interface_setting_select.c **** /**************************************************************************/
  11:./Middlewares/ST/usbx/common/core/src/ux_host_stack_interface_setting_select.c **** 
  12:./Middlewares/ST/usbx/common/core/src/ux_host_stack_interface_setting_select.c **** 
  13:./Middlewares/ST/usbx/common/core/src/ux_host_stack_interface_setting_select.c **** /**************************************************************************/
  14:./Middlewares/ST/usbx/common/core/src/ux_host_stack_interface_setting_select.c **** /**************************************************************************/
  15:./Middlewares/ST/usbx/common/core/src/ux_host_stack_interface_setting_select.c **** /**                                                                       */ 
  16:./Middlewares/ST/usbx/common/core/src/ux_host_stack_interface_setting_select.c **** /** USBX Component                                                        */ 
  17:./Middlewares/ST/usbx/common/core/src/ux_host_stack_interface_setting_select.c **** /**                                                                       */
  18:./Middlewares/ST/usbx/common/core/src/ux_host_stack_interface_setting_select.c **** /**   Host Stack                                                          */
  19:./Middlewares/ST/usbx/common/core/src/ux_host_stack_interface_setting_select.c **** /**                                                                       */
  20:./Middlewares/ST/usbx/common/core/src/ux_host_stack_interface_setting_select.c **** /**************************************************************************/
  21:./Middlewares/ST/usbx/common/core/src/ux_host_stack_interface_setting_select.c **** /**************************************************************************/
  22:./Middlewares/ST/usbx/common/core/src/ux_host_stack_interface_setting_select.c **** 
  23:./Middlewares/ST/usbx/common/core/src/ux_host_stack_interface_setting_select.c **** 
  24:./Middlewares/ST/usbx/common/core/src/ux_host_stack_interface_setting_select.c **** /* Include necessary system files.  */
  25:./Middlewares/ST/usbx/common/core/src/ux_host_stack_interface_setting_select.c **** 
  26:./Middlewares/ST/usbx/common/core/src/ux_host_stack_interface_setting_select.c **** #define UX_SOURCE_CODE
  27:./Middlewares/ST/usbx/common/core/src/ux_host_stack_interface_setting_select.c **** 
  28:./Middlewares/ST/usbx/common/core/src/ux_host_stack_interface_setting_select.c **** #include "ux_api.h"
  29:./Middlewares/ST/usbx/common/core/src/ux_host_stack_interface_setting_select.c **** #include "ux_host_stack.h"
ARM GAS  C:\Users\Dennis\AppData\Local\Temp\ccOQqFsa.s 			page 2


  30:./Middlewares/ST/usbx/common/core/src/ux_host_stack_interface_setting_select.c **** 
  31:./Middlewares/ST/usbx/common/core/src/ux_host_stack_interface_setting_select.c **** 
  32:./Middlewares/ST/usbx/common/core/src/ux_host_stack_interface_setting_select.c **** /**************************************************************************/ 
  33:./Middlewares/ST/usbx/common/core/src/ux_host_stack_interface_setting_select.c **** /*                                                                        */ 
  34:./Middlewares/ST/usbx/common/core/src/ux_host_stack_interface_setting_select.c **** /*  FUNCTION                                               RELEASE        */ 
  35:./Middlewares/ST/usbx/common/core/src/ux_host_stack_interface_setting_select.c **** /*                                                                        */ 
  36:./Middlewares/ST/usbx/common/core/src/ux_host_stack_interface_setting_select.c **** /*    _ux_host_stack_interface_setting_select             PORTABLE C      */ 
  37:./Middlewares/ST/usbx/common/core/src/ux_host_stack_interface_setting_select.c **** /*                                                           6.1          */
  38:./Middlewares/ST/usbx/common/core/src/ux_host_stack_interface_setting_select.c **** /*  AUTHOR                                                                */
  39:./Middlewares/ST/usbx/common/core/src/ux_host_stack_interface_setting_select.c **** /*                                                                        */
  40:./Middlewares/ST/usbx/common/core/src/ux_host_stack_interface_setting_select.c **** /*    Chaoqiong Xiao, Microsoft Corporation                               */
  41:./Middlewares/ST/usbx/common/core/src/ux_host_stack_interface_setting_select.c **** /*                                                                        */
  42:./Middlewares/ST/usbx/common/core/src/ux_host_stack_interface_setting_select.c **** /*  DESCRIPTION                                                           */
  43:./Middlewares/ST/usbx/common/core/src/ux_host_stack_interface_setting_select.c **** /*                                                                        */ 
  44:./Middlewares/ST/usbx/common/core/src/ux_host_stack_interface_setting_select.c **** /*    This function selects a specific alternate setting for a given      */
  45:./Middlewares/ST/usbx/common/core/src/ux_host_stack_interface_setting_select.c **** /*    interface belonging to the selected configuration.                  */ 
  46:./Middlewares/ST/usbx/common/core/src/ux_host_stack_interface_setting_select.c **** /*                                                                        */ 
  47:./Middlewares/ST/usbx/common/core/src/ux_host_stack_interface_setting_select.c **** /*  INPUT                                                                 */ 
  48:./Middlewares/ST/usbx/common/core/src/ux_host_stack_interface_setting_select.c **** /*                                                                        */ 
  49:./Middlewares/ST/usbx/common/core/src/ux_host_stack_interface_setting_select.c **** /*    interface                             Pointer to interface          */ 
  50:./Middlewares/ST/usbx/common/core/src/ux_host_stack_interface_setting_select.c **** /*                                                                        */ 
  51:./Middlewares/ST/usbx/common/core/src/ux_host_stack_interface_setting_select.c **** /*  OUTPUT                                                                */ 
  52:./Middlewares/ST/usbx/common/core/src/ux_host_stack_interface_setting_select.c **** /*                                                                        */ 
  53:./Middlewares/ST/usbx/common/core/src/ux_host_stack_interface_setting_select.c **** /*    Completion Status                                                   */ 
  54:./Middlewares/ST/usbx/common/core/src/ux_host_stack_interface_setting_select.c **** /*                                                                        */ 
  55:./Middlewares/ST/usbx/common/core/src/ux_host_stack_interface_setting_select.c **** /*  CALLS                                                                 */ 
  56:./Middlewares/ST/usbx/common/core/src/ux_host_stack_interface_setting_select.c **** /*                                                                        */ 
  57:./Middlewares/ST/usbx/common/core/src/ux_host_stack_interface_setting_select.c **** /*    _ux_host_stack_interface_instance_create  Create interface instance */ 
  58:./Middlewares/ST/usbx/common/core/src/ux_host_stack_interface_setting_select.c **** /*    _ux_host_stack_interface_instance_delete  Delete interface instance */ 
  59:./Middlewares/ST/usbx/common/core/src/ux_host_stack_interface_setting_select.c **** /*    _ux_host_stack_interface_set              Set interface instance    */ 
  60:./Middlewares/ST/usbx/common/core/src/ux_host_stack_interface_setting_select.c **** /*                                                                        */ 
  61:./Middlewares/ST/usbx/common/core/src/ux_host_stack_interface_setting_select.c **** /*  CALLED BY                                                             */ 
  62:./Middlewares/ST/usbx/common/core/src/ux_host_stack_interface_setting_select.c **** /*                                                                        */ 
  63:./Middlewares/ST/usbx/common/core/src/ux_host_stack_interface_setting_select.c **** /*    Application                                                         */ 
  64:./Middlewares/ST/usbx/common/core/src/ux_host_stack_interface_setting_select.c **** /*    USBX Components                                                     */ 
  65:./Middlewares/ST/usbx/common/core/src/ux_host_stack_interface_setting_select.c **** /*                                                                        */ 
  66:./Middlewares/ST/usbx/common/core/src/ux_host_stack_interface_setting_select.c **** /*  RELEASE HISTORY                                                       */ 
  67:./Middlewares/ST/usbx/common/core/src/ux_host_stack_interface_setting_select.c **** /*                                                                        */ 
  68:./Middlewares/ST/usbx/common/core/src/ux_host_stack_interface_setting_select.c **** /*    DATE              NAME                      DESCRIPTION             */ 
  69:./Middlewares/ST/usbx/common/core/src/ux_host_stack_interface_setting_select.c **** /*                                                                        */ 
  70:./Middlewares/ST/usbx/common/core/src/ux_host_stack_interface_setting_select.c **** /*  05-19-2020     Chaoqiong Xiao           Initial Version 6.0           */
  71:./Middlewares/ST/usbx/common/core/src/ux_host_stack_interface_setting_select.c **** /*  09-30-2020     Chaoqiong Xiao           Modified comment(s),          */
  72:./Middlewares/ST/usbx/common/core/src/ux_host_stack_interface_setting_select.c **** /*                                            resulting in version 6.1    */
  73:./Middlewares/ST/usbx/common/core/src/ux_host_stack_interface_setting_select.c **** /*                                                                        */
  74:./Middlewares/ST/usbx/common/core/src/ux_host_stack_interface_setting_select.c **** /**************************************************************************/
  75:./Middlewares/ST/usbx/common/core/src/ux_host_stack_interface_setting_select.c **** UINT  _ux_host_stack_interface_setting_select(UX_INTERFACE *interface)
  76:./Middlewares/ST/usbx/common/core/src/ux_host_stack_interface_setting_select.c **** {
  30              		.loc 1 76 1 view -0
  31              		.cfi_startproc
  32              		@ args = 0, pretend = 0, frame = 0
  33              		@ frame_needed = 0, uses_anonymous_args = 0
  34              		.loc 1 76 1 is_stmt 0 view .LVU1
  35 0000 2DE9F041 		push	{r4, r5, r6, r7, r8, lr}
  36              	.LCFI0:
  37              		.cfi_def_cfa_offset 24
  38              		.cfi_offset 4, -24
  39              		.cfi_offset 5, -20
ARM GAS  C:\Users\Dennis\AppData\Local\Temp\ccOQqFsa.s 			page 3


  40              		.cfi_offset 6, -16
  41              		.cfi_offset 7, -12
  42              		.cfi_offset 8, -8
  43              		.cfi_offset 14, -4
  77:./Middlewares/ST/usbx/common/core/src/ux_host_stack_interface_setting_select.c **** 
  78:./Middlewares/ST/usbx/common/core/src/ux_host_stack_interface_setting_select.c **** UX_CONFIGURATION    *configuration;
  44              		.loc 1 78 1 is_stmt 1 view .LVU2
  79:./Middlewares/ST/usbx/common/core/src/ux_host_stack_interface_setting_select.c **** UX_INTERFACE        *current_interface;
  45              		.loc 1 79 1 view .LVU3
  80:./Middlewares/ST/usbx/common/core/src/ux_host_stack_interface_setting_select.c **** UX_INTERFACE        *previous_interface;
  46              		.loc 1 80 1 view .LVU4
  81:./Middlewares/ST/usbx/common/core/src/ux_host_stack_interface_setting_select.c **** UX_INTERFACE        *main_interface;
  47              		.loc 1 81 1 view .LVU5
  82:./Middlewares/ST/usbx/common/core/src/ux_host_stack_interface_setting_select.c **** UINT                current_interface_number;
  48              		.loc 1 82 1 view .LVU6
  83:./Middlewares/ST/usbx/common/core/src/ux_host_stack_interface_setting_select.c **** UINT                current_alternate_setting;
  49              		.loc 1 83 1 view .LVU7
  84:./Middlewares/ST/usbx/common/core/src/ux_host_stack_interface_setting_select.c **** UINT                status;
  50              		.loc 1 84 1 view .LVU8
  85:./Middlewares/ST/usbx/common/core/src/ux_host_stack_interface_setting_select.c ****     
  86:./Middlewares/ST/usbx/common/core/src/ux_host_stack_interface_setting_select.c ****     /* If trace is enabled, insert this event into the trace buffer.  */
  87:./Middlewares/ST/usbx/common/core/src/ux_host_stack_interface_setting_select.c ****     UX_TRACE_IN_LINE_INSERT(UX_TRACE_HOST_STACK_INTERFACE_SETTING_SELECT, interface, 0, 0, 0, UX_TR
  88:./Middlewares/ST/usbx/common/core/src/ux_host_stack_interface_setting_select.c **** 
  89:./Middlewares/ST/usbx/common/core/src/ux_host_stack_interface_setting_select.c ****     /* Check this alternate setting container. It must be valid before
  90:./Middlewares/ST/usbx/common/core/src/ux_host_stack_interface_setting_select.c ****        we continue.  */
  91:./Middlewares/ST/usbx/common/core/src/ux_host_stack_interface_setting_select.c ****     if (interface -> ux_interface_handle != (ULONG) (ALIGN_TYPE) interface)
  51              		.loc 1 91 5 view .LVU9
  52              		.loc 1 91 19 is_stmt 0 view .LVU10
  53 0004 0368     		ldr	r3, [r0]
  54              		.loc 1 91 8 view .LVU11
  55 0006 8342     		cmp	r3, r0
  56 0008 31D1     		bne	.L8
  57 000a 0646     		mov	r6, r0
  92:./Middlewares/ST/usbx/common/core/src/ux_host_stack_interface_setting_select.c ****     {
  93:./Middlewares/ST/usbx/common/core/src/ux_host_stack_interface_setting_select.c ****         /* If trace is enabled, insert this event into the trace buffer.  */
  94:./Middlewares/ST/usbx/common/core/src/ux_host_stack_interface_setting_select.c ****         UX_TRACE_IN_LINE_INSERT(UX_TRACE_ERROR, UX_INTERFACE_HANDLE_UNKNOWN, interface, 0, 0, UX_TR
  95:./Middlewares/ST/usbx/common/core/src/ux_host_stack_interface_setting_select.c **** 
  96:./Middlewares/ST/usbx/common/core/src/ux_host_stack_interface_setting_select.c ****         return(UX_INTERFACE_HANDLE_UNKNOWN);
  97:./Middlewares/ST/usbx/common/core/src/ux_host_stack_interface_setting_select.c ****     }
  98:./Middlewares/ST/usbx/common/core/src/ux_host_stack_interface_setting_select.c **** 
  99:./Middlewares/ST/usbx/common/core/src/ux_host_stack_interface_setting_select.c ****     /* From the interface, get the configuration container and the first
 100:./Middlewares/ST/usbx/common/core/src/ux_host_stack_interface_setting_select.c ****        interface hooked to this configuration.  */    
 101:./Middlewares/ST/usbx/common/core/src/ux_host_stack_interface_setting_select.c ****     configuration =             interface -> ux_interface_configuration;
  58              		.loc 1 101 5 is_stmt 1 view .LVU12
  59              		.loc 1 101 19 is_stmt 0 view .LVU13
  60 000c 036C     		ldr	r3, [r0, #64]
  61              	.LVL1:
 102:./Middlewares/ST/usbx/common/core/src/ux_host_stack_interface_setting_select.c ****     current_interface_number =  interface -> ux_interface_descriptor.bInterfaceNumber;
  62              		.loc 1 102 5 is_stmt 1 view .LVU14
  63              		.loc 1 102 30 is_stmt 0 view .LVU15
  64 000e 4269     		ldr	r2, [r0, #20]
  65              	.LVL2:
 103:./Middlewares/ST/usbx/common/core/src/ux_host_stack_interface_setting_select.c ****     current_interface =         configuration -> ux_configuration_first_interface;
  66              		.loc 1 103 5 is_stmt 1 view .LVU16
  67              		.loc 1 103 23 is_stmt 0 view .LVU17
  68 0010 DC6A     		ldr	r4, [r3, #44]
  69              	.LVL3:
ARM GAS  C:\Users\Dennis\AppData\Local\Temp\ccOQqFsa.s 			page 4


 104:./Middlewares/ST/usbx/common/core/src/ux_host_stack_interface_setting_select.c **** 
 105:./Middlewares/ST/usbx/common/core/src/ux_host_stack_interface_setting_select.c ****     /* Remember the main interface to store the next alternate setting.  We set the main interface
 106:./Middlewares/ST/usbx/common/core/src/ux_host_stack_interface_setting_select.c ****        to the first interface to keep the compiler happy. */
 107:./Middlewares/ST/usbx/common/core/src/ux_host_stack_interface_setting_select.c ****     main_interface =  current_interface;
  70              		.loc 1 107 5 is_stmt 1 view .LVU18
 108:./Middlewares/ST/usbx/common/core/src/ux_host_stack_interface_setting_select.c **** 
 109:./Middlewares/ST/usbx/common/core/src/ux_host_stack_interface_setting_select.c ****     /* In order to keep the compiler happy, we reset the alternate setting.  */
 110:./Middlewares/ST/usbx/common/core/src/ux_host_stack_interface_setting_select.c ****     current_alternate_setting =  0;
  71              		.loc 1 110 5 view .LVU19
 111:./Middlewares/ST/usbx/common/core/src/ux_host_stack_interface_setting_select.c ****     previous_interface = UX_NULL;
  72              		.loc 1 111 5 view .LVU20
 107:./Middlewares/ST/usbx/common/core/src/ux_host_stack_interface_setting_select.c **** 
  73              		.loc 1 107 20 is_stmt 0 view .LVU21
  74 0012 2746     		mov	r7, r4
 110:./Middlewares/ST/usbx/common/core/src/ux_host_stack_interface_setting_select.c ****     previous_interface = UX_NULL;
  75              		.loc 1 110 31 view .LVU22
  76 0014 0025     		movs	r5, #0
  77 0016 02E0     		b	.L7
  78              	.LVL4:
  79              	.L4:
 112:./Middlewares/ST/usbx/common/core/src/ux_host_stack_interface_setting_select.c **** 
 113:./Middlewares/ST/usbx/common/core/src/ux_host_stack_interface_setting_select.c ****     /* Search for the current alternate setting for this interface.
 114:./Middlewares/ST/usbx/common/core/src/ux_host_stack_interface_setting_select.c ****        All its endpoints will need to be destroyed.
 115:./Middlewares/ST/usbx/common/core/src/ux_host_stack_interface_setting_select.c ****        Since interfaces in the parent configuration should be linked together
 116:./Middlewares/ST/usbx/common/core/src/ux_host_stack_interface_setting_select.c ****        in correct way, just find it in while loop.
 117:./Middlewares/ST/usbx/common/core/src/ux_host_stack_interface_setting_select.c ****      */
 118:./Middlewares/ST/usbx/common/core/src/ux_host_stack_interface_setting_select.c ****     while (1)
 119:./Middlewares/ST/usbx/common/core/src/ux_host_stack_interface_setting_select.c ****     {
 120:./Middlewares/ST/usbx/common/core/src/ux_host_stack_interface_setting_select.c **** 
 121:./Middlewares/ST/usbx/common/core/src/ux_host_stack_interface_setting_select.c ****         /* Try to locate the first interface container in the interface chain which
 122:./Middlewares/ST/usbx/common/core/src/ux_host_stack_interface_setting_select.c ****            has the same interface number as the one supplied by the caller.  */
 123:./Middlewares/ST/usbx/common/core/src/ux_host_stack_interface_setting_select.c ****         if (current_interface -> ux_interface_descriptor.bInterfaceNumber == current_interface_numb
 124:./Middlewares/ST/usbx/common/core/src/ux_host_stack_interface_setting_select.c ****         {
 125:./Middlewares/ST/usbx/common/core/src/ux_host_stack_interface_setting_select.c **** 
 126:./Middlewares/ST/usbx/common/core/src/ux_host_stack_interface_setting_select.c ****             /* The alternate setting 0 of this interface has the current selected
 127:./Middlewares/ST/usbx/common/core/src/ux_host_stack_interface_setting_select.c ****                alternate setting.  */
 128:./Middlewares/ST/usbx/common/core/src/ux_host_stack_interface_setting_select.c ****             if (current_interface -> ux_interface_descriptor.bAlternateSetting == 0)
 129:./Middlewares/ST/usbx/common/core/src/ux_host_stack_interface_setting_select.c ****             {
 130:./Middlewares/ST/usbx/common/core/src/ux_host_stack_interface_setting_select.c **** 
 131:./Middlewares/ST/usbx/common/core/src/ux_host_stack_interface_setting_select.c ****                 /* Set the alternate setting.  */
 132:./Middlewares/ST/usbx/common/core/src/ux_host_stack_interface_setting_select.c ****                 current_alternate_setting =  current_interface -> ux_interface_current_alternate_se
 133:./Middlewares/ST/usbx/common/core/src/ux_host_stack_interface_setting_select.c **** 
 134:./Middlewares/ST/usbx/common/core/src/ux_host_stack_interface_setting_select.c ****                 /* Remember the main interface to store the next alternate setting.  */
 135:./Middlewares/ST/usbx/common/core/src/ux_host_stack_interface_setting_select.c ****                 main_interface =  current_interface;
 136:./Middlewares/ST/usbx/common/core/src/ux_host_stack_interface_setting_select.c **** 
 137:./Middlewares/ST/usbx/common/core/src/ux_host_stack_interface_setting_select.c ****             }
 138:./Middlewares/ST/usbx/common/core/src/ux_host_stack_interface_setting_select.c **** 
 139:./Middlewares/ST/usbx/common/core/src/ux_host_stack_interface_setting_select.c ****             /* See if the current alternate setting matches that of the interface alternate setting
 140:./Middlewares/ST/usbx/common/core/src/ux_host_stack_interface_setting_select.c ****             if (current_alternate_setting == current_interface -> ux_interface_descriptor.bAlternat
  80              		.loc 1 140 13 is_stmt 1 view .LVU23
  81              		.loc 1 140 16 is_stmt 0 view .LVU24
  82 0018 AB42     		cmp	r3, r5
  83 001a 09D0     		beq	.L11
  84              	.L3:
 141:./Middlewares/ST/usbx/common/core/src/ux_host_stack_interface_setting_select.c ****             {
 142:./Middlewares/ST/usbx/common/core/src/ux_host_stack_interface_setting_select.c **** 
 143:./Middlewares/ST/usbx/common/core/src/ux_host_stack_interface_setting_select.c ****                 /* Yes, save the current alternate setting.  */
ARM GAS  C:\Users\Dennis\AppData\Local\Temp\ccOQqFsa.s 			page 5


 144:./Middlewares/ST/usbx/common/core/src/ux_host_stack_interface_setting_select.c ****                 previous_interface = current_interface;
 145:./Middlewares/ST/usbx/common/core/src/ux_host_stack_interface_setting_select.c **** 
 146:./Middlewares/ST/usbx/common/core/src/ux_host_stack_interface_setting_select.c ****                 /* Then delete the current interface.  */
 147:./Middlewares/ST/usbx/common/core/src/ux_host_stack_interface_setting_select.c ****                 _ux_host_stack_interface_instance_delete(current_interface);
 148:./Middlewares/ST/usbx/common/core/src/ux_host_stack_interface_setting_select.c **** 
 149:./Middlewares/ST/usbx/common/core/src/ux_host_stack_interface_setting_select.c ****                 /* We are done in this loop.  */
 150:./Middlewares/ST/usbx/common/core/src/ux_host_stack_interface_setting_select.c ****                 break;
 151:./Middlewares/ST/usbx/common/core/src/ux_host_stack_interface_setting_select.c **** 
 152:./Middlewares/ST/usbx/common/core/src/ux_host_stack_interface_setting_select.c ****             }
 153:./Middlewares/ST/usbx/common/core/src/ux_host_stack_interface_setting_select.c ****         }                    
 154:./Middlewares/ST/usbx/common/core/src/ux_host_stack_interface_setting_select.c **** 
 155:./Middlewares/ST/usbx/common/core/src/ux_host_stack_interface_setting_select.c ****         /* Move to the next interface. */
 156:./Middlewares/ST/usbx/common/core/src/ux_host_stack_interface_setting_select.c ****         current_interface =  current_interface -> ux_interface_next_interface;
  85              		.loc 1 156 9 is_stmt 1 view .LVU25
  86              		.loc 1 156 27 is_stmt 0 view .LVU26
  87 001c E46B     		ldr	r4, [r4, #60]
  88              	.LVL5:
 118:./Middlewares/ST/usbx/common/core/src/ux_host_stack_interface_setting_select.c ****     {
  89              		.loc 1 118 11 is_stmt 1 view .LVU27
  90              	.L7:
 118:./Middlewares/ST/usbx/common/core/src/ux_host_stack_interface_setting_select.c ****     {
  91              		.loc 1 118 5 view .LVU28
 123:./Middlewares/ST/usbx/common/core/src/ux_host_stack_interface_setting_select.c ****         {
  92              		.loc 1 123 9 view .LVU29
 123:./Middlewares/ST/usbx/common/core/src/ux_host_stack_interface_setting_select.c ****         {
  93              		.loc 1 123 57 is_stmt 0 view .LVU30
  94 001e 6369     		ldr	r3, [r4, #20]
 123:./Middlewares/ST/usbx/common/core/src/ux_host_stack_interface_setting_select.c ****         {
  95              		.loc 1 123 12 view .LVU31
  96 0020 9342     		cmp	r3, r2
  97 0022 FBD1     		bne	.L3
 128:./Middlewares/ST/usbx/common/core/src/ux_host_stack_interface_setting_select.c ****             {
  98              		.loc 1 128 13 is_stmt 1 view .LVU32
 128:./Middlewares/ST/usbx/common/core/src/ux_host_stack_interface_setting_select.c ****             {
  99              		.loc 1 128 61 is_stmt 0 view .LVU33
 100 0024 A369     		ldr	r3, [r4, #24]
 128:./Middlewares/ST/usbx/common/core/src/ux_host_stack_interface_setting_select.c ****             {
 101              		.loc 1 128 16 view .LVU34
 102 0026 002B     		cmp	r3, #0
 103 0028 F6D1     		bne	.L4
 132:./Middlewares/ST/usbx/common/core/src/ux_host_stack_interface_setting_select.c **** 
 104              		.loc 1 132 17 is_stmt 1 view .LVU35
 132:./Middlewares/ST/usbx/common/core/src/ux_host_stack_interface_setting_select.c **** 
 105              		.loc 1 132 43 is_stmt 0 view .LVU36
 106 002a A568     		ldr	r5, [r4, #8]
 107              	.LVL6:
 135:./Middlewares/ST/usbx/common/core/src/ux_host_stack_interface_setting_select.c **** 
 108              		.loc 1 135 17 is_stmt 1 view .LVU37
 135:./Middlewares/ST/usbx/common/core/src/ux_host_stack_interface_setting_select.c **** 
 109              		.loc 1 135 32 is_stmt 0 view .LVU38
 110 002c 2746     		mov	r7, r4
 111 002e F3E7     		b	.L4
 112              	.LVL7:
 113              	.L11:
 144:./Middlewares/ST/usbx/common/core/src/ux_host_stack_interface_setting_select.c **** 
 114              		.loc 1 144 17 is_stmt 1 view .LVU39
 147:./Middlewares/ST/usbx/common/core/src/ux_host_stack_interface_setting_select.c **** 
ARM GAS  C:\Users\Dennis\AppData\Local\Temp\ccOQqFsa.s 			page 6


 115              		.loc 1 147 17 view .LVU40
 116 0030 2046     		mov	r0, r4
 117              	.LVL8:
 147:./Middlewares/ST/usbx/common/core/src/ux_host_stack_interface_setting_select.c **** 
 118              		.loc 1 147 17 is_stmt 0 view .LVU41
 119 0032 FFF7FEFF 		bl	_ux_host_stack_interface_instance_delete
 120              	.LVL9:
 150:./Middlewares/ST/usbx/common/core/src/ux_host_stack_interface_setting_select.c **** 
 121              		.loc 1 150 17 is_stmt 1 view .LVU42
 157:./Middlewares/ST/usbx/common/core/src/ux_host_stack_interface_setting_select.c ****     }
 158:./Middlewares/ST/usbx/common/core/src/ux_host_stack_interface_setting_select.c **** 
 159:./Middlewares/ST/usbx/common/core/src/ux_host_stack_interface_setting_select.c ****     /* Remember the new alternate setting.  */
 160:./Middlewares/ST/usbx/common/core/src/ux_host_stack_interface_setting_select.c ****     main_interface -> ux_interface_current_alternate_setting =  interface -> ux_interface_descripto
 122              		.loc 1 160 5 view .LVU43
 123              		.loc 1 160 101 is_stmt 0 view .LVU44
 124 0036 B369     		ldr	r3, [r6, #24]
 125              		.loc 1 160 62 view .LVU45
 126 0038 BB60     		str	r3, [r7, #8]
 161:./Middlewares/ST/usbx/common/core/src/ux_host_stack_interface_setting_select.c **** 
 162:./Middlewares/ST/usbx/common/core/src/ux_host_stack_interface_setting_select.c ****     /* Now, the interface must be created with the new alternate setting.  */
 163:./Middlewares/ST/usbx/common/core/src/ux_host_stack_interface_setting_select.c ****     status =  _ux_host_stack_interface_instance_create(interface);
 127              		.loc 1 163 5 is_stmt 1 view .LVU46
 128              		.loc 1 163 15 is_stmt 0 view .LVU47
 129 003a 3046     		mov	r0, r6
 130 003c FFF7FEFF 		bl	_ux_host_stack_interface_instance_create
 131              	.LVL10:
 164:./Middlewares/ST/usbx/common/core/src/ux_host_stack_interface_setting_select.c **** 
 165:./Middlewares/ST/usbx/common/core/src/ux_host_stack_interface_setting_select.c ****     /* If we could not create it, we return to the default one.  */
 166:./Middlewares/ST/usbx/common/core/src/ux_host_stack_interface_setting_select.c ****     if (status != UX_SUCCESS)
 132              		.loc 1 166 5 is_stmt 1 view .LVU48
 133              		.loc 1 166 8 is_stmt 0 view .LVU49
 134 0040 8046     		mov	r8, r0
 135 0042 60B9     		cbnz	r0, .L12
 167:./Middlewares/ST/usbx/common/core/src/ux_host_stack_interface_setting_select.c ****     {
 168:./Middlewares/ST/usbx/common/core/src/ux_host_stack_interface_setting_select.c **** 
 169:./Middlewares/ST/usbx/common/core/src/ux_host_stack_interface_setting_select.c ****         /* Then delete the failed interface.  */
 170:./Middlewares/ST/usbx/common/core/src/ux_host_stack_interface_setting_select.c ****         _ux_host_stack_interface_instance_delete(interface);
 171:./Middlewares/ST/usbx/common/core/src/ux_host_stack_interface_setting_select.c **** 
 172:./Middlewares/ST/usbx/common/core/src/ux_host_stack_interface_setting_select.c ****         /* Error, reset the main interface alternate setting to the default.  */
 173:./Middlewares/ST/usbx/common/core/src/ux_host_stack_interface_setting_select.c ****         main_interface -> ux_interface_current_alternate_setting =  current_alternate_setting;
 174:./Middlewares/ST/usbx/common/core/src/ux_host_stack_interface_setting_select.c **** 
 175:./Middlewares/ST/usbx/common/core/src/ux_host_stack_interface_setting_select.c ****         /* Re-create the previous interface with the old alternate setting.  */
 176:./Middlewares/ST/usbx/common/core/src/ux_host_stack_interface_setting_select.c ****         _ux_host_stack_interface_instance_create(previous_interface);
 177:./Middlewares/ST/usbx/common/core/src/ux_host_stack_interface_setting_select.c **** 
 178:./Middlewares/ST/usbx/common/core/src/ux_host_stack_interface_setting_select.c ****         /* Return error status.  */
 179:./Middlewares/ST/usbx/common/core/src/ux_host_stack_interface_setting_select.c ****         return(status);
 180:./Middlewares/ST/usbx/common/core/src/ux_host_stack_interface_setting_select.c ****     }
 181:./Middlewares/ST/usbx/common/core/src/ux_host_stack_interface_setting_select.c **** 
 182:./Middlewares/ST/usbx/common/core/src/ux_host_stack_interface_setting_select.c ****     /* Issue a SET_INTERFACE command to the target device.  */
 183:./Middlewares/ST/usbx/common/core/src/ux_host_stack_interface_setting_select.c ****     status =  _ux_host_stack_interface_set(interface);
 136              		.loc 1 183 5 is_stmt 1 view .LVU50
 137              		.loc 1 183 15 is_stmt 0 view .LVU51
 138 0044 3046     		mov	r0, r6
 139              	.LVL11:
 140              		.loc 1 183 15 view .LVU52
 141 0046 FFF7FEFF 		bl	_ux_host_stack_interface_set
 142              	.LVL12:
ARM GAS  C:\Users\Dennis\AppData\Local\Temp\ccOQqFsa.s 			page 7


 184:./Middlewares/ST/usbx/common/core/src/ux_host_stack_interface_setting_select.c **** 
 185:./Middlewares/ST/usbx/common/core/src/ux_host_stack_interface_setting_select.c ****     /* Check completion status.  */
 186:./Middlewares/ST/usbx/common/core/src/ux_host_stack_interface_setting_select.c ****     if (status != UX_SUCCESS)
 143              		.loc 1 186 5 is_stmt 1 view .LVU53
 144              		.loc 1 186 8 is_stmt 0 view .LVU54
 145 004a 8046     		mov	r8, r0
 146 004c 88B1     		cbz	r0, .L1
 187:./Middlewares/ST/usbx/common/core/src/ux_host_stack_interface_setting_select.c ****     {
 188:./Middlewares/ST/usbx/common/core/src/ux_host_stack_interface_setting_select.c **** 
 189:./Middlewares/ST/usbx/common/core/src/ux_host_stack_interface_setting_select.c ****         /* Error, reset the main interface alternate setting to the default.  */
 190:./Middlewares/ST/usbx/common/core/src/ux_host_stack_interface_setting_select.c ****         main_interface -> ux_interface_current_alternate_setting =  current_alternate_setting;
 147              		.loc 1 190 9 is_stmt 1 view .LVU55
 148              		.loc 1 190 66 is_stmt 0 view .LVU56
 149 004e BD60     		str	r5, [r7, #8]
 191:./Middlewares/ST/usbx/common/core/src/ux_host_stack_interface_setting_select.c **** 
 192:./Middlewares/ST/usbx/common/core/src/ux_host_stack_interface_setting_select.c ****         /* Delete the current interface.  */
 193:./Middlewares/ST/usbx/common/core/src/ux_host_stack_interface_setting_select.c ****         _ux_host_stack_interface_instance_delete(interface);
 150              		.loc 1 193 9 is_stmt 1 view .LVU57
 151 0050 3046     		mov	r0, r6
 152              	.LVL13:
 153              		.loc 1 193 9 is_stmt 0 view .LVU58
 154 0052 FFF7FEFF 		bl	_ux_host_stack_interface_instance_delete
 155              	.LVL14:
 194:./Middlewares/ST/usbx/common/core/src/ux_host_stack_interface_setting_select.c **** 
 195:./Middlewares/ST/usbx/common/core/src/ux_host_stack_interface_setting_select.c ****         /* Re-create the previous interface with the old alternate setting.  */
 196:./Middlewares/ST/usbx/common/core/src/ux_host_stack_interface_setting_select.c ****         _ux_host_stack_interface_instance_create(previous_interface);
 156              		.loc 1 196 9 is_stmt 1 view .LVU59
 157 0056 2046     		mov	r0, r4
 158 0058 FFF7FEFF 		bl	_ux_host_stack_interface_instance_create
 159              	.LVL15:
 197:./Middlewares/ST/usbx/common/core/src/ux_host_stack_interface_setting_select.c **** 
 198:./Middlewares/ST/usbx/common/core/src/ux_host_stack_interface_setting_select.c ****         /* Return error status.  */
 199:./Middlewares/ST/usbx/common/core/src/ux_host_stack_interface_setting_select.c ****         return(status);
 160              		.loc 1 199 9 view .LVU60
 161              		.loc 1 199 15 is_stmt 0 view .LVU61
 162 005c 09E0     		b	.L1
 163              	.LVL16:
 164              	.L12:
 170:./Middlewares/ST/usbx/common/core/src/ux_host_stack_interface_setting_select.c **** 
 165              		.loc 1 170 9 is_stmt 1 view .LVU62
 166 005e 3046     		mov	r0, r6
 167              	.LVL17:
 170:./Middlewares/ST/usbx/common/core/src/ux_host_stack_interface_setting_select.c **** 
 168              		.loc 1 170 9 is_stmt 0 view .LVU63
 169 0060 FFF7FEFF 		bl	_ux_host_stack_interface_instance_delete
 170              	.LVL18:
 173:./Middlewares/ST/usbx/common/core/src/ux_host_stack_interface_setting_select.c **** 
 171              		.loc 1 173 9 is_stmt 1 view .LVU64
 173:./Middlewares/ST/usbx/common/core/src/ux_host_stack_interface_setting_select.c **** 
 172              		.loc 1 173 66 is_stmt 0 view .LVU65
 173 0064 BD60     		str	r5, [r7, #8]
 176:./Middlewares/ST/usbx/common/core/src/ux_host_stack_interface_setting_select.c **** 
 174              		.loc 1 176 9 is_stmt 1 view .LVU66
 175 0066 2046     		mov	r0, r4
 176 0068 FFF7FEFF 		bl	_ux_host_stack_interface_instance_create
 177              	.LVL19:
 179:./Middlewares/ST/usbx/common/core/src/ux_host_stack_interface_setting_select.c ****     }
ARM GAS  C:\Users\Dennis\AppData\Local\Temp\ccOQqFsa.s 			page 8


 178              		.loc 1 179 9 view .LVU67
 179:./Middlewares/ST/usbx/common/core/src/ux_host_stack_interface_setting_select.c ****     }
 179              		.loc 1 179 15 is_stmt 0 view .LVU68
 180 006c 01E0     		b	.L1
 181              	.LVL20:
 182              	.L8:
  96:./Middlewares/ST/usbx/common/core/src/ux_host_stack_interface_setting_select.c ****     }
 183              		.loc 1 96 15 view .LVU69
 184 006e 4FF05208 		mov	r8, #82
 185              	.LVL21:
 186              	.L1:
 200:./Middlewares/ST/usbx/common/core/src/ux_host_stack_interface_setting_select.c ****     }
 201:./Middlewares/ST/usbx/common/core/src/ux_host_stack_interface_setting_select.c ****     
 202:./Middlewares/ST/usbx/common/core/src/ux_host_stack_interface_setting_select.c ****     /* Return to caller.  */
 203:./Middlewares/ST/usbx/common/core/src/ux_host_stack_interface_setting_select.c ****     return(status);
 204:./Middlewares/ST/usbx/common/core/src/ux_host_stack_interface_setting_select.c **** }
 187              		.loc 1 204 1 view .LVU70
 188 0072 4046     		mov	r0, r8
 189 0074 BDE8F081 		pop	{r4, r5, r6, r7, r8, pc}
 190              		.cfi_endproc
 191              	.LFE11:
 193              		.text
 194              	.Letext0:
 195              		.file 2 "./Middlewares/ST/threadx/ports/cortex_m4/gnu/inc/tx_port.h"
 196              		.file 3 "./Middlewares/ST/threadx/common/inc/tx_api.h"
 197              		.file 4 "./Middlewares/ST/usbx/common/core/inc/ux_api.h"
 198              		.file 5 "./Middlewares/ST/usbx/common/core/inc/ux_host_stack.h"
ARM GAS  C:\Users\Dennis\AppData\Local\Temp\ccOQqFsa.s 			page 9

