ARM GAS  C:\Users\Dennis\AppData\Local\Temp\cc6ggUHi.s 			page 1


   1              		.cpu cortex-m4
   2              		.arch armv7e-m
   3              		.fpu fpv4-sp-d16
   4              		.eabi_attribute 27, 1
   5              		.eabi_attribute 28, 1
   6              		.eabi_attribute 20, 1
   7              		.eabi_attribute 21, 1
   8              		.eabi_attribute 23, 3
   9              		.eabi_attribute 24, 1
  10              		.eabi_attribute 25, 1
  11              		.eabi_attribute 26, 1
  12              		.eabi_attribute 30, 1
  13              		.eabi_attribute 34, 1
  14              		.eabi_attribute 18, 4
  15              		.file	"ux_host_stack_device_descriptor_read.c"
  16              		.text
  17              	.Ltext0:
  18              		.cfi_sections	.debug_frame
  19              		.section	.text._ux_host_stack_device_descriptor_read,"ax",%progbits
  20              		.align	1
  21              		.global	_ux_host_stack_device_descriptor_read
  22              		.syntax unified
  23              		.thumb
  24              		.thumb_func
  26              	_ux_host_stack_device_descriptor_read:
  27              	.LVL0:
  28              	.LFB11:
  29              		.file 1 "./Middlewares/ST/usbx/common/core/src/ux_host_stack_device_descriptor_read.c"
   1:./Middlewares/ST/usbx/common/core/src/ux_host_stack_device_descriptor_read.c **** /**************************************************************************/
   2:./Middlewares/ST/usbx/common/core/src/ux_host_stack_device_descriptor_read.c **** /*                                                                        */
   3:./Middlewares/ST/usbx/common/core/src/ux_host_stack_device_descriptor_read.c **** /*       Copyright (c) Microsoft Corporation. All rights reserved.        */
   4:./Middlewares/ST/usbx/common/core/src/ux_host_stack_device_descriptor_read.c **** /*                                                                        */
   5:./Middlewares/ST/usbx/common/core/src/ux_host_stack_device_descriptor_read.c **** /*       This software is licensed under the Microsoft Software License   */
   6:./Middlewares/ST/usbx/common/core/src/ux_host_stack_device_descriptor_read.c **** /*       Terms for Microsoft Azure RTOS. Full text of the license can be  */
   7:./Middlewares/ST/usbx/common/core/src/ux_host_stack_device_descriptor_read.c **** /*       found in the LICENSE file at https://aka.ms/AzureRTOS_EULA       */
   8:./Middlewares/ST/usbx/common/core/src/ux_host_stack_device_descriptor_read.c **** /*       and in the root directory of this software.                      */
   9:./Middlewares/ST/usbx/common/core/src/ux_host_stack_device_descriptor_read.c **** /*                                                                        */
  10:./Middlewares/ST/usbx/common/core/src/ux_host_stack_device_descriptor_read.c **** /**************************************************************************/
  11:./Middlewares/ST/usbx/common/core/src/ux_host_stack_device_descriptor_read.c **** 
  12:./Middlewares/ST/usbx/common/core/src/ux_host_stack_device_descriptor_read.c **** 
  13:./Middlewares/ST/usbx/common/core/src/ux_host_stack_device_descriptor_read.c **** /**************************************************************************/
  14:./Middlewares/ST/usbx/common/core/src/ux_host_stack_device_descriptor_read.c **** /**************************************************************************/
  15:./Middlewares/ST/usbx/common/core/src/ux_host_stack_device_descriptor_read.c **** /**                                                                       */ 
  16:./Middlewares/ST/usbx/common/core/src/ux_host_stack_device_descriptor_read.c **** /** USBX Component                                                        */ 
  17:./Middlewares/ST/usbx/common/core/src/ux_host_stack_device_descriptor_read.c **** /**                                                                       */
  18:./Middlewares/ST/usbx/common/core/src/ux_host_stack_device_descriptor_read.c **** /**   Host Stack                                                          */
  19:./Middlewares/ST/usbx/common/core/src/ux_host_stack_device_descriptor_read.c **** /**                                                                       */
  20:./Middlewares/ST/usbx/common/core/src/ux_host_stack_device_descriptor_read.c **** /**************************************************************************/
  21:./Middlewares/ST/usbx/common/core/src/ux_host_stack_device_descriptor_read.c **** /**************************************************************************/
  22:./Middlewares/ST/usbx/common/core/src/ux_host_stack_device_descriptor_read.c **** 
  23:./Middlewares/ST/usbx/common/core/src/ux_host_stack_device_descriptor_read.c **** 
  24:./Middlewares/ST/usbx/common/core/src/ux_host_stack_device_descriptor_read.c **** /* Include necessary system files.  */
  25:./Middlewares/ST/usbx/common/core/src/ux_host_stack_device_descriptor_read.c **** 
  26:./Middlewares/ST/usbx/common/core/src/ux_host_stack_device_descriptor_read.c **** #define UX_SOURCE_CODE
  27:./Middlewares/ST/usbx/common/core/src/ux_host_stack_device_descriptor_read.c **** 
  28:./Middlewares/ST/usbx/common/core/src/ux_host_stack_device_descriptor_read.c **** #include "ux_api.h"
  29:./Middlewares/ST/usbx/common/core/src/ux_host_stack_device_descriptor_read.c **** #include "ux_host_stack.h"
ARM GAS  C:\Users\Dennis\AppData\Local\Temp\cc6ggUHi.s 			page 2


  30:./Middlewares/ST/usbx/common/core/src/ux_host_stack_device_descriptor_read.c **** 
  31:./Middlewares/ST/usbx/common/core/src/ux_host_stack_device_descriptor_read.c **** 
  32:./Middlewares/ST/usbx/common/core/src/ux_host_stack_device_descriptor_read.c **** /**************************************************************************/ 
  33:./Middlewares/ST/usbx/common/core/src/ux_host_stack_device_descriptor_read.c **** /*                                                                        */ 
  34:./Middlewares/ST/usbx/common/core/src/ux_host_stack_device_descriptor_read.c **** /*  FUNCTION                                               RELEASE        */ 
  35:./Middlewares/ST/usbx/common/core/src/ux_host_stack_device_descriptor_read.c **** /*                                                                        */ 
  36:./Middlewares/ST/usbx/common/core/src/ux_host_stack_device_descriptor_read.c **** /*    _ux_host_stack_device_descriptor_read               PORTABLE C      */ 
  37:./Middlewares/ST/usbx/common/core/src/ux_host_stack_device_descriptor_read.c **** /*                                                           6.1.10       */
  38:./Middlewares/ST/usbx/common/core/src/ux_host_stack_device_descriptor_read.c **** /*  AUTHOR                                                                */
  39:./Middlewares/ST/usbx/common/core/src/ux_host_stack_device_descriptor_read.c **** /*                                                                        */
  40:./Middlewares/ST/usbx/common/core/src/ux_host_stack_device_descriptor_read.c **** /*    Chaoqiong Xiao, Microsoft Corporation                               */
  41:./Middlewares/ST/usbx/common/core/src/ux_host_stack_device_descriptor_read.c **** /*                                                                        */
  42:./Middlewares/ST/usbx/common/core/src/ux_host_stack_device_descriptor_read.c **** /*  DESCRIPTION                                                           */
  43:./Middlewares/ST/usbx/common/core/src/ux_host_stack_device_descriptor_read.c **** /*                                                                        */ 
  44:./Middlewares/ST/usbx/common/core/src/ux_host_stack_device_descriptor_read.c **** /*    This function reads the device descriptor.                          */ 
  45:./Middlewares/ST/usbx/common/core/src/ux_host_stack_device_descriptor_read.c **** /*                                                                        */ 
  46:./Middlewares/ST/usbx/common/core/src/ux_host_stack_device_descriptor_read.c **** /*  INPUT                                                                 */ 
  47:./Middlewares/ST/usbx/common/core/src/ux_host_stack_device_descriptor_read.c **** /*                                                                        */ 
  48:./Middlewares/ST/usbx/common/core/src/ux_host_stack_device_descriptor_read.c **** /*    device                                Pointer to device             */ 
  49:./Middlewares/ST/usbx/common/core/src/ux_host_stack_device_descriptor_read.c **** /*                                                                        */ 
  50:./Middlewares/ST/usbx/common/core/src/ux_host_stack_device_descriptor_read.c **** /*  OUTPUT                                                                */ 
  51:./Middlewares/ST/usbx/common/core/src/ux_host_stack_device_descriptor_read.c **** /*                                                                        */ 
  52:./Middlewares/ST/usbx/common/core/src/ux_host_stack_device_descriptor_read.c **** /*    Completion Status                                                   */ 
  53:./Middlewares/ST/usbx/common/core/src/ux_host_stack_device_descriptor_read.c **** /*                                                                        */ 
  54:./Middlewares/ST/usbx/common/core/src/ux_host_stack_device_descriptor_read.c **** /*  CALLS                                                                 */ 
  55:./Middlewares/ST/usbx/common/core/src/ux_host_stack_device_descriptor_read.c **** /*                                                                        */ 
  56:./Middlewares/ST/usbx/common/core/src/ux_host_stack_device_descriptor_read.c **** /*    _ux_host_stack_transfer_request       Process transfer request      */ 
  57:./Middlewares/ST/usbx/common/core/src/ux_host_stack_device_descriptor_read.c **** /*    _ux_utility_descriptor_parse          Parse descriptor              */ 
  58:./Middlewares/ST/usbx/common/core/src/ux_host_stack_device_descriptor_read.c **** /*    _ux_utility_memory_allocate           Allocate memory block         */ 
  59:./Middlewares/ST/usbx/common/core/src/ux_host_stack_device_descriptor_read.c **** /*    _ux_utility_memory_free               Free memory block             */ 
  60:./Middlewares/ST/usbx/common/core/src/ux_host_stack_device_descriptor_read.c **** /*                                                                        */ 
  61:./Middlewares/ST/usbx/common/core/src/ux_host_stack_device_descriptor_read.c **** /*  CALLED BY                                                             */ 
  62:./Middlewares/ST/usbx/common/core/src/ux_host_stack_device_descriptor_read.c **** /*                                                                        */ 
  63:./Middlewares/ST/usbx/common/core/src/ux_host_stack_device_descriptor_read.c **** /*    USBX Components                                                     */ 
  64:./Middlewares/ST/usbx/common/core/src/ux_host_stack_device_descriptor_read.c **** /*                                                                        */ 
  65:./Middlewares/ST/usbx/common/core/src/ux_host_stack_device_descriptor_read.c **** /*  RELEASE HISTORY                                                       */ 
  66:./Middlewares/ST/usbx/common/core/src/ux_host_stack_device_descriptor_read.c **** /*                                                                        */ 
  67:./Middlewares/ST/usbx/common/core/src/ux_host_stack_device_descriptor_read.c **** /*    DATE              NAME                      DESCRIPTION             */ 
  68:./Middlewares/ST/usbx/common/core/src/ux_host_stack_device_descriptor_read.c **** /*                                                                        */ 
  69:./Middlewares/ST/usbx/common/core/src/ux_host_stack_device_descriptor_read.c **** /*  05-19-2020     Chaoqiong Xiao           Initial Version 6.0           */
  70:./Middlewares/ST/usbx/common/core/src/ux_host_stack_device_descriptor_read.c **** /*  09-30-2020     Chaoqiong Xiao           Modified comment(s),          */
  71:./Middlewares/ST/usbx/common/core/src/ux_host_stack_device_descriptor_read.c **** /*                                            resulting in version 6.1    */
  72:./Middlewares/ST/usbx/common/core/src/ux_host_stack_device_descriptor_read.c **** /*  10-15-2021     Chaoqiong Xiao           Modified comment(s),          */
  73:./Middlewares/ST/usbx/common/core/src/ux_host_stack_device_descriptor_read.c **** /*                                            added bMaxPacketSize0 check,*/
  74:./Middlewares/ST/usbx/common/core/src/ux_host_stack_device_descriptor_read.c **** /*                                            resulting in version 6.1.9  */
  75:./Middlewares/ST/usbx/common/core/src/ux_host_stack_device_descriptor_read.c **** /*  01-31-2022     Chaoqiong Xiao           Modified comment(s),          */
  76:./Middlewares/ST/usbx/common/core/src/ux_host_stack_device_descriptor_read.c **** /*                                            added standalone support,   */
  77:./Middlewares/ST/usbx/common/core/src/ux_host_stack_device_descriptor_read.c **** /*                                            added class code checking,  */
  78:./Middlewares/ST/usbx/common/core/src/ux_host_stack_device_descriptor_read.c **** /*                                            resulting in version 6.1.10 */
  79:./Middlewares/ST/usbx/common/core/src/ux_host_stack_device_descriptor_read.c **** /*                                                                        */
  80:./Middlewares/ST/usbx/common/core/src/ux_host_stack_device_descriptor_read.c **** /**************************************************************************/
  81:./Middlewares/ST/usbx/common/core/src/ux_host_stack_device_descriptor_read.c **** UINT  _ux_host_stack_device_descriptor_read(UX_DEVICE *device)
  82:./Middlewares/ST/usbx/common/core/src/ux_host_stack_device_descriptor_read.c **** {
  30              		.loc 1 82 1 view -0
  31              		.cfi_startproc
  32              		@ args = 0, pretend = 0, frame = 0
  33              		@ frame_needed = 0, uses_anonymous_args = 0
ARM GAS  C:\Users\Dennis\AppData\Local\Temp\cc6ggUHi.s 			page 3


  34              		.loc 1 82 1 is_stmt 0 view .LVU1
  35 0000 2DE9F041 		push	{r4, r5, r6, r7, r8, lr}
  36              	.LCFI0:
  37              		.cfi_def_cfa_offset 24
  38              		.cfi_offset 4, -24
  39              		.cfi_offset 5, -20
  40              		.cfi_offset 6, -16
  41              		.cfi_offset 7, -12
  42              		.cfi_offset 8, -8
  43              		.cfi_offset 14, -4
  44 0004 0446     		mov	r4, r0
  83:./Middlewares/ST/usbx/common/core/src/ux_host_stack_device_descriptor_read.c **** 
  84:./Middlewares/ST/usbx/common/core/src/ux_host_stack_device_descriptor_read.c **** UX_TRANSFER     *transfer_request;
  45              		.loc 1 84 1 is_stmt 1 view .LVU2
  85:./Middlewares/ST/usbx/common/core/src/ux_host_stack_device_descriptor_read.c **** UINT            status;
  46              		.loc 1 85 1 view .LVU3
  86:./Middlewares/ST/usbx/common/core/src/ux_host_stack_device_descriptor_read.c **** UCHAR *         descriptor;
  47              		.loc 1 86 1 view .LVU4
  87:./Middlewares/ST/usbx/common/core/src/ux_host_stack_device_descriptor_read.c **** UX_ENDPOINT     *control_endpoint;
  48              		.loc 1 87 1 view .LVU5
  88:./Middlewares/ST/usbx/common/core/src/ux_host_stack_device_descriptor_read.c **** 
  89:./Middlewares/ST/usbx/common/core/src/ux_host_stack_device_descriptor_read.c ****     /* If trace is enabled, insert this event into the trace buffer.  */
  90:./Middlewares/ST/usbx/common/core/src/ux_host_stack_device_descriptor_read.c ****     UX_TRACE_IN_LINE_INSERT(UX_TRACE_HOST_STACK_DEVICE_DESCRIPTOR_READ, device, 0, 0, 0, UX_TRACE_H
  91:./Middlewares/ST/usbx/common/core/src/ux_host_stack_device_descriptor_read.c **** 
  92:./Middlewares/ST/usbx/common/core/src/ux_host_stack_device_descriptor_read.c ****     /* Retrieve the pointer to the control endpoint.  */
  93:./Middlewares/ST/usbx/common/core/src/ux_host_stack_device_descriptor_read.c ****     control_endpoint =  &device -> ux_device_control_endpoint;
  49              		.loc 1 93 5 view .LVU6
  50              	.LVL1:
  94:./Middlewares/ST/usbx/common/core/src/ux_host_stack_device_descriptor_read.c ****     transfer_request =  &control_endpoint -> ux_endpoint_transfer_request;
  51              		.loc 1 94 5 view .LVU7
  52              		.loc 1 94 22 is_stmt 0 view .LVU8
  53 0006 00F1AC07 		add	r7, r0, #172
  54              	.LVL2:
  95:./Middlewares/ST/usbx/common/core/src/ux_host_stack_device_descriptor_read.c **** 
  96:./Middlewares/ST/usbx/common/core/src/ux_host_stack_device_descriptor_read.c ****     /* Need to allocate memory for the descriptor.  */
  97:./Middlewares/ST/usbx/common/core/src/ux_host_stack_device_descriptor_read.c ****     descriptor =  _ux_utility_memory_allocate(UX_SAFE_ALIGN, UX_CACHE_SAFE_MEMORY, UX_DEVICE_DESCRI
  55              		.loc 1 97 5 is_stmt 1 view .LVU9
  56              		.loc 1 97 19 is_stmt 0 view .LVU10
  57 000a 1222     		movs	r2, #18
  58 000c 0121     		movs	r1, #1
  59 000e 4FF0FF30 		mov	r0, #-1
  60              	.LVL3:
  61              		.loc 1 97 19 view .LVU11
  62 0012 FFF7FEFF 		bl	_ux_utility_memory_allocate
  63              	.LVL4:
  98:./Middlewares/ST/usbx/common/core/src/ux_host_stack_device_descriptor_read.c ****     if (descriptor == UX_NULL)
  64              		.loc 1 98 5 is_stmt 1 view .LVU12
  65              		.loc 1 98 8 is_stmt 0 view .LVU13
  66 0016 0028     		cmp	r0, #0
  67 0018 67D0     		beq	.L8
  68 001a 0546     		mov	r5, r0
  99:./Middlewares/ST/usbx/common/core/src/ux_host_stack_device_descriptor_read.c ****         return(UX_MEMORY_INSUFFICIENT);
 100:./Middlewares/ST/usbx/common/core/src/ux_host_stack_device_descriptor_read.c **** 
 101:./Middlewares/ST/usbx/common/core/src/ux_host_stack_device_descriptor_read.c ****     /* Create a transfer_request for the GET_DESCRIPTOR request. The first transfer_request asks 
 102:./Middlewares/ST/usbx/common/core/src/ux_host_stack_device_descriptor_read.c ****        for the first 8 bytes only. This way we will know the real MaxPacketSize
 103:./Middlewares/ST/usbx/common/core/src/ux_host_stack_device_descriptor_read.c ****        value for the control endpoint.  */
 104:./Middlewares/ST/usbx/common/core/src/ux_host_stack_device_descriptor_read.c ****     transfer_request -> ux_transfer_request_data_pointer =      descriptor;
ARM GAS  C:\Users\Dennis\AppData\Local\Temp\cc6ggUHi.s 			page 4


  69              		.loc 1 104 5 is_stmt 1 view .LVU14
  70              		.loc 1 104 58 is_stmt 0 view .LVU15
  71 001c C4F8B400 		str	r0, [r4, #180]
 105:./Middlewares/ST/usbx/common/core/src/ux_host_stack_device_descriptor_read.c ****     transfer_request -> ux_transfer_request_requested_length =  8;
  72              		.loc 1 105 5 is_stmt 1 view .LVU16
  73              		.loc 1 105 62 is_stmt 0 view .LVU17
  74 0020 0823     		movs	r3, #8
  75 0022 C4F8B830 		str	r3, [r4, #184]
 106:./Middlewares/ST/usbx/common/core/src/ux_host_stack_device_descriptor_read.c ****     transfer_request -> ux_transfer_request_function =          UX_GET_DESCRIPTOR;
  76              		.loc 1 106 5 is_stmt 1 view .LVU18
  77              		.loc 1 106 54 is_stmt 0 view .LVU19
  78 0026 0623     		movs	r3, #6
  79 0028 C4F8C430 		str	r3, [r4, #196]
 107:./Middlewares/ST/usbx/common/core/src/ux_host_stack_device_descriptor_read.c ****     transfer_request -> ux_transfer_request_type =              UX_REQUEST_IN | UX_REQUEST_TYPE_STA
  80              		.loc 1 107 5 is_stmt 1 view .LVU20
  81              		.loc 1 107 50 is_stmt 0 view .LVU21
  82 002c 8023     		movs	r3, #128
  83 002e C4F8C030 		str	r3, [r4, #192]
 108:./Middlewares/ST/usbx/common/core/src/ux_host_stack_device_descriptor_read.c ****     transfer_request -> ux_transfer_request_value =             UX_DEVICE_DESCRIPTOR_ITEM << 8;
  84              		.loc 1 108 5 is_stmt 1 view .LVU22
  85              		.loc 1 108 51 is_stmt 0 view .LVU23
  86 0032 4FF48073 		mov	r3, #256
  87 0036 C4F8C830 		str	r3, [r4, #200]
 109:./Middlewares/ST/usbx/common/core/src/ux_host_stack_device_descriptor_read.c ****     transfer_request -> ux_transfer_request_index =             0;
  88              		.loc 1 109 5 is_stmt 1 view .LVU24
  89              		.loc 1 109 51 is_stmt 0 view .LVU25
  90 003a 0023     		movs	r3, #0
  91 003c C4F8CC30 		str	r3, [r4, #204]
 110:./Middlewares/ST/usbx/common/core/src/ux_host_stack_device_descriptor_read.c **** 
 111:./Middlewares/ST/usbx/common/core/src/ux_host_stack_device_descriptor_read.c **** #if defined(UX_HOST_STANDALONE)
 112:./Middlewares/ST/usbx/common/core/src/ux_host_stack_device_descriptor_read.c ****     device -> ux_device_enum_trans = transfer_request;
 113:./Middlewares/ST/usbx/common/core/src/ux_host_stack_device_descriptor_read.c ****     status = UX_SUCCESS;
 114:./Middlewares/ST/usbx/common/core/src/ux_host_stack_device_descriptor_read.c ****     return(status);
 115:./Middlewares/ST/usbx/common/core/src/ux_host_stack_device_descriptor_read.c **** #else
 116:./Middlewares/ST/usbx/common/core/src/ux_host_stack_device_descriptor_read.c **** 
 117:./Middlewares/ST/usbx/common/core/src/ux_host_stack_device_descriptor_read.c ****     /* Send request to HCD layer.  */
 118:./Middlewares/ST/usbx/common/core/src/ux_host_stack_device_descriptor_read.c ****     status =  _ux_host_stack_transfer_request(transfer_request);
  92              		.loc 1 118 5 is_stmt 1 view .LVU26
  93              		.loc 1 118 15 is_stmt 0 view .LVU27
  94 0040 3846     		mov	r0, r7
  95              	.LVL5:
  96              		.loc 1 118 15 view .LVU28
  97 0042 FFF7FEFF 		bl	_ux_host_stack_transfer_request
  98              	.LVL6:
 119:./Middlewares/ST/usbx/common/core/src/ux_host_stack_device_descriptor_read.c **** 
 120:./Middlewares/ST/usbx/common/core/src/ux_host_stack_device_descriptor_read.c ****     /* Check for correct transfer and entire descriptor returned.  */
 121:./Middlewares/ST/usbx/common/core/src/ux_host_stack_device_descriptor_read.c ****     if ((status == UX_SUCCESS) && (transfer_request -> ux_transfer_request_actual_length == 8))
  99              		.loc 1 121 5 is_stmt 1 view .LVU29
 100              		.loc 1 121 8 is_stmt 0 view .LVU30
 101 0046 0646     		mov	r6, r0
 102 0048 18B9     		cbnz	r0, .L3
 103              		.loc 1 121 53 discriminator 1 view .LVU31
 104 004a D4F8BC30 		ldr	r3, [r4, #188]
 105              		.loc 1 121 32 discriminator 1 view .LVU32
 106 004e 082B     		cmp	r3, #8
 107 0050 05D0     		beq	.L10
 108              	.L3:
ARM GAS  C:\Users\Dennis\AppData\Local\Temp\cc6ggUHi.s 			page 5


 122:./Middlewares/ST/usbx/common/core/src/ux_host_stack_device_descriptor_read.c ****     {
 123:./Middlewares/ST/usbx/common/core/src/ux_host_stack_device_descriptor_read.c **** 
 124:./Middlewares/ST/usbx/common/core/src/ux_host_stack_device_descriptor_read.c ****         /* Parse the device descriptor and create the local descriptor.  */
 125:./Middlewares/ST/usbx/common/core/src/ux_host_stack_device_descriptor_read.c ****         _ux_utility_descriptor_parse(descriptor, _ux_system_device_descriptor_structure, UX_DEVICE_
 126:./Middlewares/ST/usbx/common/core/src/ux_host_stack_device_descriptor_read.c ****                                                                                 (UCHAR *) &device -
 127:./Middlewares/ST/usbx/common/core/src/ux_host_stack_device_descriptor_read.c ****     }
 128:./Middlewares/ST/usbx/common/core/src/ux_host_stack_device_descriptor_read.c ****     else
 129:./Middlewares/ST/usbx/common/core/src/ux_host_stack_device_descriptor_read.c ****     {
 130:./Middlewares/ST/usbx/common/core/src/ux_host_stack_device_descriptor_read.c **** 
 131:./Middlewares/ST/usbx/common/core/src/ux_host_stack_device_descriptor_read.c ****         /* Free all used resources.  */
 132:./Middlewares/ST/usbx/common/core/src/ux_host_stack_device_descriptor_read.c ****         _ux_utility_memory_free(descriptor);
 109              		.loc 1 132 9 is_stmt 1 view .LVU33
 110 0052 2846     		mov	r0, r5
 111              	.LVL7:
 112              		.loc 1 132 9 is_stmt 0 view .LVU34
 113 0054 FFF7FEFF 		bl	_ux_utility_memory_free
 114              	.LVL8:
 133:./Middlewares/ST/usbx/common/core/src/ux_host_stack_device_descriptor_read.c **** 
 134:./Middlewares/ST/usbx/common/core/src/ux_host_stack_device_descriptor_read.c ****         /* Return completion status.  */
 135:./Middlewares/ST/usbx/common/core/src/ux_host_stack_device_descriptor_read.c ****         return(status);             
 115              		.loc 1 135 9 is_stmt 1 view .LVU35
 116              	.L1:
 136:./Middlewares/ST/usbx/common/core/src/ux_host_stack_device_descriptor_read.c ****     }
 137:./Middlewares/ST/usbx/common/core/src/ux_host_stack_device_descriptor_read.c **** 
 138:./Middlewares/ST/usbx/common/core/src/ux_host_stack_device_descriptor_read.c ****     /* Validate the bMaxPacketSize0.  */
 139:./Middlewares/ST/usbx/common/core/src/ux_host_stack_device_descriptor_read.c ****     if (device -> ux_device_descriptor.bMaxPacketSize0 != 8 &&
 140:./Middlewares/ST/usbx/common/core/src/ux_host_stack_device_descriptor_read.c ****         device -> ux_device_descriptor.bMaxPacketSize0 != 16 &&
 141:./Middlewares/ST/usbx/common/core/src/ux_host_stack_device_descriptor_read.c ****         device -> ux_device_descriptor.bMaxPacketSize0 != 32 &&
 142:./Middlewares/ST/usbx/common/core/src/ux_host_stack_device_descriptor_read.c ****         device -> ux_device_descriptor.bMaxPacketSize0 != 64)
 143:./Middlewares/ST/usbx/common/core/src/ux_host_stack_device_descriptor_read.c ****     {
 144:./Middlewares/ST/usbx/common/core/src/ux_host_stack_device_descriptor_read.c ****         _ux_utility_memory_free(descriptor);
 145:./Middlewares/ST/usbx/common/core/src/ux_host_stack_device_descriptor_read.c ****         return(UX_DESCRIPTOR_CORRUPTED);
 146:./Middlewares/ST/usbx/common/core/src/ux_host_stack_device_descriptor_read.c ****     }
 147:./Middlewares/ST/usbx/common/core/src/ux_host_stack_device_descriptor_read.c **** 
 148:./Middlewares/ST/usbx/common/core/src/ux_host_stack_device_descriptor_read.c **** #if defined(UX_HOST_DEVICE_CLASS_CODE_VALIDATION_ENABLE)
 149:./Middlewares/ST/usbx/common/core/src/ux_host_stack_device_descriptor_read.c **** 
 150:./Middlewares/ST/usbx/common/core/src/ux_host_stack_device_descriptor_read.c ****     /* Validate the USB-IF bDeviceClass class code.  */
 151:./Middlewares/ST/usbx/common/core/src/ux_host_stack_device_descriptor_read.c ****     switch(device -> ux_device_descriptor.bDeviceClass)
 152:./Middlewares/ST/usbx/common/core/src/ux_host_stack_device_descriptor_read.c ****     {
 153:./Middlewares/ST/usbx/common/core/src/ux_host_stack_device_descriptor_read.c ****     case 0x00: /* Fall through.  */
 154:./Middlewares/ST/usbx/common/core/src/ux_host_stack_device_descriptor_read.c ****     case 0x02: /* Fall through.  */
 155:./Middlewares/ST/usbx/common/core/src/ux_host_stack_device_descriptor_read.c ****     case 0x09: /* Fall through.  */
 156:./Middlewares/ST/usbx/common/core/src/ux_host_stack_device_descriptor_read.c ****     case 0x11: /* Fall through.  */
 157:./Middlewares/ST/usbx/common/core/src/ux_host_stack_device_descriptor_read.c ****     case 0xDC: /* Fall through.  */
 158:./Middlewares/ST/usbx/common/core/src/ux_host_stack_device_descriptor_read.c ****     case 0xEF: /* Fall through.  */
 159:./Middlewares/ST/usbx/common/core/src/ux_host_stack_device_descriptor_read.c ****     case 0xFF:
 160:./Middlewares/ST/usbx/common/core/src/ux_host_stack_device_descriptor_read.c ****         break;
 161:./Middlewares/ST/usbx/common/core/src/ux_host_stack_device_descriptor_read.c ****     default:
 162:./Middlewares/ST/usbx/common/core/src/ux_host_stack_device_descriptor_read.c **** 
 163:./Middlewares/ST/usbx/common/core/src/ux_host_stack_device_descriptor_read.c ****         /* Invalid device class code.  */
 164:./Middlewares/ST/usbx/common/core/src/ux_host_stack_device_descriptor_read.c ****         _ux_utility_memory_free(descriptor);
 165:./Middlewares/ST/usbx/common/core/src/ux_host_stack_device_descriptor_read.c ****         return(UX_DESCRIPTOR_CORRUPTED);
 166:./Middlewares/ST/usbx/common/core/src/ux_host_stack_device_descriptor_read.c ****     }
 167:./Middlewares/ST/usbx/common/core/src/ux_host_stack_device_descriptor_read.c **** #endif
 168:./Middlewares/ST/usbx/common/core/src/ux_host_stack_device_descriptor_read.c **** 
 169:./Middlewares/ST/usbx/common/core/src/ux_host_stack_device_descriptor_read.c ****     /* Update the max packet size value for the endpoint.  */
 170:./Middlewares/ST/usbx/common/core/src/ux_host_stack_device_descriptor_read.c ****     control_endpoint -> ux_endpoint_descriptor.wMaxPacketSize = device -> ux_device_descriptor.bMax
ARM GAS  C:\Users\Dennis\AppData\Local\Temp\cc6ggUHi.s 			page 6


 171:./Middlewares/ST/usbx/common/core/src/ux_host_stack_device_descriptor_read.c **** 
 172:./Middlewares/ST/usbx/common/core/src/ux_host_stack_device_descriptor_read.c ****     /* Create a transfer_request for the GET_DESCRIPTOR request. This time, we have the complete le
 173:./Middlewares/ST/usbx/common/core/src/ux_host_stack_device_descriptor_read.c ****     transfer_request -> ux_transfer_request_data_pointer =      descriptor;
 174:./Middlewares/ST/usbx/common/core/src/ux_host_stack_device_descriptor_read.c ****     transfer_request -> ux_transfer_request_requested_length =  UX_DEVICE_DESCRIPTOR_LENGTH;
 175:./Middlewares/ST/usbx/common/core/src/ux_host_stack_device_descriptor_read.c ****     transfer_request -> ux_transfer_request_function =          UX_GET_DESCRIPTOR;
 176:./Middlewares/ST/usbx/common/core/src/ux_host_stack_device_descriptor_read.c ****     transfer_request -> ux_transfer_request_type =              UX_REQUEST_IN | UX_REQUEST_TYPE_STA
 177:./Middlewares/ST/usbx/common/core/src/ux_host_stack_device_descriptor_read.c ****     transfer_request -> ux_transfer_request_value =             UX_DEVICE_DESCRIPTOR_ITEM << 8;
 178:./Middlewares/ST/usbx/common/core/src/ux_host_stack_device_descriptor_read.c ****     transfer_request -> ux_transfer_request_index =             0;
 179:./Middlewares/ST/usbx/common/core/src/ux_host_stack_device_descriptor_read.c ****     transfer_request -> ux_transfer_request_packet_length =     device -> ux_device_descriptor.bMax
 180:./Middlewares/ST/usbx/common/core/src/ux_host_stack_device_descriptor_read.c **** 
 181:./Middlewares/ST/usbx/common/core/src/ux_host_stack_device_descriptor_read.c ****     /* Send request to HCD layer.  */
 182:./Middlewares/ST/usbx/common/core/src/ux_host_stack_device_descriptor_read.c ****     status =  _ux_host_stack_transfer_request(transfer_request);
 183:./Middlewares/ST/usbx/common/core/src/ux_host_stack_device_descriptor_read.c **** 
 184:./Middlewares/ST/usbx/common/core/src/ux_host_stack_device_descriptor_read.c ****     /* Check for correct transfer and entire descriptor returned.  */
 185:./Middlewares/ST/usbx/common/core/src/ux_host_stack_device_descriptor_read.c ****     if ((status == UX_SUCCESS) && (transfer_request -> ux_transfer_request_actual_length == UX_DEVI
 186:./Middlewares/ST/usbx/common/core/src/ux_host_stack_device_descriptor_read.c ****     {
 187:./Middlewares/ST/usbx/common/core/src/ux_host_stack_device_descriptor_read.c **** 
 188:./Middlewares/ST/usbx/common/core/src/ux_host_stack_device_descriptor_read.c ****         /* Parse the device descriptor and create the local descriptor.  */
 189:./Middlewares/ST/usbx/common/core/src/ux_host_stack_device_descriptor_read.c ****         _ux_utility_descriptor_parse(descriptor, _ux_system_device_descriptor_structure, UX_DEVICE_
 190:./Middlewares/ST/usbx/common/core/src/ux_host_stack_device_descriptor_read.c ****                                                                     (UCHAR *) &device -> ux_device_
 191:./Middlewares/ST/usbx/common/core/src/ux_host_stack_device_descriptor_read.c ****     }
 192:./Middlewares/ST/usbx/common/core/src/ux_host_stack_device_descriptor_read.c ****     else
 193:./Middlewares/ST/usbx/common/core/src/ux_host_stack_device_descriptor_read.c ****     {
 194:./Middlewares/ST/usbx/common/core/src/ux_host_stack_device_descriptor_read.c **** 
 195:./Middlewares/ST/usbx/common/core/src/ux_host_stack_device_descriptor_read.c ****         /* Error trap. */
 196:./Middlewares/ST/usbx/common/core/src/ux_host_stack_device_descriptor_read.c ****         _ux_system_error_handler(UX_SYSTEM_LEVEL_THREAD, UX_SYSTEM_CONTEXT_ENUMERATOR, UX_DESCRIPTO
 197:./Middlewares/ST/usbx/common/core/src/ux_host_stack_device_descriptor_read.c **** 
 198:./Middlewares/ST/usbx/common/core/src/ux_host_stack_device_descriptor_read.c ****         /* If trace is enabled, insert this event into the trace buffer.  */
 199:./Middlewares/ST/usbx/common/core/src/ux_host_stack_device_descriptor_read.c ****         UX_TRACE_IN_LINE_INSERT(UX_TRACE_ERROR, UX_DESCRIPTOR_CORRUPTED, descriptor, 0, 0, UX_TRACE
 200:./Middlewares/ST/usbx/common/core/src/ux_host_stack_device_descriptor_read.c **** 
 201:./Middlewares/ST/usbx/common/core/src/ux_host_stack_device_descriptor_read.c ****         /* The device descriptor does not contain the right amount of data. Maybe corruption.  */
 202:./Middlewares/ST/usbx/common/core/src/ux_host_stack_device_descriptor_read.c ****         status =  UX_DESCRIPTOR_CORRUPTED;
 203:./Middlewares/ST/usbx/common/core/src/ux_host_stack_device_descriptor_read.c ****     }
 204:./Middlewares/ST/usbx/common/core/src/ux_host_stack_device_descriptor_read.c ****     
 205:./Middlewares/ST/usbx/common/core/src/ux_host_stack_device_descriptor_read.c ****     /* Free all used resources.  */
 206:./Middlewares/ST/usbx/common/core/src/ux_host_stack_device_descriptor_read.c ****     _ux_utility_memory_free(descriptor);
 207:./Middlewares/ST/usbx/common/core/src/ux_host_stack_device_descriptor_read.c **** 
 208:./Middlewares/ST/usbx/common/core/src/ux_host_stack_device_descriptor_read.c ****     /* Return completion status.  */
 209:./Middlewares/ST/usbx/common/core/src/ux_host_stack_device_descriptor_read.c ****     return(status);             
 210:./Middlewares/ST/usbx/common/core/src/ux_host_stack_device_descriptor_read.c **** #endif
 211:./Middlewares/ST/usbx/common/core/src/ux_host_stack_device_descriptor_read.c **** }
 117              		.loc 1 211 1 is_stmt 0 view .LVU36
 118 0058 3046     		mov	r0, r6
 119 005a BDE8F081 		pop	{r4, r5, r6, r7, r8, pc}
 120              	.LVL9:
 121              	.L10:
 125:./Middlewares/ST/usbx/common/core/src/ux_host_stack_device_descriptor_read.c ****                                                                                 (UCHAR *) &device -
 122              		.loc 1 125 9 is_stmt 1 view .LVU37
 126:./Middlewares/ST/usbx/common/core/src/ux_host_stack_device_descriptor_read.c ****     }
 123              		.loc 1 126 91 is_stmt 0 view .LVU38
 124 005e 04F14408 		add	r8, r4, #68
 125:./Middlewares/ST/usbx/common/core/src/ux_host_stack_device_descriptor_read.c ****                                                                                 (UCHAR *) &device -
 125              		.loc 1 125 9 view .LVU39
 126 0062 4346     		mov	r3, r8
 127 0064 0E22     		movs	r2, #14
 128 0066 2249     		ldr	r1, .L13
 129 0068 2846     		mov	r0, r5
ARM GAS  C:\Users\Dennis\AppData\Local\Temp\cc6ggUHi.s 			page 7


 130              	.LVL10:
 125:./Middlewares/ST/usbx/common/core/src/ux_host_stack_device_descriptor_read.c ****                                                                                 (UCHAR *) &device -
 131              		.loc 1 125 9 view .LVU40
 132 006a FFF7FEFF 		bl	_ux_utility_descriptor_parse
 133              	.LVL11:
 139:./Middlewares/ST/usbx/common/core/src/ux_host_stack_device_descriptor_read.c ****         device -> ux_device_descriptor.bMaxPacketSize0 != 16 &&
 134              		.loc 1 139 5 is_stmt 1 view .LVU41
 139:./Middlewares/ST/usbx/common/core/src/ux_host_stack_device_descriptor_read.c ****         device -> ux_device_descriptor.bMaxPacketSize0 != 16 &&
 135              		.loc 1 139 39 is_stmt 0 view .LVU42
 136 006e E36D     		ldr	r3, [r4, #92]
 139:./Middlewares/ST/usbx/common/core/src/ux_host_stack_device_descriptor_read.c ****         device -> ux_device_descriptor.bMaxPacketSize0 != 16 &&
 137              		.loc 1 139 8 view .LVU43
 138 0070 082B     		cmp	r3, #8
 139 0072 05D0     		beq	.L5
 139:./Middlewares/ST/usbx/common/core/src/ux_host_stack_device_descriptor_read.c ****         device -> ux_device_descriptor.bMaxPacketSize0 != 16 &&
 140              		.loc 1 139 61 discriminator 1 view .LVU44
 141 0074 102B     		cmp	r3, #16
 142 0076 03D0     		beq	.L5
 140:./Middlewares/ST/usbx/common/core/src/ux_host_stack_device_descriptor_read.c ****         device -> ux_device_descriptor.bMaxPacketSize0 != 32 &&
 143              		.loc 1 140 62 view .LVU45
 144 0078 202B     		cmp	r3, #32
 145 007a 01D0     		beq	.L5
 141:./Middlewares/ST/usbx/common/core/src/ux_host_stack_device_descriptor_read.c ****         device -> ux_device_descriptor.bMaxPacketSize0 != 64)
 146              		.loc 1 141 62 view .LVU46
 147 007c 402B     		cmp	r3, #64
 148 007e 28D1     		bne	.L11
 149              	.L5:
 170:./Middlewares/ST/usbx/common/core/src/ux_host_stack_device_descriptor_read.c **** 
 150              		.loc 1 170 5 is_stmt 1 view .LVU47
 170:./Middlewares/ST/usbx/common/core/src/ux_host_stack_device_descriptor_read.c **** 
 151              		.loc 1 170 63 is_stmt 0 view .LVU48
 152 0080 C4F89830 		str	r3, [r4, #152]
 173:./Middlewares/ST/usbx/common/core/src/ux_host_stack_device_descriptor_read.c ****     transfer_request -> ux_transfer_request_requested_length =  UX_DEVICE_DESCRIPTOR_LENGTH;
 153              		.loc 1 173 5 is_stmt 1 view .LVU49
 173:./Middlewares/ST/usbx/common/core/src/ux_host_stack_device_descriptor_read.c ****     transfer_request -> ux_transfer_request_requested_length =  UX_DEVICE_DESCRIPTOR_LENGTH;
 154              		.loc 1 173 58 is_stmt 0 view .LVU50
 155 0084 C4F8B450 		str	r5, [r4, #180]
 174:./Middlewares/ST/usbx/common/core/src/ux_host_stack_device_descriptor_read.c ****     transfer_request -> ux_transfer_request_function =          UX_GET_DESCRIPTOR;
 156              		.loc 1 174 5 is_stmt 1 view .LVU51
 174:./Middlewares/ST/usbx/common/core/src/ux_host_stack_device_descriptor_read.c ****     transfer_request -> ux_transfer_request_function =          UX_GET_DESCRIPTOR;
 157              		.loc 1 174 62 is_stmt 0 view .LVU52
 158 0088 1222     		movs	r2, #18
 159 008a C4F8B820 		str	r2, [r4, #184]
 175:./Middlewares/ST/usbx/common/core/src/ux_host_stack_device_descriptor_read.c ****     transfer_request -> ux_transfer_request_type =              UX_REQUEST_IN | UX_REQUEST_TYPE_STA
 160              		.loc 1 175 5 is_stmt 1 view .LVU53
 175:./Middlewares/ST/usbx/common/core/src/ux_host_stack_device_descriptor_read.c ****     transfer_request -> ux_transfer_request_type =              UX_REQUEST_IN | UX_REQUEST_TYPE_STA
 161              		.loc 1 175 54 is_stmt 0 view .LVU54
 162 008e 0622     		movs	r2, #6
 163 0090 C4F8C420 		str	r2, [r4, #196]
 176:./Middlewares/ST/usbx/common/core/src/ux_host_stack_device_descriptor_read.c ****     transfer_request -> ux_transfer_request_value =             UX_DEVICE_DESCRIPTOR_ITEM << 8;
 164              		.loc 1 176 5 is_stmt 1 view .LVU55
 176:./Middlewares/ST/usbx/common/core/src/ux_host_stack_device_descriptor_read.c ****     transfer_request -> ux_transfer_request_value =             UX_DEVICE_DESCRIPTOR_ITEM << 8;
 165              		.loc 1 176 50 is_stmt 0 view .LVU56
 166 0094 8022     		movs	r2, #128
 167 0096 C4F8C020 		str	r2, [r4, #192]
 177:./Middlewares/ST/usbx/common/core/src/ux_host_stack_device_descriptor_read.c ****     transfer_request -> ux_transfer_request_index =             0;
 168              		.loc 1 177 5 is_stmt 1 view .LVU57
ARM GAS  C:\Users\Dennis\AppData\Local\Temp\cc6ggUHi.s 			page 8


 177:./Middlewares/ST/usbx/common/core/src/ux_host_stack_device_descriptor_read.c ****     transfer_request -> ux_transfer_request_index =             0;
 169              		.loc 1 177 51 is_stmt 0 view .LVU58
 170 009a 4FF48072 		mov	r2, #256
 171 009e C4F8C820 		str	r2, [r4, #200]
 178:./Middlewares/ST/usbx/common/core/src/ux_host_stack_device_descriptor_read.c ****     transfer_request -> ux_transfer_request_packet_length =     device -> ux_device_descriptor.bMax
 172              		.loc 1 178 5 is_stmt 1 view .LVU59
 178:./Middlewares/ST/usbx/common/core/src/ux_host_stack_device_descriptor_read.c ****     transfer_request -> ux_transfer_request_packet_length =     device -> ux_device_descriptor.bMax
 173              		.loc 1 178 51 is_stmt 0 view .LVU60
 174 00a2 0022     		movs	r2, #0
 175 00a4 C4F8CC20 		str	r2, [r4, #204]
 179:./Middlewares/ST/usbx/common/core/src/ux_host_stack_device_descriptor_read.c **** 
 176              		.loc 1 179 5 is_stmt 1 view .LVU61
 179:./Middlewares/ST/usbx/common/core/src/ux_host_stack_device_descriptor_read.c **** 
 177              		.loc 1 179 59 is_stmt 0 view .LVU62
 178 00a8 C4F8E430 		str	r3, [r4, #228]
 182:./Middlewares/ST/usbx/common/core/src/ux_host_stack_device_descriptor_read.c **** 
 179              		.loc 1 182 5 is_stmt 1 view .LVU63
 182:./Middlewares/ST/usbx/common/core/src/ux_host_stack_device_descriptor_read.c **** 
 180              		.loc 1 182 15 is_stmt 0 view .LVU64
 181 00ac 3846     		mov	r0, r7
 182 00ae FFF7FEFF 		bl	_ux_host_stack_transfer_request
 183              	.LVL12:
 185:./Middlewares/ST/usbx/common/core/src/ux_host_stack_device_descriptor_read.c ****     {
 184              		.loc 1 185 5 is_stmt 1 view .LVU65
 185:./Middlewares/ST/usbx/common/core/src/ux_host_stack_device_descriptor_read.c ****     {
 185              		.loc 1 185 8 is_stmt 0 view .LVU66
 186 00b2 0646     		mov	r6, r0
 187 00b4 18B9     		cbnz	r0, .L6
 185:./Middlewares/ST/usbx/common/core/src/ux_host_stack_device_descriptor_read.c ****     {
 188              		.loc 1 185 53 discriminator 1 view .LVU67
 189 00b6 D4F8BC30 		ldr	r3, [r4, #188]
 185:./Middlewares/ST/usbx/common/core/src/ux_host_stack_device_descriptor_read.c ****     {
 190              		.loc 1 185 32 discriminator 1 view .LVU68
 191 00ba 122B     		cmp	r3, #18
 192 00bc 0ED0     		beq	.L12
 193              	.L6:
 196:./Middlewares/ST/usbx/common/core/src/ux_host_stack_device_descriptor_read.c **** 
 194              		.loc 1 196 9 is_stmt 1 view .LVU69
 195 00be 4222     		movs	r2, #66
 196 00c0 0421     		movs	r1, #4
 197 00c2 0220     		movs	r0, #2
 198              	.LVL13:
 196:./Middlewares/ST/usbx/common/core/src/ux_host_stack_device_descriptor_read.c **** 
 199              		.loc 1 196 9 is_stmt 0 view .LVU70
 200 00c4 FFF7FEFF 		bl	_ux_system_error_handler
 201              	.LVL14:
 202:./Middlewares/ST/usbx/common/core/src/ux_host_stack_device_descriptor_read.c ****     }
 202              		.loc 1 202 9 is_stmt 1 view .LVU71
 202:./Middlewares/ST/usbx/common/core/src/ux_host_stack_device_descriptor_read.c ****     }
 203              		.loc 1 202 16 is_stmt 0 view .LVU72
 204 00c8 4226     		movs	r6, #66
 205              	.LVL15:
 206              	.L7:
 206:./Middlewares/ST/usbx/common/core/src/ux_host_stack_device_descriptor_read.c **** 
 207              		.loc 1 206 5 is_stmt 1 view .LVU73
 208 00ca 2846     		mov	r0, r5
 209 00cc FFF7FEFF 		bl	_ux_utility_memory_free
ARM GAS  C:\Users\Dennis\AppData\Local\Temp\cc6ggUHi.s 			page 9


 210              	.LVL16:
 209:./Middlewares/ST/usbx/common/core/src/ux_host_stack_device_descriptor_read.c **** #endif
 211              		.loc 1 209 5 view .LVU74
 209:./Middlewares/ST/usbx/common/core/src/ux_host_stack_device_descriptor_read.c **** #endif
 212              		.loc 1 209 11 is_stmt 0 view .LVU75
 213 00d0 C2E7     		b	.L1
 214              	.L11:
 144:./Middlewares/ST/usbx/common/core/src/ux_host_stack_device_descriptor_read.c ****         return(UX_DESCRIPTOR_CORRUPTED);
 215              		.loc 1 144 9 is_stmt 1 view .LVU76
 216 00d2 2846     		mov	r0, r5
 217 00d4 FFF7FEFF 		bl	_ux_utility_memory_free
 218              	.LVL17:
 145:./Middlewares/ST/usbx/common/core/src/ux_host_stack_device_descriptor_read.c ****     }
 219              		.loc 1 145 9 view .LVU77
 145:./Middlewares/ST/usbx/common/core/src/ux_host_stack_device_descriptor_read.c ****     }
 220              		.loc 1 145 15 is_stmt 0 view .LVU78
 221 00d8 4226     		movs	r6, #66
 222              	.LVL18:
 145:./Middlewares/ST/usbx/common/core/src/ux_host_stack_device_descriptor_read.c ****     }
 223              		.loc 1 145 15 view .LVU79
 224 00da BDE7     		b	.L1
 225              	.LVL19:
 226              	.L12:
 189:./Middlewares/ST/usbx/common/core/src/ux_host_stack_device_descriptor_read.c ****                                                                     (UCHAR *) &device -> ux_device_
 227              		.loc 1 189 9 is_stmt 1 view .LVU80
 228 00dc 4346     		mov	r3, r8
 229 00de 0E22     		movs	r2, #14
 230 00e0 0349     		ldr	r1, .L13
 231 00e2 2846     		mov	r0, r5
 232              	.LVL20:
 189:./Middlewares/ST/usbx/common/core/src/ux_host_stack_device_descriptor_read.c ****                                                                     (UCHAR *) &device -> ux_device_
 233              		.loc 1 189 9 is_stmt 0 view .LVU81
 234 00e4 FFF7FEFF 		bl	_ux_utility_descriptor_parse
 235              	.LVL21:
 236 00e8 EFE7     		b	.L7
 237              	.LVL22:
 238              	.L8:
  99:./Middlewares/ST/usbx/common/core/src/ux_host_stack_device_descriptor_read.c **** 
 239              		.loc 1 99 15 view .LVU82
 240 00ea 1226     		movs	r6, #18
 241 00ec B4E7     		b	.L1
 242              	.L14:
 243 00ee 00BF     		.align	2
 244              	.L13:
 245 00f0 00000000 		.word	_ux_system_device_descriptor_structure
 246              		.cfi_endproc
 247              	.LFE11:
 249              		.text
 250              	.Letext0:
 251              		.file 2 "./Middlewares/ST/threadx/ports/cortex_m4/gnu/inc/tx_port.h"
 252              		.file 3 "./Middlewares/ST/threadx/common/inc/tx_api.h"
 253              		.file 4 "./Middlewares/ST/usbx/common/core/inc/ux_api.h"
 254              		.file 5 "./Middlewares/ST/usbx/common/core/inc/ux_system.h"
 255              		.file 6 "./Middlewares/ST/usbx/common/core/inc/ux_utility.h"
 256              		.file 7 "./Middlewares/ST/usbx/common/core/inc/ux_host_stack.h"
ARM GAS  C:\Users\Dennis\AppData\Local\Temp\cc6ggUHi.s 			page 10

