ARM GAS  /tmp/ccyJ8D9q.s 			page 1


   1              		.cpu cortex-m4
   2              		.arch armv7e-m
   3              		.fpu fpv4-sp-d16
   4              		.eabi_attribute 27, 1
   5              		.eabi_attribute 28, 1
   6              		.eabi_attribute 20, 1
   7              		.eabi_attribute 21, 1
   8              		.eabi_attribute 23, 3
   9              		.eabi_attribute 24, 1
  10              		.eabi_attribute 25, 1
  11              		.eabi_attribute 26, 1
  12              		.eabi_attribute 30, 1
  13              		.eabi_attribute 34, 1
  14              		.eabi_attribute 18, 4
  15              		.file	"ux_host_stack_device_address_set.c"
  16              		.text
  17              	.Ltext0:
  18              		.cfi_sections	.debug_frame
  19              		.file 1 "./Middlewares/ST/usbx/common/core/src/ux_host_stack_device_address_set.c"
  20              		.section	.text._ux_host_stack_device_address_set,"ax",%progbits
  21              		.align	1
  22              		.global	_ux_host_stack_device_address_set
  23              		.syntax unified
  24              		.thumb
  25              		.thumb_func
  27              	_ux_host_stack_device_address_set:
  28              	.LVL0:
  29              	.LFB11:
   1:./Middlewares/ST/usbx/common/core/src/ux_host_stack_device_address_set.c **** /**************************************************************************/
   2:./Middlewares/ST/usbx/common/core/src/ux_host_stack_device_address_set.c **** /*                                                                        */
   3:./Middlewares/ST/usbx/common/core/src/ux_host_stack_device_address_set.c **** /*       Copyright (c) Microsoft Corporation. All rights reserved.        */
   4:./Middlewares/ST/usbx/common/core/src/ux_host_stack_device_address_set.c **** /*                                                                        */
   5:./Middlewares/ST/usbx/common/core/src/ux_host_stack_device_address_set.c **** /*       This software is licensed under the Microsoft Software License   */
   6:./Middlewares/ST/usbx/common/core/src/ux_host_stack_device_address_set.c **** /*       Terms for Microsoft Azure RTOS. Full text of the license can be  */
   7:./Middlewares/ST/usbx/common/core/src/ux_host_stack_device_address_set.c **** /*       found in the LICENSE file at https://aka.ms/AzureRTOS_EULA       */
   8:./Middlewares/ST/usbx/common/core/src/ux_host_stack_device_address_set.c **** /*       and in the root directory of this software.                      */
   9:./Middlewares/ST/usbx/common/core/src/ux_host_stack_device_address_set.c **** /*                                                                        */
  10:./Middlewares/ST/usbx/common/core/src/ux_host_stack_device_address_set.c **** /**************************************************************************/
  11:./Middlewares/ST/usbx/common/core/src/ux_host_stack_device_address_set.c **** 
  12:./Middlewares/ST/usbx/common/core/src/ux_host_stack_device_address_set.c **** 
  13:./Middlewares/ST/usbx/common/core/src/ux_host_stack_device_address_set.c **** /**************************************************************************/
  14:./Middlewares/ST/usbx/common/core/src/ux_host_stack_device_address_set.c **** /**************************************************************************/
  15:./Middlewares/ST/usbx/common/core/src/ux_host_stack_device_address_set.c **** /**                                                                       */ 
  16:./Middlewares/ST/usbx/common/core/src/ux_host_stack_device_address_set.c **** /** USBX Component                                                        */ 
  17:./Middlewares/ST/usbx/common/core/src/ux_host_stack_device_address_set.c **** /**                                                                       */
  18:./Middlewares/ST/usbx/common/core/src/ux_host_stack_device_address_set.c **** /**   Host Stack                                                          */
  19:./Middlewares/ST/usbx/common/core/src/ux_host_stack_device_address_set.c **** /**                                                                       */
  20:./Middlewares/ST/usbx/common/core/src/ux_host_stack_device_address_set.c **** /**************************************************************************/
  21:./Middlewares/ST/usbx/common/core/src/ux_host_stack_device_address_set.c **** /**************************************************************************/
  22:./Middlewares/ST/usbx/common/core/src/ux_host_stack_device_address_set.c **** 
  23:./Middlewares/ST/usbx/common/core/src/ux_host_stack_device_address_set.c **** 
  24:./Middlewares/ST/usbx/common/core/src/ux_host_stack_device_address_set.c **** /* Include necessary system files.  */
  25:./Middlewares/ST/usbx/common/core/src/ux_host_stack_device_address_set.c **** 
  26:./Middlewares/ST/usbx/common/core/src/ux_host_stack_device_address_set.c **** #define UX_SOURCE_CODE
  27:./Middlewares/ST/usbx/common/core/src/ux_host_stack_device_address_set.c **** 
  28:./Middlewares/ST/usbx/common/core/src/ux_host_stack_device_address_set.c **** #include "ux_api.h"
  29:./Middlewares/ST/usbx/common/core/src/ux_host_stack_device_address_set.c **** #include "ux_host_stack.h"
ARM GAS  /tmp/ccyJ8D9q.s 			page 2


  30:./Middlewares/ST/usbx/common/core/src/ux_host_stack_device_address_set.c **** 
  31:./Middlewares/ST/usbx/common/core/src/ux_host_stack_device_address_set.c **** 
  32:./Middlewares/ST/usbx/common/core/src/ux_host_stack_device_address_set.c **** /**************************************************************************/ 
  33:./Middlewares/ST/usbx/common/core/src/ux_host_stack_device_address_set.c **** /*                                                                        */ 
  34:./Middlewares/ST/usbx/common/core/src/ux_host_stack_device_address_set.c **** /*  FUNCTION                                               RELEASE        */ 
  35:./Middlewares/ST/usbx/common/core/src/ux_host_stack_device_address_set.c **** /*                                                                        */ 
  36:./Middlewares/ST/usbx/common/core/src/ux_host_stack_device_address_set.c **** /*    _ux_host_stack_device_address_set                   PORTABLE C      */ 
  37:./Middlewares/ST/usbx/common/core/src/ux_host_stack_device_address_set.c **** /*                                                           6.1.10       */
  38:./Middlewares/ST/usbx/common/core/src/ux_host_stack_device_address_set.c **** /*  AUTHOR                                                                */
  39:./Middlewares/ST/usbx/common/core/src/ux_host_stack_device_address_set.c **** /*                                                                        */
  40:./Middlewares/ST/usbx/common/core/src/ux_host_stack_device_address_set.c **** /*    Chaoqiong Xiao, Microsoft Corporation                               */
  41:./Middlewares/ST/usbx/common/core/src/ux_host_stack_device_address_set.c **** /*                                                                        */
  42:./Middlewares/ST/usbx/common/core/src/ux_host_stack_device_address_set.c **** /*  DESCRIPTION                                                           */
  43:./Middlewares/ST/usbx/common/core/src/ux_host_stack_device_address_set.c **** /*                                                                        */ 
  44:./Middlewares/ST/usbx/common/core/src/ux_host_stack_device_address_set.c **** /*    This function sets the device address to the new device.            */ 
  45:./Middlewares/ST/usbx/common/core/src/ux_host_stack_device_address_set.c **** /*                                                                        */ 
  46:./Middlewares/ST/usbx/common/core/src/ux_host_stack_device_address_set.c **** /*  INPUT                                                                 */ 
  47:./Middlewares/ST/usbx/common/core/src/ux_host_stack_device_address_set.c **** /*                                                                        */ 
  48:./Middlewares/ST/usbx/common/core/src/ux_host_stack_device_address_set.c **** /*    device                                Pointer to device             */ 
  49:./Middlewares/ST/usbx/common/core/src/ux_host_stack_device_address_set.c **** /*                                                                        */ 
  50:./Middlewares/ST/usbx/common/core/src/ux_host_stack_device_address_set.c **** /*  OUTPUT                                                                */ 
  51:./Middlewares/ST/usbx/common/core/src/ux_host_stack_device_address_set.c **** /*                                                                        */ 
  52:./Middlewares/ST/usbx/common/core/src/ux_host_stack_device_address_set.c **** /*    Completion Status                                                   */ 
  53:./Middlewares/ST/usbx/common/core/src/ux_host_stack_device_address_set.c **** /*                                                                        */ 
  54:./Middlewares/ST/usbx/common/core/src/ux_host_stack_device_address_set.c **** /*  CALLS                                                                 */ 
  55:./Middlewares/ST/usbx/common/core/src/ux_host_stack_device_address_set.c **** /*                                                                        */ 
  56:./Middlewares/ST/usbx/common/core/src/ux_host_stack_device_address_set.c **** /*    _ux_utility_delay_ms                  Thread sleep                  */ 
  57:./Middlewares/ST/usbx/common/core/src/ux_host_stack_device_address_set.c **** /*    _ux_host_stack_transfer_request       Process transfer request      */ 
  58:./Middlewares/ST/usbx/common/core/src/ux_host_stack_device_address_set.c **** /*                                                                        */ 
  59:./Middlewares/ST/usbx/common/core/src/ux_host_stack_device_address_set.c **** /*  CALLED BY                                                             */ 
  60:./Middlewares/ST/usbx/common/core/src/ux_host_stack_device_address_set.c **** /*                                                                        */ 
  61:./Middlewares/ST/usbx/common/core/src/ux_host_stack_device_address_set.c **** /*    USBX Components                                                     */ 
  62:./Middlewares/ST/usbx/common/core/src/ux_host_stack_device_address_set.c **** /*                                                                        */ 
  63:./Middlewares/ST/usbx/common/core/src/ux_host_stack_device_address_set.c **** /*  RELEASE HISTORY                                                       */ 
  64:./Middlewares/ST/usbx/common/core/src/ux_host_stack_device_address_set.c **** /*                                                                        */ 
  65:./Middlewares/ST/usbx/common/core/src/ux_host_stack_device_address_set.c **** /*    DATE              NAME                      DESCRIPTION             */ 
  66:./Middlewares/ST/usbx/common/core/src/ux_host_stack_device_address_set.c **** /*                                                                        */ 
  67:./Middlewares/ST/usbx/common/core/src/ux_host_stack_device_address_set.c **** /*  05-19-2020     Chaoqiong Xiao           Initial Version 6.0           */
  68:./Middlewares/ST/usbx/common/core/src/ux_host_stack_device_address_set.c **** /*  09-30-2020     Chaoqiong Xiao           Modified comment(s),          */
  69:./Middlewares/ST/usbx/common/core/src/ux_host_stack_device_address_set.c **** /*                                            optimized based on compile  */
  70:./Middlewares/ST/usbx/common/core/src/ux_host_stack_device_address_set.c **** /*                                            definitions,                */
  71:./Middlewares/ST/usbx/common/core/src/ux_host_stack_device_address_set.c **** /*                                            resulting in version 6.1    */
  72:./Middlewares/ST/usbx/common/core/src/ux_host_stack_device_address_set.c **** /*  01-31-2022     Chaoqiong Xiao           Modified comment(s),          */
  73:./Middlewares/ST/usbx/common/core/src/ux_host_stack_device_address_set.c **** /*                                            added standalone support,   */
  74:./Middlewares/ST/usbx/common/core/src/ux_host_stack_device_address_set.c **** /*                                            resulting in version 6.1.10 */
  75:./Middlewares/ST/usbx/common/core/src/ux_host_stack_device_address_set.c **** /*                                                                        */
  76:./Middlewares/ST/usbx/common/core/src/ux_host_stack_device_address_set.c **** /**************************************************************************/
  77:./Middlewares/ST/usbx/common/core/src/ux_host_stack_device_address_set.c **** UINT  _ux_host_stack_device_address_set(UX_DEVICE *device)
  78:./Middlewares/ST/usbx/common/core/src/ux_host_stack_device_address_set.c **** {
  30              		.loc 1 78 1 view -0
  31              		.cfi_startproc
  32              		@ args = 0, pretend = 0, frame = 0
  33              		@ frame_needed = 0, uses_anonymous_args = 0
  34              		.loc 1 78 1 is_stmt 0 view .LVU1
  35 0000 70B5     		push	{r4, r5, r6, lr}
  36              	.LCFI0:
  37              		.cfi_def_cfa_offset 16
ARM GAS  /tmp/ccyJ8D9q.s 			page 3


  38              		.cfi_offset 4, -16
  39              		.cfi_offset 5, -12
  40              		.cfi_offset 6, -8
  41              		.cfi_offset 14, -4
  42 0002 0546     		mov	r5, r0
  79:./Middlewares/ST/usbx/common/core/src/ux_host_stack_device_address_set.c **** 
  80:./Middlewares/ST/usbx/common/core/src/ux_host_stack_device_address_set.c **** 
  81:./Middlewares/ST/usbx/common/core/src/ux_host_stack_device_address_set.c **** UINT            status = UX_ERROR;
  43              		.loc 1 81 1 is_stmt 1 view .LVU2
  44              	.LVL1:
  82:./Middlewares/ST/usbx/common/core/src/ux_host_stack_device_address_set.c **** UX_TRANSFER     *transfer_request;
  45              		.loc 1 82 1 view .LVU3
  83:./Middlewares/ST/usbx/common/core/src/ux_host_stack_device_address_set.c **** UX_ENDPOINT     *control_endpoint;
  46              		.loc 1 83 1 view .LVU4
  84:./Middlewares/ST/usbx/common/core/src/ux_host_stack_device_address_set.c **** USHORT          device_address;
  47              		.loc 1 84 1 view .LVU5
  85:./Middlewares/ST/usbx/common/core/src/ux_host_stack_device_address_set.c **** #if UX_MAX_DEVICES > 1
  86:./Middlewares/ST/usbx/common/core/src/ux_host_stack_device_address_set.c **** UX_HCD          *hcd;
  48              		.loc 1 86 1 view .LVU6
  87:./Middlewares/ST/usbx/common/core/src/ux_host_stack_device_address_set.c **** UINT            address_byte_index;
  49              		.loc 1 87 1 view .LVU7
  88:./Middlewares/ST/usbx/common/core/src/ux_host_stack_device_address_set.c **** UINT            address_bit_index;
  50              		.loc 1 88 1 view .LVU8
  89:./Middlewares/ST/usbx/common/core/src/ux_host_stack_device_address_set.c **** UCHAR           device_address_byte;
  51              		.loc 1 89 1 view .LVU9
  90:./Middlewares/ST/usbx/common/core/src/ux_host_stack_device_address_set.c **** #endif
  91:./Middlewares/ST/usbx/common/core/src/ux_host_stack_device_address_set.c **** 
  92:./Middlewares/ST/usbx/common/core/src/ux_host_stack_device_address_set.c ****     /* Retrieve the pointer to the control endpoint.  */
  93:./Middlewares/ST/usbx/common/core/src/ux_host_stack_device_address_set.c ****     control_endpoint =  &device -> ux_device_control_endpoint;
  52              		.loc 1 93 5 view .LVU10
  94:./Middlewares/ST/usbx/common/core/src/ux_host_stack_device_address_set.c **** 
  95:./Middlewares/ST/usbx/common/core/src/ux_host_stack_device_address_set.c ****     /* Retrieve the transfer request pointer.  */
  96:./Middlewares/ST/usbx/common/core/src/ux_host_stack_device_address_set.c ****     transfer_request =  &control_endpoint -> ux_endpoint_transfer_request;
  53              		.loc 1 96 5 view .LVU11
  54              		.loc 1 96 22 is_stmt 0 view .LVU12
  55 0004 AC30     		adds	r0, r0, #172
  56              	.LVL2:
  97:./Middlewares/ST/usbx/common/core/src/ux_host_stack_device_address_set.c **** 
  98:./Middlewares/ST/usbx/common/core/src/ux_host_stack_device_address_set.c ****     /* Initialize device address to 1.  */
  99:./Middlewares/ST/usbx/common/core/src/ux_host_stack_device_address_set.c ****     device_address =  1;
  57              		.loc 1 99 5 is_stmt 1 view .LVU13
 100:./Middlewares/ST/usbx/common/core/src/ux_host_stack_device_address_set.c **** 
 101:./Middlewares/ST/usbx/common/core/src/ux_host_stack_device_address_set.c **** #if UX_MAX_DEVICES > 1
 102:./Middlewares/ST/usbx/common/core/src/ux_host_stack_device_address_set.c **** 
 103:./Middlewares/ST/usbx/common/core/src/ux_host_stack_device_address_set.c ****     /* We need the HCD pointer as well.  */
 104:./Middlewares/ST/usbx/common/core/src/ux_host_stack_device_address_set.c ****     hcd = UX_DEVICE_HCD_GET(device);
  58              		.loc 1 104 5 view .LVU14
  59              		.loc 1 104 9 is_stmt 0 view .LVU15
  60 0006 D5F81461 		ldr	r6, [r5, #276]
  61              	.LVL3:
 105:./Middlewares/ST/usbx/common/core/src/ux_host_stack_device_address_set.c **** 
 106:./Middlewares/ST/usbx/common/core/src/ux_host_stack_device_address_set.c ****     /* Calculate the new address of this device. We start with address 1.  */
 107:./Middlewares/ST/usbx/common/core/src/ux_host_stack_device_address_set.c ****     for (address_byte_index = 0; address_byte_index < 16; address_byte_index++)
  62              		.loc 1 107 5 is_stmt 1 view .LVU16
  63              		.loc 1 107 29 is_stmt 0 view .LVU17
  64 000a 4FF0000C 		mov	ip, #0
  99:./Middlewares/ST/usbx/common/core/src/ux_host_stack_device_address_set.c **** 
ARM GAS  /tmp/ccyJ8D9q.s 			page 4


  65              		.loc 1 99 20 view .LVU18
  66 000e 0124     		movs	r4, #1
  67              		.loc 1 107 5 view .LVU19
  68 0010 21E0     		b	.L2
  69              	.LVL4:
  70              	.L13:
 108:./Middlewares/ST/usbx/common/core/src/ux_host_stack_device_address_set.c ****     {
 109:./Middlewares/ST/usbx/common/core/src/ux_host_stack_device_address_set.c **** 
 110:./Middlewares/ST/usbx/common/core/src/ux_host_stack_device_address_set.c ****         /* Get the address mask byte.  */
 111:./Middlewares/ST/usbx/common/core/src/ux_host_stack_device_address_set.c ****         device_address_byte =  hcd -> ux_hcd_address[address_byte_index];
 112:./Middlewares/ST/usbx/common/core/src/ux_host_stack_device_address_set.c **** 
 113:./Middlewares/ST/usbx/common/core/src/ux_host_stack_device_address_set.c ****         /* Scan each bit for an empty spot.  */
 114:./Middlewares/ST/usbx/common/core/src/ux_host_stack_device_address_set.c ****         for (address_bit_index = 0; address_bit_index < 8; address_bit_index++)
 115:./Middlewares/ST/usbx/common/core/src/ux_host_stack_device_address_set.c ****         {
 116:./Middlewares/ST/usbx/common/core/src/ux_host_stack_device_address_set.c **** 
 117:./Middlewares/ST/usbx/common/core/src/ux_host_stack_device_address_set.c ****             if ((device_address_byte & (1 << address_bit_index)) == 0)
 118:./Middlewares/ST/usbx/common/core/src/ux_host_stack_device_address_set.c ****             {
 119:./Middlewares/ST/usbx/common/core/src/ux_host_stack_device_address_set.c **** 
 120:./Middlewares/ST/usbx/common/core/src/ux_host_stack_device_address_set.c ****                 /* We have found an empty spot. Reserve this address.  */
 121:./Middlewares/ST/usbx/common/core/src/ux_host_stack_device_address_set.c ****                 device_address_byte = (UCHAR)((UCHAR)device_address_byte | (UCHAR)(1 << address_bit
  71              		.loc 1 121 17 is_stmt 1 view .LVU20
  72              		.loc 1 121 86 is_stmt 0 view .LVU21
  73 0012 0122     		movs	r2, #1
  74 0014 02FA03F3 		lsl	r3, r2, r3
  75              	.LVL5:
  76              		.loc 1 121 76 view .LVU22
  77 0018 DBB2     		uxtb	r3, r3
  78              		.loc 1 121 37 view .LVU23
  79 001a 0B43     		orrs	r3, r3, r1
  80              	.LVL6:
 122:./Middlewares/ST/usbx/common/core/src/ux_host_stack_device_address_set.c **** 
 123:./Middlewares/ST/usbx/common/core/src/ux_host_stack_device_address_set.c ****                 /* Store the address mask byte.  */
 124:./Middlewares/ST/usbx/common/core/src/ux_host_stack_device_address_set.c ****                 hcd -> ux_hcd_address[address_byte_index] =  device_address_byte;
  81              		.loc 1 124 17 is_stmt 1 view .LVU24
  82              		.loc 1 124 59 is_stmt 0 view .LVU25
  83 001c 6644     		add	r6, r6, ip
  84              	.LVL7:
  85              		.loc 1 124 59 view .LVU26
  86 001e 86F87830 		strb	r3, [r6, #120]
  87              	.LVL8:
 125:./Middlewares/ST/usbx/common/core/src/ux_host_stack_device_address_set.c **** 
 126:./Middlewares/ST/usbx/common/core/src/ux_host_stack_device_address_set.c ****                 /* OK, apply address.  */
 127:./Middlewares/ST/usbx/common/core/src/ux_host_stack_device_address_set.c ****                 status = UX_SUCCESS;
  88              		.loc 1 127 17 is_stmt 1 view .LVU27
 128:./Middlewares/ST/usbx/common/core/src/ux_host_stack_device_address_set.c ****                 break;
  89              		.loc 1 128 17 view .LVU28
 129:./Middlewares/ST/usbx/common/core/src/ux_host_stack_device_address_set.c ****             }
 130:./Middlewares/ST/usbx/common/core/src/ux_host_stack_device_address_set.c **** 
 131:./Middlewares/ST/usbx/common/core/src/ux_host_stack_device_address_set.c ****             /* This address was already taken, increment to the next address.  */
 132:./Middlewares/ST/usbx/common/core/src/ux_host_stack_device_address_set.c ****             device_address++;
 133:./Middlewares/ST/usbx/common/core/src/ux_host_stack_device_address_set.c ****         }
 134:./Middlewares/ST/usbx/common/core/src/ux_host_stack_device_address_set.c **** 
 135:./Middlewares/ST/usbx/common/core/src/ux_host_stack_device_address_set.c ****         /* If address found, break the loop.  */
 136:./Middlewares/ST/usbx/common/core/src/ux_host_stack_device_address_set.c ****         if (status == UX_SUCCESS)
  90              		.loc 1 136 9 view .LVU29
 127:./Middlewares/ST/usbx/common/core/src/ux_host_stack_device_address_set.c ****                 break;
  91              		.loc 1 127 24 is_stmt 0 view .LVU30
ARM GAS  /tmp/ccyJ8D9q.s 			page 5


  92 0022 0026     		movs	r6, #0
  93              	.LVL9:
  94              	.L5:
 137:./Middlewares/ST/usbx/common/core/src/ux_host_stack_device_address_set.c ****         {
 138:./Middlewares/ST/usbx/common/core/src/ux_host_stack_device_address_set.c ****             break;
 139:./Middlewares/ST/usbx/common/core/src/ux_host_stack_device_address_set.c ****         }
 140:./Middlewares/ST/usbx/common/core/src/ux_host_stack_device_address_set.c ****     }
 141:./Middlewares/ST/usbx/common/core/src/ux_host_stack_device_address_set.c ****     if (status == UX_ERROR)
  95              		.loc 1 141 5 is_stmt 1 view .LVU31
  96              		.loc 1 141 8 is_stmt 0 view .LVU32
  97 0024 FF2E     		cmp	r6, #255
  98 0026 12D0     		beq	.L1
 142:./Middlewares/ST/usbx/common/core/src/ux_host_stack_device_address_set.c **** 
 143:./Middlewares/ST/usbx/common/core/src/ux_host_stack_device_address_set.c ****         /* We should never get here!  */
 144:./Middlewares/ST/usbx/common/core/src/ux_host_stack_device_address_set.c ****         return(UX_ERROR);
 145:./Middlewares/ST/usbx/common/core/src/ux_host_stack_device_address_set.c **** #endif
 146:./Middlewares/ST/usbx/common/core/src/ux_host_stack_device_address_set.c **** 
 147:./Middlewares/ST/usbx/common/core/src/ux_host_stack_device_address_set.c ****     /* If trace is enabled, insert this event into the trace buffer.  */
 148:./Middlewares/ST/usbx/common/core/src/ux_host_stack_device_address_set.c ****     UX_TRACE_IN_LINE_INSERT(UX_TRACE_HOST_STACK_DEVICE_ADDRESS_SET, device, device_address, 0, 0, U
 149:./Middlewares/ST/usbx/common/core/src/ux_host_stack_device_address_set.c **** 
 150:./Middlewares/ST/usbx/common/core/src/ux_host_stack_device_address_set.c ****     /* Create a transfer request for the SET_ADDRESS request.  */
 151:./Middlewares/ST/usbx/common/core/src/ux_host_stack_device_address_set.c ****     transfer_request -> ux_transfer_request_data_pointer =      UX_NULL;
  99              		.loc 1 151 5 is_stmt 1 view .LVU33
 100              		.loc 1 151 58 is_stmt 0 view .LVU34
 101 0028 0023     		movs	r3, #0
 102 002a C5F8B430 		str	r3, [r5, #180]
 152:./Middlewares/ST/usbx/common/core/src/ux_host_stack_device_address_set.c ****     transfer_request -> ux_transfer_request_requested_length =  0;
 103              		.loc 1 152 5 is_stmt 1 view .LVU35
 104              		.loc 1 152 62 is_stmt 0 view .LVU36
 105 002e C5F8B830 		str	r3, [r5, #184]
 153:./Middlewares/ST/usbx/common/core/src/ux_host_stack_device_address_set.c ****     transfer_request -> ux_transfer_request_function =          UX_SET_ADDRESS;
 106              		.loc 1 153 5 is_stmt 1 view .LVU37
 107              		.loc 1 153 54 is_stmt 0 view .LVU38
 108 0032 0522     		movs	r2, #5
 109 0034 C5F8C420 		str	r2, [r5, #196]
 154:./Middlewares/ST/usbx/common/core/src/ux_host_stack_device_address_set.c ****     transfer_request -> ux_transfer_request_type =              UX_REQUEST_OUT | UX_REQUEST_TYPE_ST
 110              		.loc 1 154 5 is_stmt 1 view .LVU39
 111              		.loc 1 154 50 is_stmt 0 view .LVU40
 112 0038 C5F8C030 		str	r3, [r5, #192]
 155:./Middlewares/ST/usbx/common/core/src/ux_host_stack_device_address_set.c ****     transfer_request -> ux_transfer_request_value =             device_address;
 113              		.loc 1 155 5 is_stmt 1 view .LVU41
 114              		.loc 1 155 51 is_stmt 0 view .LVU42
 115 003c C5F8C840 		str	r4, [r5, #200]
 156:./Middlewares/ST/usbx/common/core/src/ux_host_stack_device_address_set.c ****     transfer_request -> ux_transfer_request_index =             0;
 116              		.loc 1 156 5 is_stmt 1 view .LVU43
 117              		.loc 1 156 51 is_stmt 0 view .LVU44
 118 0040 C5F8CC30 		str	r3, [r5, #204]
 157:./Middlewares/ST/usbx/common/core/src/ux_host_stack_device_address_set.c **** 
 158:./Middlewares/ST/usbx/common/core/src/ux_host_stack_device_address_set.c **** #if defined(UX_HOST_STANDALONE)
 159:./Middlewares/ST/usbx/common/core/src/ux_host_stack_device_address_set.c ****     device -> ux_device_enum_trans = transfer_request;
 160:./Middlewares/ST/usbx/common/core/src/ux_host_stack_device_address_set.c ****     status = UX_SUCCESS;
 161:./Middlewares/ST/usbx/common/core/src/ux_host_stack_device_address_set.c ****     return(status);
 162:./Middlewares/ST/usbx/common/core/src/ux_host_stack_device_address_set.c **** #else
 163:./Middlewares/ST/usbx/common/core/src/ux_host_stack_device_address_set.c **** 
 164:./Middlewares/ST/usbx/common/core/src/ux_host_stack_device_address_set.c ****     /* Send request to HCD layer.  */
 165:./Middlewares/ST/usbx/common/core/src/ux_host_stack_device_address_set.c ****     status =  _ux_host_stack_transfer_request(transfer_request);
 119              		.loc 1 165 5 is_stmt 1 view .LVU45
ARM GAS  /tmp/ccyJ8D9q.s 			page 6


 120              		.loc 1 165 15 is_stmt 0 view .LVU46
 121 0044 FFF7FEFF 		bl	_ux_host_stack_transfer_request
 122              	.LVL10:
 166:./Middlewares/ST/usbx/common/core/src/ux_host_stack_device_address_set.c **** 
 167:./Middlewares/ST/usbx/common/core/src/ux_host_stack_device_address_set.c ****     /* Now, this address will be the one used in future transfers.  The transfer may have failed an
 168:./Middlewares/ST/usbx/common/core/src/ux_host_stack_device_address_set.c ****         all the device resources including the new address will be free.*/
 169:./Middlewares/ST/usbx/common/core/src/ux_host_stack_device_address_set.c ****     device -> ux_device_address =  (ULONG) device_address;
 123              		.loc 1 169 5 is_stmt 1 view .LVU47
 124              		.loc 1 169 33 is_stmt 0 view .LVU48
 125 0048 EC60     		str	r4, [r5, #12]
 170:./Middlewares/ST/usbx/common/core/src/ux_host_stack_device_address_set.c **** 
 171:./Middlewares/ST/usbx/common/core/src/ux_host_stack_device_address_set.c ****     /* Check completion status.  */
 172:./Middlewares/ST/usbx/common/core/src/ux_host_stack_device_address_set.c ****     if (status == UX_SUCCESS)
 126              		.loc 1 172 5 is_stmt 1 view .LVU49
 127              		.loc 1 172 8 is_stmt 0 view .LVU50
 128 004a 0646     		mov	r6, r0
 129 004c C0B1     		cbz	r0, .L10
 130              	.LVL11:
 131              	.L1:
 173:./Middlewares/ST/usbx/common/core/src/ux_host_stack_device_address_set.c ****     {
 174:./Middlewares/ST/usbx/common/core/src/ux_host_stack_device_address_set.c **** 
 175:./Middlewares/ST/usbx/common/core/src/ux_host_stack_device_address_set.c ****         /* Mark the device as ADDRESSED now.  */
 176:./Middlewares/ST/usbx/common/core/src/ux_host_stack_device_address_set.c ****         device -> ux_device_state = UX_DEVICE_ADDRESSED;
 177:./Middlewares/ST/usbx/common/core/src/ux_host_stack_device_address_set.c **** 
 178:./Middlewares/ST/usbx/common/core/src/ux_host_stack_device_address_set.c ****         /* Some devices need some time to accept this address.  */
 179:./Middlewares/ST/usbx/common/core/src/ux_host_stack_device_address_set.c ****         _ux_utility_delay_ms(UX_DEVICE_ADDRESS_SET_WAIT);
 180:./Middlewares/ST/usbx/common/core/src/ux_host_stack_device_address_set.c **** 
 181:./Middlewares/ST/usbx/common/core/src/ux_host_stack_device_address_set.c ****         /* Return successful status.  */
 182:./Middlewares/ST/usbx/common/core/src/ux_host_stack_device_address_set.c ****         return(status);
 183:./Middlewares/ST/usbx/common/core/src/ux_host_stack_device_address_set.c ****     }
 184:./Middlewares/ST/usbx/common/core/src/ux_host_stack_device_address_set.c ****     else
 185:./Middlewares/ST/usbx/common/core/src/ux_host_stack_device_address_set.c ****     {
 186:./Middlewares/ST/usbx/common/core/src/ux_host_stack_device_address_set.c **** 
 187:./Middlewares/ST/usbx/common/core/src/ux_host_stack_device_address_set.c ****         /* We have an error at the first device transaction. This is mostly
 188:./Middlewares/ST/usbx/common/core/src/ux_host_stack_device_address_set.c ****             due to the device having failed on the reset after power up.
 189:./Middlewares/ST/usbx/common/core/src/ux_host_stack_device_address_set.c ****             we will try again either at the root hub or regular hub. */   
 190:./Middlewares/ST/usbx/common/core/src/ux_host_stack_device_address_set.c ****         return(status);
 191:./Middlewares/ST/usbx/common/core/src/ux_host_stack_device_address_set.c ****     }
 192:./Middlewares/ST/usbx/common/core/src/ux_host_stack_device_address_set.c **** #endif
 193:./Middlewares/ST/usbx/common/core/src/ux_host_stack_device_address_set.c **** }
 132              		.loc 1 193 1 view .LVU51
 133 004e 3046     		mov	r0, r6
 134 0050 70BD     		pop	{r4, r5, r6, pc}
 135              	.LVL12:
 136              	.L12:
 136:./Middlewares/ST/usbx/common/core/src/ux_host_stack_device_address_set.c ****         {
 137              		.loc 1 136 9 is_stmt 1 view .LVU52
 107:./Middlewares/ST/usbx/common/core/src/ux_host_stack_device_address_set.c ****     {
 138              		.loc 1 107 77 discriminator 2 view .LVU53
 139 0052 0CF1010C 		add	ip, ip, #1
 140              	.LVL13:
 141              	.L2:
 107:./Middlewares/ST/usbx/common/core/src/ux_host_stack_device_address_set.c ****     {
 142              		.loc 1 107 53 discriminator 1 view .LVU54
 143 0056 BCF10F0F 		cmp	ip, #15
 144 005a 0FD8     		bhi	.L11
 111:./Middlewares/ST/usbx/common/core/src/ux_host_stack_device_address_set.c **** 
ARM GAS  /tmp/ccyJ8D9q.s 			page 7


 145              		.loc 1 111 9 view .LVU55
 111:./Middlewares/ST/usbx/common/core/src/ux_host_stack_device_address_set.c **** 
 146              		.loc 1 111 29 is_stmt 0 view .LVU56
 147 005c 06EB0C03 		add	r3, r6, ip
 148 0060 93F87810 		ldrb	r1, [r3, #120]	@ zero_extendqisi2
 149              	.LVL14:
 114:./Middlewares/ST/usbx/common/core/src/ux_host_stack_device_address_set.c ****         {
 150              		.loc 1 114 9 is_stmt 1 view .LVU57
 114:./Middlewares/ST/usbx/common/core/src/ux_host_stack_device_address_set.c ****         {
 151              		.loc 1 114 32 is_stmt 0 view .LVU58
 152 0064 0023     		movs	r3, #0
 153              	.LVL15:
 154              	.L3:
 114:./Middlewares/ST/usbx/common/core/src/ux_host_stack_device_address_set.c ****         {
 155              		.loc 1 114 55 is_stmt 1 discriminator 1 view .LVU59
 156 0066 072B     		cmp	r3, #7
 157 0068 F3D8     		bhi	.L12
 117:./Middlewares/ST/usbx/common/core/src/ux_host_stack_device_address_set.c ****             {
 158              		.loc 1 117 13 view .LVU60
 117:./Middlewares/ST/usbx/common/core/src/ux_host_stack_device_address_set.c ****             {
 159              		.loc 1 117 66 is_stmt 0 view .LVU61
 160 006a 41FA03F2 		asr	r2, r1, r3
 117:./Middlewares/ST/usbx/common/core/src/ux_host_stack_device_address_set.c ****             {
 161              		.loc 1 117 16 view .LVU62
 162 006e 12F0010F 		tst	r2, #1
 163 0072 CED0     		beq	.L13
 132:./Middlewares/ST/usbx/common/core/src/ux_host_stack_device_address_set.c ****         }
 164              		.loc 1 132 13 is_stmt 1 view .LVU63
 132:./Middlewares/ST/usbx/common/core/src/ux_host_stack_device_address_set.c ****         }
 165              		.loc 1 132 27 is_stmt 0 view .LVU64
 166 0074 0134     		adds	r4, r4, #1
 167              	.LVL16:
 132:./Middlewares/ST/usbx/common/core/src/ux_host_stack_device_address_set.c ****         }
 168              		.loc 1 132 27 view .LVU65
 169 0076 A4B2     		uxth	r4, r4
 170              	.LVL17:
 114:./Middlewares/ST/usbx/common/core/src/ux_host_stack_device_address_set.c ****         {
 171              		.loc 1 114 77 is_stmt 1 discriminator 2 view .LVU66
 172 0078 0133     		adds	r3, r3, #1
 173              	.LVL18:
 114:./Middlewares/ST/usbx/common/core/src/ux_host_stack_device_address_set.c ****         {
 174              		.loc 1 114 77 is_stmt 0 discriminator 2 view .LVU67
 175 007a F4E7     		b	.L3
 176              	.LVL19:
 177              	.L11:
 114:./Middlewares/ST/usbx/common/core/src/ux_host_stack_device_address_set.c ****         {
 178              		.loc 1 114 77 discriminator 2 view .LVU68
 179 007c FF26     		movs	r6, #255
 180              	.LVL20:
 114:./Middlewares/ST/usbx/common/core/src/ux_host_stack_device_address_set.c ****         {
 181              		.loc 1 114 77 discriminator 2 view .LVU69
 182 007e D1E7     		b	.L5
 183              	.LVL21:
 184              	.L10:
 176:./Middlewares/ST/usbx/common/core/src/ux_host_stack_device_address_set.c **** 
 185              		.loc 1 176 9 is_stmt 1 view .LVU70
 176:./Middlewares/ST/usbx/common/core/src/ux_host_stack_device_address_set.c **** 
ARM GAS  /tmp/ccyJ8D9q.s 			page 8


 186              		.loc 1 176 35 is_stmt 0 view .LVU71
 187 0080 0223     		movs	r3, #2
 188 0082 AB60     		str	r3, [r5, #8]
 179:./Middlewares/ST/usbx/common/core/src/ux_host_stack_device_address_set.c **** 
 189              		.loc 1 179 9 is_stmt 1 view .LVU72
 190 0084 3220     		movs	r0, #50
 191              	.LVL22:
 179:./Middlewares/ST/usbx/common/core/src/ux_host_stack_device_address_set.c **** 
 192              		.loc 1 179 9 is_stmt 0 view .LVU73
 193 0086 FFF7FEFF 		bl	_ux_utility_delay_ms
 194              	.LVL23:
 182:./Middlewares/ST/usbx/common/core/src/ux_host_stack_device_address_set.c ****     }
 195              		.loc 1 182 9 is_stmt 1 view .LVU74
 182:./Middlewares/ST/usbx/common/core/src/ux_host_stack_device_address_set.c ****     }
 196              		.loc 1 182 15 is_stmt 0 view .LVU75
 197 008a E0E7     		b	.L1
 198              		.cfi_endproc
 199              	.LFE11:
 201              		.text
 202              	.Letext0:
 203              		.file 2 "./Middlewares/ST/threadx/ports/cortex_m4/gnu/inc/tx_port.h"
 204              		.file 3 "./Middlewares/ST/threadx/common/inc/tx_api.h"
 205              		.file 4 "./Middlewares/ST/usbx/common/core/inc/ux_api.h"
 206              		.file 5 "./Middlewares/ST/usbx/common/core/inc/ux_utility.h"
 207              		.file 6 "./Middlewares/ST/usbx/common/core/inc/ux_host_stack.h"
ARM GAS  /tmp/ccyJ8D9q.s 			page 9

