ARM GAS  C:\Users\Dennis\AppData\Local\Temp\ccvIWzgB.s 			page 1


   1              		.cpu cortex-m4
   2              		.arch armv7e-m
   3              		.fpu fpv4-sp-d16
   4              		.eabi_attribute 27, 1
   5              		.eabi_attribute 28, 1
   6              		.eabi_attribute 20, 1
   7              		.eabi_attribute 21, 1
   8              		.eabi_attribute 23, 3
   9              		.eabi_attribute 24, 1
  10              		.eabi_attribute 25, 1
  11              		.eabi_attribute 26, 1
  12              		.eabi_attribute 30, 1
  13              		.eabi_attribute 34, 1
  14              		.eabi_attribute 18, 4
  15              		.file	"ux_host_stack_configuration_interface_get.c"
  16              		.text
  17              	.Ltext0:
  18              		.cfi_sections	.debug_frame
  19              		.section	.text._ux_host_stack_configuration_interface_get,"ax",%progbits
  20              		.align	1
  21              		.global	_ux_host_stack_configuration_interface_get
  22              		.syntax unified
  23              		.thumb
  24              		.thumb_func
  26              	_ux_host_stack_configuration_interface_get:
  27              	.LVL0:
  28              	.LFB11:
  29              		.file 1 "./Middlewares/ST/usbx/common/core/src/ux_host_stack_configuration_interface_get.c"
   1:./Middlewares/ST/usbx/common/core/src/ux_host_stack_configuration_interface_get.c **** /**************************************************************************/
   2:./Middlewares/ST/usbx/common/core/src/ux_host_stack_configuration_interface_get.c **** /*                                                                        */
   3:./Middlewares/ST/usbx/common/core/src/ux_host_stack_configuration_interface_get.c **** /*       Copyright (c) Microsoft Corporation. All rights reserved.        */
   4:./Middlewares/ST/usbx/common/core/src/ux_host_stack_configuration_interface_get.c **** /*                                                                        */
   5:./Middlewares/ST/usbx/common/core/src/ux_host_stack_configuration_interface_get.c **** /*       This software is licensed under the Microsoft Software License   */
   6:./Middlewares/ST/usbx/common/core/src/ux_host_stack_configuration_interface_get.c **** /*       Terms for Microsoft Azure RTOS. Full text of the license can be  */
   7:./Middlewares/ST/usbx/common/core/src/ux_host_stack_configuration_interface_get.c **** /*       found in the LICENSE file at https://aka.ms/AzureRTOS_EULA       */
   8:./Middlewares/ST/usbx/common/core/src/ux_host_stack_configuration_interface_get.c **** /*       and in the root directory of this software.                      */
   9:./Middlewares/ST/usbx/common/core/src/ux_host_stack_configuration_interface_get.c **** /*                                                                        */
  10:./Middlewares/ST/usbx/common/core/src/ux_host_stack_configuration_interface_get.c **** /**************************************************************************/
  11:./Middlewares/ST/usbx/common/core/src/ux_host_stack_configuration_interface_get.c **** 
  12:./Middlewares/ST/usbx/common/core/src/ux_host_stack_configuration_interface_get.c **** 
  13:./Middlewares/ST/usbx/common/core/src/ux_host_stack_configuration_interface_get.c **** /**************************************************************************/
  14:./Middlewares/ST/usbx/common/core/src/ux_host_stack_configuration_interface_get.c **** /**************************************************************************/
  15:./Middlewares/ST/usbx/common/core/src/ux_host_stack_configuration_interface_get.c **** /**                                                                       */ 
  16:./Middlewares/ST/usbx/common/core/src/ux_host_stack_configuration_interface_get.c **** /** USBX Component                                                        */ 
  17:./Middlewares/ST/usbx/common/core/src/ux_host_stack_configuration_interface_get.c **** /**                                                                       */
  18:./Middlewares/ST/usbx/common/core/src/ux_host_stack_configuration_interface_get.c **** /**   Host Stack                                                          */
  19:./Middlewares/ST/usbx/common/core/src/ux_host_stack_configuration_interface_get.c **** /**                                                                       */
  20:./Middlewares/ST/usbx/common/core/src/ux_host_stack_configuration_interface_get.c **** /**************************************************************************/
  21:./Middlewares/ST/usbx/common/core/src/ux_host_stack_configuration_interface_get.c **** /**************************************************************************/
  22:./Middlewares/ST/usbx/common/core/src/ux_host_stack_configuration_interface_get.c **** 
  23:./Middlewares/ST/usbx/common/core/src/ux_host_stack_configuration_interface_get.c **** 
  24:./Middlewares/ST/usbx/common/core/src/ux_host_stack_configuration_interface_get.c **** /* Include necessary system files.  */
  25:./Middlewares/ST/usbx/common/core/src/ux_host_stack_configuration_interface_get.c **** 
  26:./Middlewares/ST/usbx/common/core/src/ux_host_stack_configuration_interface_get.c **** #define UX_SOURCE_CODE
  27:./Middlewares/ST/usbx/common/core/src/ux_host_stack_configuration_interface_get.c **** 
  28:./Middlewares/ST/usbx/common/core/src/ux_host_stack_configuration_interface_get.c **** #include "ux_api.h"
  29:./Middlewares/ST/usbx/common/core/src/ux_host_stack_configuration_interface_get.c **** #include "ux_host_stack.h"
ARM GAS  C:\Users\Dennis\AppData\Local\Temp\ccvIWzgB.s 			page 2


  30:./Middlewares/ST/usbx/common/core/src/ux_host_stack_configuration_interface_get.c **** 
  31:./Middlewares/ST/usbx/common/core/src/ux_host_stack_configuration_interface_get.c **** 
  32:./Middlewares/ST/usbx/common/core/src/ux_host_stack_configuration_interface_get.c **** /**************************************************************************/ 
  33:./Middlewares/ST/usbx/common/core/src/ux_host_stack_configuration_interface_get.c **** /*                                                                        */ 
  34:./Middlewares/ST/usbx/common/core/src/ux_host_stack_configuration_interface_get.c **** /*  FUNCTION                                               RELEASE        */ 
  35:./Middlewares/ST/usbx/common/core/src/ux_host_stack_configuration_interface_get.c **** /*                                                                        */ 
  36:./Middlewares/ST/usbx/common/core/src/ux_host_stack_configuration_interface_get.c **** /*    _ux_host_stack_configuration_interface_get          PORTABLE C      */ 
  37:./Middlewares/ST/usbx/common/core/src/ux_host_stack_configuration_interface_get.c **** /*                                                           6.1          */
  38:./Middlewares/ST/usbx/common/core/src/ux_host_stack_configuration_interface_get.c **** /*  AUTHOR                                                                */
  39:./Middlewares/ST/usbx/common/core/src/ux_host_stack_configuration_interface_get.c **** /*                                                                        */
  40:./Middlewares/ST/usbx/common/core/src/ux_host_stack_configuration_interface_get.c **** /*    Chaoqiong Xiao, Microsoft Corporation                               */
  41:./Middlewares/ST/usbx/common/core/src/ux_host_stack_configuration_interface_get.c **** /*                                                                        */
  42:./Middlewares/ST/usbx/common/core/src/ux_host_stack_configuration_interface_get.c **** /*  DESCRIPTION                                                           */
  43:./Middlewares/ST/usbx/common/core/src/ux_host_stack_configuration_interface_get.c **** /*                                                                        */ 
  44:./Middlewares/ST/usbx/common/core/src/ux_host_stack_configuration_interface_get.c **** /*    This function returns an interface container based on a             */ 
  45:./Middlewares/ST/usbx/common/core/src/ux_host_stack_configuration_interface_get.c **** /*    configuration handle, an interface index and an alternate setting   */ 
  46:./Middlewares/ST/usbx/common/core/src/ux_host_stack_configuration_interface_get.c **** /*    index.                                                              */ 
  47:./Middlewares/ST/usbx/common/core/src/ux_host_stack_configuration_interface_get.c **** /*                                                                        */ 
  48:./Middlewares/ST/usbx/common/core/src/ux_host_stack_configuration_interface_get.c **** /*  INPUT                                                                 */ 
  49:./Middlewares/ST/usbx/common/core/src/ux_host_stack_configuration_interface_get.c **** /*                                                                        */ 
  50:./Middlewares/ST/usbx/common/core/src/ux_host_stack_configuration_interface_get.c **** /*    configuration                         Pointer to configuration      */ 
  51:./Middlewares/ST/usbx/common/core/src/ux_host_stack_configuration_interface_get.c **** /*    interface_index                       Index of interface            */ 
  52:./Middlewares/ST/usbx/common/core/src/ux_host_stack_configuration_interface_get.c **** /*    alternate_setting_index               Index of alternate setting    */ 
  53:./Middlewares/ST/usbx/common/core/src/ux_host_stack_configuration_interface_get.c **** /*    interface                             Destination of interface      */ 
  54:./Middlewares/ST/usbx/common/core/src/ux_host_stack_configuration_interface_get.c **** /*                                            pointer                     */ 
  55:./Middlewares/ST/usbx/common/core/src/ux_host_stack_configuration_interface_get.c **** /*                                                                        */ 
  56:./Middlewares/ST/usbx/common/core/src/ux_host_stack_configuration_interface_get.c **** /*  OUTPUT                                                                */ 
  57:./Middlewares/ST/usbx/common/core/src/ux_host_stack_configuration_interface_get.c **** /*                                                                        */ 
  58:./Middlewares/ST/usbx/common/core/src/ux_host_stack_configuration_interface_get.c **** /*    Completion Status                                                   */ 
  59:./Middlewares/ST/usbx/common/core/src/ux_host_stack_configuration_interface_get.c **** /*                                                                        */ 
  60:./Middlewares/ST/usbx/common/core/src/ux_host_stack_configuration_interface_get.c **** /*  CALLS                                                                 */ 
  61:./Middlewares/ST/usbx/common/core/src/ux_host_stack_configuration_interface_get.c **** /*                                                                        */ 
  62:./Middlewares/ST/usbx/common/core/src/ux_host_stack_configuration_interface_get.c **** /*    None                                                                */ 
  63:./Middlewares/ST/usbx/common/core/src/ux_host_stack_configuration_interface_get.c **** /*                                                                        */ 
  64:./Middlewares/ST/usbx/common/core/src/ux_host_stack_configuration_interface_get.c **** /*  CALLED BY                                                             */ 
  65:./Middlewares/ST/usbx/common/core/src/ux_host_stack_configuration_interface_get.c **** /*                                                                        */ 
  66:./Middlewares/ST/usbx/common/core/src/ux_host_stack_configuration_interface_get.c **** /*    Application                                                         */ 
  67:./Middlewares/ST/usbx/common/core/src/ux_host_stack_configuration_interface_get.c **** /*    USBX Components                                                     */ 
  68:./Middlewares/ST/usbx/common/core/src/ux_host_stack_configuration_interface_get.c **** /*                                                                        */ 
  69:./Middlewares/ST/usbx/common/core/src/ux_host_stack_configuration_interface_get.c **** /*  RELEASE HISTORY                                                       */ 
  70:./Middlewares/ST/usbx/common/core/src/ux_host_stack_configuration_interface_get.c **** /*                                                                        */ 
  71:./Middlewares/ST/usbx/common/core/src/ux_host_stack_configuration_interface_get.c **** /*    DATE              NAME                      DESCRIPTION             */ 
  72:./Middlewares/ST/usbx/common/core/src/ux_host_stack_configuration_interface_get.c **** /*                                                                        */ 
  73:./Middlewares/ST/usbx/common/core/src/ux_host_stack_configuration_interface_get.c **** /*  05-19-2020     Chaoqiong Xiao           Initial Version 6.0           */
  74:./Middlewares/ST/usbx/common/core/src/ux_host_stack_configuration_interface_get.c **** /*  09-30-2020     Chaoqiong Xiao           Modified comment(s),          */
  75:./Middlewares/ST/usbx/common/core/src/ux_host_stack_configuration_interface_get.c **** /*                                            resulting in version 6.1    */
  76:./Middlewares/ST/usbx/common/core/src/ux_host_stack_configuration_interface_get.c **** /*                                                                        */
  77:./Middlewares/ST/usbx/common/core/src/ux_host_stack_configuration_interface_get.c **** /**************************************************************************/
  78:./Middlewares/ST/usbx/common/core/src/ux_host_stack_configuration_interface_get.c **** UINT  _ux_host_stack_configuration_interface_get(UX_CONFIGURATION *configuration, 
  79:./Middlewares/ST/usbx/common/core/src/ux_host_stack_configuration_interface_get.c ****                                                 UINT interface_index, UINT alternate_setting_index,
  80:./Middlewares/ST/usbx/common/core/src/ux_host_stack_configuration_interface_get.c ****                                                 UX_INTERFACE **interface)
  81:./Middlewares/ST/usbx/common/core/src/ux_host_stack_configuration_interface_get.c **** {
  30              		.loc 1 81 1 view -0
  31              		.cfi_startproc
  32              		@ args = 0, pretend = 0, frame = 0
  33              		@ frame_needed = 0, uses_anonymous_args = 0
  34              		.loc 1 81 1 is_stmt 0 view .LVU1
ARM GAS  C:\Users\Dennis\AppData\Local\Temp\ccvIWzgB.s 			page 3


  35 0000 38B5     		push	{r3, r4, r5, lr}
  36              	.LCFI0:
  37              		.cfi_def_cfa_offset 16
  38              		.cfi_offset 3, -16
  39              		.cfi_offset 4, -12
  40              		.cfi_offset 5, -8
  41              		.cfi_offset 14, -4
  82:./Middlewares/ST/usbx/common/core/src/ux_host_stack_configuration_interface_get.c ****     
  83:./Middlewares/ST/usbx/common/core/src/ux_host_stack_configuration_interface_get.c **** UINT                current_interface_number;
  42              		.loc 1 83 1 is_stmt 1 view .LVU2
  84:./Middlewares/ST/usbx/common/core/src/ux_host_stack_configuration_interface_get.c **** UINT                container_index;
  43              		.loc 1 84 1 view .LVU3
  85:./Middlewares/ST/usbx/common/core/src/ux_host_stack_configuration_interface_get.c **** UX_INTERFACE        *current_interface;
  44              		.loc 1 85 1 view .LVU4
  86:./Middlewares/ST/usbx/common/core/src/ux_host_stack_configuration_interface_get.c **** 
  87:./Middlewares/ST/usbx/common/core/src/ux_host_stack_configuration_interface_get.c **** 
  88:./Middlewares/ST/usbx/common/core/src/ux_host_stack_configuration_interface_get.c ****     /* Do a sanity check on the configuration handle.  */
  89:./Middlewares/ST/usbx/common/core/src/ux_host_stack_configuration_interface_get.c ****     if (configuration -> ux_configuration_handle != (ULONG) (ALIGN_TYPE) configuration)
  45              		.loc 1 89 5 view .LVU5
  46              		.loc 1 89 23 is_stmt 0 view .LVU6
  47 0002 0468     		ldr	r4, [r0]
  48              		.loc 1 89 8 view .LVU7
  49 0004 8442     		cmp	r4, r0
  50 0006 2BD1     		bne	.L10
  90:./Middlewares/ST/usbx/common/core/src/ux_host_stack_configuration_interface_get.c ****     {
  91:./Middlewares/ST/usbx/common/core/src/ux_host_stack_configuration_interface_get.c **** 
  92:./Middlewares/ST/usbx/common/core/src/ux_host_stack_configuration_interface_get.c ****         /* If trace is enabled, insert this event into the trace buffer.  */
  93:./Middlewares/ST/usbx/common/core/src/ux_host_stack_configuration_interface_get.c ****         UX_TRACE_IN_LINE_INSERT(UX_TRACE_ERROR, UX_CONFIGURATION_HANDLE_UNKNOWN, configuration, 0, 
  94:./Middlewares/ST/usbx/common/core/src/ux_host_stack_configuration_interface_get.c ****     
  95:./Middlewares/ST/usbx/common/core/src/ux_host_stack_configuration_interface_get.c ****         return(UX_CONFIGURATION_HANDLE_UNKNOWN);
  96:./Middlewares/ST/usbx/common/core/src/ux_host_stack_configuration_interface_get.c ****     }
  97:./Middlewares/ST/usbx/common/core/src/ux_host_stack_configuration_interface_get.c ****             
  98:./Middlewares/ST/usbx/common/core/src/ux_host_stack_configuration_interface_get.c ****     /* Start with the interface attached to the configuration.  */
  99:./Middlewares/ST/usbx/common/core/src/ux_host_stack_configuration_interface_get.c ****     current_interface =  configuration -> ux_configuration_first_interface;
  51              		.loc 1 99 5 is_stmt 1 view .LVU8
  52              		.loc 1 99 23 is_stmt 0 view .LVU9
  53 0008 C06A     		ldr	r0, [r0, #44]
  54              	.LVL1:
 100:./Middlewares/ST/usbx/common/core/src/ux_host_stack_configuration_interface_get.c **** 
 101:./Middlewares/ST/usbx/common/core/src/ux_host_stack_configuration_interface_get.c ****     /* The first interface has the index 0 */    
 102:./Middlewares/ST/usbx/common/core/src/ux_host_stack_configuration_interface_get.c ****     container_index =  0;
  55              		.loc 1 102 5 is_stmt 1 view .LVU10
 103:./Middlewares/ST/usbx/common/core/src/ux_host_stack_configuration_interface_get.c ****     
 104:./Middlewares/ST/usbx/common/core/src/ux_host_stack_configuration_interface_get.c ****     /* Reset the interface number */
 105:./Middlewares/ST/usbx/common/core/src/ux_host_stack_configuration_interface_get.c ****     current_interface_number =  0;
  56              		.loc 1 105 5 view .LVU11
 106:./Middlewares/ST/usbx/common/core/src/ux_host_stack_configuration_interface_get.c ****     
 107:./Middlewares/ST/usbx/common/core/src/ux_host_stack_configuration_interface_get.c ****     /* Traverse the list of the interfaces until we found the right one */        
 108:./Middlewares/ST/usbx/common/core/src/ux_host_stack_configuration_interface_get.c ****     while (current_interface != UX_NULL)
  57              		.loc 1 108 5 view .LVU12
 102:./Middlewares/ST/usbx/common/core/src/ux_host_stack_configuration_interface_get.c ****     
  58              		.loc 1 102 21 is_stmt 0 view .LVU13
  59 000a 4FF0000C 		mov	ip, #0
  60              		.loc 1 108 11 view .LVU14
  61 000e 03E0     		b	.L8
  62              	.LVL2:
  63              	.L14:
ARM GAS  C:\Users\Dennis\AppData\Local\Temp\ccvIWzgB.s 			page 4


 109:./Middlewares/ST/usbx/common/core/src/ux_host_stack_configuration_interface_get.c ****     {
 110:./Middlewares/ST/usbx/common/core/src/ux_host_stack_configuration_interface_get.c **** 
 111:./Middlewares/ST/usbx/common/core/src/ux_host_stack_configuration_interface_get.c ****         /* Check if the interface index matches the current one.  */
 112:./Middlewares/ST/usbx/common/core/src/ux_host_stack_configuration_interface_get.c ****         if (interface_index == container_index)
 113:./Middlewares/ST/usbx/common/core/src/ux_host_stack_configuration_interface_get.c ****         {
 114:./Middlewares/ST/usbx/common/core/src/ux_host_stack_configuration_interface_get.c **** 
 115:./Middlewares/ST/usbx/common/core/src/ux_host_stack_configuration_interface_get.c ****             /* We have found the correct interface, now search for the alternate setting.  */
 116:./Middlewares/ST/usbx/common/core/src/ux_host_stack_configuration_interface_get.c ****             current_interface_number =  current_interface -> ux_interface_descriptor.bInterfaceNumb
 117:./Middlewares/ST/usbx/common/core/src/ux_host_stack_configuration_interface_get.c **** 
 118:./Middlewares/ST/usbx/common/core/src/ux_host_stack_configuration_interface_get.c ****             /* The first alternate setting has the index 0.  */    
 119:./Middlewares/ST/usbx/common/core/src/ux_host_stack_configuration_interface_get.c ****             container_index =  0;
 120:./Middlewares/ST/usbx/common/core/src/ux_host_stack_configuration_interface_get.c **** 
 121:./Middlewares/ST/usbx/common/core/src/ux_host_stack_configuration_interface_get.c ****             /* Loop on all the alternate settings for this interface.  */
 122:./Middlewares/ST/usbx/common/core/src/ux_host_stack_configuration_interface_get.c ****             while (current_interface != UX_NULL)
 123:./Middlewares/ST/usbx/common/core/src/ux_host_stack_configuration_interface_get.c ****             {
 124:./Middlewares/ST/usbx/common/core/src/ux_host_stack_configuration_interface_get.c **** 
 125:./Middlewares/ST/usbx/common/core/src/ux_host_stack_configuration_interface_get.c ****                 /* Check if the index is matched */
 126:./Middlewares/ST/usbx/common/core/src/ux_host_stack_configuration_interface_get.c ****                 if (alternate_setting_index == container_index)
 127:./Middlewares/ST/usbx/common/core/src/ux_host_stack_configuration_interface_get.c ****                 {
 128:./Middlewares/ST/usbx/common/core/src/ux_host_stack_configuration_interface_get.c **** 
 129:./Middlewares/ST/usbx/common/core/src/ux_host_stack_configuration_interface_get.c ****                     /* We have found the right interface/alternate setting combination. Set the
 130:./Middlewares/ST/usbx/common/core/src/ux_host_stack_configuration_interface_get.c ****                        interface return pointer.  */
 131:./Middlewares/ST/usbx/common/core/src/ux_host_stack_configuration_interface_get.c ****                     *interface =  current_interface;
  64              		.loc 1 131 21 is_stmt 1 view .LVU15
  65              		.loc 1 131 32 is_stmt 0 view .LVU16
  66 0010 1860     		str	r0, [r3]
 132:./Middlewares/ST/usbx/common/core/src/ux_host_stack_configuration_interface_get.c **** 
 133:./Middlewares/ST/usbx/common/core/src/ux_host_stack_configuration_interface_get.c ****                     /* Return success to caller.  */
 134:./Middlewares/ST/usbx/common/core/src/ux_host_stack_configuration_interface_get.c ****                     return(UX_SUCCESS);
  67              		.loc 1 134 21 is_stmt 1 view .LVU17
  68              		.loc 1 134 27 is_stmt 0 view .LVU18
  69 0012 0020     		movs	r0, #0
  70              	.LVL3:
  71              		.loc 1 134 27 view .LVU19
  72 0014 25E0     		b	.L1
  73              	.LVL4:
  74              	.L4:
 135:./Middlewares/ST/usbx/common/core/src/ux_host_stack_configuration_interface_get.c ****                 }
 136:./Middlewares/ST/usbx/common/core/src/ux_host_stack_configuration_interface_get.c **** 
 137:./Middlewares/ST/usbx/common/core/src/ux_host_stack_configuration_interface_get.c ****                 /* Move to next alternate setting index.  */
 138:./Middlewares/ST/usbx/common/core/src/ux_host_stack_configuration_interface_get.c ****                 container_index++;
 139:./Middlewares/ST/usbx/common/core/src/ux_host_stack_configuration_interface_get.c **** 
 140:./Middlewares/ST/usbx/common/core/src/ux_host_stack_configuration_interface_get.c ****                 /* Move to the next alternate setting.   */
 141:./Middlewares/ST/usbx/common/core/src/ux_host_stack_configuration_interface_get.c ****                 current_interface =  current_interface -> ux_interface_next_interface;
 142:./Middlewares/ST/usbx/common/core/src/ux_host_stack_configuration_interface_get.c **** 
 143:./Middlewares/ST/usbx/common/core/src/ux_host_stack_configuration_interface_get.c ****     
 144:./Middlewares/ST/usbx/common/core/src/ux_host_stack_configuration_interface_get.c ****                 /* Check new interface pointer, might be the end.  */
 145:./Middlewares/ST/usbx/common/core/src/ux_host_stack_configuration_interface_get.c ****                 if (current_interface != UX_NULL)
 146:./Middlewares/ST/usbx/common/core/src/ux_host_stack_configuration_interface_get.c ****                 {
 147:./Middlewares/ST/usbx/common/core/src/ux_host_stack_configuration_interface_get.c ****     
 148:./Middlewares/ST/usbx/common/core/src/ux_host_stack_configuration_interface_get.c ****                     /* And verify that we are still in the same interface.  */
 149:./Middlewares/ST/usbx/common/core/src/ux_host_stack_configuration_interface_get.c ****                     if (current_interface -> ux_interface_descriptor.bInterfaceNumber != current_in
 150:./Middlewares/ST/usbx/common/core/src/ux_host_stack_configuration_interface_get.c ****                     {
 151:./Middlewares/ST/usbx/common/core/src/ux_host_stack_configuration_interface_get.c **** 
 152:./Middlewares/ST/usbx/common/core/src/ux_host_stack_configuration_interface_get.c ****                         /* Error trap. */
 153:./Middlewares/ST/usbx/common/core/src/ux_host_stack_configuration_interface_get.c ****                         _ux_system_error_handler(UX_SYSTEM_LEVEL_THREAD, UX_SYSTEM_CONTEXT_ENUMERAT
 154:./Middlewares/ST/usbx/common/core/src/ux_host_stack_configuration_interface_get.c **** 
ARM GAS  C:\Users\Dennis\AppData\Local\Temp\ccvIWzgB.s 			page 5


 155:./Middlewares/ST/usbx/common/core/src/ux_host_stack_configuration_interface_get.c ****                         /* If trace is enabled, insert this event into the trace buffer.  */
 156:./Middlewares/ST/usbx/common/core/src/ux_host_stack_configuration_interface_get.c ****                         UX_TRACE_IN_LINE_INSERT(UX_TRACE_ERROR, UX_INTERFACE_HANDLE_UNKNOWN, interf
 157:./Middlewares/ST/usbx/common/core/src/ux_host_stack_configuration_interface_get.c **** 
 158:./Middlewares/ST/usbx/common/core/src/ux_host_stack_configuration_interface_get.c ****                         return(UX_INTERFACE_HANDLE_UNKNOWN);
 159:./Middlewares/ST/usbx/common/core/src/ux_host_stack_configuration_interface_get.c ****                     }                    
 160:./Middlewares/ST/usbx/common/core/src/ux_host_stack_configuration_interface_get.c ****                 }
 161:./Middlewares/ST/usbx/common/core/src/ux_host_stack_configuration_interface_get.c ****             }       
 162:./Middlewares/ST/usbx/common/core/src/ux_host_stack_configuration_interface_get.c ****         }
 163:./Middlewares/ST/usbx/common/core/src/ux_host_stack_configuration_interface_get.c ****         
 164:./Middlewares/ST/usbx/common/core/src/ux_host_stack_configuration_interface_get.c ****         /* Check the current interface, we may already be at the end ... */
 165:./Middlewares/ST/usbx/common/core/src/ux_host_stack_configuration_interface_get.c ****         if (current_interface != UX_NULL)
  75              		.loc 1 165 9 is_stmt 1 view .LVU20
  76              		.loc 1 165 12 is_stmt 0 view .LVU21
  77 0016 C0B9     		cbnz	r0, .L12
  78              	.LVL5:
  79              	.L8:
 108:./Middlewares/ST/usbx/common/core/src/ux_host_stack_configuration_interface_get.c ****     {
  80              		.loc 1 108 11 is_stmt 1 view .LVU22
  81 0018 D8B1     		cbz	r0, .L13
 112:./Middlewares/ST/usbx/common/core/src/ux_host_stack_configuration_interface_get.c ****         {
  82              		.loc 1 112 9 view .LVU23
 112:./Middlewares/ST/usbx/common/core/src/ux_host_stack_configuration_interface_get.c ****         {
  83              		.loc 1 112 12 is_stmt 0 view .LVU24
  84 001a 8C45     		cmp	ip, r1
  85 001c FBD1     		bne	.L4
 116:./Middlewares/ST/usbx/common/core/src/ux_host_stack_configuration_interface_get.c **** 
  86              		.loc 1 116 13 is_stmt 1 view .LVU25
 116:./Middlewares/ST/usbx/common/core/src/ux_host_stack_configuration_interface_get.c **** 
  87              		.loc 1 116 38 is_stmt 0 view .LVU26
  88 001e 4469     		ldr	r4, [r0, #20]
  89              	.LVL6:
 119:./Middlewares/ST/usbx/common/core/src/ux_host_stack_configuration_interface_get.c **** 
  90              		.loc 1 119 13 is_stmt 1 view .LVU27
 122:./Middlewares/ST/usbx/common/core/src/ux_host_stack_configuration_interface_get.c ****             {
  91              		.loc 1 122 13 view .LVU28
 119:./Middlewares/ST/usbx/common/core/src/ux_host_stack_configuration_interface_get.c **** 
  92              		.loc 1 119 29 is_stmt 0 view .LVU29
  93 0020 4FF0000C 		mov	ip, #0
  94              	.LVL7:
  95              	.L5:
 122:./Middlewares/ST/usbx/common/core/src/ux_host_stack_configuration_interface_get.c ****             {
  96              		.loc 1 122 19 is_stmt 1 view .LVU30
  97 0024 0028     		cmp	r0, #0
  98 0026 F6D0     		beq	.L4
 126:./Middlewares/ST/usbx/common/core/src/ux_host_stack_configuration_interface_get.c ****                 {
  99              		.loc 1 126 17 view .LVU31
 126:./Middlewares/ST/usbx/common/core/src/ux_host_stack_configuration_interface_get.c ****                 {
 100              		.loc 1 126 20 is_stmt 0 view .LVU32
 101 0028 9445     		cmp	ip, r2
 102 002a F1D0     		beq	.L14
 138:./Middlewares/ST/usbx/common/core/src/ux_host_stack_configuration_interface_get.c **** 
 103              		.loc 1 138 17 is_stmt 1 view .LVU33
 138:./Middlewares/ST/usbx/common/core/src/ux_host_stack_configuration_interface_get.c **** 
 104              		.loc 1 138 32 is_stmt 0 view .LVU34
 105 002c 0CF1010C 		add	ip, ip, #1
 106              	.LVL8:
 141:./Middlewares/ST/usbx/common/core/src/ux_host_stack_configuration_interface_get.c **** 
ARM GAS  C:\Users\Dennis\AppData\Local\Temp\ccvIWzgB.s 			page 6


 107              		.loc 1 141 17 is_stmt 1 view .LVU35
 141:./Middlewares/ST/usbx/common/core/src/ux_host_stack_configuration_interface_get.c **** 
 108              		.loc 1 141 35 is_stmt 0 view .LVU36
 109 0030 C06B     		ldr	r0, [r0, #60]
 110              	.LVL9:
 145:./Middlewares/ST/usbx/common/core/src/ux_host_stack_configuration_interface_get.c ****                 {
 111              		.loc 1 145 17 is_stmt 1 view .LVU37
 145:./Middlewares/ST/usbx/common/core/src/ux_host_stack_configuration_interface_get.c ****                 {
 112              		.loc 1 145 20 is_stmt 0 view .LVU38
 113 0032 0028     		cmp	r0, #0
 114 0034 F6D0     		beq	.L5
 149:./Middlewares/ST/usbx/common/core/src/ux_host_stack_configuration_interface_get.c ****                     {
 115              		.loc 1 149 21 is_stmt 1 view .LVU39
 149:./Middlewares/ST/usbx/common/core/src/ux_host_stack_configuration_interface_get.c ****                     {
 116              		.loc 1 149 24 is_stmt 0 view .LVU40
 117 0036 4569     		ldr	r5, [r0, #20]
 118 0038 A542     		cmp	r5, r4
 119 003a F3D0     		beq	.L5
 153:./Middlewares/ST/usbx/common/core/src/ux_host_stack_configuration_interface_get.c **** 
 120              		.loc 1 153 25 is_stmt 1 view .LVU41
 121 003c 5222     		movs	r2, #82
 122              	.LVL10:
 153:./Middlewares/ST/usbx/common/core/src/ux_host_stack_configuration_interface_get.c **** 
 123              		.loc 1 153 25 is_stmt 0 view .LVU42
 124 003e 0421     		movs	r1, #4
 125              	.LVL11:
 153:./Middlewares/ST/usbx/common/core/src/ux_host_stack_configuration_interface_get.c **** 
 126              		.loc 1 153 25 view .LVU43
 127 0040 0220     		movs	r0, #2
 128              	.LVL12:
 153:./Middlewares/ST/usbx/common/core/src/ux_host_stack_configuration_interface_get.c **** 
 129              		.loc 1 153 25 view .LVU44
 130 0042 FFF7FEFF 		bl	_ux_system_error_handler
 131              	.LVL13:
 158:./Middlewares/ST/usbx/common/core/src/ux_host_stack_configuration_interface_get.c ****                     }                    
 132              		.loc 1 158 25 is_stmt 1 view .LVU45
 158:./Middlewares/ST/usbx/common/core/src/ux_host_stack_configuration_interface_get.c ****                     }                    
 133              		.loc 1 158 31 is_stmt 0 view .LVU46
 134 0046 5220     		movs	r0, #82
 135 0048 0BE0     		b	.L1
 136              	.LVL14:
 137              	.L12:
 166:./Middlewares/ST/usbx/common/core/src/ux_host_stack_configuration_interface_get.c ****         {
 167:./Middlewares/ST/usbx/common/core/src/ux_host_stack_configuration_interface_get.c ****         
 168:./Middlewares/ST/usbx/common/core/src/ux_host_stack_configuration_interface_get.c ****             /* Move to the next interface.  */
 169:./Middlewares/ST/usbx/common/core/src/ux_host_stack_configuration_interface_get.c ****             current_interface =  current_interface -> ux_interface_next_interface;
 138              		.loc 1 169 13 is_stmt 1 view .LVU47
 139              		.loc 1 169 31 is_stmt 0 view .LVU48
 140 004a C06B     		ldr	r0, [r0, #60]
 141              	.LVL15:
 170:./Middlewares/ST/usbx/common/core/src/ux_host_stack_configuration_interface_get.c ****         
 171:./Middlewares/ST/usbx/common/core/src/ux_host_stack_configuration_interface_get.c ****             /* Move to the next interface index. */
 172:./Middlewares/ST/usbx/common/core/src/ux_host_stack_configuration_interface_get.c ****             container_index++;
 142              		.loc 1 172 13 is_stmt 1 view .LVU49
 143              		.loc 1 172 28 is_stmt 0 view .LVU50
 144 004c 0CF1010C 		add	ip, ip, #1
 145              	.LVL16:
ARM GAS  C:\Users\Dennis\AppData\Local\Temp\ccvIWzgB.s 			page 7


 146              		.loc 1 172 28 view .LVU51
 147 0050 E2E7     		b	.L8
 148              	.L13:
 173:./Middlewares/ST/usbx/common/core/src/ux_host_stack_configuration_interface_get.c ****         }            
 174:./Middlewares/ST/usbx/common/core/src/ux_host_stack_configuration_interface_get.c ****     }
 175:./Middlewares/ST/usbx/common/core/src/ux_host_stack_configuration_interface_get.c ****     
 176:./Middlewares/ST/usbx/common/core/src/ux_host_stack_configuration_interface_get.c ****     /* Error trap. */
 177:./Middlewares/ST/usbx/common/core/src/ux_host_stack_configuration_interface_get.c ****     _ux_system_error_handler(UX_SYSTEM_LEVEL_THREAD, UX_SYSTEM_CONTEXT_ENUMERATOR, UX_INTERFACE_HAN
 149              		.loc 1 177 5 is_stmt 1 view .LVU52
 150 0052 5222     		movs	r2, #82
 151              	.LVL17:
 152              		.loc 1 177 5 is_stmt 0 view .LVU53
 153 0054 0421     		movs	r1, #4
 154              	.LVL18:
 155              		.loc 1 177 5 view .LVU54
 156 0056 0220     		movs	r0, #2
 157              	.LVL19:
 158              		.loc 1 177 5 view .LVU55
 159 0058 FFF7FEFF 		bl	_ux_system_error_handler
 160              	.LVL20:
 178:./Middlewares/ST/usbx/common/core/src/ux_host_stack_configuration_interface_get.c **** 
 179:./Middlewares/ST/usbx/common/core/src/ux_host_stack_configuration_interface_get.c ****     /* If trace is enabled, insert this event into the trace buffer.  */
 180:./Middlewares/ST/usbx/common/core/src/ux_host_stack_configuration_interface_get.c ****     UX_TRACE_IN_LINE_INSERT(UX_TRACE_ERROR, UX_INTERFACE_HANDLE_UNKNOWN, interface, 0, 0, UX_TRACE_
 181:./Middlewares/ST/usbx/common/core/src/ux_host_stack_configuration_interface_get.c **** 
 182:./Middlewares/ST/usbx/common/core/src/ux_host_stack_configuration_interface_get.c ****     /* Didn't find the right interface/alternate setting, return an error!  */
 183:./Middlewares/ST/usbx/common/core/src/ux_host_stack_configuration_interface_get.c ****     return(UX_INTERFACE_HANDLE_UNKNOWN);
 161              		.loc 1 183 5 is_stmt 1 view .LVU56
 162              		.loc 1 183 11 is_stmt 0 view .LVU57
 163 005c 5220     		movs	r0, #82
 164 005e 00E0     		b	.L1
 165              	.LVL21:
 166              	.L10:
  95:./Middlewares/ST/usbx/common/core/src/ux_host_stack_configuration_interface_get.c ****     }
 167              		.loc 1 95 15 view .LVU58
 168 0060 5120     		movs	r0, #81
 169              	.LVL22:
 170              	.L1:
 184:./Middlewares/ST/usbx/common/core/src/ux_host_stack_configuration_interface_get.c **** }
 171              		.loc 1 184 1 view .LVU59
 172 0062 38BD     		pop	{r3, r4, r5, pc}
 173              		.cfi_endproc
 174              	.LFE11:
 176              		.text
 177              	.Letext0:
 178              		.file 2 "./Middlewares/ST/threadx/ports/cortex_m4/gnu/inc/tx_port.h"
 179              		.file 3 "./Middlewares/ST/threadx/common/inc/tx_api.h"
 180              		.file 4 "./Middlewares/ST/usbx/common/core/inc/ux_api.h"
 181              		.file 5 "./Middlewares/ST/usbx/common/core/inc/ux_utility.h"
ARM GAS  C:\Users\Dennis\AppData\Local\Temp\ccvIWzgB.s 			page 8

