ARM GAS  C:\Users\Dennis\AppData\Local\Temp\ccZ9HiYO.s 			page 1


   1              		.cpu cortex-m4
   2              		.arch armv7e-m
   3              		.fpu fpv4-sp-d16
   4              		.eabi_attribute 27, 1
   5              		.eabi_attribute 28, 1
   6              		.eabi_attribute 20, 1
   7              		.eabi_attribute 21, 1
   8              		.eabi_attribute 23, 3
   9              		.eabi_attribute 24, 1
  10              		.eabi_attribute 25, 1
  11              		.eabi_attribute 26, 1
  12              		.eabi_attribute 30, 1
  13              		.eabi_attribute 34, 1
  14              		.eabi_attribute 18, 4
  15              		.file	"ux_host_stack_transfer_request_abort.c"
  16              		.text
  17              	.Ltext0:
  18              		.cfi_sections	.debug_frame
  19              		.section	.text._ux_host_stack_transfer_request_abort,"ax",%progbits
  20              		.align	1
  21              		.global	_ux_host_stack_transfer_request_abort
  22              		.syntax unified
  23              		.thumb
  24              		.thumb_func
  26              	_ux_host_stack_transfer_request_abort:
  27              	.LVL0:
  28              	.LFB11:
  29              		.file 1 "./Middlewares/ST/usbx/common/core/src/ux_host_stack_transfer_request_abort.c"
   1:./Middlewares/ST/usbx/common/core/src/ux_host_stack_transfer_request_abort.c **** /**************************************************************************/
   2:./Middlewares/ST/usbx/common/core/src/ux_host_stack_transfer_request_abort.c **** /*                                                                        */
   3:./Middlewares/ST/usbx/common/core/src/ux_host_stack_transfer_request_abort.c **** /*       Copyright (c) Microsoft Corporation. All rights reserved.        */
   4:./Middlewares/ST/usbx/common/core/src/ux_host_stack_transfer_request_abort.c **** /*                                                                        */
   5:./Middlewares/ST/usbx/common/core/src/ux_host_stack_transfer_request_abort.c **** /*       This software is licensed under the Microsoft Software License   */
   6:./Middlewares/ST/usbx/common/core/src/ux_host_stack_transfer_request_abort.c **** /*       Terms for Microsoft Azure RTOS. Full text of the license can be  */
   7:./Middlewares/ST/usbx/common/core/src/ux_host_stack_transfer_request_abort.c **** /*       found in the LICENSE file at https://aka.ms/AzureRTOS_EULA       */
   8:./Middlewares/ST/usbx/common/core/src/ux_host_stack_transfer_request_abort.c **** /*       and in the root directory of this software.                      */
   9:./Middlewares/ST/usbx/common/core/src/ux_host_stack_transfer_request_abort.c **** /*                                                                        */
  10:./Middlewares/ST/usbx/common/core/src/ux_host_stack_transfer_request_abort.c **** /**************************************************************************/
  11:./Middlewares/ST/usbx/common/core/src/ux_host_stack_transfer_request_abort.c **** 
  12:./Middlewares/ST/usbx/common/core/src/ux_host_stack_transfer_request_abort.c **** 
  13:./Middlewares/ST/usbx/common/core/src/ux_host_stack_transfer_request_abort.c **** /**************************************************************************/
  14:./Middlewares/ST/usbx/common/core/src/ux_host_stack_transfer_request_abort.c **** /**************************************************************************/
  15:./Middlewares/ST/usbx/common/core/src/ux_host_stack_transfer_request_abort.c **** /**                                                                       */ 
  16:./Middlewares/ST/usbx/common/core/src/ux_host_stack_transfer_request_abort.c **** /** USBX Component                                                        */ 
  17:./Middlewares/ST/usbx/common/core/src/ux_host_stack_transfer_request_abort.c **** /**                                                                       */
  18:./Middlewares/ST/usbx/common/core/src/ux_host_stack_transfer_request_abort.c **** /**   Host Stack                                                          */
  19:./Middlewares/ST/usbx/common/core/src/ux_host_stack_transfer_request_abort.c **** /**                                                                       */
  20:./Middlewares/ST/usbx/common/core/src/ux_host_stack_transfer_request_abort.c **** /**************************************************************************/
  21:./Middlewares/ST/usbx/common/core/src/ux_host_stack_transfer_request_abort.c **** /**************************************************************************/
  22:./Middlewares/ST/usbx/common/core/src/ux_host_stack_transfer_request_abort.c **** 
  23:./Middlewares/ST/usbx/common/core/src/ux_host_stack_transfer_request_abort.c **** 
  24:./Middlewares/ST/usbx/common/core/src/ux_host_stack_transfer_request_abort.c **** /* Include necessary system files.  */
  25:./Middlewares/ST/usbx/common/core/src/ux_host_stack_transfer_request_abort.c **** 
  26:./Middlewares/ST/usbx/common/core/src/ux_host_stack_transfer_request_abort.c **** #define UX_SOURCE_CODE
  27:./Middlewares/ST/usbx/common/core/src/ux_host_stack_transfer_request_abort.c **** 
  28:./Middlewares/ST/usbx/common/core/src/ux_host_stack_transfer_request_abort.c **** #include "ux_api.h"
  29:./Middlewares/ST/usbx/common/core/src/ux_host_stack_transfer_request_abort.c **** #include "ux_host_stack.h"
ARM GAS  C:\Users\Dennis\AppData\Local\Temp\ccZ9HiYO.s 			page 2


  30:./Middlewares/ST/usbx/common/core/src/ux_host_stack_transfer_request_abort.c **** 
  31:./Middlewares/ST/usbx/common/core/src/ux_host_stack_transfer_request_abort.c **** 
  32:./Middlewares/ST/usbx/common/core/src/ux_host_stack_transfer_request_abort.c **** /**************************************************************************/ 
  33:./Middlewares/ST/usbx/common/core/src/ux_host_stack_transfer_request_abort.c **** /*                                                                        */ 
  34:./Middlewares/ST/usbx/common/core/src/ux_host_stack_transfer_request_abort.c **** /*  FUNCTION                                               RELEASE        */ 
  35:./Middlewares/ST/usbx/common/core/src/ux_host_stack_transfer_request_abort.c **** /*                                                                        */ 
  36:./Middlewares/ST/usbx/common/core/src/ux_host_stack_transfer_request_abort.c **** /*    _ux_host_stack_transfer_request_abort               PORTABLE C      */ 
  37:./Middlewares/ST/usbx/common/core/src/ux_host_stack_transfer_request_abort.c **** /*                                                           6.1.10       */
  38:./Middlewares/ST/usbx/common/core/src/ux_host_stack_transfer_request_abort.c **** /*  AUTHOR                                                                */
  39:./Middlewares/ST/usbx/common/core/src/ux_host_stack_transfer_request_abort.c **** /*                                                                        */
  40:./Middlewares/ST/usbx/common/core/src/ux_host_stack_transfer_request_abort.c **** /*    Chaoqiong Xiao, Microsoft Corporation                               */
  41:./Middlewares/ST/usbx/common/core/src/ux_host_stack_transfer_request_abort.c **** /*                                                                        */
  42:./Middlewares/ST/usbx/common/core/src/ux_host_stack_transfer_request_abort.c **** /*  DESCRIPTION                                                           */
  43:./Middlewares/ST/usbx/common/core/src/ux_host_stack_transfer_request_abort.c **** /*                                                                        */ 
  44:./Middlewares/ST/usbx/common/core/src/ux_host_stack_transfer_request_abort.c **** /*    This function aborts a pending transfer request that has been       */ 
  45:./Middlewares/ST/usbx/common/core/src/ux_host_stack_transfer_request_abort.c **** /*    previously submitted. This function only cancels the specific       */ 
  46:./Middlewares/ST/usbx/common/core/src/ux_host_stack_transfer_request_abort.c **** /*    transfer request.                                                   */
  47:./Middlewares/ST/usbx/common/core/src/ux_host_stack_transfer_request_abort.c **** /*                                                                        */
  48:./Middlewares/ST/usbx/common/core/src/ux_host_stack_transfer_request_abort.c **** /*    The call back to the function will have the                         */ 
  49:./Middlewares/ST/usbx/common/core/src/ux_host_stack_transfer_request_abort.c **** /*    UX_TRANSFER_STATUS_ABORT status.                                    */  
  50:./Middlewares/ST/usbx/common/core/src/ux_host_stack_transfer_request_abort.c **** /*                                                                        */ 
  51:./Middlewares/ST/usbx/common/core/src/ux_host_stack_transfer_request_abort.c **** /*  INPUT                                                                 */ 
  52:./Middlewares/ST/usbx/common/core/src/ux_host_stack_transfer_request_abort.c **** /*                                                                        */ 
  53:./Middlewares/ST/usbx/common/core/src/ux_host_stack_transfer_request_abort.c **** /*    transfer_request                      Transfer request structure    */ 
  54:./Middlewares/ST/usbx/common/core/src/ux_host_stack_transfer_request_abort.c **** /*                                                                        */ 
  55:./Middlewares/ST/usbx/common/core/src/ux_host_stack_transfer_request_abort.c **** /*  OUTPUT                                                                */ 
  56:./Middlewares/ST/usbx/common/core/src/ux_host_stack_transfer_request_abort.c **** /*                                                                        */ 
  57:./Middlewares/ST/usbx/common/core/src/ux_host_stack_transfer_request_abort.c **** /*    Completion Status                     If UX_SUCCESS, transfer was   */ 
  58:./Middlewares/ST/usbx/common/core/src/ux_host_stack_transfer_request_abort.c **** /*                                            successfully aborted        */ 
  59:./Middlewares/ST/usbx/common/core/src/ux_host_stack_transfer_request_abort.c **** /*                                                                        */ 
  60:./Middlewares/ST/usbx/common/core/src/ux_host_stack_transfer_request_abort.c **** /*  CALLS                                                                 */ 
  61:./Middlewares/ST/usbx/common/core/src/ux_host_stack_transfer_request_abort.c **** /*                                                                        */ 
  62:./Middlewares/ST/usbx/common/core/src/ux_host_stack_transfer_request_abort.c **** /*    HCD Entry Function                                                  */ 
  63:./Middlewares/ST/usbx/common/core/src/ux_host_stack_transfer_request_abort.c **** /*    Transfer Completion Function                                        */ 
  64:./Middlewares/ST/usbx/common/core/src/ux_host_stack_transfer_request_abort.c **** /*    _ux_utility_semaphore_put             Put semaphore                 */
  65:./Middlewares/ST/usbx/common/core/src/ux_host_stack_transfer_request_abort.c **** /*                                                                        */ 
  66:./Middlewares/ST/usbx/common/core/src/ux_host_stack_transfer_request_abort.c **** /*  CALLED BY                                                             */ 
  67:./Middlewares/ST/usbx/common/core/src/ux_host_stack_transfer_request_abort.c **** /*                                                                        */ 
  68:./Middlewares/ST/usbx/common/core/src/ux_host_stack_transfer_request_abort.c **** /*    Application                                                         */ 
  69:./Middlewares/ST/usbx/common/core/src/ux_host_stack_transfer_request_abort.c **** /*    USBX Components                                                     */ 
  70:./Middlewares/ST/usbx/common/core/src/ux_host_stack_transfer_request_abort.c **** /*                                                                        */ 
  71:./Middlewares/ST/usbx/common/core/src/ux_host_stack_transfer_request_abort.c **** /*  RELEASE HISTORY                                                       */ 
  72:./Middlewares/ST/usbx/common/core/src/ux_host_stack_transfer_request_abort.c **** /*                                                                        */ 
  73:./Middlewares/ST/usbx/common/core/src/ux_host_stack_transfer_request_abort.c **** /*    DATE              NAME                      DESCRIPTION             */ 
  74:./Middlewares/ST/usbx/common/core/src/ux_host_stack_transfer_request_abort.c **** /*                                                                        */ 
  75:./Middlewares/ST/usbx/common/core/src/ux_host_stack_transfer_request_abort.c **** /*  05-19-2020     Chaoqiong Xiao           Initial Version 6.0           */
  76:./Middlewares/ST/usbx/common/core/src/ux_host_stack_transfer_request_abort.c **** /*  09-30-2020     Chaoqiong Xiao           Modified comment(s),          */
  77:./Middlewares/ST/usbx/common/core/src/ux_host_stack_transfer_request_abort.c **** /*                                            optimized based on compile  */
  78:./Middlewares/ST/usbx/common/core/src/ux_host_stack_transfer_request_abort.c **** /*                                            definitions,                */
  79:./Middlewares/ST/usbx/common/core/src/ux_host_stack_transfer_request_abort.c **** /*                                            resulting in version 6.1    */
  80:./Middlewares/ST/usbx/common/core/src/ux_host_stack_transfer_request_abort.c **** /*  06-02-2021     Chaoqiong Xiao           Modified comment(s),          */
  81:./Middlewares/ST/usbx/common/core/src/ux_host_stack_transfer_request_abort.c **** /*                                            fixed trace enabled error,  */
  82:./Middlewares/ST/usbx/common/core/src/ux_host_stack_transfer_request_abort.c **** /*                                            resulting in version 6.1.7  */
  83:./Middlewares/ST/usbx/common/core/src/ux_host_stack_transfer_request_abort.c **** /*  01-31-2022     Chaoqiong Xiao           Modified comment(s),          */
  84:./Middlewares/ST/usbx/common/core/src/ux_host_stack_transfer_request_abort.c **** /*                                            added standalone support,   */
  85:./Middlewares/ST/usbx/common/core/src/ux_host_stack_transfer_request_abort.c **** /*                                            resulting in version 6.1.10 */
  86:./Middlewares/ST/usbx/common/core/src/ux_host_stack_transfer_request_abort.c **** /*                                                                        */
ARM GAS  C:\Users\Dennis\AppData\Local\Temp\ccZ9HiYO.s 			page 3


  87:./Middlewares/ST/usbx/common/core/src/ux_host_stack_transfer_request_abort.c **** /**************************************************************************/
  88:./Middlewares/ST/usbx/common/core/src/ux_host_stack_transfer_request_abort.c **** UINT  _ux_host_stack_transfer_request_abort(UX_TRANSFER *transfer_request)
  89:./Middlewares/ST/usbx/common/core/src/ux_host_stack_transfer_request_abort.c **** {
  30              		.loc 1 89 1 view -0
  31              		.cfi_startproc
  32              		@ args = 0, pretend = 0, frame = 0
  33              		@ frame_needed = 0, uses_anonymous_args = 0
  34              		.loc 1 89 1 is_stmt 0 view .LVU1
  35 0000 38B5     		push	{r3, r4, r5, lr}
  36              	.LCFI0:
  37              		.cfi_def_cfa_offset 16
  38              		.cfi_offset 3, -16
  39              		.cfi_offset 4, -12
  40              		.cfi_offset 5, -8
  41              		.cfi_offset 14, -4
  42 0002 0446     		mov	r4, r0
  90:./Middlewares/ST/usbx/common/core/src/ux_host_stack_transfer_request_abort.c **** 
  91:./Middlewares/ST/usbx/common/core/src/ux_host_stack_transfer_request_abort.c **** UX_HCD          *hcd;
  43              		.loc 1 91 1 is_stmt 1 view .LVU2
  92:./Middlewares/ST/usbx/common/core/src/ux_host_stack_transfer_request_abort.c **** ULONG           completion_code;
  44              		.loc 1 92 1 view .LVU3
  93:./Middlewares/ST/usbx/common/core/src/ux_host_stack_transfer_request_abort.c **** 
  94:./Middlewares/ST/usbx/common/core/src/ux_host_stack_transfer_request_abort.c **** 
  95:./Middlewares/ST/usbx/common/core/src/ux_host_stack_transfer_request_abort.c ****     /* If trace is enabled, insert this event into the trace buffer.  */
  96:./Middlewares/ST/usbx/common/core/src/ux_host_stack_transfer_request_abort.c ****     UX_TRACE_IN_LINE_INSERT(UX_TRACE_HOST_STACK_TRANSFER_REQUEST_ABORT,
  97:./Middlewares/ST/usbx/common/core/src/ux_host_stack_transfer_request_abort.c ****         transfer_request -> ux_transfer_request_endpoint -> ux_endpoint_device,
  98:./Middlewares/ST/usbx/common/core/src/ux_host_stack_transfer_request_abort.c ****         transfer_request -> ux_transfer_request_endpoint,
  99:./Middlewares/ST/usbx/common/core/src/ux_host_stack_transfer_request_abort.c ****         transfer_request, 0, UX_TRACE_HOST_STACK_EVENTS, 0, 0)
 100:./Middlewares/ST/usbx/common/core/src/ux_host_stack_transfer_request_abort.c ****     
 101:./Middlewares/ST/usbx/common/core/src/ux_host_stack_transfer_request_abort.c ****     /* With the device we have the pointer to the HCD.  */
 102:./Middlewares/ST/usbx/common/core/src/ux_host_stack_transfer_request_abort.c ****     hcd = UX_DEVICE_HCD_GET(transfer_request -> ux_transfer_request_endpoint -> ux_endpoint_device)
  45              		.loc 1 102 5 view .LVU4
  46              		.loc 1 102 11 is_stmt 0 view .LVU5
  47 0004 4368     		ldr	r3, [r0, #4]
  48 0006 DB6A     		ldr	r3, [r3, #44]
  49              		.loc 1 102 9 view .LVU6
  50 0008 D3F81401 		ldr	r0, [r3, #276]
  51              	.LVL1:
 103:./Middlewares/ST/usbx/common/core/src/ux_host_stack_transfer_request_abort.c **** 
 104:./Middlewares/ST/usbx/common/core/src/ux_host_stack_transfer_request_abort.c ****     /* Check pending transaction.  */
 105:./Middlewares/ST/usbx/common/core/src/ux_host_stack_transfer_request_abort.c ****     if (transfer_request -> ux_transfer_request_completion_code == UX_TRANSFER_STATUS_PENDING)
  52              		.loc 1 105 5 is_stmt 1 view .LVU7
  53              		.loc 1 105 26 is_stmt 0 view .LVU8
  54 000c 636B     		ldr	r3, [r4, #52]
  55              		.loc 1 105 8 view .LVU9
  56 000e 012B     		cmp	r3, #1
  57 0010 01D0     		beq	.L5
  58              	.LVL2:
  59              	.L2:
 106:./Middlewares/ST/usbx/common/core/src/ux_host_stack_transfer_request_abort.c ****     {
 107:./Middlewares/ST/usbx/common/core/src/ux_host_stack_transfer_request_abort.c ****     
 108:./Middlewares/ST/usbx/common/core/src/ux_host_stack_transfer_request_abort.c ****         /* Send the abort command to the controller.  */    
 109:./Middlewares/ST/usbx/common/core/src/ux_host_stack_transfer_request_abort.c ****         hcd -> ux_hcd_entry_function(hcd, UX_HCD_TRANSFER_ABORT, transfer_request);
 110:./Middlewares/ST/usbx/common/core/src/ux_host_stack_transfer_request_abort.c **** 
 111:./Middlewares/ST/usbx/common/core/src/ux_host_stack_transfer_request_abort.c ****         /* Save the completion code since we're about to set it to ABORT. The
 112:./Middlewares/ST/usbx/common/core/src/ux_host_stack_transfer_request_abort.c ****            reason we can't just assume its value is PENDING is that in between
 113:./Middlewares/ST/usbx/common/core/src/ux_host_stack_transfer_request_abort.c ****            the completion code check and this line, it's possible that the transfer
ARM GAS  C:\Users\Dennis\AppData\Local\Temp\ccZ9HiYO.s 			page 4


 114:./Middlewares/ST/usbx/common/core/src/ux_host_stack_transfer_request_abort.c ****            completed, which would've changed the completion code to SUCCESS.
 115:./Middlewares/ST/usbx/common/core/src/ux_host_stack_transfer_request_abort.c ****            Such a case is valid, and we want to make sure we don't put() the
 116:./Middlewares/ST/usbx/common/core/src/ux_host_stack_transfer_request_abort.c ****            transfer request's semaphore again.  */
 117:./Middlewares/ST/usbx/common/core/src/ux_host_stack_transfer_request_abort.c ****         completion_code =  transfer_request -> ux_transfer_request_completion_code;
 118:./Middlewares/ST/usbx/common/core/src/ux_host_stack_transfer_request_abort.c **** 
 119:./Middlewares/ST/usbx/common/core/src/ux_host_stack_transfer_request_abort.c ****         /* Set the transfer_request status to abort.  */
 120:./Middlewares/ST/usbx/common/core/src/ux_host_stack_transfer_request_abort.c ****         transfer_request -> ux_transfer_request_completion_code =  UX_TRANSFER_STATUS_ABORT;
 121:./Middlewares/ST/usbx/common/core/src/ux_host_stack_transfer_request_abort.c **** 
 122:./Middlewares/ST/usbx/common/core/src/ux_host_stack_transfer_request_abort.c ****         /* We need to inform the class that owns this transfer_request of the 
 123:./Middlewares/ST/usbx/common/core/src/ux_host_stack_transfer_request_abort.c ****            abort if there is a call back mechanism.  */
 124:./Middlewares/ST/usbx/common/core/src/ux_host_stack_transfer_request_abort.c ****         if (transfer_request -> ux_transfer_request_completion_function != UX_NULL)
 125:./Middlewares/ST/usbx/common/core/src/ux_host_stack_transfer_request_abort.c ****             transfer_request -> ux_transfer_request_completion_function(transfer_request);
 126:./Middlewares/ST/usbx/common/core/src/ux_host_stack_transfer_request_abort.c ****        
 127:./Middlewares/ST/usbx/common/core/src/ux_host_stack_transfer_request_abort.c ****         /* Is a thread waiting on the semaphore?  */
 128:./Middlewares/ST/usbx/common/core/src/ux_host_stack_transfer_request_abort.c ****         if (/* Is the transfer pending?  */
 129:./Middlewares/ST/usbx/common/core/src/ux_host_stack_transfer_request_abort.c ****             completion_code == UX_TRANSFER_STATUS_PENDING &&
 130:./Middlewares/ST/usbx/common/core/src/ux_host_stack_transfer_request_abort.c **** #if !defined(UX_HOST_STANDALONE)
 131:./Middlewares/ST/usbx/common/core/src/ux_host_stack_transfer_request_abort.c ****             /* Is the thread waiting not this one? (clearly we're not waiting!)  */
 132:./Middlewares/ST/usbx/common/core/src/ux_host_stack_transfer_request_abort.c ****             transfer_request -> ux_transfer_request_thread_pending != _ux_utility_thread_identify()
 133:./Middlewares/ST/usbx/common/core/src/ux_host_stack_transfer_request_abort.c **** #endif
 134:./Middlewares/ST/usbx/common/core/src/ux_host_stack_transfer_request_abort.c ****             /* Does the transfer request not have a completion function?  */
 135:./Middlewares/ST/usbx/common/core/src/ux_host_stack_transfer_request_abort.c ****             transfer_request -> ux_transfer_request_completion_function == UX_NULL)
 136:./Middlewares/ST/usbx/common/core/src/ux_host_stack_transfer_request_abort.c **** 
 137:./Middlewares/ST/usbx/common/core/src/ux_host_stack_transfer_request_abort.c ****             /* Wake up the semaphore for this request.  */
 138:./Middlewares/ST/usbx/common/core/src/ux_host_stack_transfer_request_abort.c ****             _ux_host_semaphore_put(&transfer_request -> ux_transfer_request_semaphore);
 139:./Middlewares/ST/usbx/common/core/src/ux_host_stack_transfer_request_abort.c ****     }
 140:./Middlewares/ST/usbx/common/core/src/ux_host_stack_transfer_request_abort.c ****     
 141:./Middlewares/ST/usbx/common/core/src/ux_host_stack_transfer_request_abort.c ****     /* This function never fails!  */
 142:./Middlewares/ST/usbx/common/core/src/ux_host_stack_transfer_request_abort.c ****     return(UX_SUCCESS);       
  60              		.loc 1 142 5 is_stmt 1 view .LVU10
 143:./Middlewares/ST/usbx/common/core/src/ux_host_stack_transfer_request_abort.c **** }
  61              		.loc 1 143 1 is_stmt 0 view .LVU11
  62 0012 0020     		movs	r0, #0
  63 0014 38BD     		pop	{r3, r4, r5, pc}
  64              	.LVL3:
  65              	.L5:
 109:./Middlewares/ST/usbx/common/core/src/ux_host_stack_transfer_request_abort.c **** 
  66              		.loc 1 109 9 is_stmt 1 view .LVU12
 109:./Middlewares/ST/usbx/common/core/src/ux_host_stack_transfer_request_abort.c **** 
  67              		.loc 1 109 13 is_stmt 0 view .LVU13
  68 0016 036F     		ldr	r3, [r0, #112]
 109:./Middlewares/ST/usbx/common/core/src/ux_host_stack_transfer_request_abort.c **** 
  69              		.loc 1 109 9 view .LVU14
  70 0018 2246     		mov	r2, r4
  71 001a 0D21     		movs	r1, #13
  72 001c 9847     		blx	r3
  73              	.LVL4:
 117:./Middlewares/ST/usbx/common/core/src/ux_host_stack_transfer_request_abort.c **** 
  74              		.loc 1 117 9 is_stmt 1 view .LVU15
 117:./Middlewares/ST/usbx/common/core/src/ux_host_stack_transfer_request_abort.c **** 
  75              		.loc 1 117 25 is_stmt 0 view .LVU16
  76 001e 656B     		ldr	r5, [r4, #52]
  77              	.LVL5:
 120:./Middlewares/ST/usbx/common/core/src/ux_host_stack_transfer_request_abort.c **** 
  78              		.loc 1 120 9 is_stmt 1 view .LVU17
 120:./Middlewares/ST/usbx/common/core/src/ux_host_stack_transfer_request_abort.c **** 
  79              		.loc 1 120 65 is_stmt 0 view .LVU18
ARM GAS  C:\Users\Dennis\AppData\Local\Temp\ccZ9HiYO.s 			page 5


  80 0020 0423     		movs	r3, #4
  81 0022 6363     		str	r3, [r4, #52]
 124:./Middlewares/ST/usbx/common/core/src/ux_host_stack_transfer_request_abort.c ****             transfer_request -> ux_transfer_request_completion_function(transfer_request);
  82              		.loc 1 124 9 is_stmt 1 view .LVU19
 124:./Middlewares/ST/usbx/common/core/src/ux_host_stack_transfer_request_abort.c ****             transfer_request -> ux_transfer_request_completion_function(transfer_request);
  83              		.loc 1 124 30 is_stmt 0 view .LVU20
  84 0024 636A     		ldr	r3, [r4, #36]
 124:./Middlewares/ST/usbx/common/core/src/ux_host_stack_transfer_request_abort.c ****             transfer_request -> ux_transfer_request_completion_function(transfer_request);
  85              		.loc 1 124 12 view .LVU21
  86 0026 0BB1     		cbz	r3, .L3
 125:./Middlewares/ST/usbx/common/core/src/ux_host_stack_transfer_request_abort.c ****        
  87              		.loc 1 125 13 is_stmt 1 view .LVU22
  88 0028 2046     		mov	r0, r4
  89 002a 9847     		blx	r3
  90              	.LVL6:
  91              	.L3:
 128:./Middlewares/ST/usbx/common/core/src/ux_host_stack_transfer_request_abort.c ****             completion_code == UX_TRANSFER_STATUS_PENDING &&
  92              		.loc 1 128 9 view .LVU23
 128:./Middlewares/ST/usbx/common/core/src/ux_host_stack_transfer_request_abort.c ****             completion_code == UX_TRANSFER_STATUS_PENDING &&
  93              		.loc 1 128 12 is_stmt 0 view .LVU24
  94 002c 012D     		cmp	r5, #1
  95 002e F0D1     		bne	.L2
 132:./Middlewares/ST/usbx/common/core/src/ux_host_stack_transfer_request_abort.c **** #endif
  96              		.loc 1 132 30 view .LVU25
  97 0030 256E     		ldr	r5, [r4, #96]
  98              	.LVL7:
 132:./Middlewares/ST/usbx/common/core/src/ux_host_stack_transfer_request_abort.c **** #endif
  99              		.loc 1 132 71 view .LVU26
 100 0032 FFF7FEFF 		bl	_ux_utility_thread_identify
 101              	.LVL8:
 129:./Middlewares/ST/usbx/common/core/src/ux_host_stack_transfer_request_abort.c **** #if !defined(UX_HOST_STANDALONE)
 102              		.loc 1 129 59 view .LVU27
 103 0036 8542     		cmp	r5, r0
 104 0038 EBD0     		beq	.L2
 135:./Middlewares/ST/usbx/common/core/src/ux_host_stack_transfer_request_abort.c **** 
 105              		.loc 1 135 30 view .LVU28
 106 003a 636A     		ldr	r3, [r4, #36]
 132:./Middlewares/ST/usbx/common/core/src/ux_host_stack_transfer_request_abort.c **** #endif
 107              		.loc 1 132 101 view .LVU29
 108 003c 002B     		cmp	r3, #0
 109 003e E8D1     		bne	.L2
 138:./Middlewares/ST/usbx/common/core/src/ux_host_stack_transfer_request_abort.c ****     }
 110              		.loc 1 138 13 is_stmt 1 view .LVU30
 111 0040 04F14400 		add	r0, r4, #68
 112 0044 FFF7FEFF 		bl	_ux_utility_semaphore_put
 113              	.LVL9:
 114 0048 E3E7     		b	.L2
 115              		.cfi_endproc
 116              	.LFE11:
 118              		.text
 119              	.Letext0:
 120              		.file 2 "./Middlewares/ST/threadx/ports/cortex_m4/gnu/inc/tx_port.h"
 121              		.file 3 "./Middlewares/ST/threadx/common/inc/tx_api.h"
 122              		.file 4 "./Middlewares/ST/usbx/common/core/inc/ux_api.h"
 123              		.file 5 "./Middlewares/ST/usbx/common/core/inc/ux_utility.h"
ARM GAS  C:\Users\Dennis\AppData\Local\Temp\ccZ9HiYO.s 			page 6

