ARM GAS  C:\Users\Dennis\AppData\Local\Temp\cc3hZEu1.s 			page 1


   1              		.cpu cortex-m4
   2              		.arch armv7e-m
   3              		.fpu fpv4-sp-d16
   4              		.eabi_attribute 27, 1
   5              		.eabi_attribute 28, 1
   6              		.eabi_attribute 20, 1
   7              		.eabi_attribute 21, 1
   8              		.eabi_attribute 23, 3
   9              		.eabi_attribute 24, 1
  10              		.eabi_attribute 25, 1
  11              		.eabi_attribute 26, 1
  12              		.eabi_attribute 30, 1
  13              		.eabi_attribute 34, 1
  14              		.eabi_attribute 18, 4
  15              		.file	"ux_host_stack_device_get.c"
  16              		.text
  17              	.Ltext0:
  18              		.cfi_sections	.debug_frame
  19              		.section	.text._ux_host_stack_device_get,"ax",%progbits
  20              		.align	1
  21              		.global	_ux_host_stack_device_get
  22              		.syntax unified
  23              		.thumb
  24              		.thumb_func
  26              	_ux_host_stack_device_get:
  27              	.LVL0:
  28              	.LFB11:
  29              		.file 1 "./Middlewares/ST/usbx/common/core/src/ux_host_stack_device_get.c"
   1:./Middlewares/ST/usbx/common/core/src/ux_host_stack_device_get.c **** /**************************************************************************/
   2:./Middlewares/ST/usbx/common/core/src/ux_host_stack_device_get.c **** /*                                                                        */
   3:./Middlewares/ST/usbx/common/core/src/ux_host_stack_device_get.c **** /*       Copyright (c) Microsoft Corporation. All rights reserved.        */
   4:./Middlewares/ST/usbx/common/core/src/ux_host_stack_device_get.c **** /*                                                                        */
   5:./Middlewares/ST/usbx/common/core/src/ux_host_stack_device_get.c **** /*       This software is licensed under the Microsoft Software License   */
   6:./Middlewares/ST/usbx/common/core/src/ux_host_stack_device_get.c **** /*       Terms for Microsoft Azure RTOS. Full text of the license can be  */
   7:./Middlewares/ST/usbx/common/core/src/ux_host_stack_device_get.c **** /*       found in the LICENSE file at https://aka.ms/AzureRTOS_EULA       */
   8:./Middlewares/ST/usbx/common/core/src/ux_host_stack_device_get.c **** /*       and in the root directory of this software.                      */
   9:./Middlewares/ST/usbx/common/core/src/ux_host_stack_device_get.c **** /*                                                                        */
  10:./Middlewares/ST/usbx/common/core/src/ux_host_stack_device_get.c **** /**************************************************************************/
  11:./Middlewares/ST/usbx/common/core/src/ux_host_stack_device_get.c **** 
  12:./Middlewares/ST/usbx/common/core/src/ux_host_stack_device_get.c **** 
  13:./Middlewares/ST/usbx/common/core/src/ux_host_stack_device_get.c **** /**************************************************************************/
  14:./Middlewares/ST/usbx/common/core/src/ux_host_stack_device_get.c **** /**************************************************************************/
  15:./Middlewares/ST/usbx/common/core/src/ux_host_stack_device_get.c **** /**                                                                       */
  16:./Middlewares/ST/usbx/common/core/src/ux_host_stack_device_get.c **** /** USBX Component                                                        */
  17:./Middlewares/ST/usbx/common/core/src/ux_host_stack_device_get.c **** /**                                                                       */
  18:./Middlewares/ST/usbx/common/core/src/ux_host_stack_device_get.c **** /**   Host Stack                                                          */
  19:./Middlewares/ST/usbx/common/core/src/ux_host_stack_device_get.c **** /**                                                                       */
  20:./Middlewares/ST/usbx/common/core/src/ux_host_stack_device_get.c **** /**************************************************************************/
  21:./Middlewares/ST/usbx/common/core/src/ux_host_stack_device_get.c **** /**************************************************************************/
  22:./Middlewares/ST/usbx/common/core/src/ux_host_stack_device_get.c **** 
  23:./Middlewares/ST/usbx/common/core/src/ux_host_stack_device_get.c **** 
  24:./Middlewares/ST/usbx/common/core/src/ux_host_stack_device_get.c **** /* Include necessary system files.  */
  25:./Middlewares/ST/usbx/common/core/src/ux_host_stack_device_get.c **** 
  26:./Middlewares/ST/usbx/common/core/src/ux_host_stack_device_get.c **** #define UX_SOURCE_CODE
  27:./Middlewares/ST/usbx/common/core/src/ux_host_stack_device_get.c **** 
  28:./Middlewares/ST/usbx/common/core/src/ux_host_stack_device_get.c **** #include "ux_api.h"
  29:./Middlewares/ST/usbx/common/core/src/ux_host_stack_device_get.c **** #include "ux_host_stack.h"
ARM GAS  C:\Users\Dennis\AppData\Local\Temp\cc3hZEu1.s 			page 2


  30:./Middlewares/ST/usbx/common/core/src/ux_host_stack_device_get.c **** 
  31:./Middlewares/ST/usbx/common/core/src/ux_host_stack_device_get.c **** 
  32:./Middlewares/ST/usbx/common/core/src/ux_host_stack_device_get.c **** /**************************************************************************/
  33:./Middlewares/ST/usbx/common/core/src/ux_host_stack_device_get.c **** /*                                                                        */
  34:./Middlewares/ST/usbx/common/core/src/ux_host_stack_device_get.c **** /*  FUNCTION                                               RELEASE        */
  35:./Middlewares/ST/usbx/common/core/src/ux_host_stack_device_get.c **** /*                                                                        */
  36:./Middlewares/ST/usbx/common/core/src/ux_host_stack_device_get.c **** /*    _ux_host_stack_device_get                           PORTABLE C      */
  37:./Middlewares/ST/usbx/common/core/src/ux_host_stack_device_get.c **** /*                                                           6.1          */
  38:./Middlewares/ST/usbx/common/core/src/ux_host_stack_device_get.c **** /*  AUTHOR                                                                */
  39:./Middlewares/ST/usbx/common/core/src/ux_host_stack_device_get.c **** /*                                                                        */
  40:./Middlewares/ST/usbx/common/core/src/ux_host_stack_device_get.c **** /*    Chaoqiong Xiao, Microsoft Corporation                               */
  41:./Middlewares/ST/usbx/common/core/src/ux_host_stack_device_get.c **** /*                                                                        */
  42:./Middlewares/ST/usbx/common/core/src/ux_host_stack_device_get.c **** /*  DESCRIPTION                                                           */
  43:./Middlewares/ST/usbx/common/core/src/ux_host_stack_device_get.c **** /*                                                                        */
  44:./Middlewares/ST/usbx/common/core/src/ux_host_stack_device_get.c **** /*    This function returns a device container based on its index. The    */
  45:./Middlewares/ST/usbx/common/core/src/ux_host_stack_device_get.c **** /*    device index start with device 0. Note that the index is a ULONG    */
  46:./Middlewares/ST/usbx/common/core/src/ux_host_stack_device_get.c **** /*    because we could have several controllers and a byte index might    */
  47:./Middlewares/ST/usbx/common/core/src/ux_host_stack_device_get.c **** /*    not be enough.                                                      */
  48:./Middlewares/ST/usbx/common/core/src/ux_host_stack_device_get.c **** /*                                                                        */
  49:./Middlewares/ST/usbx/common/core/src/ux_host_stack_device_get.c **** /*  INPUT                                                                 */
  50:./Middlewares/ST/usbx/common/core/src/ux_host_stack_device_get.c **** /*                                                                        */
  51:./Middlewares/ST/usbx/common/core/src/ux_host_stack_device_get.c **** /*    device_index                          Index of device               */
  52:./Middlewares/ST/usbx/common/core/src/ux_host_stack_device_get.c **** /*    device                                Destination for device pointer*/
  53:./Middlewares/ST/usbx/common/core/src/ux_host_stack_device_get.c **** /*                                                                        */
  54:./Middlewares/ST/usbx/common/core/src/ux_host_stack_device_get.c **** /*  OUTPUT                                                                */
  55:./Middlewares/ST/usbx/common/core/src/ux_host_stack_device_get.c **** /*                                                                        */
  56:./Middlewares/ST/usbx/common/core/src/ux_host_stack_device_get.c **** /*    Completion Status                                                   */
  57:./Middlewares/ST/usbx/common/core/src/ux_host_stack_device_get.c **** /*                                                                        */
  58:./Middlewares/ST/usbx/common/core/src/ux_host_stack_device_get.c **** /*  CALLS                                                                 */
  59:./Middlewares/ST/usbx/common/core/src/ux_host_stack_device_get.c **** /*                                                                        */
  60:./Middlewares/ST/usbx/common/core/src/ux_host_stack_device_get.c **** /*    None                                                                */
  61:./Middlewares/ST/usbx/common/core/src/ux_host_stack_device_get.c **** /*                                                                        */
  62:./Middlewares/ST/usbx/common/core/src/ux_host_stack_device_get.c **** /*  CALLED BY                                                             */
  63:./Middlewares/ST/usbx/common/core/src/ux_host_stack_device_get.c **** /*                                                                        */
  64:./Middlewares/ST/usbx/common/core/src/ux_host_stack_device_get.c **** /*    Application                                                         */
  65:./Middlewares/ST/usbx/common/core/src/ux_host_stack_device_get.c **** /*    USBX Components                                                     */
  66:./Middlewares/ST/usbx/common/core/src/ux_host_stack_device_get.c **** /*                                                                        */
  67:./Middlewares/ST/usbx/common/core/src/ux_host_stack_device_get.c **** /*  RELEASE HISTORY                                                       */
  68:./Middlewares/ST/usbx/common/core/src/ux_host_stack_device_get.c **** /*                                                                        */
  69:./Middlewares/ST/usbx/common/core/src/ux_host_stack_device_get.c **** /*    DATE              NAME                      DESCRIPTION             */
  70:./Middlewares/ST/usbx/common/core/src/ux_host_stack_device_get.c **** /*                                                                        */
  71:./Middlewares/ST/usbx/common/core/src/ux_host_stack_device_get.c **** /*  05-19-2020     Chaoqiong Xiao           Initial Version 6.0           */
  72:./Middlewares/ST/usbx/common/core/src/ux_host_stack_device_get.c **** /*  09-30-2020     Chaoqiong Xiao           Modified comment(s),          */
  73:./Middlewares/ST/usbx/common/core/src/ux_host_stack_device_get.c **** /*                                            optimized based on compile  */
  74:./Middlewares/ST/usbx/common/core/src/ux_host_stack_device_get.c **** /*                                            definitions,                */
  75:./Middlewares/ST/usbx/common/core/src/ux_host_stack_device_get.c **** /*                                            resulting in version 6.1    */
  76:./Middlewares/ST/usbx/common/core/src/ux_host_stack_device_get.c **** /*                                                                        */
  77:./Middlewares/ST/usbx/common/core/src/ux_host_stack_device_get.c **** /**************************************************************************/
  78:./Middlewares/ST/usbx/common/core/src/ux_host_stack_device_get.c **** UINT  _ux_host_stack_device_get(ULONG device_index, UX_DEVICE **device)
  79:./Middlewares/ST/usbx/common/core/src/ux_host_stack_device_get.c **** {
  30              		.loc 1 79 1 view -0
  31              		.cfi_startproc
  32              		@ args = 0, pretend = 0, frame = 0
  33              		@ frame_needed = 0, uses_anonymous_args = 0
  34              		.loc 1 79 1 is_stmt 0 view .LVU1
  35 0000 38B5     		push	{r3, r4, r5, lr}
  36              	.LCFI0:
ARM GAS  C:\Users\Dennis\AppData\Local\Temp\cc3hZEu1.s 			page 3


  37              		.cfi_def_cfa_offset 16
  38              		.cfi_offset 3, -16
  39              		.cfi_offset 4, -12
  40              		.cfi_offset 5, -8
  41              		.cfi_offset 14, -4
  80:./Middlewares/ST/usbx/common/core/src/ux_host_stack_device_get.c **** 
  81:./Middlewares/ST/usbx/common/core/src/ux_host_stack_device_get.c **** UX_DEVICE   *current_device;
  42              		.loc 1 81 1 is_stmt 1 view .LVU2
  82:./Middlewares/ST/usbx/common/core/src/ux_host_stack_device_get.c **** #if UX_MAX_DEVICES > 1
  83:./Middlewares/ST/usbx/common/core/src/ux_host_stack_device_get.c **** ULONG       current_device_index;
  43              		.loc 1 83 1 view .LVU3
  84:./Middlewares/ST/usbx/common/core/src/ux_host_stack_device_get.c **** #endif
  85:./Middlewares/ST/usbx/common/core/src/ux_host_stack_device_get.c **** 
  86:./Middlewares/ST/usbx/common/core/src/ux_host_stack_device_get.c ****     /* If trace is enabled, insert this event into the trace buffer.  */
  87:./Middlewares/ST/usbx/common/core/src/ux_host_stack_device_get.c ****     UX_TRACE_IN_LINE_INSERT(UX_TRACE_HOST_STACK_DEVICE_GET, device_index, 0, 0, 0, UX_TRACE_HOST_ST
  88:./Middlewares/ST/usbx/common/core/src/ux_host_stack_device_get.c **** 
  89:./Middlewares/ST/usbx/common/core/src/ux_host_stack_device_get.c ****     /* Check if the device index is still within the limits.  */
  90:./Middlewares/ST/usbx/common/core/src/ux_host_stack_device_get.c ****     if (device_index >= UX_SYSTEM_HOST_MAX_DEVICES_GET())
  44              		.loc 1 90 5 view .LVU4
  45              		.loc 1 90 25 is_stmt 0 view .LVU5
  46 0002 0F4B     		ldr	r3, .L10
  47 0004 1B68     		ldr	r3, [r3]
  48 0006 5C69     		ldr	r4, [r3, #20]
  49              		.loc 1 90 8 view .LVU6
  50 0008 8442     		cmp	r4, r0
  51 000a 02D9     		bls	.L8
  91:./Middlewares/ST/usbx/common/core/src/ux_host_stack_device_get.c ****     {
  92:./Middlewares/ST/usbx/common/core/src/ux_host_stack_device_get.c **** 
  93:./Middlewares/ST/usbx/common/core/src/ux_host_stack_device_get.c ****         /* Error trap. */
  94:./Middlewares/ST/usbx/common/core/src/ux_host_stack_device_get.c ****         _ux_system_error_handler(UX_SYSTEM_LEVEL_THREAD, UX_SYSTEM_CONTEXT_ENUMERATOR, UX_DEVICE_HA
  95:./Middlewares/ST/usbx/common/core/src/ux_host_stack_device_get.c **** 
  96:./Middlewares/ST/usbx/common/core/src/ux_host_stack_device_get.c ****         /* If trace is enabled, insert this event into the trace buffer.  */
  97:./Middlewares/ST/usbx/common/core/src/ux_host_stack_device_get.c ****         UX_TRACE_IN_LINE_INSERT(UX_TRACE_ERROR, UX_DEVICE_HANDLE_UNKNOWN, device, 0, 0, UX_TRACE_ER
  98:./Middlewares/ST/usbx/common/core/src/ux_host_stack_device_get.c **** 
  99:./Middlewares/ST/usbx/common/core/src/ux_host_stack_device_get.c ****         return(UX_DEVICE_HANDLE_UNKNOWN);
 100:./Middlewares/ST/usbx/common/core/src/ux_host_stack_device_get.c ****     }
 101:./Middlewares/ST/usbx/common/core/src/ux_host_stack_device_get.c **** 
 102:./Middlewares/ST/usbx/common/core/src/ux_host_stack_device_get.c **** #if UX_MAX_DEVICES > 1
 103:./Middlewares/ST/usbx/common/core/src/ux_host_stack_device_get.c **** 
 104:./Middlewares/ST/usbx/common/core/src/ux_host_stack_device_get.c ****     /* Start with the first device.  */
 105:./Middlewares/ST/usbx/common/core/src/ux_host_stack_device_get.c ****     current_device =        _ux_system_host -> ux_system_host_device_array;
  52              		.loc 1 105 5 is_stmt 1 view .LVU7
  53              		.loc 1 105 20 is_stmt 0 view .LVU8
  54 000c 9A69     		ldr	r2, [r3, #24]
  55              	.LVL1:
 106:./Middlewares/ST/usbx/common/core/src/ux_host_stack_device_get.c ****     current_device_index =  0;
  56              		.loc 1 106 5 is_stmt 1 view .LVU9
 107:./Middlewares/ST/usbx/common/core/src/ux_host_stack_device_get.c **** 
 108:./Middlewares/ST/usbx/common/core/src/ux_host_stack_device_get.c ****     /* Search the list until the end.  */
 109:./Middlewares/ST/usbx/common/core/src/ux_host_stack_device_get.c ****     while (current_device_index < _ux_system_host -> ux_system_host_max_devices)
  57              		.loc 1 109 5 view .LVU10
 106:./Middlewares/ST/usbx/common/core/src/ux_host_stack_device_get.c ****     current_device_index =  0;
  58              		.loc 1 106 26 is_stmt 0 view .LVU11
  59 000e 0023     		movs	r3, #0
  60              		.loc 1 109 11 view .LVU12
  61 0010 09E0     		b	.L4
  62              	.LVL2:
ARM GAS  C:\Users\Dennis\AppData\Local\Temp\cc3hZEu1.s 			page 4


  63              	.L8:
  94:./Middlewares/ST/usbx/common/core/src/ux_host_stack_device_get.c **** 
  64              		.loc 1 94 9 is_stmt 1 view .LVU13
  65 0012 5022     		movs	r2, #80
  66 0014 0421     		movs	r1, #4
  67              	.LVL3:
  94:./Middlewares/ST/usbx/common/core/src/ux_host_stack_device_get.c **** 
  68              		.loc 1 94 9 is_stmt 0 view .LVU14
  69 0016 0220     		movs	r0, #2
  70              	.LVL4:
  94:./Middlewares/ST/usbx/common/core/src/ux_host_stack_device_get.c **** 
  71              		.loc 1 94 9 view .LVU15
  72 0018 FFF7FEFF 		bl	_ux_system_error_handler
  73              	.LVL5:
  99:./Middlewares/ST/usbx/common/core/src/ux_host_stack_device_get.c ****     }
  74              		.loc 1 99 9 is_stmt 1 view .LVU16
  99:./Middlewares/ST/usbx/common/core/src/ux_host_stack_device_get.c ****     }
  75              		.loc 1 99 15 is_stmt 0 view .LVU17
  76 001c 5020     		movs	r0, #80
  77 001e 0DE0     		b	.L1
  78              	.LVL6:
  79              	.L5:
 110:./Middlewares/ST/usbx/common/core/src/ux_host_stack_device_get.c ****     {
 111:./Middlewares/ST/usbx/common/core/src/ux_host_stack_device_get.c **** 
 112:./Middlewares/ST/usbx/common/core/src/ux_host_stack_device_get.c ****         /* Check to see if this device is existing.  */
 113:./Middlewares/ST/usbx/common/core/src/ux_host_stack_device_get.c ****         if (current_device -> ux_device_handle != UX_UNUSED)
 114:./Middlewares/ST/usbx/common/core/src/ux_host_stack_device_get.c ****         {
 115:./Middlewares/ST/usbx/common/core/src/ux_host_stack_device_get.c **** 
 116:./Middlewares/ST/usbx/common/core/src/ux_host_stack_device_get.c ****             /* Have we reached the index we are looking for?  */
 117:./Middlewares/ST/usbx/common/core/src/ux_host_stack_device_get.c ****             if (device_index == current_device_index)
 118:./Middlewares/ST/usbx/common/core/src/ux_host_stack_device_get.c ****             {
 119:./Middlewares/ST/usbx/common/core/src/ux_host_stack_device_get.c **** 
 120:./Middlewares/ST/usbx/common/core/src/ux_host_stack_device_get.c ****                 /* Yes, return the device pointer.  */
 121:./Middlewares/ST/usbx/common/core/src/ux_host_stack_device_get.c ****                 *device =  current_device;
 122:./Middlewares/ST/usbx/common/core/src/ux_host_stack_device_get.c **** 
 123:./Middlewares/ST/usbx/common/core/src/ux_host_stack_device_get.c ****                 /* Return successful completion.  */
 124:./Middlewares/ST/usbx/common/core/src/ux_host_stack_device_get.c ****                 return(UX_SUCCESS);
 125:./Middlewares/ST/usbx/common/core/src/ux_host_stack_device_get.c ****             }
 126:./Middlewares/ST/usbx/common/core/src/ux_host_stack_device_get.c ****         }
 127:./Middlewares/ST/usbx/common/core/src/ux_host_stack_device_get.c **** 
 128:./Middlewares/ST/usbx/common/core/src/ux_host_stack_device_get.c ****         /* Move to next device index.  */
 129:./Middlewares/ST/usbx/common/core/src/ux_host_stack_device_get.c ****         current_device_index++;
  80              		.loc 1 129 9 is_stmt 1 view .LVU18
  81              		.loc 1 129 29 is_stmt 0 view .LVU19
  82 0020 0133     		adds	r3, r3, #1
  83              	.LVL7:
 130:./Middlewares/ST/usbx/common/core/src/ux_host_stack_device_get.c **** 
 131:./Middlewares/ST/usbx/common/core/src/ux_host_stack_device_get.c ****         /* Move to next device.  */
 132:./Middlewares/ST/usbx/common/core/src/ux_host_stack_device_get.c ****         current_device++;
  84              		.loc 1 132 9 is_stmt 1 view .LVU20
  85              		.loc 1 132 23 is_stmt 0 view .LVU21
  86 0022 02F5B072 		add	r2, r2, #352
  87              	.LVL8:
  88              	.L4:
 109:./Middlewares/ST/usbx/common/core/src/ux_host_stack_device_get.c ****     {
  89              		.loc 1 109 11 is_stmt 1 view .LVU22
  90 0026 9C42     		cmp	r4, r3
ARM GAS  C:\Users\Dennis\AppData\Local\Temp\cc3hZEu1.s 			page 5


  91 0028 07D9     		bls	.L9
 113:./Middlewares/ST/usbx/common/core/src/ux_host_stack_device_get.c ****         {
  92              		.loc 1 113 9 view .LVU23
 113:./Middlewares/ST/usbx/common/core/src/ux_host_stack_device_get.c ****         {
  93              		.loc 1 113 12 is_stmt 0 view .LVU24
  94 002a 1568     		ldr	r5, [r2]
  95 002c 002D     		cmp	r5, #0
  96 002e F7D0     		beq	.L5
 117:./Middlewares/ST/usbx/common/core/src/ux_host_stack_device_get.c ****             {
  97              		.loc 1 117 13 is_stmt 1 view .LVU25
 117:./Middlewares/ST/usbx/common/core/src/ux_host_stack_device_get.c ****             {
  98              		.loc 1 117 16 is_stmt 0 view .LVU26
  99 0030 8342     		cmp	r3, r0
 100 0032 F5D1     		bne	.L5
 121:./Middlewares/ST/usbx/common/core/src/ux_host_stack_device_get.c **** 
 101              		.loc 1 121 17 is_stmt 1 view .LVU27
 121:./Middlewares/ST/usbx/common/core/src/ux_host_stack_device_get.c **** 
 102              		.loc 1 121 25 is_stmt 0 view .LVU28
 103 0034 0A60     		str	r2, [r1]
 124:./Middlewares/ST/usbx/common/core/src/ux_host_stack_device_get.c ****             }
 104              		.loc 1 124 17 is_stmt 1 view .LVU29
 124:./Middlewares/ST/usbx/common/core/src/ux_host_stack_device_get.c ****             }
 105              		.loc 1 124 23 is_stmt 0 view .LVU30
 106 0036 0020     		movs	r0, #0
 107              	.LVL9:
 124:./Middlewares/ST/usbx/common/core/src/ux_host_stack_device_get.c ****             }
 108              		.loc 1 124 23 view .LVU31
 109 0038 00E0     		b	.L1
 110              	.LVL10:
 111              	.L9:
 133:./Middlewares/ST/usbx/common/core/src/ux_host_stack_device_get.c ****     }
 134:./Middlewares/ST/usbx/common/core/src/ux_host_stack_device_get.c **** #else
 135:./Middlewares/ST/usbx/common/core/src/ux_host_stack_device_get.c **** 
 136:./Middlewares/ST/usbx/common/core/src/ux_host_stack_device_get.c ****     /* Only one device, just check if it's used.  */
 137:./Middlewares/ST/usbx/common/core/src/ux_host_stack_device_get.c ****     current_device = _ux_system_host -> ux_system_host_device_array;
 138:./Middlewares/ST/usbx/common/core/src/ux_host_stack_device_get.c ****     if (current_device -> ux_device_handle != UX_UNUSED)
 139:./Middlewares/ST/usbx/common/core/src/ux_host_stack_device_get.c ****     {
 140:./Middlewares/ST/usbx/common/core/src/ux_host_stack_device_get.c ****         *device = current_device;
 141:./Middlewares/ST/usbx/common/core/src/ux_host_stack_device_get.c ****         return(UX_SUCCESS);
 142:./Middlewares/ST/usbx/common/core/src/ux_host_stack_device_get.c ****     }
 143:./Middlewares/ST/usbx/common/core/src/ux_host_stack_device_get.c **** #endif
 144:./Middlewares/ST/usbx/common/core/src/ux_host_stack_device_get.c **** 
 145:./Middlewares/ST/usbx/common/core/src/ux_host_stack_device_get.c ****     /* If trace is enabled, insert this event into the trace buffer.  */
 146:./Middlewares/ST/usbx/common/core/src/ux_host_stack_device_get.c ****     UX_TRACE_IN_LINE_INSERT(UX_TRACE_ERROR, UX_DEVICE_HANDLE_UNKNOWN, device, 0, 0, UX_TRACE_ERRORS
 147:./Middlewares/ST/usbx/common/core/src/ux_host_stack_device_get.c **** 
 148:./Middlewares/ST/usbx/common/core/src/ux_host_stack_device_get.c ****     /* Return error.  */
 149:./Middlewares/ST/usbx/common/core/src/ux_host_stack_device_get.c ****     return(UX_DEVICE_HANDLE_UNKNOWN);
 112              		.loc 1 149 11 view .LVU32
 113 003a 5020     		movs	r0, #80
 114              	.LVL11:
 115              	.L1:
 150:./Middlewares/ST/usbx/common/core/src/ux_host_stack_device_get.c **** }
 116              		.loc 1 150 1 view .LVU33
 117 003c 38BD     		pop	{r3, r4, r5, pc}
 118              	.L11:
 119 003e 00BF     		.align	2
 120              	.L10:
ARM GAS  C:\Users\Dennis\AppData\Local\Temp\cc3hZEu1.s 			page 6


 121 0040 00000000 		.word	_ux_system_host
 122              		.cfi_endproc
 123              	.LFE11:
 125              		.text
 126              	.Letext0:
 127              		.file 2 "./Middlewares/ST/threadx/ports/cortex_m4/gnu/inc/tx_port.h"
 128              		.file 3 "./Middlewares/ST/threadx/common/inc/tx_api.h"
 129              		.file 4 "./Middlewares/ST/usbx/common/core/inc/ux_api.h"
 130              		.file 5 "./Middlewares/ST/usbx/common/core/inc/ux_system.h"
 131              		.file 6 "./Middlewares/ST/usbx/common/core/inc/ux_utility.h"
ARM GAS  C:\Users\Dennis\AppData\Local\Temp\cc3hZEu1.s 			page 7

