ARM GAS  C:\Users\Dennis\AppData\Local\Temp\ccSU4WmE.s 			page 1


   1              		.cpu cortex-m4
   2              		.arch armv7e-m
   3              		.fpu fpv4-sp-d16
   4              		.eabi_attribute 27, 1
   5              		.eabi_attribute 28, 1
   6              		.eabi_attribute 20, 1
   7              		.eabi_attribute 21, 1
   8              		.eabi_attribute 23, 3
   9              		.eabi_attribute 24, 1
  10              		.eabi_attribute 25, 1
  11              		.eabi_attribute 26, 1
  12              		.eabi_attribute 30, 1
  13              		.eabi_attribute 34, 1
  14              		.eabi_attribute 18, 4
  15              		.file	"ux_host_stack_hcd_unregister.c"
  16              		.text
  17              	.Ltext0:
  18              		.cfi_sections	.debug_frame
  19              		.section	.text._ux_host_stack_hcd_unregister,"ax",%progbits
  20              		.align	1
  21              		.global	_ux_host_stack_hcd_unregister
  22              		.syntax unified
  23              		.thumb
  24              		.thumb_func
  26              	_ux_host_stack_hcd_unregister:
  27              	.LVL0:
  28              	.LFB11:
  29              		.file 1 "./Middlewares/ST/usbx/common/core/src/ux_host_stack_hcd_unregister.c"
   1:./Middlewares/ST/usbx/common/core/src/ux_host_stack_hcd_unregister.c **** /**************************************************************************/
   2:./Middlewares/ST/usbx/common/core/src/ux_host_stack_hcd_unregister.c **** /*                                                                        */
   3:./Middlewares/ST/usbx/common/core/src/ux_host_stack_hcd_unregister.c **** /*       Copyright (c) Microsoft Corporation. All rights reserved.        */
   4:./Middlewares/ST/usbx/common/core/src/ux_host_stack_hcd_unregister.c **** /*                                                                        */
   5:./Middlewares/ST/usbx/common/core/src/ux_host_stack_hcd_unregister.c **** /*       This software is licensed under the Microsoft Software License   */
   6:./Middlewares/ST/usbx/common/core/src/ux_host_stack_hcd_unregister.c **** /*       Terms for Microsoft Azure RTOS. Full text of the license can be  */
   7:./Middlewares/ST/usbx/common/core/src/ux_host_stack_hcd_unregister.c **** /*       found in the LICENSE file at https://aka.ms/AzureRTOS_EULA       */
   8:./Middlewares/ST/usbx/common/core/src/ux_host_stack_hcd_unregister.c **** /*       and in the root directory of this software.                      */
   9:./Middlewares/ST/usbx/common/core/src/ux_host_stack_hcd_unregister.c **** /*                                                                        */
  10:./Middlewares/ST/usbx/common/core/src/ux_host_stack_hcd_unregister.c **** /**************************************************************************/
  11:./Middlewares/ST/usbx/common/core/src/ux_host_stack_hcd_unregister.c **** 
  12:./Middlewares/ST/usbx/common/core/src/ux_host_stack_hcd_unregister.c **** 
  13:./Middlewares/ST/usbx/common/core/src/ux_host_stack_hcd_unregister.c **** /**************************************************************************/
  14:./Middlewares/ST/usbx/common/core/src/ux_host_stack_hcd_unregister.c **** /**************************************************************************/
  15:./Middlewares/ST/usbx/common/core/src/ux_host_stack_hcd_unregister.c **** /**                                                                       */
  16:./Middlewares/ST/usbx/common/core/src/ux_host_stack_hcd_unregister.c **** /** USBX Component                                                        */
  17:./Middlewares/ST/usbx/common/core/src/ux_host_stack_hcd_unregister.c **** /**                                                                       */
  18:./Middlewares/ST/usbx/common/core/src/ux_host_stack_hcd_unregister.c **** /**   Host Stack                                                          */
  19:./Middlewares/ST/usbx/common/core/src/ux_host_stack_hcd_unregister.c **** /**                                                                       */
  20:./Middlewares/ST/usbx/common/core/src/ux_host_stack_hcd_unregister.c **** /**************************************************************************/
  21:./Middlewares/ST/usbx/common/core/src/ux_host_stack_hcd_unregister.c **** /**************************************************************************/
  22:./Middlewares/ST/usbx/common/core/src/ux_host_stack_hcd_unregister.c **** 
  23:./Middlewares/ST/usbx/common/core/src/ux_host_stack_hcd_unregister.c **** 
  24:./Middlewares/ST/usbx/common/core/src/ux_host_stack_hcd_unregister.c **** /* Include necessary system files.  */
  25:./Middlewares/ST/usbx/common/core/src/ux_host_stack_hcd_unregister.c **** 
  26:./Middlewares/ST/usbx/common/core/src/ux_host_stack_hcd_unregister.c **** #define UX_SOURCE_CODE
  27:./Middlewares/ST/usbx/common/core/src/ux_host_stack_hcd_unregister.c **** 
  28:./Middlewares/ST/usbx/common/core/src/ux_host_stack_hcd_unregister.c **** #include "ux_api.h"
  29:./Middlewares/ST/usbx/common/core/src/ux_host_stack_hcd_unregister.c **** #include "ux_host_stack.h"
ARM GAS  C:\Users\Dennis\AppData\Local\Temp\ccSU4WmE.s 			page 2


  30:./Middlewares/ST/usbx/common/core/src/ux_host_stack_hcd_unregister.c **** 
  31:./Middlewares/ST/usbx/common/core/src/ux_host_stack_hcd_unregister.c **** 
  32:./Middlewares/ST/usbx/common/core/src/ux_host_stack_hcd_unregister.c **** /**************************************************************************/
  33:./Middlewares/ST/usbx/common/core/src/ux_host_stack_hcd_unregister.c **** /*                                                                        */
  34:./Middlewares/ST/usbx/common/core/src/ux_host_stack_hcd_unregister.c **** /*  FUNCTION                                               RELEASE        */
  35:./Middlewares/ST/usbx/common/core/src/ux_host_stack_hcd_unregister.c **** /*                                                                        */
  36:./Middlewares/ST/usbx/common/core/src/ux_host_stack_hcd_unregister.c **** /*    _ux_host_stack_hcd_unregister                       PORTABLE C      */
  37:./Middlewares/ST/usbx/common/core/src/ux_host_stack_hcd_unregister.c **** /*                                                           6.1.2        */
  38:./Middlewares/ST/usbx/common/core/src/ux_host_stack_hcd_unregister.c **** /*  AUTHOR                                                                */
  39:./Middlewares/ST/usbx/common/core/src/ux_host_stack_hcd_unregister.c **** /*                                                                        */
  40:./Middlewares/ST/usbx/common/core/src/ux_host_stack_hcd_unregister.c **** /*    Chaoqiong Xiao, Microsoft Corporation                               */
  41:./Middlewares/ST/usbx/common/core/src/ux_host_stack_hcd_unregister.c **** /*                                                                        */
  42:./Middlewares/ST/usbx/common/core/src/ux_host_stack_hcd_unregister.c **** /*  DESCRIPTION                                                           */
  43:./Middlewares/ST/usbx/common/core/src/ux_host_stack_hcd_unregister.c **** /*                                                                        */
  44:./Middlewares/ST/usbx/common/core/src/ux_host_stack_hcd_unregister.c **** /*    This function unregisters a USB host controller driver (HCD) with   */
  45:./Middlewares/ST/usbx/common/core/src/ux_host_stack_hcd_unregister.c **** /*    the USBX stack, removes all devices rooted from that controller and */
  46:./Middlewares/ST/usbx/common/core/src/ux_host_stack_hcd_unregister.c **** /*    disable/stop the controller.                                        */
  47:./Middlewares/ST/usbx/common/core/src/ux_host_stack_hcd_unregister.c **** /*                                                                        */
  48:./Middlewares/ST/usbx/common/core/src/ux_host_stack_hcd_unregister.c **** /*  INPUT                                                                 */
  49:./Middlewares/ST/usbx/common/core/src/ux_host_stack_hcd_unregister.c **** /*                                                                        */
  50:./Middlewares/ST/usbx/common/core/src/ux_host_stack_hcd_unregister.c **** /*    hcd_name                              Name of HCD to unregister     */
  51:./Middlewares/ST/usbx/common/core/src/ux_host_stack_hcd_unregister.c **** /*    hcd_param1                            Parameter 1 of HCD            */
  52:./Middlewares/ST/usbx/common/core/src/ux_host_stack_hcd_unregister.c **** /*    hcd_param2                            Parameter 2 of HCD            */
  53:./Middlewares/ST/usbx/common/core/src/ux_host_stack_hcd_unregister.c **** /*                                                                        */
  54:./Middlewares/ST/usbx/common/core/src/ux_host_stack_hcd_unregister.c **** /*  OUTPUT                                                                */
  55:./Middlewares/ST/usbx/common/core/src/ux_host_stack_hcd_unregister.c **** /*                                                                        */
  56:./Middlewares/ST/usbx/common/core/src/ux_host_stack_hcd_unregister.c **** /*    Completion Status                                                   */
  57:./Middlewares/ST/usbx/common/core/src/ux_host_stack_hcd_unregister.c **** /*    UX_SUCCESS                            HCD unregistered, related     */
  58:./Middlewares/ST/usbx/common/core/src/ux_host_stack_hcd_unregister.c **** /*                                          devices removed and hardware  */
  59:./Middlewares/ST/usbx/common/core/src/ux_host_stack_hcd_unregister.c **** /*                                          disabled/stopped success      */
  60:./Middlewares/ST/usbx/common/core/src/ux_host_stack_hcd_unregister.c **** /*    UX_ERROR                              HCD not found                 */
  61:./Middlewares/ST/usbx/common/core/src/ux_host_stack_hcd_unregister.c **** /*                                                                        */
  62:./Middlewares/ST/usbx/common/core/src/ux_host_stack_hcd_unregister.c **** /*  CALLS                                                                 */
  63:./Middlewares/ST/usbx/common/core/src/ux_host_stack_hcd_unregister.c **** /*                                                                        */
  64:./Middlewares/ST/usbx/common/core/src/ux_host_stack_hcd_unregister.c **** /*    _ux_utility_string_length_check       Check and return C string     */
  65:./Middlewares/ST/usbx/common/core/src/ux_host_stack_hcd_unregister.c **** /*                                          length if no error            */
  66:./Middlewares/ST/usbx/common/core/src/ux_host_stack_hcd_unregister.c **** /*    _ux_utility_memory_compare            Memory compare                */
  67:./Middlewares/ST/usbx/common/core/src/ux_host_stack_hcd_unregister.c **** /*    (ux_hcd_entry_function)               HCD dispatch entry function   */
  68:./Middlewares/ST/usbx/common/core/src/ux_host_stack_hcd_unregister.c **** /*                                                                        */
  69:./Middlewares/ST/usbx/common/core/src/ux_host_stack_hcd_unregister.c **** /*  CALLED BY                                                             */
  70:./Middlewares/ST/usbx/common/core/src/ux_host_stack_hcd_unregister.c **** /*                                                                        */
  71:./Middlewares/ST/usbx/common/core/src/ux_host_stack_hcd_unregister.c **** /*    Application                                                         */
  72:./Middlewares/ST/usbx/common/core/src/ux_host_stack_hcd_unregister.c **** /*                                                                        */
  73:./Middlewares/ST/usbx/common/core/src/ux_host_stack_hcd_unregister.c **** /*  RELEASE HISTORY                                                       */
  74:./Middlewares/ST/usbx/common/core/src/ux_host_stack_hcd_unregister.c **** /*                                                                        */
  75:./Middlewares/ST/usbx/common/core/src/ux_host_stack_hcd_unregister.c **** /*    DATE              NAME                      DESCRIPTION             */
  76:./Middlewares/ST/usbx/common/core/src/ux_host_stack_hcd_unregister.c **** /*                                                                        */
  77:./Middlewares/ST/usbx/common/core/src/ux_host_stack_hcd_unregister.c **** /*  09-30-2020     Chaoqiong Xiao           Initial Version 6.1           */
  78:./Middlewares/ST/usbx/common/core/src/ux_host_stack_hcd_unregister.c **** /*  11-09-2020     Chaoqiong Xiao           Modified comment(s),          */
  79:./Middlewares/ST/usbx/common/core/src/ux_host_stack_hcd_unregister.c **** /*                                            fixed HCD devices scan,     */
  80:./Middlewares/ST/usbx/common/core/src/ux_host_stack_hcd_unregister.c **** /*                                            used HCD uninit command,    */
  81:./Middlewares/ST/usbx/common/core/src/ux_host_stack_hcd_unregister.c **** /*                                            fixed HCD status scan,      */
  82:./Middlewares/ST/usbx/common/core/src/ux_host_stack_hcd_unregister.c **** /*                                            resulting in version 6.1.2  */
  83:./Middlewares/ST/usbx/common/core/src/ux_host_stack_hcd_unregister.c **** /*                                                                        */
  84:./Middlewares/ST/usbx/common/core/src/ux_host_stack_hcd_unregister.c **** /**************************************************************************/
  85:./Middlewares/ST/usbx/common/core/src/ux_host_stack_hcd_unregister.c **** UINT  _ux_host_stack_hcd_unregister(UCHAR *hcd_name,
  86:./Middlewares/ST/usbx/common/core/src/ux_host_stack_hcd_unregister.c ****                                     ULONG hcd_param1, ULONG hcd_param2)
ARM GAS  C:\Users\Dennis\AppData\Local\Temp\ccSU4WmE.s 			page 3


  87:./Middlewares/ST/usbx/common/core/src/ux_host_stack_hcd_unregister.c **** {
  30              		.loc 1 87 1 view -0
  31              		.cfi_startproc
  32              		@ args = 0, pretend = 0, frame = 8
  33              		@ frame_needed = 0, uses_anonymous_args = 0
  34              		.loc 1 87 1 is_stmt 0 view .LVU1
  35 0000 2DE9F043 		push	{r4, r5, r6, r7, r8, r9, lr}
  36              	.LCFI0:
  37              		.cfi_def_cfa_offset 28
  38              		.cfi_offset 4, -28
  39              		.cfi_offset 5, -24
  40              		.cfi_offset 6, -20
  41              		.cfi_offset 7, -16
  42              		.cfi_offset 8, -12
  43              		.cfi_offset 9, -8
  44              		.cfi_offset 14, -4
  45 0004 83B0     		sub	sp, sp, #12
  46              	.LCFI1:
  47              		.cfi_def_cfa_offset 40
  48 0006 8146     		mov	r9, r0
  49 0008 0E46     		mov	r6, r1
  50 000a 1746     		mov	r7, r2
  88:./Middlewares/ST/usbx/common/core/src/ux_host_stack_hcd_unregister.c **** 
  89:./Middlewares/ST/usbx/common/core/src/ux_host_stack_hcd_unregister.c **** UINT        status;
  51              		.loc 1 89 1 is_stmt 1 view .LVU2
  90:./Middlewares/ST/usbx/common/core/src/ux_host_stack_hcd_unregister.c **** UX_DEVICE   *device;
  52              		.loc 1 90 1 view .LVU3
  91:./Middlewares/ST/usbx/common/core/src/ux_host_stack_hcd_unregister.c **** UX_HCD      *hcd;
  53              		.loc 1 91 1 view .LVU4
  92:./Middlewares/ST/usbx/common/core/src/ux_host_stack_hcd_unregister.c **** #if UX_MAX_CLASS_DRIVER > 1 || UX_MAX_DEVICES > 1
  93:./Middlewares/ST/usbx/common/core/src/ux_host_stack_hcd_unregister.c **** ULONG       scan_index;
  54              		.loc 1 93 1 view .LVU5
  94:./Middlewares/ST/usbx/common/core/src/ux_host_stack_hcd_unregister.c **** #endif
  95:./Middlewares/ST/usbx/common/core/src/ux_host_stack_hcd_unregister.c **** #if !defined(UX_NAME_REFERENCED_BY_POINTER)
  96:./Middlewares/ST/usbx/common/core/src/ux_host_stack_hcd_unregister.c **** UINT        hcd_name_length =  0;
  55              		.loc 1 96 1 view .LVU6
  56              		.loc 1 96 13 is_stmt 0 view .LVU7
  57 000c 0023     		movs	r3, #0
  58 000e 0193     		str	r3, [sp, #4]
  97:./Middlewares/ST/usbx/common/core/src/ux_host_stack_hcd_unregister.c **** #endif
  98:./Middlewares/ST/usbx/common/core/src/ux_host_stack_hcd_unregister.c **** 
  99:./Middlewares/ST/usbx/common/core/src/ux_host_stack_hcd_unregister.c **** 
 100:./Middlewares/ST/usbx/common/core/src/ux_host_stack_hcd_unregister.c ****     /* If trace is enabled, insert this event into the trace buffer.  */
 101:./Middlewares/ST/usbx/common/core/src/ux_host_stack_hcd_unregister.c ****     UX_TRACE_IN_LINE_INSERT(UX_TRACE_HOST_STACK_HCD_UNREGISTER, hcd_name, hcd_param1, hcd_param2, 0
 102:./Middlewares/ST/usbx/common/core/src/ux_host_stack_hcd_unregister.c **** 
 103:./Middlewares/ST/usbx/common/core/src/ux_host_stack_hcd_unregister.c **** #if !defined(UX_NAME_REFERENCED_BY_POINTER)
 104:./Middlewares/ST/usbx/common/core/src/ux_host_stack_hcd_unregister.c ****     /* Get the length of the class name (exclude null-terminator).  */
 105:./Middlewares/ST/usbx/common/core/src/ux_host_stack_hcd_unregister.c ****     status =  _ux_utility_string_length_check(hcd_name,
  59              		.loc 1 105 5 is_stmt 1 view .LVU8
  60              		.loc 1 105 15 is_stmt 0 view .LVU9
  61 0010 3F22     		movs	r2, #63
  62              	.LVL1:
  63              		.loc 1 105 15 view .LVU10
  64 0012 01A9     		add	r1, sp, #4
  65              	.LVL2:
  66              		.loc 1 105 15 view .LVU11
  67 0014 FFF7FEFF 		bl	_ux_utility_string_length_check
ARM GAS  C:\Users\Dennis\AppData\Local\Temp\ccSU4WmE.s 			page 4


  68              	.LVL3:
 106:./Middlewares/ST/usbx/common/core/src/ux_host_stack_hcd_unregister.c ****                                     &hcd_name_length, UX_MAX_HCD_NAME_LENGTH);
 107:./Middlewares/ST/usbx/common/core/src/ux_host_stack_hcd_unregister.c ****     if (status)
  69              		.loc 1 107 5 is_stmt 1 view .LVU12
  70              		.loc 1 107 8 is_stmt 0 view .LVU13
  71 0018 8046     		mov	r8, r0
  72 001a 0028     		cmp	r0, #0
  73 001c 4ED1     		bne	.L1
 108:./Middlewares/ST/usbx/common/core/src/ux_host_stack_hcd_unregister.c ****         return(status);
 109:./Middlewares/ST/usbx/common/core/src/ux_host_stack_hcd_unregister.c **** #endif
 110:./Middlewares/ST/usbx/common/core/src/ux_host_stack_hcd_unregister.c **** 
 111:./Middlewares/ST/usbx/common/core/src/ux_host_stack_hcd_unregister.c ****     /* Get first HCD.  */
 112:./Middlewares/ST/usbx/common/core/src/ux_host_stack_hcd_unregister.c ****     hcd =  _ux_system_host -> ux_system_host_hcd_array;
  74              		.loc 1 112 5 is_stmt 1 view .LVU14
  75              		.loc 1 112 28 is_stmt 0 view .LVU15
  76 001e 2B4B     		ldr	r3, .L13
  77 0020 1B68     		ldr	r3, [r3]
  78              		.loc 1 112 9 view .LVU16
  79 0022 1C69     		ldr	r4, [r3, #16]
  80              	.LVL4:
 113:./Middlewares/ST/usbx/common/core/src/ux_host_stack_hcd_unregister.c **** 
 114:./Middlewares/ST/usbx/common/core/src/ux_host_stack_hcd_unregister.c ****     /* Default to not found status.  */
 115:./Middlewares/ST/usbx/common/core/src/ux_host_stack_hcd_unregister.c ****     status = UX_FALSE;
  81              		.loc 1 115 5 is_stmt 1 view .LVU17
 116:./Middlewares/ST/usbx/common/core/src/ux_host_stack_hcd_unregister.c **** 
 117:./Middlewares/ST/usbx/common/core/src/ux_host_stack_hcd_unregister.c **** #if UX_MAX_CLASS_DRIVER > 1
 118:./Middlewares/ST/usbx/common/core/src/ux_host_stack_hcd_unregister.c ****     /* We need to parse the controller driver table to find an empty spot.  */
 119:./Middlewares/ST/usbx/common/core/src/ux_host_stack_hcd_unregister.c ****     for (scan_index = 0;
  82              		.loc 1 119 5 view .LVU18
  83              		.loc 1 119 21 is_stmt 0 view .LVU19
  84 0024 0546     		mov	r5, r0
 115:./Middlewares/ST/usbx/common/core/src/ux_host_stack_hcd_unregister.c **** 
  85              		.loc 1 115 12 view .LVU20
  86 0026 0246     		mov	r2, r0
  87              		.loc 1 119 5 view .LVU21
  88 0028 01E0     		b	.L3
  89              	.LVL5:
  90              	.L4:
 120:./Middlewares/ST/usbx/common/core/src/ux_host_stack_hcd_unregister.c ****          scan_index < UX_SYSTEM_HOST_MAX_HCD_GET();
 121:./Middlewares/ST/usbx/common/core/src/ux_host_stack_hcd_unregister.c ****          scan_index++)
 122:./Middlewares/ST/usbx/common/core/src/ux_host_stack_hcd_unregister.c ****     {
 123:./Middlewares/ST/usbx/common/core/src/ux_host_stack_hcd_unregister.c **** #endif
 124:./Middlewares/ST/usbx/common/core/src/ux_host_stack_hcd_unregister.c **** 
 125:./Middlewares/ST/usbx/common/core/src/ux_host_stack_hcd_unregister.c ****         /* Is this slot available and saved hcd_parameters match?  */
 126:./Middlewares/ST/usbx/common/core/src/ux_host_stack_hcd_unregister.c ****         if (hcd -> ux_hcd_status != UX_UNUSED &&
 127:./Middlewares/ST/usbx/common/core/src/ux_host_stack_hcd_unregister.c ****             hcd -> ux_hcd_io == hcd_param1 &&
 128:./Middlewares/ST/usbx/common/core/src/ux_host_stack_hcd_unregister.c ****             hcd -> ux_hcd_irq == hcd_param2)
 129:./Middlewares/ST/usbx/common/core/src/ux_host_stack_hcd_unregister.c ****         {
 130:./Middlewares/ST/usbx/common/core/src/ux_host_stack_hcd_unregister.c **** 
 131:./Middlewares/ST/usbx/common/core/src/ux_host_stack_hcd_unregister.c **** 
 132:./Middlewares/ST/usbx/common/core/src/ux_host_stack_hcd_unregister.c ****             /* Yes, compare the name (with null terminator).  */
 133:./Middlewares/ST/usbx/common/core/src/ux_host_stack_hcd_unregister.c ****             status = ux_utility_name_match(hcd -> ux_hcd_name,
 134:./Middlewares/ST/usbx/common/core/src/ux_host_stack_hcd_unregister.c ****                                             hcd_name, hcd_name_length + 1);
 135:./Middlewares/ST/usbx/common/core/src/ux_host_stack_hcd_unregister.c **** #if UX_MAX_CLASS_DRIVER > 1
 136:./Middlewares/ST/usbx/common/core/src/ux_host_stack_hcd_unregister.c **** 
 137:./Middlewares/ST/usbx/common/core/src/ux_host_stack_hcd_unregister.c ****             /* Break if name match (found HCD).  */
 138:./Middlewares/ST/usbx/common/core/src/ux_host_stack_hcd_unregister.c ****             if (status == UX_TRUE)
ARM GAS  C:\Users\Dennis\AppData\Local\Temp\ccSU4WmE.s 			page 5


 139:./Middlewares/ST/usbx/common/core/src/ux_host_stack_hcd_unregister.c ****                 break;
 140:./Middlewares/ST/usbx/common/core/src/ux_host_stack_hcd_unregister.c **** #endif
 141:./Middlewares/ST/usbx/common/core/src/ux_host_stack_hcd_unregister.c ****             }
 142:./Middlewares/ST/usbx/common/core/src/ux_host_stack_hcd_unregister.c **** 
 143:./Middlewares/ST/usbx/common/core/src/ux_host_stack_hcd_unregister.c **** #if UX_MAX_CLASS_DRIVER > 1
 144:./Middlewares/ST/usbx/common/core/src/ux_host_stack_hcd_unregister.c ****         /* Try the next HCD structure */
 145:./Middlewares/ST/usbx/common/core/src/ux_host_stack_hcd_unregister.c ****         hcd ++;
  91              		.loc 1 145 9 is_stmt 1 view .LVU22
  92              		.loc 1 145 13 is_stmt 0 view .LVU23
  93 002a 9434     		adds	r4, r4, #148
  94              	.LVL6:
 121:./Middlewares/ST/usbx/common/core/src/ux_host_stack_hcd_unregister.c ****     {
  95              		.loc 1 121 10 is_stmt 1 view .LVU24
 121:./Middlewares/ST/usbx/common/core/src/ux_host_stack_hcd_unregister.c ****     {
  96              		.loc 1 121 20 is_stmt 0 view .LVU25
  97 002c 0135     		adds	r5, r5, #1
  98              	.LVL7:
  99              	.L3:
 120:./Middlewares/ST/usbx/common/core/src/ux_host_stack_hcd_unregister.c ****          scan_index < UX_SYSTEM_HOST_MAX_HCD_GET();
 100              		.loc 1 120 10 is_stmt 1 discriminator 1 view .LVU26
 120:./Middlewares/ST/usbx/common/core/src/ux_host_stack_hcd_unregister.c ****          scan_index < UX_SYSTEM_HOST_MAX_HCD_GET();
 101              		.loc 1 120 23 is_stmt 0 discriminator 1 view .LVU27
 102 002e 274B     		ldr	r3, .L13
 103 0030 1B68     		ldr	r3, [r3]
 104 0032 9B68     		ldr	r3, [r3, #8]
 119:./Middlewares/ST/usbx/common/core/src/ux_host_stack_hcd_unregister.c ****          scan_index < UX_SYSTEM_HOST_MAX_HCD_GET();
 105              		.loc 1 119 5 discriminator 1 view .LVU28
 106 0034 AB42     		cmp	r3, r5
 107 0036 13D9     		bls	.L5
 126:./Middlewares/ST/usbx/common/core/src/ux_host_stack_hcd_unregister.c ****             hcd -> ux_hcd_io == hcd_param1 &&
 108              		.loc 1 126 9 is_stmt 1 view .LVU29
 126:./Middlewares/ST/usbx/common/core/src/ux_host_stack_hcd_unregister.c ****             hcd -> ux_hcd_io == hcd_param1 &&
 109              		.loc 1 126 17 is_stmt 0 view .LVU30
 110 0038 236C     		ldr	r3, [r4, #64]
 126:./Middlewares/ST/usbx/common/core/src/ux_host_stack_hcd_unregister.c ****             hcd -> ux_hcd_io == hcd_param1 &&
 111              		.loc 1 126 12 view .LVU31
 112 003a 002B     		cmp	r3, #0
 113 003c F5D0     		beq	.L4
 127:./Middlewares/ST/usbx/common/core/src/ux_host_stack_hcd_unregister.c ****             hcd -> ux_hcd_irq == hcd_param2)
 114              		.loc 1 127 17 discriminator 1 view .LVU32
 115 003e E36E     		ldr	r3, [r4, #108]
 126:./Middlewares/ST/usbx/common/core/src/ux_host_stack_hcd_unregister.c ****             hcd -> ux_hcd_io == hcd_param1 &&
 116              		.loc 1 126 47 discriminator 1 view .LVU33
 117 0040 B342     		cmp	r3, r6
 118 0042 F2D1     		bne	.L4
 128:./Middlewares/ST/usbx/common/core/src/ux_host_stack_hcd_unregister.c ****         {
 119              		.loc 1 128 17 view .LVU34
 120 0044 A36C     		ldr	r3, [r4, #72]
 127:./Middlewares/ST/usbx/common/core/src/ux_host_stack_hcd_unregister.c ****             hcd -> ux_hcd_irq == hcd_param2)
 121              		.loc 1 127 44 view .LVU35
 122 0046 BB42     		cmp	r3, r7
 123 0048 EFD1     		bne	.L4
 133:./Middlewares/ST/usbx/common/core/src/ux_host_stack_hcd_unregister.c ****                                             hcd_name, hcd_name_length + 1);
 124              		.loc 1 133 13 is_stmt 1 view .LVU36
 133:./Middlewares/ST/usbx/common/core/src/ux_host_stack_hcd_unregister.c ****                                             hcd_name, hcd_name_length + 1);
 125              		.loc 1 133 22 is_stmt 0 view .LVU37
 126 004a 019A     		ldr	r2, [sp, #4]
ARM GAS  C:\Users\Dennis\AppData\Local\Temp\ccSU4WmE.s 			page 6


 127              	.LVL8:
 133:./Middlewares/ST/usbx/common/core/src/ux_host_stack_hcd_unregister.c ****                                             hcd_name, hcd_name_length + 1);
 128              		.loc 1 133 22 view .LVU38
 129 004c 0132     		adds	r2, r2, #1
 130 004e 4946     		mov	r1, r9
 131 0050 2046     		mov	r0, r4
 132 0052 FFF7FEFF 		bl	_ux_utility_memory_compare
 133              	.LVL9:
 134 0056 0028     		cmp	r0, #0
 135 0058 0CBF     		ite	eq
 136 005a 0122     		moveq	r2, #1
 137 005c 0022     		movne	r2, #0
 138              	.LVL10:
 138:./Middlewares/ST/usbx/common/core/src/ux_host_stack_hcd_unregister.c ****                 break;
 139              		.loc 1 138 13 is_stmt 1 view .LVU39
 138:./Middlewares/ST/usbx/common/core/src/ux_host_stack_hcd_unregister.c ****                 break;
 140              		.loc 1 138 16 is_stmt 0 view .LVU40
 141 005e E4D1     		bne	.L4
 142              	.L5:
 146:./Middlewares/ST/usbx/common/core/src/ux_host_stack_hcd_unregister.c ****     }
 147:./Middlewares/ST/usbx/common/core/src/ux_host_stack_hcd_unregister.c **** #endif
 148:./Middlewares/ST/usbx/common/core/src/ux_host_stack_hcd_unregister.c **** 
 149:./Middlewares/ST/usbx/common/core/src/ux_host_stack_hcd_unregister.c ****     /* No valid HCD found.  */
 150:./Middlewares/ST/usbx/common/core/src/ux_host_stack_hcd_unregister.c ****     if (status != UX_TRUE)
 143              		.loc 1 150 5 is_stmt 1 view .LVU41
 144              		.loc 1 150 8 is_stmt 0 view .LVU42
 145 0060 012A     		cmp	r2, #1
 146 0062 2FD1     		bne	.L10
 151:./Middlewares/ST/usbx/common/core/src/ux_host_stack_hcd_unregister.c ****         return(UX_ERROR);
 152:./Middlewares/ST/usbx/common/core/src/ux_host_stack_hcd_unregister.c **** 
 153:./Middlewares/ST/usbx/common/core/src/ux_host_stack_hcd_unregister.c ****     /* Now disable controller.  */
 154:./Middlewares/ST/usbx/common/core/src/ux_host_stack_hcd_unregister.c ****     hcd -> ux_hcd_entry_function(hcd, UX_HCD_UNINITIALIZE, UX_NULL);
 147              		.loc 1 154 5 is_stmt 1 view .LVU43
 148              		.loc 1 154 9 is_stmt 0 view .LVU44
 149 0064 236F     		ldr	r3, [r4, #112]
 150              		.loc 1 154 5 view .LVU45
 151 0066 0022     		movs	r2, #0
 152              	.LVL11:
 153              		.loc 1 154 5 view .LVU46
 154 0068 1221     		movs	r1, #18
 155 006a 2046     		mov	r0, r4
 156 006c 9847     		blx	r3
 157              	.LVL12:
 155:./Middlewares/ST/usbx/common/core/src/ux_host_stack_hcd_unregister.c **** 
 156:./Middlewares/ST/usbx/common/core/src/ux_host_stack_hcd_unregister.c ****     /* Get first device.  */
 157:./Middlewares/ST/usbx/common/core/src/ux_host_stack_hcd_unregister.c ****     device = _ux_system_host -> ux_system_host_device_array;
 158              		.loc 1 157 5 is_stmt 1 view .LVU47
 159              		.loc 1 157 30 is_stmt 0 view .LVU48
 160 006e 174B     		ldr	r3, .L13
 161 0070 1B68     		ldr	r3, [r3]
 162              		.loc 1 157 12 view .LVU49
 163 0072 9D69     		ldr	r5, [r3, #24]
 164              	.LVL13:
 158:./Middlewares/ST/usbx/common/core/src/ux_host_stack_hcd_unregister.c **** 
 159:./Middlewares/ST/usbx/common/core/src/ux_host_stack_hcd_unregister.c **** #if UX_MAX_DEVICES > 1
 160:./Middlewares/ST/usbx/common/core/src/ux_host_stack_hcd_unregister.c ****     /* Remove all devices connected to the controller.  */
 161:./Middlewares/ST/usbx/common/core/src/ux_host_stack_hcd_unregister.c ****     for (scan_index = 0;
ARM GAS  C:\Users\Dennis\AppData\Local\Temp\ccSU4WmE.s 			page 7


 165              		.loc 1 161 5 is_stmt 1 view .LVU50
 166              		.loc 1 161 21 is_stmt 0 view .LVU51
 167 0074 4646     		mov	r6, r8
 168              	.LVL14:
 169              		.loc 1 161 5 view .LVU52
 170 0076 02E0     		b	.L7
 171              	.LVL15:
 172              	.L8:
 162:./Middlewares/ST/usbx/common/core/src/ux_host_stack_hcd_unregister.c ****          scan_index < _ux_system_host -> ux_system_host_max_devices;
 163:./Middlewares/ST/usbx/common/core/src/ux_host_stack_hcd_unregister.c ****          scan_index ++)
 164:./Middlewares/ST/usbx/common/core/src/ux_host_stack_hcd_unregister.c ****     {
 165:./Middlewares/ST/usbx/common/core/src/ux_host_stack_hcd_unregister.c **** #else
 166:./Middlewares/ST/usbx/common/core/src/ux_host_stack_hcd_unregister.c **** 
 167:./Middlewares/ST/usbx/common/core/src/ux_host_stack_hcd_unregister.c ****         /* No device.  */
 168:./Middlewares/ST/usbx/common/core/src/ux_host_stack_hcd_unregister.c ****         if (device -> ux_device_handle == UX_UNUSED)
 169:./Middlewares/ST/usbx/common/core/src/ux_host_stack_hcd_unregister.c ****             return(UX_SUCCESS);
 170:./Middlewares/ST/usbx/common/core/src/ux_host_stack_hcd_unregister.c **** #endif
 171:./Middlewares/ST/usbx/common/core/src/ux_host_stack_hcd_unregister.c **** 
 172:./Middlewares/ST/usbx/common/core/src/ux_host_stack_hcd_unregister.c ****         /* Is this device on the HCD root hub?  */
 173:./Middlewares/ST/usbx/common/core/src/ux_host_stack_hcd_unregister.c ****         if (UX_DEVICE_HCD_MATCH(device, hcd) &&
 174:./Middlewares/ST/usbx/common/core/src/ux_host_stack_hcd_unregister.c ****             UX_DEVICE_PARENT_IS_ROOTHUB(device))
 175:./Middlewares/ST/usbx/common/core/src/ux_host_stack_hcd_unregister.c ****         {
 176:./Middlewares/ST/usbx/common/core/src/ux_host_stack_hcd_unregister.c **** 
 177:./Middlewares/ST/usbx/common/core/src/ux_host_stack_hcd_unregister.c ****             /* Remove the device (and downstream things connected to it).  */
 178:./Middlewares/ST/usbx/common/core/src/ux_host_stack_hcd_unregister.c ****             _ux_host_stack_device_remove(hcd, UX_DEVICE_PARENT_GET(device),
 179:./Middlewares/ST/usbx/common/core/src/ux_host_stack_hcd_unregister.c ****                                          UX_DEVICE_PORT_LOCATION_GET(device));
 180:./Middlewares/ST/usbx/common/core/src/ux_host_stack_hcd_unregister.c **** 
 181:./Middlewares/ST/usbx/common/core/src/ux_host_stack_hcd_unregister.c ****             /* The device has been removed, so the port is free again.  */
 182:./Middlewares/ST/usbx/common/core/src/ux_host_stack_hcd_unregister.c ****             hcd -> ux_hcd_rh_device_connection &= (ULONG)
 183:./Middlewares/ST/usbx/common/core/src/ux_host_stack_hcd_unregister.c ****                                     ~(1 << device -> ux_device_port_location);
 184:./Middlewares/ST/usbx/common/core/src/ux_host_stack_hcd_unregister.c ****         }
 185:./Middlewares/ST/usbx/common/core/src/ux_host_stack_hcd_unregister.c **** 
 186:./Middlewares/ST/usbx/common/core/src/ux_host_stack_hcd_unregister.c **** #if UX_MAX_DEVICES > 1
 187:./Middlewares/ST/usbx/common/core/src/ux_host_stack_hcd_unregister.c **** 
 188:./Middlewares/ST/usbx/common/core/src/ux_host_stack_hcd_unregister.c ****         /* Try the next device.  */
 189:./Middlewares/ST/usbx/common/core/src/ux_host_stack_hcd_unregister.c ****         device ++;
 173              		.loc 1 189 9 is_stmt 1 view .LVU53
 174              		.loc 1 189 16 is_stmt 0 view .LVU54
 175 0078 05F5B075 		add	r5, r5, #352
 176              	.LVL16:
 163:./Middlewares/ST/usbx/common/core/src/ux_host_stack_hcd_unregister.c ****     {
 177              		.loc 1 163 10 is_stmt 1 view .LVU55
 163:./Middlewares/ST/usbx/common/core/src/ux_host_stack_hcd_unregister.c ****     {
 178              		.loc 1 163 21 is_stmt 0 view .LVU56
 179 007c 0136     		adds	r6, r6, #1
 180              	.LVL17:
 181              	.L7:
 162:./Middlewares/ST/usbx/common/core/src/ux_host_stack_hcd_unregister.c ****          scan_index < _ux_system_host -> ux_system_host_max_devices;
 182              		.loc 1 162 10 is_stmt 1 discriminator 1 view .LVU57
 162:./Middlewares/ST/usbx/common/core/src/ux_host_stack_hcd_unregister.c ****          scan_index < _ux_system_host -> ux_system_host_max_devices;
 183              		.loc 1 162 39 is_stmt 0 discriminator 1 view .LVU58
 184 007e 134B     		ldr	r3, .L13
 185 0080 1B68     		ldr	r3, [r3]
 186 0082 5A69     		ldr	r2, [r3, #20]
 161:./Middlewares/ST/usbx/common/core/src/ux_host_stack_hcd_unregister.c ****          scan_index < _ux_system_host -> ux_system_host_max_devices;
 187              		.loc 1 161 5 discriminator 1 view .LVU59
 188 0084 B242     		cmp	r2, r6
ARM GAS  C:\Users\Dennis\AppData\Local\Temp\ccSU4WmE.s 			page 8


 189 0086 16D9     		bls	.L12
 173:./Middlewares/ST/usbx/common/core/src/ux_host_stack_hcd_unregister.c ****             UX_DEVICE_PARENT_IS_ROOTHUB(device))
 190              		.loc 1 173 9 is_stmt 1 view .LVU60
 173:./Middlewares/ST/usbx/common/core/src/ux_host_stack_hcd_unregister.c ****             UX_DEVICE_PARENT_IS_ROOTHUB(device))
 191              		.loc 1 173 13 is_stmt 0 view .LVU61
 192 0088 D5F81431 		ldr	r3, [r5, #276]
 173:./Middlewares/ST/usbx/common/core/src/ux_host_stack_hcd_unregister.c ****             UX_DEVICE_PARENT_IS_ROOTHUB(device))
 193              		.loc 1 173 12 view .LVU62
 194 008c A342     		cmp	r3, r4
 195 008e F3D1     		bne	.L8
 174:./Middlewares/ST/usbx/common/core/src/ux_host_stack_hcd_unregister.c ****         {
 196              		.loc 1 174 13 discriminator 1 view .LVU63
 197 0090 D5F81811 		ldr	r1, [r5, #280]
 173:./Middlewares/ST/usbx/common/core/src/ux_host_stack_hcd_unregister.c ****             UX_DEVICE_PARENT_IS_ROOTHUB(device))
 198              		.loc 1 173 46 discriminator 1 view .LVU64
 199 0094 0029     		cmp	r1, #0
 200 0096 EFD1     		bne	.L8
 178:./Middlewares/ST/usbx/common/core/src/ux_host_stack_hcd_unregister.c ****                                          UX_DEVICE_PORT_LOCATION_GET(device));
 201              		.loc 1 178 13 is_stmt 1 view .LVU65
 202 0098 D5F81021 		ldr	r2, [r5, #272]
 203 009c 2046     		mov	r0, r4
 204 009e FFF7FEFF 		bl	_ux_host_stack_device_remove
 205              	.LVL18:
 182:./Middlewares/ST/usbx/common/core/src/ux_host_stack_hcd_unregister.c ****                                     ~(1 << device -> ux_device_port_location);
 206              		.loc 1 182 13 view .LVU66
 183:./Middlewares/ST/usbx/common/core/src/ux_host_stack_hcd_unregister.c ****         }
 207              		.loc 1 183 51 is_stmt 0 view .LVU67
 208 00a2 D5F81021 		ldr	r2, [r5, #272]
 183:./Middlewares/ST/usbx/common/core/src/ux_host_stack_hcd_unregister.c ****         }
 209              		.loc 1 183 41 view .LVU68
 210 00a6 0123     		movs	r3, #1
 211 00a8 03FA02F2 		lsl	r2, r3, r2
 182:./Middlewares/ST/usbx/common/core/src/ux_host_stack_hcd_unregister.c ****                                     ~(1 << device -> ux_device_port_location);
 212              		.loc 1 182 48 view .LVU69
 213 00ac A36E     		ldr	r3, [r4, #104]
 214 00ae 23EA0203 		bic	r3, r3, r2
 215 00b2 A366     		str	r3, [r4, #104]
 216 00b4 E0E7     		b	.L8
 217              	.L12:
 190:./Middlewares/ST/usbx/common/core/src/ux_host_stack_hcd_unregister.c ****     }
 191:./Middlewares/ST/usbx/common/core/src/ux_host_stack_hcd_unregister.c **** #endif
 192:./Middlewares/ST/usbx/common/core/src/ux_host_stack_hcd_unregister.c **** 
 193:./Middlewares/ST/usbx/common/core/src/ux_host_stack_hcd_unregister.c ****     /* And we have one new controller unregistered.  */
 194:./Middlewares/ST/usbx/common/core/src/ux_host_stack_hcd_unregister.c ****     _ux_system_host -> ux_system_host_registered_hcd --;
 218              		.loc 1 194 5 is_stmt 1 view .LVU70
 219              		.loc 1 194 21 is_stmt 0 view .LVU71
 220 00b6 DA68     		ldr	r2, [r3, #12]
 221              		.loc 1 194 54 view .LVU72
 222 00b8 013A     		subs	r2, r2, #1
 223 00ba DA60     		str	r2, [r3, #12]
 195:./Middlewares/ST/usbx/common/core/src/ux_host_stack_hcd_unregister.c **** 
 196:./Middlewares/ST/usbx/common/core/src/ux_host_stack_hcd_unregister.c ****     return(UX_SUCCESS);
 224              		.loc 1 196 5 is_stmt 1 view .LVU73
 225              	.LVL19:
 226              	.L1:
 197:./Middlewares/ST/usbx/common/core/src/ux_host_stack_hcd_unregister.c **** }
 227              		.loc 1 197 1 is_stmt 0 view .LVU74
ARM GAS  C:\Users\Dennis\AppData\Local\Temp\ccSU4WmE.s 			page 9


 228 00bc 4046     		mov	r0, r8
 229 00be 03B0     		add	sp, sp, #12
 230              	.LCFI2:
 231              		.cfi_remember_state
 232              		.cfi_def_cfa_offset 28
 233              		@ sp needed
 234 00c0 BDE8F083 		pop	{r4, r5, r6, r7, r8, r9, pc}
 235              	.LVL20:
 236              	.L10:
 237              	.LCFI3:
 238              		.cfi_restore_state
 151:./Middlewares/ST/usbx/common/core/src/ux_host_stack_hcd_unregister.c **** 
 239              		.loc 1 151 15 view .LVU75
 240 00c4 4FF0FF08 		mov	r8, #255
 241 00c8 F8E7     		b	.L1
 242              	.L14:
 243 00ca 00BF     		.align	2
 244              	.L13:
 245 00cc 00000000 		.word	_ux_system_host
 246              		.cfi_endproc
 247              	.LFE11:
 249              		.text
 250              	.Letext0:
 251              		.file 2 "./Middlewares/ST/threadx/ports/cortex_m4/gnu/inc/tx_port.h"
 252              		.file 3 "./Middlewares/ST/threadx/common/inc/tx_api.h"
 253              		.file 4 "./Middlewares/ST/usbx/common/core/inc/ux_api.h"
 254              		.file 5 "./Middlewares/ST/usbx/common/core/inc/ux_system.h"
 255              		.file 6 "./Middlewares/ST/usbx/common/core/inc/ux_utility.h"
 256              		.file 7 "./Middlewares/ST/usbx/common/core/inc/ux_host_stack.h"
ARM GAS  C:\Users\Dennis\AppData\Local\Temp\ccSU4WmE.s 			page 10

