ARM GAS  C:\Users\Dennis\AppData\Local\Temp\ccoiTzyz.s 			page 1


   1              		.cpu cortex-m4
   2              		.arch armv7e-m
   3              		.fpu fpv4-sp-d16
   4              		.eabi_attribute 27, 1
   5              		.eabi_attribute 28, 1
   6              		.eabi_attribute 20, 1
   7              		.eabi_attribute 21, 1
   8              		.eabi_attribute 23, 3
   9              		.eabi_attribute 24, 1
  10              		.eabi_attribute 25, 1
  11              		.eabi_attribute 26, 1
  12              		.eabi_attribute 30, 1
  13              		.eabi_attribute 34, 1
  14              		.eabi_attribute 18, 4
  15              		.file	"ux_host_stack_device_string_get.c"
  16              		.text
  17              	.Ltext0:
  18              		.cfi_sections	.debug_frame
  19              		.section	.text._ux_host_stack_device_string_get,"ax",%progbits
  20              		.align	1
  21              		.global	_ux_host_stack_device_string_get
  22              		.syntax unified
  23              		.thumb
  24              		.thumb_func
  26              	_ux_host_stack_device_string_get:
  27              	.LVL0:
  28              	.LFB11:
  29              		.file 1 "./Middlewares/ST/usbx/common/core/src/ux_host_stack_device_string_get.c"
   1:./Middlewares/ST/usbx/common/core/src/ux_host_stack_device_string_get.c **** /**************************************************************************/
   2:./Middlewares/ST/usbx/common/core/src/ux_host_stack_device_string_get.c **** /*                                                                        */
   3:./Middlewares/ST/usbx/common/core/src/ux_host_stack_device_string_get.c **** /*       Copyright (c) Microsoft Corporation. All rights reserved.        */
   4:./Middlewares/ST/usbx/common/core/src/ux_host_stack_device_string_get.c **** /*                                                                        */
   5:./Middlewares/ST/usbx/common/core/src/ux_host_stack_device_string_get.c **** /*       This software is licensed under the Microsoft Software License   */
   6:./Middlewares/ST/usbx/common/core/src/ux_host_stack_device_string_get.c **** /*       Terms for Microsoft Azure RTOS. Full text of the license can be  */
   7:./Middlewares/ST/usbx/common/core/src/ux_host_stack_device_string_get.c **** /*       found in the LICENSE file at https://aka.ms/AzureRTOS_EULA       */
   8:./Middlewares/ST/usbx/common/core/src/ux_host_stack_device_string_get.c **** /*       and in the root directory of this software.                      */
   9:./Middlewares/ST/usbx/common/core/src/ux_host_stack_device_string_get.c **** /*                                                                        */
  10:./Middlewares/ST/usbx/common/core/src/ux_host_stack_device_string_get.c **** /**************************************************************************/
  11:./Middlewares/ST/usbx/common/core/src/ux_host_stack_device_string_get.c **** 
  12:./Middlewares/ST/usbx/common/core/src/ux_host_stack_device_string_get.c **** 
  13:./Middlewares/ST/usbx/common/core/src/ux_host_stack_device_string_get.c **** /**************************************************************************/
  14:./Middlewares/ST/usbx/common/core/src/ux_host_stack_device_string_get.c **** /**************************************************************************/
  15:./Middlewares/ST/usbx/common/core/src/ux_host_stack_device_string_get.c **** /**                                                                       */
  16:./Middlewares/ST/usbx/common/core/src/ux_host_stack_device_string_get.c **** /** USBX Component                                                        */
  17:./Middlewares/ST/usbx/common/core/src/ux_host_stack_device_string_get.c **** /**                                                                       */
  18:./Middlewares/ST/usbx/common/core/src/ux_host_stack_device_string_get.c **** /**   Host Stack                                                          */
  19:./Middlewares/ST/usbx/common/core/src/ux_host_stack_device_string_get.c **** /**                                                                       */
  20:./Middlewares/ST/usbx/common/core/src/ux_host_stack_device_string_get.c **** /**************************************************************************/
  21:./Middlewares/ST/usbx/common/core/src/ux_host_stack_device_string_get.c **** /**************************************************************************/
  22:./Middlewares/ST/usbx/common/core/src/ux_host_stack_device_string_get.c **** 
  23:./Middlewares/ST/usbx/common/core/src/ux_host_stack_device_string_get.c **** 
  24:./Middlewares/ST/usbx/common/core/src/ux_host_stack_device_string_get.c **** /* Include necessary system files.  */
  25:./Middlewares/ST/usbx/common/core/src/ux_host_stack_device_string_get.c **** 
  26:./Middlewares/ST/usbx/common/core/src/ux_host_stack_device_string_get.c **** #define UX_SOURCE_CODE
  27:./Middlewares/ST/usbx/common/core/src/ux_host_stack_device_string_get.c **** 
  28:./Middlewares/ST/usbx/common/core/src/ux_host_stack_device_string_get.c **** #include "ux_api.h"
  29:./Middlewares/ST/usbx/common/core/src/ux_host_stack_device_string_get.c **** #include "ux_host_stack.h"
ARM GAS  C:\Users\Dennis\AppData\Local\Temp\ccoiTzyz.s 			page 2


  30:./Middlewares/ST/usbx/common/core/src/ux_host_stack_device_string_get.c **** 
  31:./Middlewares/ST/usbx/common/core/src/ux_host_stack_device_string_get.c **** 
  32:./Middlewares/ST/usbx/common/core/src/ux_host_stack_device_string_get.c **** /**************************************************************************/
  33:./Middlewares/ST/usbx/common/core/src/ux_host_stack_device_string_get.c **** /*                                                                        */
  34:./Middlewares/ST/usbx/common/core/src/ux_host_stack_device_string_get.c **** /*  FUNCTION                                               RELEASE        */
  35:./Middlewares/ST/usbx/common/core/src/ux_host_stack_device_string_get.c **** /*                                                                        */
  36:./Middlewares/ST/usbx/common/core/src/ux_host_stack_device_string_get.c **** /*    _ux_host_stack_device_string_get                    PORTABLE C      */
  37:./Middlewares/ST/usbx/common/core/src/ux_host_stack_device_string_get.c **** /*                                                           6.1.10       */
  38:./Middlewares/ST/usbx/common/core/src/ux_host_stack_device_string_get.c **** /*  AUTHOR                                                                */
  39:./Middlewares/ST/usbx/common/core/src/ux_host_stack_device_string_get.c **** /*                                                                        */
  40:./Middlewares/ST/usbx/common/core/src/ux_host_stack_device_string_get.c **** /*    Chaoqiong Xiao, Microsoft Corporation                               */
  41:./Middlewares/ST/usbx/common/core/src/ux_host_stack_device_string_get.c **** /*                                                                        */
  42:./Middlewares/ST/usbx/common/core/src/ux_host_stack_device_string_get.c **** /*  DESCRIPTION                                                           */
  43:./Middlewares/ST/usbx/common/core/src/ux_host_stack_device_string_get.c **** /*                                                                        */
  44:./Middlewares/ST/usbx/common/core/src/ux_host_stack_device_string_get.c **** /*    This function obtains the device string descriptor.                 */
  45:./Middlewares/ST/usbx/common/core/src/ux_host_stack_device_string_get.c **** /*                                                                        */
  46:./Middlewares/ST/usbx/common/core/src/ux_host_stack_device_string_get.c **** /*  INPUT                                                                 */
  47:./Middlewares/ST/usbx/common/core/src/ux_host_stack_device_string_get.c **** /*                                                                        */
  48:./Middlewares/ST/usbx/common/core/src/ux_host_stack_device_string_get.c **** /*    device                                Pointer to device instance    */
  49:./Middlewares/ST/usbx/common/core/src/ux_host_stack_device_string_get.c **** /*    descriptor_buffer                     Pointer to a buffer to fill   */
  50:./Middlewares/ST/usbx/common/core/src/ux_host_stack_device_string_get.c **** /*                                          LANGID or STRING descriptor   */
  51:./Middlewares/ST/usbx/common/core/src/ux_host_stack_device_string_get.c **** /*    length                                Length of buffer              */
  52:./Middlewares/ST/usbx/common/core/src/ux_host_stack_device_string_get.c **** /*    language_id                           0 to obtain LANGID descriptor */
  53:./Middlewares/ST/usbx/common/core/src/ux_host_stack_device_string_get.c **** /*                                          valid language ID to obtain   */
  54:./Middlewares/ST/usbx/common/core/src/ux_host_stack_device_string_get.c **** /*                                          string descriptor             */
  55:./Middlewares/ST/usbx/common/core/src/ux_host_stack_device_string_get.c **** /*    string_index                          Index of the string           */
  56:./Middlewares/ST/usbx/common/core/src/ux_host_stack_device_string_get.c **** /*                                                                        */
  57:./Middlewares/ST/usbx/common/core/src/ux_host_stack_device_string_get.c **** /*  OUTPUT                                                                */
  58:./Middlewares/ST/usbx/common/core/src/ux_host_stack_device_string_get.c **** /*                                                                        */
  59:./Middlewares/ST/usbx/common/core/src/ux_host_stack_device_string_get.c **** /*    Completion Status                                                   */
  60:./Middlewares/ST/usbx/common/core/src/ux_host_stack_device_string_get.c **** /*                                                                        */
  61:./Middlewares/ST/usbx/common/core/src/ux_host_stack_device_string_get.c **** /*  CALLS                                                                 */
  62:./Middlewares/ST/usbx/common/core/src/ux_host_stack_device_string_get.c **** /*                                                                        */
  63:./Middlewares/ST/usbx/common/core/src/ux_host_stack_device_string_get.c **** /*    _ux_host_stack_transfer_request       Process transfer request      */
  64:./Middlewares/ST/usbx/common/core/src/ux_host_stack_device_string_get.c **** /*    _ux_utility_semaphore_get             Get Semaphore                 */
  65:./Middlewares/ST/usbx/common/core/src/ux_host_stack_device_string_get.c **** /*                                                                        */
  66:./Middlewares/ST/usbx/common/core/src/ux_host_stack_device_string_get.c **** /*  CALLED BY                                                             */
  67:./Middlewares/ST/usbx/common/core/src/ux_host_stack_device_string_get.c **** /*                                                                        */
  68:./Middlewares/ST/usbx/common/core/src/ux_host_stack_device_string_get.c **** /*    Application                                                         */
  69:./Middlewares/ST/usbx/common/core/src/ux_host_stack_device_string_get.c **** /*                                                                        */
  70:./Middlewares/ST/usbx/common/core/src/ux_host_stack_device_string_get.c **** /*  RELEASE HISTORY                                                       */
  71:./Middlewares/ST/usbx/common/core/src/ux_host_stack_device_string_get.c **** /*                                                                        */
  72:./Middlewares/ST/usbx/common/core/src/ux_host_stack_device_string_get.c **** /*    DATE              NAME                      DESCRIPTION             */
  73:./Middlewares/ST/usbx/common/core/src/ux_host_stack_device_string_get.c **** /*                                                                        */
  74:./Middlewares/ST/usbx/common/core/src/ux_host_stack_device_string_get.c **** /*  02-02-2021     Chaoqiong Xiao           Initial Version 6.1.4         */
  75:./Middlewares/ST/usbx/common/core/src/ux_host_stack_device_string_get.c **** /*  06-02-2021     Chaoqiong Xiao           Modified comment(s), and      */
  76:./Middlewares/ST/usbx/common/core/src/ux_host_stack_device_string_get.c **** /*                                            removed unnecessary header, */
  77:./Middlewares/ST/usbx/common/core/src/ux_host_stack_device_string_get.c **** /*                                            resulting in version 6.1.7  */
  78:./Middlewares/ST/usbx/common/core/src/ux_host_stack_device_string_get.c **** /*  01-31-2022     Chaoqiong Xiao           Modified comment(s),          */
  79:./Middlewares/ST/usbx/common/core/src/ux_host_stack_device_string_get.c **** /*                                            added standalone support,   */
  80:./Middlewares/ST/usbx/common/core/src/ux_host_stack_device_string_get.c **** /*                                            resulting in version 6.1.10 */
  81:./Middlewares/ST/usbx/common/core/src/ux_host_stack_device_string_get.c **** /*                                                                        */
  82:./Middlewares/ST/usbx/common/core/src/ux_host_stack_device_string_get.c **** /**************************************************************************/
  83:./Middlewares/ST/usbx/common/core/src/ux_host_stack_device_string_get.c **** UINT  _ux_host_stack_device_string_get(UX_DEVICE *device, UCHAR *descriptor_buffer, ULONG length, U
  84:./Middlewares/ST/usbx/common/core/src/ux_host_stack_device_string_get.c **** {
  30              		.loc 1 84 1 view -0
  31              		.cfi_startproc
ARM GAS  C:\Users\Dennis\AppData\Local\Temp\ccoiTzyz.s 			page 3


  32              		@ args = 4, pretend = 0, frame = 0
  33              		@ frame_needed = 0, uses_anonymous_args = 0
  34              		.loc 1 84 1 is_stmt 0 view .LVU1
  35 0000 2DE9F041 		push	{r4, r5, r6, r7, r8, lr}
  36              	.LCFI0:
  37              		.cfi_def_cfa_offset 24
  38              		.cfi_offset 4, -24
  39              		.cfi_offset 5, -20
  40              		.cfi_offset 6, -16
  41              		.cfi_offset 7, -12
  42              		.cfi_offset 8, -8
  43              		.cfi_offset 14, -4
  44 0004 1546     		mov	r5, r2
  85:./Middlewares/ST/usbx/common/core/src/ux_host_stack_device_string_get.c **** #if defined(UX_HOST_STANDALONE)
  86:./Middlewares/ST/usbx/common/core/src/ux_host_stack_device_string_get.c **** UX_INTERRUPT_SAVE_AREA
  87:./Middlewares/ST/usbx/common/core/src/ux_host_stack_device_string_get.c **** #endif
  88:./Middlewares/ST/usbx/common/core/src/ux_host_stack_device_string_get.c **** UX_ENDPOINT     *control_endpoint;
  45              		.loc 1 88 1 is_stmt 1 view .LVU2
  89:./Middlewares/ST/usbx/common/core/src/ux_host_stack_device_string_get.c **** UX_TRANSFER     *transfer_request;
  46              		.loc 1 89 1 view .LVU3
  90:./Middlewares/ST/usbx/common/core/src/ux_host_stack_device_string_get.c **** UINT            status;
  47              		.loc 1 90 1 view .LVU4
  91:./Middlewares/ST/usbx/common/core/src/ux_host_stack_device_string_get.c **** 
  92:./Middlewares/ST/usbx/common/core/src/ux_host_stack_device_string_get.c **** 
  93:./Middlewares/ST/usbx/common/core/src/ux_host_stack_device_string_get.c ****     /* Do a sanity check on the device handle.  */
  94:./Middlewares/ST/usbx/common/core/src/ux_host_stack_device_string_get.c ****     if (device -> ux_device_handle != (ULONG) (ALIGN_TYPE) device)
  48              		.loc 1 94 5 view .LVU5
  49              		.loc 1 94 16 is_stmt 0 view .LVU6
  50 0006 0268     		ldr	r2, [r0]
  51              	.LVL1:
  52              		.loc 1 94 8 view .LVU7
  53 0008 8242     		cmp	r2, r0
  54 000a 20D1     		bne	.L6
  55 000c 0446     		mov	r4, r0
  56 000e 0F46     		mov	r7, r1
  57 0010 1E46     		mov	r6, r3
  95:./Middlewares/ST/usbx/common/core/src/ux_host_stack_device_string_get.c ****     {
  96:./Middlewares/ST/usbx/common/core/src/ux_host_stack_device_string_get.c ****         
  97:./Middlewares/ST/usbx/common/core/src/ux_host_stack_device_string_get.c ****         /* Error trap. */
  98:./Middlewares/ST/usbx/common/core/src/ux_host_stack_device_string_get.c ****         _ux_system_error_handler(UX_SYSTEM_LEVEL_THREAD, UX_SYSTEM_CONTEXT_ENUMERATOR, UX_DEVICE_HA
  99:./Middlewares/ST/usbx/common/core/src/ux_host_stack_device_string_get.c **** 
 100:./Middlewares/ST/usbx/common/core/src/ux_host_stack_device_string_get.c ****         /* If trace is enabled, insert this event into the trace buffer.  */
 101:./Middlewares/ST/usbx/common/core/src/ux_host_stack_device_string_get.c ****         UX_TRACE_IN_LINE_INSERT(UX_TRACE_ERROR, UX_DEVICE_HANDLE_UNKNOWN, device, 0, 0, UX_TRACE_ER
 102:./Middlewares/ST/usbx/common/core/src/ux_host_stack_device_string_get.c **** 
 103:./Middlewares/ST/usbx/common/core/src/ux_host_stack_device_string_get.c ****         return(UX_DEVICE_HANDLE_UNKNOWN);
 104:./Middlewares/ST/usbx/common/core/src/ux_host_stack_device_string_get.c ****     }
 105:./Middlewares/ST/usbx/common/core/src/ux_host_stack_device_string_get.c **** 
 106:./Middlewares/ST/usbx/common/core/src/ux_host_stack_device_string_get.c ****     /* If trace is enabled, insert this event into the trace buffer.  */
 107:./Middlewares/ST/usbx/common/core/src/ux_host_stack_device_string_get.c ****     UX_TRACE_IN_LINE_INSERT(UX_TRACE_HOST_STACK_DEVICE_STRING_GET, device, descriptor_buffer, lengt
 108:./Middlewares/ST/usbx/common/core/src/ux_host_stack_device_string_get.c **** 
 109:./Middlewares/ST/usbx/common/core/src/ux_host_stack_device_string_get.c ****     /* We need to get the default control endpoint transfer request pointer.  */
 110:./Middlewares/ST/usbx/common/core/src/ux_host_stack_device_string_get.c ****     control_endpoint =  &device -> ux_device_control_endpoint;
  58              		.loc 1 110 5 is_stmt 1 view .LVU8
  59              	.LVL2:
 111:./Middlewares/ST/usbx/common/core/src/ux_host_stack_device_string_get.c ****     transfer_request =  &control_endpoint -> ux_endpoint_transfer_request;
  60              		.loc 1 111 5 view .LVU9
  61              		.loc 1 111 22 is_stmt 0 view .LVU10
ARM GAS  C:\Users\Dennis\AppData\Local\Temp\ccoiTzyz.s 			page 4


  62 0012 00F1AC08 		add	r8, r0, #172
  63              	.LVL3:
 112:./Middlewares/ST/usbx/common/core/src/ux_host_stack_device_string_get.c **** 
 113:./Middlewares/ST/usbx/common/core/src/ux_host_stack_device_string_get.c **** #if defined(UX_HOST_STANDALONE)
 114:./Middlewares/ST/usbx/common/core/src/ux_host_stack_device_string_get.c ****     UX_DISABLE
 115:./Middlewares/ST/usbx/common/core/src/ux_host_stack_device_string_get.c ****     if ((device -> ux_device_flags & UX_DEVICE_FLAG_LOCK) ||
 116:./Middlewares/ST/usbx/common/core/src/ux_host_stack_device_string_get.c ****         (transfer_request -> ux_transfer_request_flags & UX_TRANSFER_FLAG_LOCK))
 117:./Middlewares/ST/usbx/common/core/src/ux_host_stack_device_string_get.c ****     {
 118:./Middlewares/ST/usbx/common/core/src/ux_host_stack_device_string_get.c ****         UX_RESTORE
 119:./Middlewares/ST/usbx/common/core/src/ux_host_stack_device_string_get.c ****         return(UX_BUSY);
 120:./Middlewares/ST/usbx/common/core/src/ux_host_stack_device_string_get.c ****     }
 121:./Middlewares/ST/usbx/common/core/src/ux_host_stack_device_string_get.c ****     device -> ux_device_flags |= UX_DEVICE_FLAG_LOCK;
 122:./Middlewares/ST/usbx/common/core/src/ux_host_stack_device_string_get.c ****     transfer_request -> ux_transfer_request_flags |=
 123:./Middlewares/ST/usbx/common/core/src/ux_host_stack_device_string_get.c ****                 (UX_TRANSFER_FLAG_LOCK | UX_TRANSFER_FLAG_AUTO_DEVICE_UNLOCK);
 124:./Middlewares/ST/usbx/common/core/src/ux_host_stack_device_string_get.c ****     UX_RESTORE
 125:./Middlewares/ST/usbx/common/core/src/ux_host_stack_device_string_get.c **** #else
 126:./Middlewares/ST/usbx/common/core/src/ux_host_stack_device_string_get.c **** 
 127:./Middlewares/ST/usbx/common/core/src/ux_host_stack_device_string_get.c ****     /* Protect the control endpoint semaphore here.  It will be unprotected in the
 128:./Middlewares/ST/usbx/common/core/src/ux_host_stack_device_string_get.c ****        transfer request function.  */
 129:./Middlewares/ST/usbx/common/core/src/ux_host_stack_device_string_get.c ****     status =  _ux_host_semaphore_get(&device -> ux_device_protection_semaphore, UX_WAIT_FOREVER);
  64              		.loc 1 129 5 is_stmt 1 view .LVU11
  65              		.loc 1 129 15 is_stmt 0 view .LVU12
  66 0016 4FF0FF31 		mov	r1, #-1
  67              	.LVL4:
  68              		.loc 1 129 15 view .LVU13
  69 001a 1C30     		adds	r0, r0, #28
  70              	.LVL5:
  71              		.loc 1 129 15 view .LVU14
  72 001c FFF7FEFF 		bl	_ux_utility_semaphore_get
  73              	.LVL6:
 130:./Middlewares/ST/usbx/common/core/src/ux_host_stack_device_string_get.c **** 
 131:./Middlewares/ST/usbx/common/core/src/ux_host_stack_device_string_get.c ****     /* Check for status.  */
 132:./Middlewares/ST/usbx/common/core/src/ux_host_stack_device_string_get.c ****     if (status != UX_SUCCESS)
  74              		.loc 1 132 5 is_stmt 1 view .LVU15
  75              		.loc 1 132 8 is_stmt 0 view .LVU16
  76 0020 E0B9     		cbnz	r0, .L4
 133:./Middlewares/ST/usbx/common/core/src/ux_host_stack_device_string_get.c ****         return(UX_SEMAPHORE_ERROR);
 134:./Middlewares/ST/usbx/common/core/src/ux_host_stack_device_string_get.c **** #endif
 135:./Middlewares/ST/usbx/common/core/src/ux_host_stack_device_string_get.c **** 
 136:./Middlewares/ST/usbx/common/core/src/ux_host_stack_device_string_get.c ****     /* Create a transfer request for the GET_DEVICE_ID request.  */
 137:./Middlewares/ST/usbx/common/core/src/ux_host_stack_device_string_get.c ****     transfer_request -> ux_transfer_request_data_pointer =      descriptor_buffer;
  77              		.loc 1 137 5 is_stmt 1 view .LVU17
  78              		.loc 1 137 58 is_stmt 0 view .LVU18
  79 0022 C4F8B470 		str	r7, [r4, #180]
 138:./Middlewares/ST/usbx/common/core/src/ux_host_stack_device_string_get.c ****     transfer_request -> ux_transfer_request_requested_length =  length;
  80              		.loc 1 138 5 is_stmt 1 view .LVU19
  81              		.loc 1 138 62 is_stmt 0 view .LVU20
  82 0026 C4F8B850 		str	r5, [r4, #184]
 139:./Middlewares/ST/usbx/common/core/src/ux_host_stack_device_string_get.c ****     transfer_request -> ux_transfer_request_function =          UX_GET_DESCRIPTOR;
  83              		.loc 1 139 5 is_stmt 1 view .LVU21
  84              		.loc 1 139 54 is_stmt 0 view .LVU22
  85 002a 0623     		movs	r3, #6
  86 002c C4F8C430 		str	r3, [r4, #196]
 140:./Middlewares/ST/usbx/common/core/src/ux_host_stack_device_string_get.c ****     transfer_request -> ux_transfer_request_type =              UX_REQUEST_IN | UX_REQUEST_TYPE_STA
  87              		.loc 1 140 5 is_stmt 1 view .LVU23
  88              		.loc 1 140 50 is_stmt 0 view .LVU24
  89 0030 8023     		movs	r3, #128
ARM GAS  C:\Users\Dennis\AppData\Local\Temp\ccoiTzyz.s 			page 5


  90 0032 C4F8C030 		str	r3, [r4, #192]
 141:./Middlewares/ST/usbx/common/core/src/ux_host_stack_device_string_get.c ****     transfer_request -> ux_transfer_request_value =             (UX_STRING_DESCRIPTOR_ITEM << 8) | 
  91              		.loc 1 141 5 is_stmt 1 view .LVU25
  92              		.loc 1 141 98 is_stmt 0 view .LVU26
  93 0036 069B     		ldr	r3, [sp, #24]
  94 0038 43F44073 		orr	r3, r3, #768
  95              		.loc 1 141 51 view .LVU27
  96 003c C4F8C830 		str	r3, [r4, #200]
 142:./Middlewares/ST/usbx/common/core/src/ux_host_stack_device_string_get.c ****     transfer_request -> ux_transfer_request_index =             (language_id);
  97              		.loc 1 142 5 is_stmt 1 view .LVU28
  98              		.loc 1 142 51 is_stmt 0 view .LVU29
  99 0040 C4F8CC60 		str	r6, [r4, #204]
 143:./Middlewares/ST/usbx/common/core/src/ux_host_stack_device_string_get.c **** 
 144:./Middlewares/ST/usbx/common/core/src/ux_host_stack_device_string_get.c ****     /* Send request to HCD layer.  */
 145:./Middlewares/ST/usbx/common/core/src/ux_host_stack_device_string_get.c ****     status =  _ux_host_stack_transfer_request(transfer_request);
 100              		.loc 1 145 5 is_stmt 1 view .LVU30
 101              		.loc 1 145 15 is_stmt 0 view .LVU31
 102 0044 4046     		mov	r0, r8
 103              	.LVL7:
 104              		.loc 1 145 15 view .LVU32
 105 0046 FFF7FEFF 		bl	_ux_host_stack_transfer_request
 106              	.LVL8:
 146:./Middlewares/ST/usbx/common/core/src/ux_host_stack_device_string_get.c **** 
 147:./Middlewares/ST/usbx/common/core/src/ux_host_stack_device_string_get.c ****     /* Return completion status.  */
 148:./Middlewares/ST/usbx/common/core/src/ux_host_stack_device_string_get.c ****     return(status);
 107              		.loc 1 148 5 is_stmt 1 view .LVU33
 108              	.L1:
 149:./Middlewares/ST/usbx/common/core/src/ux_host_stack_device_string_get.c **** }
 109              		.loc 1 149 1 is_stmt 0 view .LVU34
 110 004a BDE8F081 		pop	{r4, r5, r6, r7, r8, pc}
 111              	.LVL9:
 112              	.L6:
  98:./Middlewares/ST/usbx/common/core/src/ux_host_stack_device_string_get.c **** 
 113              		.loc 1 98 9 is_stmt 1 view .LVU35
 114 004e 5022     		movs	r2, #80
 115 0050 0421     		movs	r1, #4
 116              	.LVL10:
  98:./Middlewares/ST/usbx/common/core/src/ux_host_stack_device_string_get.c **** 
 117              		.loc 1 98 9 is_stmt 0 view .LVU36
 118 0052 0220     		movs	r0, #2
 119              	.LVL11:
  98:./Middlewares/ST/usbx/common/core/src/ux_host_stack_device_string_get.c **** 
 120              		.loc 1 98 9 view .LVU37
 121 0054 FFF7FEFF 		bl	_ux_system_error_handler
 122              	.LVL12:
 103:./Middlewares/ST/usbx/common/core/src/ux_host_stack_device_string_get.c ****     }
 123              		.loc 1 103 9 is_stmt 1 view .LVU38
 103:./Middlewares/ST/usbx/common/core/src/ux_host_stack_device_string_get.c ****     }
 124              		.loc 1 103 15 is_stmt 0 view .LVU39
 125 0058 5020     		movs	r0, #80
 126 005a F6E7     		b	.L1
 127              	.LVL13:
 128              	.L4:
 133:./Middlewares/ST/usbx/common/core/src/ux_host_stack_device_string_get.c **** #endif
 129              		.loc 1 133 15 view .LVU40
 130 005c 1520     		movs	r0, #21
 131              	.LVL14:
ARM GAS  C:\Users\Dennis\AppData\Local\Temp\ccoiTzyz.s 			page 6


 133:./Middlewares/ST/usbx/common/core/src/ux_host_stack_device_string_get.c **** #endif
 132              		.loc 1 133 15 view .LVU41
 133 005e F4E7     		b	.L1
 134              		.cfi_endproc
 135              	.LFE11:
 137              		.text
 138              	.Letext0:
 139              		.file 2 "./Middlewares/ST/threadx/ports/cortex_m4/gnu/inc/tx_port.h"
 140              		.file 3 "./Middlewares/ST/threadx/common/inc/tx_api.h"
 141              		.file 4 "./Middlewares/ST/usbx/common/core/inc/ux_api.h"
 142              		.file 5 "./Middlewares/ST/usbx/common/core/inc/ux_utility.h"
 143              		.file 6 "./Middlewares/ST/usbx/common/core/inc/ux_host_stack.h"
ARM GAS  C:\Users\Dennis\AppData\Local\Temp\ccoiTzyz.s 			page 7

