ARM GAS  C:\Users\Dennis\AppData\Local\Temp\ccR0anh4.s 			page 1


   1              		.cpu cortex-m4
   2              		.arch armv7e-m
   3              		.fpu fpv4-sp-d16
   4              		.eabi_attribute 27, 1
   5              		.eabi_attribute 28, 1
   6              		.eabi_attribute 20, 1
   7              		.eabi_attribute 21, 1
   8              		.eabi_attribute 23, 3
   9              		.eabi_attribute 24, 1
  10              		.eabi_attribute 25, 1
  11              		.eabi_attribute 26, 1
  12              		.eabi_attribute 30, 1
  13              		.eabi_attribute 34, 1
  14              		.eabi_attribute 18, 4
  15              		.file	"ux_host_stack_device_resources_free.c"
  16              		.text
  17              	.Ltext0:
  18              		.cfi_sections	.debug_frame
  19              		.section	.text._ux_host_stack_device_resources_free,"ax",%progbits
  20              		.align	1
  21              		.global	_ux_host_stack_device_resources_free
  22              		.syntax unified
  23              		.thumb
  24              		.thumb_func
  26              	_ux_host_stack_device_resources_free:
  27              	.LVL0:
  28              	.LFB11:
  29              		.file 1 "./Middlewares/ST/usbx/common/core/src/ux_host_stack_device_resources_free.c"
   1:./Middlewares/ST/usbx/common/core/src/ux_host_stack_device_resources_free.c **** /**************************************************************************/
   2:./Middlewares/ST/usbx/common/core/src/ux_host_stack_device_resources_free.c **** /*                                                                        */
   3:./Middlewares/ST/usbx/common/core/src/ux_host_stack_device_resources_free.c **** /*       Copyright (c) Microsoft Corporation. All rights reserved.        */
   4:./Middlewares/ST/usbx/common/core/src/ux_host_stack_device_resources_free.c **** /*                                                                        */
   5:./Middlewares/ST/usbx/common/core/src/ux_host_stack_device_resources_free.c **** /*       This software is licensed under the Microsoft Software License   */
   6:./Middlewares/ST/usbx/common/core/src/ux_host_stack_device_resources_free.c **** /*       Terms for Microsoft Azure RTOS. Full text of the license can be  */
   7:./Middlewares/ST/usbx/common/core/src/ux_host_stack_device_resources_free.c **** /*       found in the LICENSE file at https://aka.ms/AzureRTOS_EULA       */
   8:./Middlewares/ST/usbx/common/core/src/ux_host_stack_device_resources_free.c **** /*       and in the root directory of this software.                      */
   9:./Middlewares/ST/usbx/common/core/src/ux_host_stack_device_resources_free.c **** /*                                                                        */
  10:./Middlewares/ST/usbx/common/core/src/ux_host_stack_device_resources_free.c **** /**************************************************************************/
  11:./Middlewares/ST/usbx/common/core/src/ux_host_stack_device_resources_free.c **** 
  12:./Middlewares/ST/usbx/common/core/src/ux_host_stack_device_resources_free.c **** 
  13:./Middlewares/ST/usbx/common/core/src/ux_host_stack_device_resources_free.c **** /**************************************************************************/
  14:./Middlewares/ST/usbx/common/core/src/ux_host_stack_device_resources_free.c **** /**************************************************************************/
  15:./Middlewares/ST/usbx/common/core/src/ux_host_stack_device_resources_free.c **** /**                                                                       */ 
  16:./Middlewares/ST/usbx/common/core/src/ux_host_stack_device_resources_free.c **** /** USBX Component                                                        */ 
  17:./Middlewares/ST/usbx/common/core/src/ux_host_stack_device_resources_free.c **** /**                                                                       */
  18:./Middlewares/ST/usbx/common/core/src/ux_host_stack_device_resources_free.c **** /**   Host Stack                                                          */
  19:./Middlewares/ST/usbx/common/core/src/ux_host_stack_device_resources_free.c **** /**                                                                       */
  20:./Middlewares/ST/usbx/common/core/src/ux_host_stack_device_resources_free.c **** /**************************************************************************/
  21:./Middlewares/ST/usbx/common/core/src/ux_host_stack_device_resources_free.c **** /**************************************************************************/
  22:./Middlewares/ST/usbx/common/core/src/ux_host_stack_device_resources_free.c **** 
  23:./Middlewares/ST/usbx/common/core/src/ux_host_stack_device_resources_free.c **** 
  24:./Middlewares/ST/usbx/common/core/src/ux_host_stack_device_resources_free.c **** /* Include necessary system files.  */
  25:./Middlewares/ST/usbx/common/core/src/ux_host_stack_device_resources_free.c **** 
  26:./Middlewares/ST/usbx/common/core/src/ux_host_stack_device_resources_free.c **** #define UX_SOURCE_CODE
  27:./Middlewares/ST/usbx/common/core/src/ux_host_stack_device_resources_free.c **** 
  28:./Middlewares/ST/usbx/common/core/src/ux_host_stack_device_resources_free.c **** #include "ux_api.h"
  29:./Middlewares/ST/usbx/common/core/src/ux_host_stack_device_resources_free.c **** #include "ux_host_stack.h"
ARM GAS  C:\Users\Dennis\AppData\Local\Temp\ccR0anh4.s 			page 2


  30:./Middlewares/ST/usbx/common/core/src/ux_host_stack_device_resources_free.c **** 
  31:./Middlewares/ST/usbx/common/core/src/ux_host_stack_device_resources_free.c **** 
  32:./Middlewares/ST/usbx/common/core/src/ux_host_stack_device_resources_free.c **** /**************************************************************************/ 
  33:./Middlewares/ST/usbx/common/core/src/ux_host_stack_device_resources_free.c **** /*                                                                        */ 
  34:./Middlewares/ST/usbx/common/core/src/ux_host_stack_device_resources_free.c **** /*  FUNCTION                                               RELEASE        */ 
  35:./Middlewares/ST/usbx/common/core/src/ux_host_stack_device_resources_free.c **** /*                                                                        */ 
  36:./Middlewares/ST/usbx/common/core/src/ux_host_stack_device_resources_free.c **** /*    _ux_host_stack_device_resources_free                PORTABLE C      */ 
  37:./Middlewares/ST/usbx/common/core/src/ux_host_stack_device_resources_free.c **** /*                                                           6.1.10       */
  38:./Middlewares/ST/usbx/common/core/src/ux_host_stack_device_resources_free.c **** /*  AUTHOR                                                                */
  39:./Middlewares/ST/usbx/common/core/src/ux_host_stack_device_resources_free.c **** /*                                                                        */
  40:./Middlewares/ST/usbx/common/core/src/ux_host_stack_device_resources_free.c **** /*    Chaoqiong Xiao, Microsoft Corporation                               */
  41:./Middlewares/ST/usbx/common/core/src/ux_host_stack_device_resources_free.c **** /*                                                                        */
  42:./Middlewares/ST/usbx/common/core/src/ux_host_stack_device_resources_free.c **** /*  DESCRIPTION                                                           */
  43:./Middlewares/ST/usbx/common/core/src/ux_host_stack_device_resources_free.c **** /*                                                                        */ 
  44:./Middlewares/ST/usbx/common/core/src/ux_host_stack_device_resources_free.c **** /*    This function will free all the device resources allocated.         */ 
  45:./Middlewares/ST/usbx/common/core/src/ux_host_stack_device_resources_free.c **** /*                                                                        */ 
  46:./Middlewares/ST/usbx/common/core/src/ux_host_stack_device_resources_free.c **** /*  INPUT                                                                 */ 
  47:./Middlewares/ST/usbx/common/core/src/ux_host_stack_device_resources_free.c **** /*                                                                        */ 
  48:./Middlewares/ST/usbx/common/core/src/ux_host_stack_device_resources_free.c **** /*    device                                Device pointer                */ 
  49:./Middlewares/ST/usbx/common/core/src/ux_host_stack_device_resources_free.c **** /*                                                                        */ 
  50:./Middlewares/ST/usbx/common/core/src/ux_host_stack_device_resources_free.c **** /*  OUTPUT                                                                */ 
  51:./Middlewares/ST/usbx/common/core/src/ux_host_stack_device_resources_free.c **** /*                                                                        */ 
  52:./Middlewares/ST/usbx/common/core/src/ux_host_stack_device_resources_free.c **** /*    Completion Status                                                   */ 
  53:./Middlewares/ST/usbx/common/core/src/ux_host_stack_device_resources_free.c **** /*                                                                        */ 
  54:./Middlewares/ST/usbx/common/core/src/ux_host_stack_device_resources_free.c **** /*  CALLS                                                                 */ 
  55:./Middlewares/ST/usbx/common/core/src/ux_host_stack_device_resources_free.c **** /*                                                                        */ 
  56:./Middlewares/ST/usbx/common/core/src/ux_host_stack_device_resources_free.c **** /*    _ux_host_stack_endpoint_transfer_abort                              */
  57:./Middlewares/ST/usbx/common/core/src/ux_host_stack_device_resources_free.c **** /*                                          Abort transfer                */
  58:./Middlewares/ST/usbx/common/core/src/ux_host_stack_device_resources_free.c **** /*    _ux_host_stack_endpoint_instance_delete                             */
  59:./Middlewares/ST/usbx/common/core/src/ux_host_stack_device_resources_free.c **** /*                                          Delete endpoint instance      */ 
  60:./Middlewares/ST/usbx/common/core/src/ux_host_stack_device_resources_free.c **** /*    _ux_utility_memory_free               Free memory block             */ 
  61:./Middlewares/ST/usbx/common/core/src/ux_host_stack_device_resources_free.c **** /*    _ux_utility_memory_set                Set memory with a value       */ 
  62:./Middlewares/ST/usbx/common/core/src/ux_host_stack_device_resources_free.c **** /*    _ux_utility_semaphore_delete          Semaphore delete              */ 
  63:./Middlewares/ST/usbx/common/core/src/ux_host_stack_device_resources_free.c **** /*    _ux_utility_thread_schedule_other     Sleep thread to let others    */
  64:./Middlewares/ST/usbx/common/core/src/ux_host_stack_device_resources_free.c **** /*                                          run                           */
  65:./Middlewares/ST/usbx/common/core/src/ux_host_stack_device_resources_free.c **** /*    (ux_hcd_entry_function)               HCD entry function            */ 
  66:./Middlewares/ST/usbx/common/core/src/ux_host_stack_device_resources_free.c **** /*                                                                        */ 
  67:./Middlewares/ST/usbx/common/core/src/ux_host_stack_device_resources_free.c **** /*  CALLED BY                                                             */ 
  68:./Middlewares/ST/usbx/common/core/src/ux_host_stack_device_resources_free.c **** /*                                                                        */ 
  69:./Middlewares/ST/usbx/common/core/src/ux_host_stack_device_resources_free.c **** /*    USBX Components                                                     */ 
  70:./Middlewares/ST/usbx/common/core/src/ux_host_stack_device_resources_free.c **** /*                                                                        */ 
  71:./Middlewares/ST/usbx/common/core/src/ux_host_stack_device_resources_free.c **** /*  RELEASE HISTORY                                                       */ 
  72:./Middlewares/ST/usbx/common/core/src/ux_host_stack_device_resources_free.c **** /*                                                                        */ 
  73:./Middlewares/ST/usbx/common/core/src/ux_host_stack_device_resources_free.c **** /*    DATE              NAME                      DESCRIPTION             */ 
  74:./Middlewares/ST/usbx/common/core/src/ux_host_stack_device_resources_free.c **** /*                                                                        */ 
  75:./Middlewares/ST/usbx/common/core/src/ux_host_stack_device_resources_free.c **** /*  05-19-2020     Chaoqiong Xiao           Initial Version 6.0           */
  76:./Middlewares/ST/usbx/common/core/src/ux_host_stack_device_resources_free.c **** /*  09-30-2020     Chaoqiong Xiao           Modified comment(s),          */
  77:./Middlewares/ST/usbx/common/core/src/ux_host_stack_device_resources_free.c **** /*                                            optimized based on compile  */
  78:./Middlewares/ST/usbx/common/core/src/ux_host_stack_device_resources_free.c **** /*                                            definitions, verified       */
  79:./Middlewares/ST/usbx/common/core/src/ux_host_stack_device_resources_free.c **** /*                                            memset and memcpy cases,    */
  80:./Middlewares/ST/usbx/common/core/src/ux_host_stack_device_resources_free.c **** /*                                            resulting in version 6.1    */
  81:./Middlewares/ST/usbx/common/core/src/ux_host_stack_device_resources_free.c **** /*  01-31-2022     Chaoqiong Xiao           Modified comment(s),          */
  82:./Middlewares/ST/usbx/common/core/src/ux_host_stack_device_resources_free.c **** /*                                            added standalone support,   */
  83:./Middlewares/ST/usbx/common/core/src/ux_host_stack_device_resources_free.c **** /*                                            resulting in version 6.1.10 */
  84:./Middlewares/ST/usbx/common/core/src/ux_host_stack_device_resources_free.c **** /*                                                                        */
  85:./Middlewares/ST/usbx/common/core/src/ux_host_stack_device_resources_free.c **** /**************************************************************************/
  86:./Middlewares/ST/usbx/common/core/src/ux_host_stack_device_resources_free.c **** UINT  _ux_host_stack_device_resources_free(UX_DEVICE *device)
ARM GAS  C:\Users\Dennis\AppData\Local\Temp\ccR0anh4.s 			page 3


  87:./Middlewares/ST/usbx/common/core/src/ux_host_stack_device_resources_free.c **** {
  30              		.loc 1 87 1 view -0
  31              		.cfi_startproc
  32              		@ args = 0, pretend = 0, frame = 0
  33              		@ frame_needed = 0, uses_anonymous_args = 0
  34              		.loc 1 87 1 is_stmt 0 view .LVU1
  35 0000 2DE9F843 		push	{r3, r4, r5, r6, r7, r8, r9, lr}
  36              	.LCFI0:
  37              		.cfi_def_cfa_offset 32
  38              		.cfi_offset 3, -32
  39              		.cfi_offset 4, -28
  40              		.cfi_offset 5, -24
  41              		.cfi_offset 6, -20
  42              		.cfi_offset 7, -16
  43              		.cfi_offset 8, -12
  44              		.cfi_offset 9, -8
  45              		.cfi_offset 14, -4
  46 0004 8146     		mov	r9, r0
  88:./Middlewares/ST/usbx/common/core/src/ux_host_stack_device_resources_free.c **** 
  89:./Middlewares/ST/usbx/common/core/src/ux_host_stack_device_resources_free.c **** UX_CONFIGURATION        *configuration;
  47              		.loc 1 89 1 is_stmt 1 view .LVU2
  90:./Middlewares/ST/usbx/common/core/src/ux_host_stack_device_resources_free.c **** UX_INTERFACE            *interface;
  48              		.loc 1 90 1 view .LVU3
  91:./Middlewares/ST/usbx/common/core/src/ux_host_stack_device_resources_free.c **** UX_ENDPOINT             *endpoint;
  49              		.loc 1 91 1 view .LVU4
  92:./Middlewares/ST/usbx/common/core/src/ux_host_stack_device_resources_free.c **** VOID                    *container;
  50              		.loc 1 92 1 view .LVU5
  93:./Middlewares/ST/usbx/common/core/src/ux_host_stack_device_resources_free.c **** ULONG                   current_alternate_setting;
  51              		.loc 1 93 1 view .LVU6
  94:./Middlewares/ST/usbx/common/core/src/ux_host_stack_device_resources_free.c **** UX_HCD                  *hcd;
  52              		.loc 1 94 1 view .LVU7
  95:./Middlewares/ST/usbx/common/core/src/ux_host_stack_device_resources_free.c **** #if UX_MAX_DEVICES > 1
  96:./Middlewares/ST/usbx/common/core/src/ux_host_stack_device_resources_free.c **** UINT                    device_address_byte_index;
  53              		.loc 1 96 1 view .LVU8
  97:./Middlewares/ST/usbx/common/core/src/ux_host_stack_device_resources_free.c **** UINT                    device_address_bit_index;
  54              		.loc 1 97 1 view .LVU9
  98:./Middlewares/ST/usbx/common/core/src/ux_host_stack_device_resources_free.c **** UCHAR                   device_address_byte;
  55              		.loc 1 98 1 view .LVU10
  99:./Middlewares/ST/usbx/common/core/src/ux_host_stack_device_resources_free.c **** #endif
 100:./Middlewares/ST/usbx/common/core/src/ux_host_stack_device_resources_free.c **** 
 101:./Middlewares/ST/usbx/common/core/src/ux_host_stack_device_resources_free.c ****     /* If trace is enabled, insert this event into the trace buffer.  */
 102:./Middlewares/ST/usbx/common/core/src/ux_host_stack_device_resources_free.c ****     UX_TRACE_IN_LINE_INSERT(UX_TRACE_HOST_STACK_DEVICE_RESOURCE_FREE, device, 0, 0, 0, UX_TRACE_HOS
 103:./Middlewares/ST/usbx/common/core/src/ux_host_stack_device_resources_free.c **** 
 104:./Middlewares/ST/usbx/common/core/src/ux_host_stack_device_resources_free.c **** #if defined(UX_HOST_STANDALONE)
 105:./Middlewares/ST/usbx/common/core/src/ux_host_stack_device_resources_free.c **** 
 106:./Middlewares/ST/usbx/common/core/src/ux_host_stack_device_resources_free.c ****     /* Free possible allocated enumeration resources.  */
 107:./Middlewares/ST/usbx/common/core/src/ux_host_stack_device_resources_free.c ****     if (device -> ux_device_flags & UX_DEVICE_FLAG_ENUM)
 108:./Middlewares/ST/usbx/common/core/src/ux_host_stack_device_resources_free.c ****     {
 109:./Middlewares/ST/usbx/common/core/src/ux_host_stack_device_resources_free.c **** 
 110:./Middlewares/ST/usbx/common/core/src/ux_host_stack_device_resources_free.c ****         /* If transfer buffer is not freed, free it.  */
 111:./Middlewares/ST/usbx/common/core/src/ux_host_stack_device_resources_free.c ****         if (device -> ux_device_enum_trans &&
 112:./Middlewares/ST/usbx/common/core/src/ux_host_stack_device_resources_free.c ****             device -> ux_device_enum_trans -> ux_transfer_request_data_pointer)
 113:./Middlewares/ST/usbx/common/core/src/ux_host_stack_device_resources_free.c ****         {
 114:./Middlewares/ST/usbx/common/core/src/ux_host_stack_device_resources_free.c ****             _ux_utility_memory_free(device -> ux_device_enum_trans ->
 115:./Middlewares/ST/usbx/common/core/src/ux_host_stack_device_resources_free.c ****                                             ux_transfer_request_data_pointer);
 116:./Middlewares/ST/usbx/common/core/src/ux_host_stack_device_resources_free.c ****         }
 117:./Middlewares/ST/usbx/common/core/src/ux_host_stack_device_resources_free.c **** 
ARM GAS  C:\Users\Dennis\AppData\Local\Temp\ccR0anh4.s 			page 4


 118:./Middlewares/ST/usbx/common/core/src/ux_host_stack_device_resources_free.c ****         /* If configuration is not attached, free it.  */
 119:./Middlewares/ST/usbx/common/core/src/ux_host_stack_device_resources_free.c ****         if ((device -> ux_device_enum_state == UX_HOST_STACK_ENUM_CONFIG_DESCR_PARSE) ||
 120:./Middlewares/ST/usbx/common/core/src/ux_host_stack_device_resources_free.c ****             ((device -> ux_device_enum_state == UX_HOST_STACK_ENUM_TRANS_WAIT) &&
 121:./Middlewares/ST/usbx/common/core/src/ux_host_stack_device_resources_free.c ****             (device -> ux_device_enum_next_state == UX_HOST_STACK_ENUM_CONFIG_DESCR_PARSE)))
 122:./Middlewares/ST/usbx/common/core/src/ux_host_stack_device_resources_free.c ****         {
 123:./Middlewares/ST/usbx/common/core/src/ux_host_stack_device_resources_free.c ****             if (device -> ux_device_enum_inst.configuration &&
 124:./Middlewares/ST/usbx/common/core/src/ux_host_stack_device_resources_free.c ****                 device -> ux_device_enum_inst.configuration ->
 125:./Middlewares/ST/usbx/common/core/src/ux_host_stack_device_resources_free.c ****                                             ux_configuration_device == UX_NULL)
 126:./Middlewares/ST/usbx/common/core/src/ux_host_stack_device_resources_free.c ****             {
 127:./Middlewares/ST/usbx/common/core/src/ux_host_stack_device_resources_free.c ****                 _ux_utility_memory_free(device -> ux_device_enum_inst.ptr);
 128:./Middlewares/ST/usbx/common/core/src/ux_host_stack_device_resources_free.c ****             }
 129:./Middlewares/ST/usbx/common/core/src/ux_host_stack_device_resources_free.c ****         }
 130:./Middlewares/ST/usbx/common/core/src/ux_host_stack_device_resources_free.c ****     }
 131:./Middlewares/ST/usbx/common/core/src/ux_host_stack_device_resources_free.c **** 
 132:./Middlewares/ST/usbx/common/core/src/ux_host_stack_device_resources_free.c ****     /* Reset device flags.  */
 133:./Middlewares/ST/usbx/common/core/src/ux_host_stack_device_resources_free.c ****     device -> ux_device_flags = 0;
 134:./Middlewares/ST/usbx/common/core/src/ux_host_stack_device_resources_free.c **** 
 135:./Middlewares/ST/usbx/common/core/src/ux_host_stack_device_resources_free.c **** #endif
 136:./Middlewares/ST/usbx/common/core/src/ux_host_stack_device_resources_free.c **** 
 137:./Middlewares/ST/usbx/common/core/src/ux_host_stack_device_resources_free.c ****     /* Set the alternate setting to zero.  */
 138:./Middlewares/ST/usbx/common/core/src/ux_host_stack_device_resources_free.c ****     current_alternate_setting = 0;
  56              		.loc 1 138 5 view .LVU11
  57              	.LVL1:
 139:./Middlewares/ST/usbx/common/core/src/ux_host_stack_device_resources_free.c **** 
 140:./Middlewares/ST/usbx/common/core/src/ux_host_stack_device_resources_free.c ****     /* Get the first configuration registered to the device.  */
 141:./Middlewares/ST/usbx/common/core/src/ux_host_stack_device_resources_free.c ****     configuration =  device -> ux_device_first_configuration;
  58              		.loc 1 141 5 view .LVU12
  59              		.loc 1 141 19 is_stmt 0 view .LVU13
  60 0006 D0F84080 		ldr	r8, [r0, #64]
  61              	.LVL2:
 142:./Middlewares/ST/usbx/common/core/src/ux_host_stack_device_resources_free.c **** 
 143:./Middlewares/ST/usbx/common/core/src/ux_host_stack_device_resources_free.c ****     /* Parse all the configurations, remove all resources for the possible configuration.  */
 144:./Middlewares/ST/usbx/common/core/src/ux_host_stack_device_resources_free.c ****     while (configuration != UX_NULL)
  62              		.loc 1 144 5 is_stmt 1 view .LVU14
 138:./Middlewares/ST/usbx/common/core/src/ux_host_stack_device_resources_free.c **** 
  63              		.loc 1 138 31 is_stmt 0 view .LVU15
  64 000a 0027     		movs	r7, #0
  65              		.loc 1 144 11 view .LVU16
  66 000c 1DE0     		b	.L2
  67              	.LVL3:
  68              	.L6:
 145:./Middlewares/ST/usbx/common/core/src/ux_host_stack_device_resources_free.c ****     {
 146:./Middlewares/ST/usbx/common/core/src/ux_host_stack_device_resources_free.c ****         
 147:./Middlewares/ST/usbx/common/core/src/ux_host_stack_device_resources_free.c ****         /* We have the correct configuration, search the interface(s).  */
 148:./Middlewares/ST/usbx/common/core/src/ux_host_stack_device_resources_free.c ****         interface =  configuration -> ux_configuration_first_interface;
 149:./Middlewares/ST/usbx/common/core/src/ux_host_stack_device_resources_free.c **** 
 150:./Middlewares/ST/usbx/common/core/src/ux_host_stack_device_resources_free.c ****         /* Parse all the interfaces.  */
 151:./Middlewares/ST/usbx/common/core/src/ux_host_stack_device_resources_free.c ****         while (interface != UX_NULL)
 152:./Middlewares/ST/usbx/common/core/src/ux_host_stack_device_resources_free.c ****         {
 153:./Middlewares/ST/usbx/common/core/src/ux_host_stack_device_resources_free.c **** 
 154:./Middlewares/ST/usbx/common/core/src/ux_host_stack_device_resources_free.c ****             /* The alternate setting 0 has the selected alternate setting value.  */
 155:./Middlewares/ST/usbx/common/core/src/ux_host_stack_device_resources_free.c ****             if (interface -> ux_interface_descriptor.bAlternateSetting == 0)
 156:./Middlewares/ST/usbx/common/core/src/ux_host_stack_device_resources_free.c ****                 current_alternate_setting = interface -> ux_interface_current_alternate_setting;
 157:./Middlewares/ST/usbx/common/core/src/ux_host_stack_device_resources_free.c **** 
 158:./Middlewares/ST/usbx/common/core/src/ux_host_stack_device_resources_free.c ****             /* If this is the selected interface, we need to free all the endpoints 
 159:./Middlewares/ST/usbx/common/core/src/ux_host_stack_device_resources_free.c ****             attached to the alternate setting for this interface.  */
 160:./Middlewares/ST/usbx/common/core/src/ux_host_stack_device_resources_free.c ****             endpoint =  interface -> ux_interface_first_endpoint;
ARM GAS  C:\Users\Dennis\AppData\Local\Temp\ccR0anh4.s 			page 5


 161:./Middlewares/ST/usbx/common/core/src/ux_host_stack_device_resources_free.c ****             
 162:./Middlewares/ST/usbx/common/core/src/ux_host_stack_device_resources_free.c ****             /* Parse all the endpoints.  */
 163:./Middlewares/ST/usbx/common/core/src/ux_host_stack_device_resources_free.c ****             while (endpoint != UX_NULL)
 164:./Middlewares/ST/usbx/common/core/src/ux_host_stack_device_resources_free.c ****             {
 165:./Middlewares/ST/usbx/common/core/src/ux_host_stack_device_resources_free.c **** 
 166:./Middlewares/ST/usbx/common/core/src/ux_host_stack_device_resources_free.c ****                 /* Check if this is the selected interface.  */
 167:./Middlewares/ST/usbx/common/core/src/ux_host_stack_device_resources_free.c ****                 if (interface -> ux_interface_descriptor.bAlternateSetting == current_alternate_set
 168:./Middlewares/ST/usbx/common/core/src/ux_host_stack_device_resources_free.c ****                 {
 169:./Middlewares/ST/usbx/common/core/src/ux_host_stack_device_resources_free.c **** 
 170:./Middlewares/ST/usbx/common/core/src/ux_host_stack_device_resources_free.c ****                     /* Delete the endpoint instance first.  */
 171:./Middlewares/ST/usbx/common/core/src/ux_host_stack_device_resources_free.c ****                     _ux_host_stack_endpoint_instance_delete(endpoint);
 172:./Middlewares/ST/usbx/common/core/src/ux_host_stack_device_resources_free.c ****                 }
 173:./Middlewares/ST/usbx/common/core/src/ux_host_stack_device_resources_free.c **** 
 174:./Middlewares/ST/usbx/common/core/src/ux_host_stack_device_resources_free.c ****                 /* Memorize the endpoint container address.  */
 175:./Middlewares/ST/usbx/common/core/src/ux_host_stack_device_resources_free.c ****                 container =  (VOID *) endpoint;                  
  69              		.loc 1 175 17 is_stmt 1 view .LVU17
 176:./Middlewares/ST/usbx/common/core/src/ux_host_stack_device_resources_free.c ****                 
 177:./Middlewares/ST/usbx/common/core/src/ux_host_stack_device_resources_free.c ****                 /* Get the next endpoint.  */      
 178:./Middlewares/ST/usbx/common/core/src/ux_host_stack_device_resources_free.c ****                 endpoint =  endpoint -> ux_endpoint_next_endpoint;
  70              		.loc 1 178 17 view .LVU18
  71              		.loc 1 178 26 is_stmt 0 view .LVU19
  72 000e 656A     		ldr	r5, [r4, #36]
  73              	.LVL4:
 179:./Middlewares/ST/usbx/common/core/src/ux_host_stack_device_resources_free.c ****                 
 180:./Middlewares/ST/usbx/common/core/src/ux_host_stack_device_resources_free.c ****                 /* Delete the endpoint container.  */
 181:./Middlewares/ST/usbx/common/core/src/ux_host_stack_device_resources_free.c ****                 _ux_utility_memory_free(container);
  74              		.loc 1 181 17 is_stmt 1 view .LVU20
  75 0010 2046     		mov	r0, r4
  76 0012 FFF7FEFF 		bl	_ux_utility_memory_free
  77              	.LVL5:
 178:./Middlewares/ST/usbx/common/core/src/ux_host_stack_device_resources_free.c ****                 
  78              		.loc 1 178 26 is_stmt 0 view .LVU21
  79 0016 2C46     		mov	r4, r5
  80              	.LVL6:
  81              	.L5:
 163:./Middlewares/ST/usbx/common/core/src/ux_host_stack_device_resources_free.c ****             {
  82              		.loc 1 163 19 is_stmt 1 view .LVU22
  83 0018 34B1     		cbz	r4, .L13
 167:./Middlewares/ST/usbx/common/core/src/ux_host_stack_device_resources_free.c ****                 {
  84              		.loc 1 167 17 view .LVU23
 167:./Middlewares/ST/usbx/common/core/src/ux_host_stack_device_resources_free.c ****                 {
  85              		.loc 1 167 57 is_stmt 0 view .LVU24
  86 001a B369     		ldr	r3, [r6, #24]
 167:./Middlewares/ST/usbx/common/core/src/ux_host_stack_device_resources_free.c ****                 {
  87              		.loc 1 167 20 view .LVU25
  88 001c BB42     		cmp	r3, r7
  89 001e F6D1     		bne	.L6
 171:./Middlewares/ST/usbx/common/core/src/ux_host_stack_device_resources_free.c ****                 }
  90              		.loc 1 171 21 is_stmt 1 view .LVU26
  91 0020 2046     		mov	r0, r4
  92 0022 FFF7FEFF 		bl	_ux_host_stack_endpoint_instance_delete
  93              	.LVL7:
  94 0026 F2E7     		b	.L6
  95              	.L13:
 182:./Middlewares/ST/usbx/common/core/src/ux_host_stack_device_resources_free.c ****             }
 183:./Middlewares/ST/usbx/common/core/src/ux_host_stack_device_resources_free.c ****             
 184:./Middlewares/ST/usbx/common/core/src/ux_host_stack_device_resources_free.c ****             
ARM GAS  C:\Users\Dennis\AppData\Local\Temp\ccR0anh4.s 			page 6


 185:./Middlewares/ST/usbx/common/core/src/ux_host_stack_device_resources_free.c ****             /* Memorize the interface container address.  */
 186:./Middlewares/ST/usbx/common/core/src/ux_host_stack_device_resources_free.c ****             container =  (VOID *) interface;                  
  96              		.loc 1 186 13 view .LVU27
  97              	.LVL8:
 187:./Middlewares/ST/usbx/common/core/src/ux_host_stack_device_resources_free.c ****                 
 188:./Middlewares/ST/usbx/common/core/src/ux_host_stack_device_resources_free.c ****             /* Get the next interface.  */      
 189:./Middlewares/ST/usbx/common/core/src/ux_host_stack_device_resources_free.c ****             interface =  interface -> ux_interface_next_interface;
  98              		.loc 1 189 13 view .LVU28
  99              		.loc 1 189 23 is_stmt 0 view .LVU29
 100 0028 F46B     		ldr	r4, [r6, #60]
 101              	.LVL9:
 190:./Middlewares/ST/usbx/common/core/src/ux_host_stack_device_resources_free.c **** 
 191:./Middlewares/ST/usbx/common/core/src/ux_host_stack_device_resources_free.c ****             /* Delete the interface container.  */
 192:./Middlewares/ST/usbx/common/core/src/ux_host_stack_device_resources_free.c ****             _ux_utility_memory_free(container);
 102              		.loc 1 192 13 is_stmt 1 view .LVU30
 103 002a 3046     		mov	r0, r6
 104 002c FFF7FEFF 		bl	_ux_utility_memory_free
 105              	.LVL10:
 189:./Middlewares/ST/usbx/common/core/src/ux_host_stack_device_resources_free.c **** 
 106              		.loc 1 189 23 is_stmt 0 view .LVU31
 107 0030 2646     		mov	r6, r4
 108              	.LVL11:
 109              	.L3:
 151:./Middlewares/ST/usbx/common/core/src/ux_host_stack_device_resources_free.c ****         {
 110              		.loc 1 151 15 is_stmt 1 view .LVU32
 111 0032 26B1     		cbz	r6, .L14
 155:./Middlewares/ST/usbx/common/core/src/ux_host_stack_device_resources_free.c ****                 current_alternate_setting = interface -> ux_interface_current_alternate_setting;
 112              		.loc 1 155 13 view .LVU33
 155:./Middlewares/ST/usbx/common/core/src/ux_host_stack_device_resources_free.c ****                 current_alternate_setting = interface -> ux_interface_current_alternate_setting;
 113              		.loc 1 155 53 is_stmt 0 view .LVU34
 114 0034 B369     		ldr	r3, [r6, #24]
 155:./Middlewares/ST/usbx/common/core/src/ux_host_stack_device_resources_free.c ****                 current_alternate_setting = interface -> ux_interface_current_alternate_setting;
 115              		.loc 1 155 16 view .LVU35
 116 0036 03B9     		cbnz	r3, .L4
 156:./Middlewares/ST/usbx/common/core/src/ux_host_stack_device_resources_free.c **** 
 117              		.loc 1 156 17 is_stmt 1 view .LVU36
 156:./Middlewares/ST/usbx/common/core/src/ux_host_stack_device_resources_free.c **** 
 118              		.loc 1 156 43 is_stmt 0 view .LVU37
 119 0038 B768     		ldr	r7, [r6, #8]
 120              	.LVL12:
 121              	.L4:
 160:./Middlewares/ST/usbx/common/core/src/ux_host_stack_device_resources_free.c ****             
 122              		.loc 1 160 13 is_stmt 1 view .LVU38
 160:./Middlewares/ST/usbx/common/core/src/ux_host_stack_device_resources_free.c ****             
 123              		.loc 1 160 22 is_stmt 0 view .LVU39
 124 003a B46B     		ldr	r4, [r6, #56]
 125              	.LVL13:
 163:./Middlewares/ST/usbx/common/core/src/ux_host_stack_device_resources_free.c ****             {
 126              		.loc 1 163 13 is_stmt 1 view .LVU40
 163:./Middlewares/ST/usbx/common/core/src/ux_host_stack_device_resources_free.c ****             {
 127              		.loc 1 163 19 is_stmt 0 view .LVU41
 128 003c ECE7     		b	.L5
 129              	.LVL14:
 130              	.L14:
 193:./Middlewares/ST/usbx/common/core/src/ux_host_stack_device_resources_free.c ****         }
 194:./Middlewares/ST/usbx/common/core/src/ux_host_stack_device_resources_free.c **** 
 195:./Middlewares/ST/usbx/common/core/src/ux_host_stack_device_resources_free.c ****         /* Memorize this configuration address before we free it.  */
ARM GAS  C:\Users\Dennis\AppData\Local\Temp\ccR0anh4.s 			page 7


 196:./Middlewares/ST/usbx/common/core/src/ux_host_stack_device_resources_free.c ****         container =  (VOID *) configuration;
 131              		.loc 1 196 9 is_stmt 1 view .LVU42
 197:./Middlewares/ST/usbx/common/core/src/ux_host_stack_device_resources_free.c **** 
 198:./Middlewares/ST/usbx/common/core/src/ux_host_stack_device_resources_free.c ****         /* Move to the next configuration in the list.  */
 199:./Middlewares/ST/usbx/common/core/src/ux_host_stack_device_resources_free.c ****         configuration =  configuration -> ux_configuration_next_configuration;                     
 132              		.loc 1 199 9 view .LVU43
 133              		.loc 1 199 23 is_stmt 0 view .LVU44
 134 003e D8F83040 		ldr	r4, [r8, #48]
 135              	.LVL15:
 200:./Middlewares/ST/usbx/common/core/src/ux_host_stack_device_resources_free.c **** 
 201:./Middlewares/ST/usbx/common/core/src/ux_host_stack_device_resources_free.c ****         /* Free the configuration.  */
 202:./Middlewares/ST/usbx/common/core/src/ux_host_stack_device_resources_free.c ****         _ux_utility_memory_free(container);
 136              		.loc 1 202 9 is_stmt 1 view .LVU45
 137 0042 4046     		mov	r0, r8
 138 0044 FFF7FEFF 		bl	_ux_utility_memory_free
 139              	.LVL16:
 199:./Middlewares/ST/usbx/common/core/src/ux_host_stack_device_resources_free.c **** 
 140              		.loc 1 199 23 is_stmt 0 view .LVU46
 141 0048 A046     		mov	r8, r4
 142              	.LVL17:
 143              	.L2:
 144:./Middlewares/ST/usbx/common/core/src/ux_host_stack_device_resources_free.c ****     {
 144              		.loc 1 144 11 is_stmt 1 view .LVU47
 145 004a B8F1000F 		cmp	r8, #0
 146 004e 02D0     		beq	.L15
 148:./Middlewares/ST/usbx/common/core/src/ux_host_stack_device_resources_free.c **** 
 147              		.loc 1 148 9 view .LVU48
 148:./Middlewares/ST/usbx/common/core/src/ux_host_stack_device_resources_free.c **** 
 148              		.loc 1 148 19 is_stmt 0 view .LVU49
 149 0050 D8F82C60 		ldr	r6, [r8, #44]
 150              	.LVL18:
 151:./Middlewares/ST/usbx/common/core/src/ux_host_stack_device_resources_free.c ****         {
 151              		.loc 1 151 9 is_stmt 1 view .LVU50
 151:./Middlewares/ST/usbx/common/core/src/ux_host_stack_device_resources_free.c ****         {
 152              		.loc 1 151 15 is_stmt 0 view .LVU51
 153 0054 EDE7     		b	.L3
 154              	.LVL19:
 155              	.L15:
 203:./Middlewares/ST/usbx/common/core/src/ux_host_stack_device_resources_free.c ****     }                       
 204:./Middlewares/ST/usbx/common/core/src/ux_host_stack_device_resources_free.c **** 
 205:./Middlewares/ST/usbx/common/core/src/ux_host_stack_device_resources_free.c ****     /* We need the HCD address for the control endpoint removal and to free
 206:./Middlewares/ST/usbx/common/core/src/ux_host_stack_device_resources_free.c ****        the device address.  */
 207:./Middlewares/ST/usbx/common/core/src/ux_host_stack_device_resources_free.c ****     hcd = UX_DEVICE_HCD_GET(device);
 156              		.loc 1 207 5 is_stmt 1 view .LVU52
 157              		.loc 1 207 9 is_stmt 0 view .LVU53
 158 0056 D9F81441 		ldr	r4, [r9, #276]
 159              	.LVL20:
 208:./Middlewares/ST/usbx/common/core/src/ux_host_stack_device_resources_free.c **** 
 209:./Middlewares/ST/usbx/common/core/src/ux_host_stack_device_resources_free.c ****     /* Was the control endpoint already created ? */
 210:./Middlewares/ST/usbx/common/core/src/ux_host_stack_device_resources_free.c ****     if (device -> ux_device_control_endpoint.ux_endpoint_state != 0)
 160              		.loc 1 210 5 is_stmt 1 view .LVU54
 161              		.loc 1 210 45 is_stmt 0 view .LVU55
 162 005a D9F88030 		ldr	r3, [r9, #128]
 163              		.loc 1 210 8 view .LVU56
 164 005e 1BBB     		cbnz	r3, .L16
 165              	.L10:
 211:./Middlewares/ST/usbx/common/core/src/ux_host_stack_device_resources_free.c ****     {
ARM GAS  C:\Users\Dennis\AppData\Local\Temp\ccR0anh4.s 			page 8


 212:./Middlewares/ST/usbx/common/core/src/ux_host_stack_device_resources_free.c **** 
 213:./Middlewares/ST/usbx/common/core/src/ux_host_stack_device_resources_free.c ****         /* There may be pending transactions on the control endpoint. They need to be aborted.  */
 214:./Middlewares/ST/usbx/common/core/src/ux_host_stack_device_resources_free.c ****         _ux_host_stack_endpoint_transfer_abort(&device -> ux_device_control_endpoint);
 215:./Middlewares/ST/usbx/common/core/src/ux_host_stack_device_resources_free.c ****     
 216:./Middlewares/ST/usbx/common/core/src/ux_host_stack_device_resources_free.c ****         /* The enumeration thread needs to sleep a while to allow the application or the class that
 217:./Middlewares/ST/usbx/common/core/src/ux_host_stack_device_resources_free.c ****             the control endpoint to exit properly.  */
 218:./Middlewares/ST/usbx/common/core/src/ux_host_stack_device_resources_free.c ****         _ux_host_thread_schedule_other(UX_THREAD_PRIORITY_ENUM); 
 219:./Middlewares/ST/usbx/common/core/src/ux_host_stack_device_resources_free.c ****     
 220:./Middlewares/ST/usbx/common/core/src/ux_host_stack_device_resources_free.c ****         /* The control endpoint should be destroyed at the HCD level.  */
 221:./Middlewares/ST/usbx/common/core/src/ux_host_stack_device_resources_free.c ****         hcd -> ux_hcd_entry_function(hcd, UX_HCD_DESTROY_ENDPOINT, (VOID *) &device -> ux_device_co
 222:./Middlewares/ST/usbx/common/core/src/ux_host_stack_device_resources_free.c ****     }
 223:./Middlewares/ST/usbx/common/core/src/ux_host_stack_device_resources_free.c **** 
 224:./Middlewares/ST/usbx/common/core/src/ux_host_stack_device_resources_free.c ****     /* The semaphore attached to the control endpoint must be destroyed.  */
 225:./Middlewares/ST/usbx/common/core/src/ux_host_stack_device_resources_free.c ****     _ux_host_semaphore_delete(&device -> ux_device_control_endpoint.ux_endpoint_transfer_request.ux
 166              		.loc 1 225 5 is_stmt 1 view .LVU57
 167 0060 09F1F000 		add	r0, r9, #240
 168 0064 FFF7FEFF 		bl	_ux_utility_semaphore_delete
 169              	.LVL21:
 226:./Middlewares/ST/usbx/common/core/src/ux_host_stack_device_resources_free.c **** 
 227:./Middlewares/ST/usbx/common/core/src/ux_host_stack_device_resources_free.c **** #if UX_MAX_DEVICES > 1
 228:./Middlewares/ST/usbx/common/core/src/ux_host_stack_device_resources_free.c ****     /* Check if the device had an assigned address.  */
 229:./Middlewares/ST/usbx/common/core/src/ux_host_stack_device_resources_free.c ****     if (device -> ux_device_address != 0)    
 170              		.loc 1 229 5 view .LVU58
 171              		.loc 1 229 16 is_stmt 0 view .LVU59
 172 0068 D9F80C20 		ldr	r2, [r9, #12]
 173              		.loc 1 229 8 view .LVU60
 174 006c 6AB1     		cbz	r2, .L11
 230:./Middlewares/ST/usbx/common/core/src/ux_host_stack_device_resources_free.c ****     {
 231:./Middlewares/ST/usbx/common/core/src/ux_host_stack_device_resources_free.c **** 
 232:./Middlewares/ST/usbx/common/core/src/ux_host_stack_device_resources_free.c ****         /* The USB address of this device can now be returned to the pool
 233:./Middlewares/ST/usbx/common/core/src/ux_host_stack_device_resources_free.c ****            We need the HCD pointer for this operation.  */
 234:./Middlewares/ST/usbx/common/core/src/ux_host_stack_device_resources_free.c **** 
 235:./Middlewares/ST/usbx/common/core/src/ux_host_stack_device_resources_free.c ****         /* Calculate in which byte index the device address belongs.  */
 236:./Middlewares/ST/usbx/common/core/src/ux_host_stack_device_resources_free.c ****         device_address_byte_index =  (UINT) (device -> ux_device_address-1)/8;        
 175              		.loc 1 236 9 is_stmt 1 view .LVU61
 176              		.loc 1 236 73 is_stmt 0 view .LVU62
 177 006e 013A     		subs	r2, r2, #1
 178              	.LVL22:
 237:./Middlewares/ST/usbx/common/core/src/ux_host_stack_device_resources_free.c **** 
 238:./Middlewares/ST/usbx/common/core/src/ux_host_stack_device_resources_free.c ****         /* Now calculate the amount left in the byte index in bit.  */
 239:./Middlewares/ST/usbx/common/core/src/ux_host_stack_device_resources_free.c ****         device_address_bit_index =  (UINT) (device -> ux_device_address-1)%8;     
 179              		.loc 1 239 9 is_stmt 1 view .LVU63
 180              		.loc 1 239 34 is_stmt 0 view .LVU64
 181 0070 02F00701 		and	r1, r2, #7
 182              	.LVL23:
 240:./Middlewares/ST/usbx/common/core/src/ux_host_stack_device_resources_free.c **** 
 241:./Middlewares/ST/usbx/common/core/src/ux_host_stack_device_resources_free.c ****         /* Build the mask for the address.  */
 242:./Middlewares/ST/usbx/common/core/src/ux_host_stack_device_resources_free.c ****         device_address_byte =  (UCHAR)(1 << device_address_bit_index);
 183              		.loc 1 242 9 is_stmt 1 view .LVU65
 184              		.loc 1 242 42 is_stmt 0 view .LVU66
 185 0074 0123     		movs	r3, #1
 186 0076 8B40     		lsls	r3, r3, r1
 187              		.loc 1 242 29 view .LVU67
 188 0078 DBB2     		uxtb	r3, r3
 189              	.LVL24:
 243:./Middlewares/ST/usbx/common/core/src/ux_host_stack_device_resources_free.c **** 
 244:./Middlewares/ST/usbx/common/core/src/ux_host_stack_device_resources_free.c ****         /* Free the address.  */
ARM GAS  C:\Users\Dennis\AppData\Local\Temp\ccR0anh4.s 			page 9


 245:./Middlewares/ST/usbx/common/core/src/ux_host_stack_device_resources_free.c ****         hcd -> ux_hcd_address[device_address_byte_index] &=  (UCHAR)~device_address_byte;
 190              		.loc 1 245 9 is_stmt 1 view .LVU68
 191              		.loc 1 245 58 is_stmt 0 view .LVU69
 192 007a 04EBD204 		add	r4, r4, r2, lsr #3
 193              	.LVL25:
 194              		.loc 1 245 58 view .LVU70
 195 007e 94F87820 		ldrb	r2, [r4, #120]	@ zero_extendqisi2
 196              	.LVL26:
 197              		.loc 1 245 58 view .LVU71
 198 0082 22EA0303 		bic	r3, r2, r3
 199              	.LVL27:
 200              		.loc 1 245 58 view .LVU72
 201 0086 84F87830 		strb	r3, [r4, #120]
 202              	.LVL28:
 203              	.L11:
 246:./Middlewares/ST/usbx/common/core/src/ux_host_stack_device_resources_free.c ****     }
 247:./Middlewares/ST/usbx/common/core/src/ux_host_stack_device_resources_free.c **** #endif
 248:./Middlewares/ST/usbx/common/core/src/ux_host_stack_device_resources_free.c **** 
 249:./Middlewares/ST/usbx/common/core/src/ux_host_stack_device_resources_free.c ****     /* The semaphore for endpoint 0 protection must be destroyed.  */
 250:./Middlewares/ST/usbx/common/core/src/ux_host_stack_device_resources_free.c ****     _ux_host_semaphore_delete(&device -> ux_device_protection_semaphore);
 204              		.loc 1 250 5 is_stmt 1 view .LVU73
 205 008a 09F11C00 		add	r0, r9, #28
 206 008e FFF7FEFF 		bl	_ux_utility_semaphore_delete
 207              	.LVL29:
 251:./Middlewares/ST/usbx/common/core/src/ux_host_stack_device_resources_free.c **** 
 252:./Middlewares/ST/usbx/common/core/src/ux_host_stack_device_resources_free.c ****     /* Now this device can be free and its container return to the pool.  */
 253:./Middlewares/ST/usbx/common/core/src/ux_host_stack_device_resources_free.c ****     _ux_utility_memory_set(device, 0, sizeof(UX_DEVICE)); /* Use case of memset is verified. */
 208              		.loc 1 253 5 view .LVU74
 209 0092 4FF4B072 		mov	r2, #352
 210 0096 0021     		movs	r1, #0
 211 0098 4846     		mov	r0, r9
 212 009a FFF7FEFF 		bl	_ux_utility_memory_set
 213              	.LVL30:
 254:./Middlewares/ST/usbx/common/core/src/ux_host_stack_device_resources_free.c **** 
 255:./Middlewares/ST/usbx/common/core/src/ux_host_stack_device_resources_free.c ****     /* Mark the device handle as unused.  */
 256:./Middlewares/ST/usbx/common/core/src/ux_host_stack_device_resources_free.c ****     device -> ux_device_handle =  UX_UNUSED;
 214              		.loc 1 256 5 view .LVU75
 215              		.loc 1 256 32 is_stmt 0 view .LVU76
 216 009e 0020     		movs	r0, #0
 217 00a0 C9F80000 		str	r0, [r9]
 257:./Middlewares/ST/usbx/common/core/src/ux_host_stack_device_resources_free.c **** 
 258:./Middlewares/ST/usbx/common/core/src/ux_host_stack_device_resources_free.c ****     /* Return successful completion.  */
 259:./Middlewares/ST/usbx/common/core/src/ux_host_stack_device_resources_free.c ****     return(UX_SUCCESS);
 218              		.loc 1 259 5 is_stmt 1 view .LVU77
 260:./Middlewares/ST/usbx/common/core/src/ux_host_stack_device_resources_free.c **** }
 219              		.loc 1 260 1 is_stmt 0 view .LVU78
 220 00a4 BDE8F883 		pop	{r3, r4, r5, r6, r7, r8, r9, pc}
 221              	.LVL31:
 222              	.L16:
 214:./Middlewares/ST/usbx/common/core/src/ux_host_stack_device_resources_free.c ****     
 223              		.loc 1 214 9 is_stmt 1 view .LVU79
 214:./Middlewares/ST/usbx/common/core/src/ux_host_stack_device_resources_free.c ****     
 224              		.loc 1 214 48 is_stmt 0 view .LVU80
 225 00a8 09F17C05 		add	r5, r9, #124
 214:./Middlewares/ST/usbx/common/core/src/ux_host_stack_device_resources_free.c ****     
 226              		.loc 1 214 9 view .LVU81
 227 00ac 2846     		mov	r0, r5
ARM GAS  C:\Users\Dennis\AppData\Local\Temp\ccR0anh4.s 			page 10


 228 00ae FFF7FEFF 		bl	_ux_host_stack_endpoint_transfer_abort
 229              	.LVL32:
 218:./Middlewares/ST/usbx/common/core/src/ux_host_stack_device_resources_free.c ****     
 230              		.loc 1 218 9 is_stmt 1 view .LVU82
 231 00b2 1420     		movs	r0, #20
 232 00b4 FFF7FEFF 		bl	_ux_utility_thread_schedule_other
 233              	.LVL33:
 221:./Middlewares/ST/usbx/common/core/src/ux_host_stack_device_resources_free.c ****     }
 234              		.loc 1 221 9 view .LVU83
 221:./Middlewares/ST/usbx/common/core/src/ux_host_stack_device_resources_free.c ****     }
 235              		.loc 1 221 13 is_stmt 0 view .LVU84
 236 00b8 236F     		ldr	r3, [r4, #112]
 221:./Middlewares/ST/usbx/common/core/src/ux_host_stack_device_resources_free.c ****     }
 237              		.loc 1 221 9 view .LVU85
 238 00ba 2A46     		mov	r2, r5
 239 00bc 0F21     		movs	r1, #15
 240 00be 2046     		mov	r0, r4
 241 00c0 9847     		blx	r3
 242              	.LVL34:
 243 00c2 CDE7     		b	.L10
 244              		.cfi_endproc
 245              	.LFE11:
 247              		.text
 248              	.Letext0:
 249              		.file 2 "./Middlewares/ST/threadx/ports/cortex_m4/gnu/inc/tx_port.h"
 250              		.file 3 "./Middlewares/ST/threadx/common/inc/tx_api.h"
 251              		.file 4 "./Middlewares/ST/usbx/common/core/inc/ux_api.h"
 252              		.file 5 "./Middlewares/ST/usbx/common/core/inc/ux_utility.h"
 253              		.file 6 "./Middlewares/ST/usbx/common/core/inc/ux_host_stack.h"
ARM GAS  C:\Users\Dennis\AppData\Local\Temp\ccR0anh4.s 			page 11

