ARM GAS  C:\Users\Dennis\AppData\Local\Temp\ccb1uAvn.s 			page 1


   1              		.cpu cortex-m4
   2              		.arch armv7e-m
   3              		.fpu fpv4-sp-d16
   4              		.eabi_attribute 27, 1
   5              		.eabi_attribute 28, 1
   6              		.eabi_attribute 20, 1
   7              		.eabi_attribute 21, 1
   8              		.eabi_attribute 23, 3
   9              		.eabi_attribute 24, 1
  10              		.eabi_attribute 25, 1
  11              		.eabi_attribute 26, 1
  12              		.eabi_attribute 30, 1
  13              		.eabi_attribute 34, 1
  14              		.eabi_attribute 18, 4
  15              		.file	"ux_host_stack_class_register.c"
  16              		.text
  17              	.Ltext0:
  18              		.cfi_sections	.debug_frame
  19              		.section	.text._ux_host_stack_class_register,"ax",%progbits
  20              		.align	1
  21              		.global	_ux_host_stack_class_register
  22              		.syntax unified
  23              		.thumb
  24              		.thumb_func
  26              	_ux_host_stack_class_register:
  27              	.LVL0:
  28              	.LFB11:
  29              		.file 1 "./Middlewares/ST/usbx/common/core/src/ux_host_stack_class_register.c"
   1:./Middlewares/ST/usbx/common/core/src/ux_host_stack_class_register.c **** /**************************************************************************/
   2:./Middlewares/ST/usbx/common/core/src/ux_host_stack_class_register.c **** /*                                                                        */
   3:./Middlewares/ST/usbx/common/core/src/ux_host_stack_class_register.c **** /*       Copyright (c) Microsoft Corporation. All rights reserved.        */
   4:./Middlewares/ST/usbx/common/core/src/ux_host_stack_class_register.c **** /*                                                                        */
   5:./Middlewares/ST/usbx/common/core/src/ux_host_stack_class_register.c **** /*       This software is licensed under the Microsoft Software License   */
   6:./Middlewares/ST/usbx/common/core/src/ux_host_stack_class_register.c **** /*       Terms for Microsoft Azure RTOS. Full text of the license can be  */
   7:./Middlewares/ST/usbx/common/core/src/ux_host_stack_class_register.c **** /*       found in the LICENSE file at https://aka.ms/AzureRTOS_EULA       */
   8:./Middlewares/ST/usbx/common/core/src/ux_host_stack_class_register.c **** /*       and in the root directory of this software.                      */
   9:./Middlewares/ST/usbx/common/core/src/ux_host_stack_class_register.c **** /*                                                                        */
  10:./Middlewares/ST/usbx/common/core/src/ux_host_stack_class_register.c **** /**************************************************************************/
  11:./Middlewares/ST/usbx/common/core/src/ux_host_stack_class_register.c **** 
  12:./Middlewares/ST/usbx/common/core/src/ux_host_stack_class_register.c **** 
  13:./Middlewares/ST/usbx/common/core/src/ux_host_stack_class_register.c **** /**************************************************************************/
  14:./Middlewares/ST/usbx/common/core/src/ux_host_stack_class_register.c **** /**************************************************************************/
  15:./Middlewares/ST/usbx/common/core/src/ux_host_stack_class_register.c **** /**                                                                       */
  16:./Middlewares/ST/usbx/common/core/src/ux_host_stack_class_register.c **** /** USBX Component                                                        */
  17:./Middlewares/ST/usbx/common/core/src/ux_host_stack_class_register.c **** /**                                                                       */
  18:./Middlewares/ST/usbx/common/core/src/ux_host_stack_class_register.c **** /**   Host Stack                                                          */
  19:./Middlewares/ST/usbx/common/core/src/ux_host_stack_class_register.c **** /**                                                                       */
  20:./Middlewares/ST/usbx/common/core/src/ux_host_stack_class_register.c **** /**************************************************************************/
  21:./Middlewares/ST/usbx/common/core/src/ux_host_stack_class_register.c **** /**************************************************************************/
  22:./Middlewares/ST/usbx/common/core/src/ux_host_stack_class_register.c **** 
  23:./Middlewares/ST/usbx/common/core/src/ux_host_stack_class_register.c **** 
  24:./Middlewares/ST/usbx/common/core/src/ux_host_stack_class_register.c **** /* Include necessary system files.  */
  25:./Middlewares/ST/usbx/common/core/src/ux_host_stack_class_register.c **** 
  26:./Middlewares/ST/usbx/common/core/src/ux_host_stack_class_register.c **** #define UX_SOURCE_CODE
  27:./Middlewares/ST/usbx/common/core/src/ux_host_stack_class_register.c **** 
  28:./Middlewares/ST/usbx/common/core/src/ux_host_stack_class_register.c **** #include "ux_api.h"
  29:./Middlewares/ST/usbx/common/core/src/ux_host_stack_class_register.c **** #include "ux_host_stack.h"
ARM GAS  C:\Users\Dennis\AppData\Local\Temp\ccb1uAvn.s 			page 2


  30:./Middlewares/ST/usbx/common/core/src/ux_host_stack_class_register.c **** 
  31:./Middlewares/ST/usbx/common/core/src/ux_host_stack_class_register.c **** 
  32:./Middlewares/ST/usbx/common/core/src/ux_host_stack_class_register.c **** /**************************************************************************/
  33:./Middlewares/ST/usbx/common/core/src/ux_host_stack_class_register.c **** /*                                                                        */
  34:./Middlewares/ST/usbx/common/core/src/ux_host_stack_class_register.c **** /*  FUNCTION                                               RELEASE        */
  35:./Middlewares/ST/usbx/common/core/src/ux_host_stack_class_register.c **** /*                                                                        */
  36:./Middlewares/ST/usbx/common/core/src/ux_host_stack_class_register.c **** /*    _ux_host_stack_class_register                       PORTABLE C      */
  37:./Middlewares/ST/usbx/common/core/src/ux_host_stack_class_register.c **** /*                                                           6.1          */
  38:./Middlewares/ST/usbx/common/core/src/ux_host_stack_class_register.c **** /*  AUTHOR                                                                */
  39:./Middlewares/ST/usbx/common/core/src/ux_host_stack_class_register.c **** /*                                                                        */
  40:./Middlewares/ST/usbx/common/core/src/ux_host_stack_class_register.c **** /*    Chaoqiong Xiao, Microsoft Corporation                               */
  41:./Middlewares/ST/usbx/common/core/src/ux_host_stack_class_register.c **** /*                                                                        */
  42:./Middlewares/ST/usbx/common/core/src/ux_host_stack_class_register.c **** /*  DESCRIPTION                                                           */
  43:./Middlewares/ST/usbx/common/core/src/ux_host_stack_class_register.c **** /*                                                                        */
  44:./Middlewares/ST/usbx/common/core/src/ux_host_stack_class_register.c **** /*    This function registers a USB class to the USB stack. The Class     */
  45:./Middlewares/ST/usbx/common/core/src/ux_host_stack_class_register.c **** /*    must specify an entry point for the USB stack to send commands      */
  46:./Middlewares/ST/usbx/common/core/src/ux_host_stack_class_register.c **** /*    such as:                                                            */
  47:./Middlewares/ST/usbx/common/core/src/ux_host_stack_class_register.c **** /*                                                                        */
  48:./Middlewares/ST/usbx/common/core/src/ux_host_stack_class_register.c **** /*                  UX_HOST_CLASS_COMMAND_QUERY                           */
  49:./Middlewares/ST/usbx/common/core/src/ux_host_stack_class_register.c **** /*                  UX_HOST_CLASS_COMMAND_ACTIVATE                        */
  50:./Middlewares/ST/usbx/common/core/src/ux_host_stack_class_register.c **** /*                  UX_HOST_CLASS_COMMAND_DESTROY                         */
  51:./Middlewares/ST/usbx/common/core/src/ux_host_stack_class_register.c **** /*                                                                        */
  52:./Middlewares/ST/usbx/common/core/src/ux_host_stack_class_register.c **** /*    Note: The C string of class_name must be NULL-terminated and the    */
  53:./Middlewares/ST/usbx/common/core/src/ux_host_stack_class_register.c **** /*    length of it (without the NULL-terminator itself) must be no larger */
  54:./Middlewares/ST/usbx/common/core/src/ux_host_stack_class_register.c **** /*    than UX_MAX_CLASS_NAME_LENGTH.                                      */
  55:./Middlewares/ST/usbx/common/core/src/ux_host_stack_class_register.c **** /*                                                                        */
  56:./Middlewares/ST/usbx/common/core/src/ux_host_stack_class_register.c **** /*  INPUT                                                                 */
  57:./Middlewares/ST/usbx/common/core/src/ux_host_stack_class_register.c **** /*                                                                        */
  58:./Middlewares/ST/usbx/common/core/src/ux_host_stack_class_register.c **** /*    class_name                            Name of class                 */
  59:./Middlewares/ST/usbx/common/core/src/ux_host_stack_class_register.c **** /*    class_entry_function                  Entry function of the class   */
  60:./Middlewares/ST/usbx/common/core/src/ux_host_stack_class_register.c **** /*                                                                        */
  61:./Middlewares/ST/usbx/common/core/src/ux_host_stack_class_register.c **** /*  OUTPUT                                                                */
  62:./Middlewares/ST/usbx/common/core/src/ux_host_stack_class_register.c **** /*                                                                        */
  63:./Middlewares/ST/usbx/common/core/src/ux_host_stack_class_register.c **** /*    Completion Status                                                   */
  64:./Middlewares/ST/usbx/common/core/src/ux_host_stack_class_register.c **** /*                                                                        */
  65:./Middlewares/ST/usbx/common/core/src/ux_host_stack_class_register.c **** /*  CALLS                                                                 */
  66:./Middlewares/ST/usbx/common/core/src/ux_host_stack_class_register.c **** /*                                                                        */
  67:./Middlewares/ST/usbx/common/core/src/ux_host_stack_class_register.c **** /*    _ux_utility_string_length_check       Check C string and return     */
  68:./Middlewares/ST/usbx/common/core/src/ux_host_stack_class_register.c **** /*                                          length if null-terminated     */
  69:./Middlewares/ST/usbx/common/core/src/ux_host_stack_class_register.c **** /*    _ux_utility_memory_copy               Copy memory block             */
  70:./Middlewares/ST/usbx/common/core/src/ux_host_stack_class_register.c **** /*                                                                        */
  71:./Middlewares/ST/usbx/common/core/src/ux_host_stack_class_register.c **** /*  CALLED BY                                                             */
  72:./Middlewares/ST/usbx/common/core/src/ux_host_stack_class_register.c **** /*                                                                        */
  73:./Middlewares/ST/usbx/common/core/src/ux_host_stack_class_register.c **** /*    Application                                                         */
  74:./Middlewares/ST/usbx/common/core/src/ux_host_stack_class_register.c **** /*    USBX Components                                                     */
  75:./Middlewares/ST/usbx/common/core/src/ux_host_stack_class_register.c **** /*                                                                        */
  76:./Middlewares/ST/usbx/common/core/src/ux_host_stack_class_register.c **** /*  RELEASE HISTORY                                                       */
  77:./Middlewares/ST/usbx/common/core/src/ux_host_stack_class_register.c **** /*                                                                        */
  78:./Middlewares/ST/usbx/common/core/src/ux_host_stack_class_register.c **** /*    DATE              NAME                      DESCRIPTION             */
  79:./Middlewares/ST/usbx/common/core/src/ux_host_stack_class_register.c **** /*                                                                        */
  80:./Middlewares/ST/usbx/common/core/src/ux_host_stack_class_register.c **** /*  05-19-2020     Chaoqiong Xiao           Initial Version 6.0           */
  81:./Middlewares/ST/usbx/common/core/src/ux_host_stack_class_register.c **** /*  09-30-2020     Chaoqiong Xiao           Modified comment(s),          */
  82:./Middlewares/ST/usbx/common/core/src/ux_host_stack_class_register.c **** /*                                            optimized based on compile  */
  83:./Middlewares/ST/usbx/common/core/src/ux_host_stack_class_register.c **** /*                                            definitions, verified       */
  84:./Middlewares/ST/usbx/common/core/src/ux_host_stack_class_register.c **** /*                                            memset and memcpy cases,    */
  85:./Middlewares/ST/usbx/common/core/src/ux_host_stack_class_register.c **** /*                                            resulting in version 6.1    */
  86:./Middlewares/ST/usbx/common/core/src/ux_host_stack_class_register.c **** /*                                                                        */
ARM GAS  C:\Users\Dennis\AppData\Local\Temp\ccb1uAvn.s 			page 3


  87:./Middlewares/ST/usbx/common/core/src/ux_host_stack_class_register.c **** /**************************************************************************/
  88:./Middlewares/ST/usbx/common/core/src/ux_host_stack_class_register.c **** UINT  _ux_host_stack_class_register(UCHAR *class_name,
  89:./Middlewares/ST/usbx/common/core/src/ux_host_stack_class_register.c ****                         UINT (*class_entry_function)(struct UX_HOST_CLASS_COMMAND_STRUCT *))
  90:./Middlewares/ST/usbx/common/core/src/ux_host_stack_class_register.c **** {
  30              		.loc 1 90 1 view -0
  31              		.cfi_startproc
  32              		@ args = 0, pretend = 0, frame = 8
  33              		@ frame_needed = 0, uses_anonymous_args = 0
  34              		.loc 1 90 1 is_stmt 0 view .LVU1
  35 0000 F0B5     		push	{r4, r5, r6, r7, lr}
  36              	.LCFI0:
  37              		.cfi_def_cfa_offset 20
  38              		.cfi_offset 4, -20
  39              		.cfi_offset 5, -16
  40              		.cfi_offset 6, -12
  41              		.cfi_offset 7, -8
  42              		.cfi_offset 14, -4
  43 0002 83B0     		sub	sp, sp, #12
  44              	.LCFI1:
  45              		.cfi_def_cfa_offset 32
  46 0004 0746     		mov	r7, r0
  47 0006 0E46     		mov	r6, r1
  91:./Middlewares/ST/usbx/common/core/src/ux_host_stack_class_register.c **** 
  92:./Middlewares/ST/usbx/common/core/src/ux_host_stack_class_register.c **** UX_HOST_CLASS       *class_inst;
  48              		.loc 1 92 1 is_stmt 1 view .LVU2
  93:./Middlewares/ST/usbx/common/core/src/ux_host_stack_class_register.c **** #if !defined(UX_NAME_REFERENCED_BY_POINTER)
  94:./Middlewares/ST/usbx/common/core/src/ux_host_stack_class_register.c **** UINT                status;
  49              		.loc 1 94 1 view .LVU3
  95:./Middlewares/ST/usbx/common/core/src/ux_host_stack_class_register.c **** UINT                class_name_length =  0;
  50              		.loc 1 95 1 view .LVU4
  51              		.loc 1 95 21 is_stmt 0 view .LVU5
  52 0008 0023     		movs	r3, #0
  53 000a 0193     		str	r3, [sp, #4]
  96:./Middlewares/ST/usbx/common/core/src/ux_host_stack_class_register.c **** #endif
  97:./Middlewares/ST/usbx/common/core/src/ux_host_stack_class_register.c **** #if UX_MAX_CLASS_DRIVER > 1
  98:./Middlewares/ST/usbx/common/core/src/ux_host_stack_class_register.c **** ULONG               class_index;
  54              		.loc 1 98 1 is_stmt 1 view .LVU6
  99:./Middlewares/ST/usbx/common/core/src/ux_host_stack_class_register.c **** #endif
 100:./Middlewares/ST/usbx/common/core/src/ux_host_stack_class_register.c **** 
 101:./Middlewares/ST/usbx/common/core/src/ux_host_stack_class_register.c ****     /* If trace is enabled, insert this event into the trace buffer.  */
 102:./Middlewares/ST/usbx/common/core/src/ux_host_stack_class_register.c ****     UX_TRACE_IN_LINE_INSERT(UX_TRACE_HOST_STACK_CLASS_REGISTER, class_name, class_entry_function, 0
 103:./Middlewares/ST/usbx/common/core/src/ux_host_stack_class_register.c **** 
 104:./Middlewares/ST/usbx/common/core/src/ux_host_stack_class_register.c **** #if !defined(UX_NAME_REFERENCED_BY_POINTER)
 105:./Middlewares/ST/usbx/common/core/src/ux_host_stack_class_register.c ****     /* Get the length of the class name (exclude null-terminator).  */
 106:./Middlewares/ST/usbx/common/core/src/ux_host_stack_class_register.c ****     status =  _ux_utility_string_length_check(class_name, &class_name_length, UX_MAX_CLASS_NAME_LEN
  55              		.loc 1 106 5 view .LVU7
  56              		.loc 1 106 15 is_stmt 0 view .LVU8
  57 000c 3F22     		movs	r2, #63
  58 000e 01A9     		add	r1, sp, #4
  59              	.LVL1:
  60              		.loc 1 106 15 view .LVU9
  61 0010 FFF7FEFF 		bl	_ux_utility_string_length_check
  62              	.LVL2:
 107:./Middlewares/ST/usbx/common/core/src/ux_host_stack_class_register.c ****     if (status)
  63              		.loc 1 107 5 is_stmt 1 view .LVU10
  64              		.loc 1 107 8 is_stmt 0 view .LVU11
  65 0014 0346     		mov	r3, r0
ARM GAS  C:\Users\Dennis\AppData\Local\Temp\ccb1uAvn.s 			page 4


  66 0016 30BB     		cbnz	r0, .L1
 108:./Middlewares/ST/usbx/common/core/src/ux_host_stack_class_register.c ****         return(status);
 109:./Middlewares/ST/usbx/common/core/src/ux_host_stack_class_register.c **** #endif
 110:./Middlewares/ST/usbx/common/core/src/ux_host_stack_class_register.c **** 
 111:./Middlewares/ST/usbx/common/core/src/ux_host_stack_class_register.c ****     /* Get first class.  */
 112:./Middlewares/ST/usbx/common/core/src/ux_host_stack_class_register.c ****     class_inst =  _ux_system_host -> ux_system_host_class_array;
  67              		.loc 1 112 5 is_stmt 1 view .LVU12
  68              		.loc 1 112 35 is_stmt 0 view .LVU13
  69 0018 144A     		ldr	r2, .L10
  70 001a 1168     		ldr	r1, [r2]
  71              		.loc 1 112 16 view .LVU14
  72 001c 4C68     		ldr	r4, [r1, #4]
  73              	.LVL3:
 113:./Middlewares/ST/usbx/common/core/src/ux_host_stack_class_register.c **** 
 114:./Middlewares/ST/usbx/common/core/src/ux_host_stack_class_register.c **** #if UX_MAX_CLASS_DRIVER > 1
 115:./Middlewares/ST/usbx/common/core/src/ux_host_stack_class_register.c ****     /* We need to parse the class table to find an empty spot.  */
 116:./Middlewares/ST/usbx/common/core/src/ux_host_stack_class_register.c ****     for (class_index = 0; class_index < _ux_system_host -> ux_system_host_max_class; class_index++)
  74              		.loc 1 116 5 is_stmt 1 view .LVU15
  75              		.loc 1 116 5 is_stmt 0 view .LVU16
  76 001e 0CE0     		b	.L3
  77              	.LVL4:
  78              	.L9:
 117:./Middlewares/ST/usbx/common/core/src/ux_host_stack_class_register.c ****     {
 118:./Middlewares/ST/usbx/common/core/src/ux_host_stack_class_register.c **** #endif
 119:./Middlewares/ST/usbx/common/core/src/ux_host_stack_class_register.c **** 
 120:./Middlewares/ST/usbx/common/core/src/ux_host_stack_class_register.c ****         /* Check if this class is already used.  */
 121:./Middlewares/ST/usbx/common/core/src/ux_host_stack_class_register.c ****         if (class_inst -> ux_host_class_status == UX_UNUSED)
 122:./Middlewares/ST/usbx/common/core/src/ux_host_stack_class_register.c ****         {
 123:./Middlewares/ST/usbx/common/core/src/ux_host_stack_class_register.c **** 
 124:./Middlewares/ST/usbx/common/core/src/ux_host_stack_class_register.c **** #if defined(UX_NAME_REFERENCED_BY_POINTER)
 125:./Middlewares/ST/usbx/common/core/src/ux_host_stack_class_register.c ****             class_inst -> ux_host_class_name = (const UCHAR *) class_name;
 126:./Middlewares/ST/usbx/common/core/src/ux_host_stack_class_register.c **** #else
 127:./Middlewares/ST/usbx/common/core/src/ux_host_stack_class_register.c **** 
 128:./Middlewares/ST/usbx/common/core/src/ux_host_stack_class_register.c ****             /* We have found a free container for the class. Copy the name (with null-terminator). 
 129:./Middlewares/ST/usbx/common/core/src/ux_host_stack_class_register.c ****             _ux_utility_memory_copy(class_inst -> ux_host_class_name, class_name, class_name_length
  79              		.loc 1 129 13 is_stmt 1 view .LVU17
  80 0020 019A     		ldr	r2, [sp, #4]
  81 0022 0132     		adds	r2, r2, #1
  82 0024 3946     		mov	r1, r7
  83 0026 2046     		mov	r0, r4
  84              	.LVL5:
  85              		.loc 1 129 13 is_stmt 0 view .LVU18
  86 0028 FFF7FEFF 		bl	_ux_utility_memory_copy
  87              	.LVL6:
 130:./Middlewares/ST/usbx/common/core/src/ux_host_stack_class_register.c **** #endif
 131:./Middlewares/ST/usbx/common/core/src/ux_host_stack_class_register.c **** 
 132:./Middlewares/ST/usbx/common/core/src/ux_host_stack_class_register.c ****             /* Memorize the entry function of this class.  */
 133:./Middlewares/ST/usbx/common/core/src/ux_host_stack_class_register.c ****             class_inst -> ux_host_class_entry_function =  class_entry_function;
  88              		.loc 1 133 13 is_stmt 1 view .LVU19
  89              		.loc 1 133 56 is_stmt 0 view .LVU20
  90 002c 6664     		str	r6, [r4, #68]
 134:./Middlewares/ST/usbx/common/core/src/ux_host_stack_class_register.c **** 
 135:./Middlewares/ST/usbx/common/core/src/ux_host_stack_class_register.c ****             /* Mark it as used.  */
 136:./Middlewares/ST/usbx/common/core/src/ux_host_stack_class_register.c ****             class_inst -> ux_host_class_status =  UX_USED;
  91              		.loc 1 136 13 is_stmt 1 view .LVU21
  92              		.loc 1 136 48 is_stmt 0 view .LVU22
  93 002e 0123     		movs	r3, #1
ARM GAS  C:\Users\Dennis\AppData\Local\Temp\ccb1uAvn.s 			page 5


  94 0030 2364     		str	r3, [r4, #64]
 137:./Middlewares/ST/usbx/common/core/src/ux_host_stack_class_register.c **** 
 138:./Middlewares/ST/usbx/common/core/src/ux_host_stack_class_register.c ****             /* Return successful completion.  */
 139:./Middlewares/ST/usbx/common/core/src/ux_host_stack_class_register.c ****             return(UX_SUCCESS);
  95              		.loc 1 139 13 is_stmt 1 view .LVU23
  96              		.loc 1 139 19 is_stmt 0 view .LVU24
  97 0032 2B46     		mov	r3, r5
  98 0034 17E0     		b	.L1
  99              	.LVL7:
 100              	.L5:
 140:./Middlewares/ST/usbx/common/core/src/ux_host_stack_class_register.c ****         }
 141:./Middlewares/ST/usbx/common/core/src/ux_host_stack_class_register.c **** 
 142:./Middlewares/ST/usbx/common/core/src/ux_host_stack_class_register.c ****         /* Do a sanity check to make sure the class is not already installed by
 143:./Middlewares/ST/usbx/common/core/src/ux_host_stack_class_register.c ****            mistake. To verify this, we simple check for the class entry point.  */
 144:./Middlewares/ST/usbx/common/core/src/ux_host_stack_class_register.c ****         else
 145:./Middlewares/ST/usbx/common/core/src/ux_host_stack_class_register.c ****         {
 146:./Middlewares/ST/usbx/common/core/src/ux_host_stack_class_register.c **** 
 147:./Middlewares/ST/usbx/common/core/src/ux_host_stack_class_register.c ****             /* Check for an already installed class entry function.  */
 148:./Middlewares/ST/usbx/common/core/src/ux_host_stack_class_register.c ****             if(class_inst -> ux_host_class_entry_function == class_entry_function)
 149:./Middlewares/ST/usbx/common/core/src/ux_host_stack_class_register.c ****             {
 150:./Middlewares/ST/usbx/common/core/src/ux_host_stack_class_register.c **** 
 151:./Middlewares/ST/usbx/common/core/src/ux_host_stack_class_register.c ****                 /* Error trap. */
 152:./Middlewares/ST/usbx/common/core/src/ux_host_stack_class_register.c ****                 _ux_system_error_handler(UX_SYSTEM_LEVEL_THREAD, UX_SYSTEM_CONTEXT_INIT, UX_HOST_CL
 153:./Middlewares/ST/usbx/common/core/src/ux_host_stack_class_register.c **** 
 154:./Middlewares/ST/usbx/common/core/src/ux_host_stack_class_register.c ****                 /* If trace is enabled, insert this event into the trace buffer.  */
 155:./Middlewares/ST/usbx/common/core/src/ux_host_stack_class_register.c ****                 UX_TRACE_IN_LINE_INSERT(UX_TRACE_ERROR, UX_HOST_CLASS_ALREADY_INSTALLED, class_name
 156:./Middlewares/ST/usbx/common/core/src/ux_host_stack_class_register.c **** 
 157:./Middlewares/ST/usbx/common/core/src/ux_host_stack_class_register.c ****                 /* Yes, return an error.  */
 158:./Middlewares/ST/usbx/common/core/src/ux_host_stack_class_register.c ****                 return(UX_HOST_CLASS_ALREADY_INSTALLED);
 159:./Middlewares/ST/usbx/common/core/src/ux_host_stack_class_register.c ****             }
 160:./Middlewares/ST/usbx/common/core/src/ux_host_stack_class_register.c ****         }
 161:./Middlewares/ST/usbx/common/core/src/ux_host_stack_class_register.c **** #if UX_MAX_CLASS_DRIVER > 1
 162:./Middlewares/ST/usbx/common/core/src/ux_host_stack_class_register.c ****         /* Move to the next class.  */
 163:./Middlewares/ST/usbx/common/core/src/ux_host_stack_class_register.c ****         class_inst ++;
 101              		.loc 1 163 9 is_stmt 1 discriminator 2 view .LVU25
 102              		.loc 1 163 20 is_stmt 0 discriminator 2 view .LVU26
 103 0036 5834     		adds	r4, r4, #88
 104              	.LVL8:
 116:./Middlewares/ST/usbx/common/core/src/ux_host_stack_class_register.c ****     {
 105              		.loc 1 116 86 is_stmt 1 discriminator 2 view .LVU27
 116:./Middlewares/ST/usbx/common/core/src/ux_host_stack_class_register.c ****     {
 106              		.loc 1 116 97 is_stmt 0 discriminator 2 view .LVU28
 107 0038 0133     		adds	r3, r3, #1
 108              	.LVL9:
 109              	.L3:
 116:./Middlewares/ST/usbx/common/core/src/ux_host_stack_class_register.c ****     {
 110              		.loc 1 116 27 is_stmt 1 discriminator 1 view .LVU29
 116:./Middlewares/ST/usbx/common/core/src/ux_host_stack_class_register.c ****     {
 111              		.loc 1 116 57 is_stmt 0 discriminator 1 view .LVU30
 112 003a 0A68     		ldr	r2, [r1]
 116:./Middlewares/ST/usbx/common/core/src/ux_host_stack_class_register.c ****     {
 113              		.loc 1 116 5 discriminator 1 view .LVU31
 114 003c 9A42     		cmp	r2, r3
 115 003e 0CD9     		bls	.L8
 121:./Middlewares/ST/usbx/common/core/src/ux_host_stack_class_register.c ****         {
 116              		.loc 1 121 9 is_stmt 1 view .LVU32
 121:./Middlewares/ST/usbx/common/core/src/ux_host_stack_class_register.c ****         {
ARM GAS  C:\Users\Dennis\AppData\Local\Temp\ccb1uAvn.s 			page 6


 117              		.loc 1 121 24 is_stmt 0 view .LVU33
 118 0040 256C     		ldr	r5, [r4, #64]
 121:./Middlewares/ST/usbx/common/core/src/ux_host_stack_class_register.c ****         {
 119              		.loc 1 121 12 view .LVU34
 120 0042 002D     		cmp	r5, #0
 121 0044 ECD0     		beq	.L9
 148:./Middlewares/ST/usbx/common/core/src/ux_host_stack_class_register.c ****             {
 122              		.loc 1 148 13 is_stmt 1 view .LVU35
 148:./Middlewares/ST/usbx/common/core/src/ux_host_stack_class_register.c ****             {
 123              		.loc 1 148 27 is_stmt 0 view .LVU36
 124 0046 626C     		ldr	r2, [r4, #68]
 148:./Middlewares/ST/usbx/common/core/src/ux_host_stack_class_register.c ****             {
 125              		.loc 1 148 15 view .LVU37
 126 0048 B242     		cmp	r2, r6
 127 004a F4D1     		bne	.L5
 152:./Middlewares/ST/usbx/common/core/src/ux_host_stack_class_register.c **** 
 128              		.loc 1 152 17 is_stmt 1 view .LVU38
 129 004c 5822     		movs	r2, #88
 130 004e 0321     		movs	r1, #3
 131 0050 0220     		movs	r0, #2
 132              	.LVL10:
 152:./Middlewares/ST/usbx/common/core/src/ux_host_stack_class_register.c **** 
 133              		.loc 1 152 17 is_stmt 0 view .LVU39
 134 0052 FFF7FEFF 		bl	_ux_system_error_handler
 135              	.LVL11:
 158:./Middlewares/ST/usbx/common/core/src/ux_host_stack_class_register.c ****             }
 136              		.loc 1 158 17 is_stmt 1 view .LVU40
 158:./Middlewares/ST/usbx/common/core/src/ux_host_stack_class_register.c ****             }
 137              		.loc 1 158 23 is_stmt 0 view .LVU41
 138 0056 5823     		movs	r3, #88
 139 0058 05E0     		b	.L1
 140              	.LVL12:
 141              	.L8:
 164:./Middlewares/ST/usbx/common/core/src/ux_host_stack_class_register.c ****     }
 165:./Middlewares/ST/usbx/common/core/src/ux_host_stack_class_register.c **** #endif
 166:./Middlewares/ST/usbx/common/core/src/ux_host_stack_class_register.c **** 
 167:./Middlewares/ST/usbx/common/core/src/ux_host_stack_class_register.c ****     /* If trace is enabled, insert this event into the trace buffer.  */
 168:./Middlewares/ST/usbx/common/core/src/ux_host_stack_class_register.c ****     UX_TRACE_IN_LINE_INSERT(UX_TRACE_ERROR, UX_MEMORY_ARRAY_FULL, class_name, 0, 0, UX_TRACE_ERRORS
 169:./Middlewares/ST/usbx/common/core/src/ux_host_stack_class_register.c **** 
 170:./Middlewares/ST/usbx/common/core/src/ux_host_stack_class_register.c ****     /* Error trap. */
 171:./Middlewares/ST/usbx/common/core/src/ux_host_stack_class_register.c ****     _ux_system_error_handler(UX_SYSTEM_LEVEL_THREAD, UX_SYSTEM_CONTEXT_INIT, UX_MEMORY_ARRAY_FULL);
 142              		.loc 1 171 5 is_stmt 1 view .LVU42
 143 005a 1A22     		movs	r2, #26
 144 005c 0321     		movs	r1, #3
 145 005e 0220     		movs	r0, #2
 146              	.LVL13:
 147              		.loc 1 171 5 is_stmt 0 view .LVU43
 148 0060 FFF7FEFF 		bl	_ux_system_error_handler
 149              	.LVL14:
 172:./Middlewares/ST/usbx/common/core/src/ux_host_stack_class_register.c **** 
 173:./Middlewares/ST/usbx/common/core/src/ux_host_stack_class_register.c ****     /* No more entries in the class table.  */
 174:./Middlewares/ST/usbx/common/core/src/ux_host_stack_class_register.c ****     return(UX_MEMORY_ARRAY_FULL);
 150              		.loc 1 174 5 is_stmt 1 view .LVU44
 151              		.loc 1 174 11 is_stmt 0 view .LVU45
 152 0064 1A23     		movs	r3, #26
 153              	.LVL15:
 154              	.L1:
ARM GAS  C:\Users\Dennis\AppData\Local\Temp\ccb1uAvn.s 			page 7


 175:./Middlewares/ST/usbx/common/core/src/ux_host_stack_class_register.c **** }
 155              		.loc 1 175 1 view .LVU46
 156 0066 1846     		mov	r0, r3
 157 0068 03B0     		add	sp, sp, #12
 158              	.LCFI2:
 159              		.cfi_def_cfa_offset 20
 160              		@ sp needed
 161 006a F0BD     		pop	{r4, r5, r6, r7, pc}
 162              	.LVL16:
 163              	.L11:
 164              		.loc 1 175 1 view .LVU47
 165              		.align	2
 166              	.L10:
 167 006c 00000000 		.word	_ux_system_host
 168              		.cfi_endproc
 169              	.LFE11:
 171              		.text
 172              	.Letext0:
 173              		.file 2 "./Middlewares/ST/threadx/ports/cortex_m4/gnu/inc/tx_port.h"
 174              		.file 3 "./Middlewares/ST/threadx/common/inc/tx_api.h"
 175              		.file 4 "./Middlewares/ST/usbx/common/core/inc/ux_api.h"
 176              		.file 5 "./Middlewares/ST/usbx/common/core/inc/ux_system.h"
 177              		.file 6 "./Middlewares/ST/usbx/common/core/inc/ux_utility.h"
ARM GAS  C:\Users\Dennis\AppData\Local\Temp\ccb1uAvn.s 			page 8

