ARM GAS  /tmp/ccTcBKgZ.s 			page 1


   1              		.cpu cortex-m4
   2              		.arch armv7e-m
   3              		.fpu fpv4-sp-d16
   4              		.eabi_attribute 27, 1
   5              		.eabi_attribute 28, 1
   6              		.eabi_attribute 20, 1
   7              		.eabi_attribute 21, 1
   8              		.eabi_attribute 23, 3
   9              		.eabi_attribute 24, 1
  10              		.eabi_attribute 25, 1
  11              		.eabi_attribute 26, 1
  12              		.eabi_attribute 30, 1
  13              		.eabi_attribute 34, 1
  14              		.eabi_attribute 18, 4
  15              		.file	"ux_host_stack_initialize.c"
  16              		.text
  17              	.Ltext0:
  18              		.cfi_sections	.debug_frame
  19              		.file 1 "./Middlewares/ST/usbx/common/core/src/ux_host_stack_initialize.c"
  20              		.section	.rodata._ux_host_stack_initialize.str1.4,"aMS",%progbits,1
  21              		.align	2
  22              	.LC0:
  23 0000 75785F73 		.ascii	"ux_system_host_enum_semaphore\000"
  23      79737465 
  23      6D5F686F 
  23      73745F65 
  23      6E756D5F 
  24 001e 0000     		.align	2
  25              	.LC1:
  26 0020 75785F73 		.ascii	"ux_system_host_hcd_semaphore\000"
  26      79737465 
  26      6D5F686F 
  26      73745F68 
  26      63645F73 
  27 003d 000000   		.align	2
  28              	.LC2:
  29 0040 75785F73 		.ascii	"ux_system_host_enum_thread\000"
  29      79737465 
  29      6D5F686F 
  29      73745F65 
  29      6E756D5F 
  30 005b 00       		.align	2
  31              	.LC3:
  32 005c 75785F68 		.ascii	"ux_host_stack_hcd_thread\000"
  32      6F73745F 
  32      73746163 
  32      6B5F6863 
  32      645F7468 
  33              		.section	.text._ux_host_stack_initialize,"ax",%progbits
  34              		.align	1
  35              		.global	_ux_host_stack_initialize
  36              		.syntax unified
  37              		.thumb
  38              		.thumb_func
  40              	_ux_host_stack_initialize:
  41              	.LVL0:
  42              	.LFB11:
ARM GAS  /tmp/ccTcBKgZ.s 			page 2


   1:./Middlewares/ST/usbx/common/core/src/ux_host_stack_initialize.c **** /**************************************************************************/
   2:./Middlewares/ST/usbx/common/core/src/ux_host_stack_initialize.c **** /*                                                                        */
   3:./Middlewares/ST/usbx/common/core/src/ux_host_stack_initialize.c **** /*       Copyright (c) Microsoft Corporation. All rights reserved.        */
   4:./Middlewares/ST/usbx/common/core/src/ux_host_stack_initialize.c **** /*                                                                        */
   5:./Middlewares/ST/usbx/common/core/src/ux_host_stack_initialize.c **** /*       This software is licensed under the Microsoft Software License   */
   6:./Middlewares/ST/usbx/common/core/src/ux_host_stack_initialize.c **** /*       Terms for Microsoft Azure RTOS. Full text of the license can be  */
   7:./Middlewares/ST/usbx/common/core/src/ux_host_stack_initialize.c **** /*       found in the LICENSE file at https://aka.ms/AzureRTOS_EULA       */
   8:./Middlewares/ST/usbx/common/core/src/ux_host_stack_initialize.c **** /*       and in the root directory of this software.                      */
   9:./Middlewares/ST/usbx/common/core/src/ux_host_stack_initialize.c **** /*                                                                        */
  10:./Middlewares/ST/usbx/common/core/src/ux_host_stack_initialize.c **** /**************************************************************************/
  11:./Middlewares/ST/usbx/common/core/src/ux_host_stack_initialize.c **** 
  12:./Middlewares/ST/usbx/common/core/src/ux_host_stack_initialize.c **** 
  13:./Middlewares/ST/usbx/common/core/src/ux_host_stack_initialize.c **** /**************************************************************************/
  14:./Middlewares/ST/usbx/common/core/src/ux_host_stack_initialize.c **** /**************************************************************************/
  15:./Middlewares/ST/usbx/common/core/src/ux_host_stack_initialize.c **** /**                                                                       */ 
  16:./Middlewares/ST/usbx/common/core/src/ux_host_stack_initialize.c **** /** USBX Component                                                        */ 
  17:./Middlewares/ST/usbx/common/core/src/ux_host_stack_initialize.c **** /**                                                                       */
  18:./Middlewares/ST/usbx/common/core/src/ux_host_stack_initialize.c **** /**   Host Stack                                                          */
  19:./Middlewares/ST/usbx/common/core/src/ux_host_stack_initialize.c **** /**                                                                       */
  20:./Middlewares/ST/usbx/common/core/src/ux_host_stack_initialize.c **** /**************************************************************************/
  21:./Middlewares/ST/usbx/common/core/src/ux_host_stack_initialize.c **** /**************************************************************************/
  22:./Middlewares/ST/usbx/common/core/src/ux_host_stack_initialize.c **** 
  23:./Middlewares/ST/usbx/common/core/src/ux_host_stack_initialize.c **** 
  24:./Middlewares/ST/usbx/common/core/src/ux_host_stack_initialize.c **** /* Include necessary system files.  */
  25:./Middlewares/ST/usbx/common/core/src/ux_host_stack_initialize.c **** 
  26:./Middlewares/ST/usbx/common/core/src/ux_host_stack_initialize.c **** #define UX_SOURCE_CODE
  27:./Middlewares/ST/usbx/common/core/src/ux_host_stack_initialize.c **** 
  28:./Middlewares/ST/usbx/common/core/src/ux_host_stack_initialize.c **** #include "ux_api.h"
  29:./Middlewares/ST/usbx/common/core/src/ux_host_stack_initialize.c **** #include "ux_host_stack.h"
  30:./Middlewares/ST/usbx/common/core/src/ux_host_stack_initialize.c **** 
  31:./Middlewares/ST/usbx/common/core/src/ux_host_stack_initialize.c **** UX_COMPILE_TIME_ASSERT(!UX_OVERFLOW_CHECK_MULC_ULONG(sizeof(UX_HCD), UX_MAX_HCD), UX_MAX_HCD_mul_ov
  32:./Middlewares/ST/usbx/common/core/src/ux_host_stack_initialize.c **** UX_COMPILE_TIME_ASSERT(!UX_OVERFLOW_CHECK_MULC_ULONG(sizeof(UX_HOST_CLASS), UX_MAX_CLASS_DRIVER), U
  33:./Middlewares/ST/usbx/common/core/src/ux_host_stack_initialize.c **** UX_COMPILE_TIME_ASSERT(!UX_OVERFLOW_CHECK_MULC_ULONG(sizeof(UX_DEVICE), UX_MAX_DEVICES), UX_MAX_DEV
  34:./Middlewares/ST/usbx/common/core/src/ux_host_stack_initialize.c **** 
  35:./Middlewares/ST/usbx/common/core/src/ux_host_stack_initialize.c **** #ifndef UX_HOST_HNP_POLLING_THREAD_STACK_SIZE
  36:./Middlewares/ST/usbx/common/core/src/ux_host_stack_initialize.c **** #define UX_HOST_HNP_POLLING_THREAD_STACK_SIZE UX_THREAD_STACK_SIZE
  37:./Middlewares/ST/usbx/common/core/src/ux_host_stack_initialize.c **** #endif
  38:./Middlewares/ST/usbx/common/core/src/ux_host_stack_initialize.c **** 
  39:./Middlewares/ST/usbx/common/core/src/ux_host_stack_initialize.c **** /* Defined USBX host variables.  */
  40:./Middlewares/ST/usbx/common/core/src/ux_host_stack_initialize.c **** 
  41:./Middlewares/ST/usbx/common/core/src/ux_host_stack_initialize.c **** UX_SYSTEM_HOST     *_ux_system_host;
  42:./Middlewares/ST/usbx/common/core/src/ux_host_stack_initialize.c **** 
  43:./Middlewares/ST/usbx/common/core/src/ux_host_stack_initialize.c **** /* Define table of periodic tree entries, properly indexed.  */
  44:./Middlewares/ST/usbx/common/core/src/ux_host_stack_initialize.c **** 
  45:./Middlewares/ST/usbx/common/core/src/ux_host_stack_initialize.c **** UINT _ux_system_host_hcd_periodic_tree_entries[32] = { 
  46:./Middlewares/ST/usbx/common/core/src/ux_host_stack_initialize.c ****                                                                             0x00, 0x10, 0x08, 0x18,
  47:./Middlewares/ST/usbx/common/core/src/ux_host_stack_initialize.c ****                                                                             0x02, 0x12, 0x0a, 0x1a,
  48:./Middlewares/ST/usbx/common/core/src/ux_host_stack_initialize.c ****                                                                             0x01, 0x11, 0x09, 0x19,
  49:./Middlewares/ST/usbx/common/core/src/ux_host_stack_initialize.c ****                                                                             0x03, 0x13, 0x0b, 0x1b,
  50:./Middlewares/ST/usbx/common/core/src/ux_host_stack_initialize.c **** 
  51:./Middlewares/ST/usbx/common/core/src/ux_host_stack_initialize.c **** /* Define the names of all the USB Classes of USBX.  */
  52:./Middlewares/ST/usbx/common/core/src/ux_host_stack_initialize.c **** 
  53:./Middlewares/ST/usbx/common/core/src/ux_host_stack_initialize.c **** UCHAR _ux_system_host_class_hub_name[] =                                    "ux_host_class_hub";
  54:./Middlewares/ST/usbx/common/core/src/ux_host_stack_initialize.c **** UCHAR _ux_system_host_class_printer_name[] =                                "ux_host_class_printer"
  55:./Middlewares/ST/usbx/common/core/src/ux_host_stack_initialize.c **** UCHAR _ux_system_host_class_storage_name[] =                                "ux_host_class_storage"
  56:./Middlewares/ST/usbx/common/core/src/ux_host_stack_initialize.c **** UCHAR _ux_system_host_class_hid_name[] =                                    "ux_host_class_hid";
  57:./Middlewares/ST/usbx/common/core/src/ux_host_stack_initialize.c **** UCHAR _ux_system_host_class_audio_name[] =                                  "ux_host_class_audio";
ARM GAS  /tmp/ccTcBKgZ.s 			page 3


  58:./Middlewares/ST/usbx/common/core/src/ux_host_stack_initialize.c **** UCHAR _ux_system_host_class_cdc_acm_name[] =                                "ux_host_class_cdc_acm"
  59:./Middlewares/ST/usbx/common/core/src/ux_host_stack_initialize.c **** UCHAR _ux_system_host_class_cdc_dlc_name[] =                                "ux_host_class_cdc_dlc"
  60:./Middlewares/ST/usbx/common/core/src/ux_host_stack_initialize.c **** UCHAR _ux_system_host_class_cdc_ecm_name[] =                                "ux_host_class_cdc_ecm"
  61:./Middlewares/ST/usbx/common/core/src/ux_host_stack_initialize.c **** UCHAR _ux_system_host_class_prolific_name[] =                               "ux_host_class_prolific
  62:./Middlewares/ST/usbx/common/core/src/ux_host_stack_initialize.c **** UCHAR _ux_system_host_class_pima_name[] =                                   "ux_host_class_pima";
  63:./Middlewares/ST/usbx/common/core/src/ux_host_stack_initialize.c **** UCHAR _ux_system_host_class_dpump_name[] =                                  "ux_host_class_dpump";
  64:./Middlewares/ST/usbx/common/core/src/ux_host_stack_initialize.c **** UCHAR _ux_system_host_class_asix_name[] =                                   "ux_host_class_asix";
  65:./Middlewares/ST/usbx/common/core/src/ux_host_stack_initialize.c **** UCHAR _ux_system_host_class_swar_name[] =                                   "ux_host_class_sierra_w
  66:./Middlewares/ST/usbx/common/core/src/ux_host_stack_initialize.c **** UCHAR _ux_system_host_class_gser_name[] =                                   "ux_host_class_generic_
  67:./Middlewares/ST/usbx/common/core/src/ux_host_stack_initialize.c **** UCHAR _ux_system_host_class_hid_client_remote_control_name[] =              "ux_host_class_hid_clie
  68:./Middlewares/ST/usbx/common/core/src/ux_host_stack_initialize.c **** UCHAR _ux_system_host_class_hid_client_mouse_name[] =                       "ux_host_class_hid_clie
  69:./Middlewares/ST/usbx/common/core/src/ux_host_stack_initialize.c **** UCHAR _ux_system_host_class_hid_client_keyboard_name[] =                    "ux_host_class_hid_clie
  70:./Middlewares/ST/usbx/common/core/src/ux_host_stack_initialize.c **** 
  71:./Middlewares/ST/usbx/common/core/src/ux_host_stack_initialize.c **** /* Define the name of all the USB Host Controllers of USBX.  */
  72:./Middlewares/ST/usbx/common/core/src/ux_host_stack_initialize.c **** 
  73:./Middlewares/ST/usbx/common/core/src/ux_host_stack_initialize.c **** UCHAR _ux_system_host_hcd_ohci_name[] =                                     "ux_hcd_ohci";
  74:./Middlewares/ST/usbx/common/core/src/ux_host_stack_initialize.c **** UCHAR _ux_system_host_hcd_ehci_name[] =                                     "ux_hcd_ehci";
  75:./Middlewares/ST/usbx/common/core/src/ux_host_stack_initialize.c **** UCHAR _ux_system_host_hcd_isp1161_name[] =                                  "ux_hcd_isp1161";
  76:./Middlewares/ST/usbx/common/core/src/ux_host_stack_initialize.c **** UCHAR _ux_system_host_hcd_isp1362_name[] =                                  "ux_hcd_isp1362";
  77:./Middlewares/ST/usbx/common/core/src/ux_host_stack_initialize.c **** UCHAR _ux_system_host_hcd_sh2_name[] =                                      "ux_hcd_rx";
  78:./Middlewares/ST/usbx/common/core/src/ux_host_stack_initialize.c **** UCHAR _ux_system_host_hcd_rx_name[] =                                       "ux_hcd_sh2";
  79:./Middlewares/ST/usbx/common/core/src/ux_host_stack_initialize.c **** UCHAR _ux_system_host_hcd_pic32_name[] =                                    "ux_hcd_pic32";
  80:./Middlewares/ST/usbx/common/core/src/ux_host_stack_initialize.c **** UCHAR _ux_system_host_hcd_stm32_name[] =                                    "ux_hcd_stm32";
  81:./Middlewares/ST/usbx/common/core/src/ux_host_stack_initialize.c **** UCHAR _ux_system_host_hcd_musb_name[] =                                     "ux_hcd_musb";
  82:./Middlewares/ST/usbx/common/core/src/ux_host_stack_initialize.c **** UCHAR _ux_system_host_hcd_atm7_name[] =                                     "ux_hcd_atm7";
  83:./Middlewares/ST/usbx/common/core/src/ux_host_stack_initialize.c **** UCHAR _ux_system_host_hcd_simulator_name[] =                                "ux_hcd_simulator";
  84:./Middlewares/ST/usbx/common/core/src/ux_host_stack_initialize.c **** 
  85:./Middlewares/ST/usbx/common/core/src/ux_host_stack_initialize.c **** /**************************************************************************/ 
  86:./Middlewares/ST/usbx/common/core/src/ux_host_stack_initialize.c **** /*                                                                        */ 
  87:./Middlewares/ST/usbx/common/core/src/ux_host_stack_initialize.c **** /*  FUNCTION                                               RELEASE        */ 
  88:./Middlewares/ST/usbx/common/core/src/ux_host_stack_initialize.c **** /*                                                                        */ 
  89:./Middlewares/ST/usbx/common/core/src/ux_host_stack_initialize.c **** /*    _ux_host_stack_initialize                           PORTABLE C      */ 
  90:./Middlewares/ST/usbx/common/core/src/ux_host_stack_initialize.c **** /*                                                           6.1.10       */
  91:./Middlewares/ST/usbx/common/core/src/ux_host_stack_initialize.c **** /*  AUTHOR                                                                */
  92:./Middlewares/ST/usbx/common/core/src/ux_host_stack_initialize.c **** /*                                                                        */
  93:./Middlewares/ST/usbx/common/core/src/ux_host_stack_initialize.c **** /*    Chaoqiong Xiao, Microsoft Corporation                               */
  94:./Middlewares/ST/usbx/common/core/src/ux_host_stack_initialize.c **** /*                                                                        */
  95:./Middlewares/ST/usbx/common/core/src/ux_host_stack_initialize.c **** /*  DESCRIPTION                                                           */
  96:./Middlewares/ST/usbx/common/core/src/ux_host_stack_initialize.c **** /*                                                                        */ 
  97:./Middlewares/ST/usbx/common/core/src/ux_host_stack_initialize.c **** /*    This function initializes all the host code for USBX to work on a   */ 
  98:./Middlewares/ST/usbx/common/core/src/ux_host_stack_initialize.c **** /*    specific platform.                                                  */ 
  99:./Middlewares/ST/usbx/common/core/src/ux_host_stack_initialize.c **** /*                                                                        */ 
 100:./Middlewares/ST/usbx/common/core/src/ux_host_stack_initialize.c **** /*  INPUT                                                                 */ 
 101:./Middlewares/ST/usbx/common/core/src/ux_host_stack_initialize.c **** /*                                                                        */ 
 102:./Middlewares/ST/usbx/common/core/src/ux_host_stack_initialize.c **** /*    (ux_system_host_change_function)        Function pointer to the     */ 
 103:./Middlewares/ST/usbx/common/core/src/ux_host_stack_initialize.c **** /*                                            callback function for a     */ 
 104:./Middlewares/ST/usbx/common/core/src/ux_host_stack_initialize.c **** /*                                            device change               */ 
 105:./Middlewares/ST/usbx/common/core/src/ux_host_stack_initialize.c **** /*                                                                        */ 
 106:./Middlewares/ST/usbx/common/core/src/ux_host_stack_initialize.c **** /*  OUTPUT                                                                */ 
 107:./Middlewares/ST/usbx/common/core/src/ux_host_stack_initialize.c **** /*                                                                        */ 
 108:./Middlewares/ST/usbx/common/core/src/ux_host_stack_initialize.c **** /*    Completion Status                                                   */ 
 109:./Middlewares/ST/usbx/common/core/src/ux_host_stack_initialize.c **** /*                                                                        */ 
 110:./Middlewares/ST/usbx/common/core/src/ux_host_stack_initialize.c **** /*                                                                        */ 
 111:./Middlewares/ST/usbx/common/core/src/ux_host_stack_initialize.c **** /*  CALLS                                                                 */ 
 112:./Middlewares/ST/usbx/common/core/src/ux_host_stack_initialize.c **** /*                                                                        */ 
 113:./Middlewares/ST/usbx/common/core/src/ux_host_stack_initialize.c **** /*    _ux_utility_memory_allocate           Allocate host memory          */ 
 114:./Middlewares/ST/usbx/common/core/src/ux_host_stack_initialize.c **** /*    _ux_utility_semaphore_create          Create host semaphore         */ 
ARM GAS  /tmp/ccTcBKgZ.s 			page 4


 115:./Middlewares/ST/usbx/common/core/src/ux_host_stack_initialize.c **** /*    _ux_utility_mutex_create             Create host mutex              */ 
 116:./Middlewares/ST/usbx/common/core/src/ux_host_stack_initialize.c **** /*    _ux_utility_thread_create             Create host thread            */ 
 117:./Middlewares/ST/usbx/common/core/src/ux_host_stack_initialize.c **** /*                                                                        */ 
 118:./Middlewares/ST/usbx/common/core/src/ux_host_stack_initialize.c **** /*  CALLED BY                                                             */ 
 119:./Middlewares/ST/usbx/common/core/src/ux_host_stack_initialize.c **** /*                                                                        */ 
 120:./Middlewares/ST/usbx/common/core/src/ux_host_stack_initialize.c **** /*    Application                                                         */ 
 121:./Middlewares/ST/usbx/common/core/src/ux_host_stack_initialize.c **** /*                                                                        */ 
 122:./Middlewares/ST/usbx/common/core/src/ux_host_stack_initialize.c **** /*  RELEASE HISTORY                                                       */ 
 123:./Middlewares/ST/usbx/common/core/src/ux_host_stack_initialize.c **** /*                                                                        */ 
 124:./Middlewares/ST/usbx/common/core/src/ux_host_stack_initialize.c **** /*    DATE              NAME                      DESCRIPTION             */ 
 125:./Middlewares/ST/usbx/common/core/src/ux_host_stack_initialize.c **** /*                                                                        */ 
 126:./Middlewares/ST/usbx/common/core/src/ux_host_stack_initialize.c **** /*  05-19-2020     Chaoqiong Xiao           Initial Version 6.0           */
 127:./Middlewares/ST/usbx/common/core/src/ux_host_stack_initialize.c **** /*  09-30-2020     Chaoqiong Xiao           Modified comment(s),          */
 128:./Middlewares/ST/usbx/common/core/src/ux_host_stack_initialize.c **** /*                                            optimized based on compile  */
 129:./Middlewares/ST/usbx/common/core/src/ux_host_stack_initialize.c **** /*                                            definitions, used UX prefix */
 130:./Middlewares/ST/usbx/common/core/src/ux_host_stack_initialize.c **** /*                                            to refer to TX symbols      */
 131:./Middlewares/ST/usbx/common/core/src/ux_host_stack_initialize.c **** /*                                            instead of using them       */
 132:./Middlewares/ST/usbx/common/core/src/ux_host_stack_initialize.c **** /*                                            directly,                   */
 133:./Middlewares/ST/usbx/common/core/src/ux_host_stack_initialize.c **** /*                                            resulting in version 6.1    */
 134:./Middlewares/ST/usbx/common/core/src/ux_host_stack_initialize.c **** /*  01-31-2022     Chaoqiong Xiao           Modified comment(s),          */
 135:./Middlewares/ST/usbx/common/core/src/ux_host_stack_initialize.c **** /*                                            added standalone support,   */
 136:./Middlewares/ST/usbx/common/core/src/ux_host_stack_initialize.c **** /*                                            resulting in version 6.1.10 */
 137:./Middlewares/ST/usbx/common/core/src/ux_host_stack_initialize.c **** /*                                                                        */
 138:./Middlewares/ST/usbx/common/core/src/ux_host_stack_initialize.c **** /**************************************************************************/
 139:./Middlewares/ST/usbx/common/core/src/ux_host_stack_initialize.c **** UINT  _ux_host_stack_initialize(UINT (*ux_system_host_change_function)(ULONG, UX_HOST_CLASS *, VOID
 140:./Middlewares/ST/usbx/common/core/src/ux_host_stack_initialize.c **** {
  43              		.loc 1 140 1 view -0
  44              		.cfi_startproc
  45              		@ args = 0, pretend = 0, frame = 0
  46              		@ frame_needed = 0, uses_anonymous_args = 0
  47              		.loc 1 140 1 is_stmt 0 view .LVU1
  48 0000 30B5     		push	{r4, r5, lr}
  49              	.LCFI0:
  50              		.cfi_def_cfa_offset 12
  51              		.cfi_offset 4, -12
  52              		.cfi_offset 5, -8
  53              		.cfi_offset 14, -4
  54 0002 87B0     		sub	sp, sp, #28
  55              	.LCFI1:
  56              		.cfi_def_cfa_offset 40
 141:./Middlewares/ST/usbx/common/core/src/ux_host_stack_initialize.c **** 
 142:./Middlewares/ST/usbx/common/core/src/ux_host_stack_initialize.c **** UINT        status;
  57              		.loc 1 142 1 is_stmt 1 view .LVU2
 143:./Middlewares/ST/usbx/common/core/src/ux_host_stack_initialize.c **** UCHAR       *memory;
  58              		.loc 1 143 1 view .LVU3
 144:./Middlewares/ST/usbx/common/core/src/ux_host_stack_initialize.c **** #if defined(UX_HOST_STANDALONE)
 145:./Middlewares/ST/usbx/common/core/src/ux_host_stack_initialize.c **** UINT        i;
 146:./Middlewares/ST/usbx/common/core/src/ux_host_stack_initialize.c **** UX_DEVICE   *device;
 147:./Middlewares/ST/usbx/common/core/src/ux_host_stack_initialize.c **** #endif
 148:./Middlewares/ST/usbx/common/core/src/ux_host_stack_initialize.c **** 
 149:./Middlewares/ST/usbx/common/core/src/ux_host_stack_initialize.c ****     /* If trace is enabled, insert this event into the trace buffer.  */
 150:./Middlewares/ST/usbx/common/core/src/ux_host_stack_initialize.c ****     UX_TRACE_IN_LINE_INSERT(UX_TRACE_HOST_STACK_INITIALIZE, 0, 0, 0, 0, UX_TRACE_HOST_STACK_EVENTS,
 151:./Middlewares/ST/usbx/common/core/src/ux_host_stack_initialize.c **** 
 152:./Middlewares/ST/usbx/common/core/src/ux_host_stack_initialize.c ****     /* Initialize some of the global so that we don't have to recompile the
 153:./Middlewares/ST/usbx/common/core/src/ux_host_stack_initialize.c ****        core code when one item is adjusted.  */
 154:./Middlewares/ST/usbx/common/core/src/ux_host_stack_initialize.c ****     _ux_system_host -> ux_system_host_max_ed =        UX_MAX_ED;
  59              		.loc 1 154 5 view .LVU4
ARM GAS  /tmp/ccTcBKgZ.s 			page 5


  60              		.loc 1 154 21 is_stmt 0 view .LVU5
  61 0004 6D49     		ldr	r1, .L28
  62 0006 0A68     		ldr	r2, [r1]
  63              		.loc 1 154 46 view .LVU6
  64 0008 5023     		movs	r3, #80
  65 000a D361     		str	r3, [r2, #28]
 155:./Middlewares/ST/usbx/common/core/src/ux_host_stack_initialize.c ****     _ux_system_host -> ux_system_host_max_td =        UX_MAX_TD;
  66              		.loc 1 155 5 is_stmt 1 view .LVU7
  67              		.loc 1 155 46 is_stmt 0 view .LVU8
  68 000c 2023     		movs	r3, #32
  69 000e 1362     		str	r3, [r2, #32]
 156:./Middlewares/ST/usbx/common/core/src/ux_host_stack_initialize.c ****     _ux_system_host -> ux_system_host_max_iso_td =    UX_MAX_ISO_TD;
  70              		.loc 1 156 5 is_stmt 1 view .LVU9
  71              		.loc 1 156 50 is_stmt 0 view .LVU10
  72 0010 0223     		movs	r3, #2
  73 0012 5362     		str	r3, [r2, #36]
 157:./Middlewares/ST/usbx/common/core/src/ux_host_stack_initialize.c ****     UX_SYSTEM_HOST_MAX_CLASS_SET(UX_MAX_CLASS_DRIVER);
  74              		.loc 1 157 5 is_stmt 1 view .LVU11
  75              		.loc 1 157 5 view .LVU12
  76 0014 1360     		str	r3, [r2]
  77              		.loc 1 157 5 view .LVU13
 158:./Middlewares/ST/usbx/common/core/src/ux_host_stack_initialize.c ****     UX_SYSTEM_HOST_MAX_HCD_SET(UX_MAX_HCD);
  78              		.loc 1 158 5 view .LVU14
  79              		.loc 1 158 5 view .LVU15
  80 0016 0A68     		ldr	r2, [r1]
  81 0018 9360     		str	r3, [r2, #8]
  82              		.loc 1 158 5 view .LVU16
 159:./Middlewares/ST/usbx/common/core/src/ux_host_stack_initialize.c ****     UX_SYSTEM_HOST_MAX_DEVICES_SET(UX_MAX_DEVICES);
  83              		.loc 1 159 5 view .LVU17
  84              		.loc 1 159 5 view .LVU18
  85 001a 5361     		str	r3, [r2, #20]
  86              		.loc 1 159 5 view .LVU19
 160:./Middlewares/ST/usbx/common/core/src/ux_host_stack_initialize.c ****     
 161:./Middlewares/ST/usbx/common/core/src/ux_host_stack_initialize.c ****     /* Set the change device function address.  */
 162:./Middlewares/ST/usbx/common/core/src/ux_host_stack_initialize.c ****     _ux_system_host -> ux_system_host_change_function =  ux_system_host_change_function;
  87              		.loc 1 162 5 view .LVU20
  88              		.loc 1 162 55 is_stmt 0 view .LVU21
  89 001c C2F8CC01 		str	r0, [r2, #460]
 163:./Middlewares/ST/usbx/common/core/src/ux_host_stack_initialize.c **** 
 164:./Middlewares/ST/usbx/common/core/src/ux_host_stack_initialize.c ****     /* Allocate memory for the HCDs.
 165:./Middlewares/ST/usbx/common/core/src/ux_host_stack_initialize.c ****      * sizeof(UX_HCD)*UX_MAX_HCD overflow is checked outside of the function.
 166:./Middlewares/ST/usbx/common/core/src/ux_host_stack_initialize.c ****      */
 167:./Middlewares/ST/usbx/common/core/src/ux_host_stack_initialize.c ****     memory =  _ux_utility_memory_allocate(UX_NO_ALIGN, UX_REGULAR_MEMORY, sizeof(UX_HCD)*UX_MAX_HCD
  90              		.loc 1 167 5 is_stmt 1 view .LVU22
  91              		.loc 1 167 15 is_stmt 0 view .LVU23
  92 0020 4FF49472 		mov	r2, #296
  93 0024 0021     		movs	r1, #0
  94 0026 0846     		mov	r0, r1
  95              	.LVL1:
  96              		.loc 1 167 15 view .LVU24
  97 0028 FFF7FEFF 		bl	_ux_utility_memory_allocate
  98              	.LVL2:
 168:./Middlewares/ST/usbx/common/core/src/ux_host_stack_initialize.c **** 
 169:./Middlewares/ST/usbx/common/core/src/ux_host_stack_initialize.c ****     /* Check for successful allocation.  */
 170:./Middlewares/ST/usbx/common/core/src/ux_host_stack_initialize.c ****     if (memory == UX_NULL)
  99              		.loc 1 170 5 is_stmt 1 view .LVU25
 100              		.loc 1 170 8 is_stmt 0 view .LVU26
ARM GAS  /tmp/ccTcBKgZ.s 			page 6


 101 002c 0028     		cmp	r0, #0
 102 002e 00F0C380 		beq	.L12
 171:./Middlewares/ST/usbx/common/core/src/ux_host_stack_initialize.c ****         return(UX_MEMORY_INSUFFICIENT);
 172:./Middlewares/ST/usbx/common/core/src/ux_host_stack_initialize.c **** 
 173:./Middlewares/ST/usbx/common/core/src/ux_host_stack_initialize.c ****     /* Set to success by default.  */
 174:./Middlewares/ST/usbx/common/core/src/ux_host_stack_initialize.c ****     status = UX_SUCCESS;
 103              		.loc 1 174 5 is_stmt 1 view .LVU27
 104              	.LVL3:
 175:./Middlewares/ST/usbx/common/core/src/ux_host_stack_initialize.c **** 
 176:./Middlewares/ST/usbx/common/core/src/ux_host_stack_initialize.c ****     /* Store memory in system structure.  */
 177:./Middlewares/ST/usbx/common/core/src/ux_host_stack_initialize.c ****     _ux_system_host -> ux_system_host_hcd_array =  (UX_HCD *) memory;
 105              		.loc 1 177 5 view .LVU28
 106              		.loc 1 177 21 is_stmt 0 view .LVU29
 107 0032 624A     		ldr	r2, .L28
 108 0034 1268     		ldr	r2, [r2]
 109              		.loc 1 177 49 view .LVU30
 110 0036 1061     		str	r0, [r2, #16]
 178:./Middlewares/ST/usbx/common/core/src/ux_host_stack_initialize.c **** 
 179:./Middlewares/ST/usbx/common/core/src/ux_host_stack_initialize.c ****     /* Allocate memory for the classes.
 180:./Middlewares/ST/usbx/common/core/src/ux_host_stack_initialize.c ****      * sizeof(UX_HOST_CLASS)*UX_MAX_CLASS_DRIVER overflow is checked outside of the function.
 181:./Middlewares/ST/usbx/common/core/src/ux_host_stack_initialize.c ****      */
 182:./Middlewares/ST/usbx/common/core/src/ux_host_stack_initialize.c ****     memory =  _ux_utility_memory_allocate(UX_NO_ALIGN, UX_REGULAR_MEMORY, sizeof(UX_HOST_CLASS)*UX_
 111              		.loc 1 182 5 is_stmt 1 view .LVU31
 112              		.loc 1 182 15 is_stmt 0 view .LVU32
 113 0038 B022     		movs	r2, #176
 114 003a 0021     		movs	r1, #0
 115 003c 0846     		mov	r0, r1
 116              	.LVL4:
 117              		.loc 1 182 15 view .LVU33
 118 003e FFF7FEFF 		bl	_ux_utility_memory_allocate
 119              	.LVL5:
 183:./Middlewares/ST/usbx/common/core/src/ux_host_stack_initialize.c **** 
 184:./Middlewares/ST/usbx/common/core/src/ux_host_stack_initialize.c ****     /* Check for successful allocation.  */
 185:./Middlewares/ST/usbx/common/core/src/ux_host_stack_initialize.c ****     if (memory == UX_NULL)
 120              		.loc 1 185 5 is_stmt 1 view .LVU34
 121              		.loc 1 185 8 is_stmt 0 view .LVU35
 122 0042 80B1     		cbz	r0, .L13
 186:./Middlewares/ST/usbx/common/core/src/ux_host_stack_initialize.c ****         status = UX_MEMORY_INSUFFICIENT;
 187:./Middlewares/ST/usbx/common/core/src/ux_host_stack_initialize.c ****     else
 188:./Middlewares/ST/usbx/common/core/src/ux_host_stack_initialize.c **** 
 189:./Middlewares/ST/usbx/common/core/src/ux_host_stack_initialize.c ****         /* Store memory in system structure.  */
 190:./Middlewares/ST/usbx/common/core/src/ux_host_stack_initialize.c ****         _ux_system_host -> ux_system_host_class_array =  (UX_HOST_CLASS *) memory;
 123              		.loc 1 190 9 is_stmt 1 view .LVU36
 124              		.loc 1 190 25 is_stmt 0 view .LVU37
 125 0044 5D4A     		ldr	r2, .L28
 126 0046 1268     		ldr	r2, [r2]
 127              		.loc 1 190 55 view .LVU38
 128 0048 5060     		str	r0, [r2, #4]
 191:./Middlewares/ST/usbx/common/core/src/ux_host_stack_initialize.c **** 
 192:./Middlewares/ST/usbx/common/core/src/ux_host_stack_initialize.c ****     /* Allocate memory for the device containers.
 193:./Middlewares/ST/usbx/common/core/src/ux_host_stack_initialize.c ****      * sizeof(UX_DEVICE)*UX_MAX_DEVICES overflow is checked outside of the function.
 194:./Middlewares/ST/usbx/common/core/src/ux_host_stack_initialize.c ****      */
 195:./Middlewares/ST/usbx/common/core/src/ux_host_stack_initialize.c ****     if (status == UX_SUCCESS)
 129              		.loc 1 195 5 is_stmt 1 view .LVU39
 196:./Middlewares/ST/usbx/common/core/src/ux_host_stack_initialize.c ****     {
 197:./Middlewares/ST/usbx/common/core/src/ux_host_stack_initialize.c ****         memory =  _ux_utility_memory_allocate(UX_NO_ALIGN, UX_REGULAR_MEMORY, sizeof(UX_DEVICE)*UX_
 130              		.loc 1 197 9 view .LVU40
ARM GAS  /tmp/ccTcBKgZ.s 			page 7


 131              		.loc 1 197 19 is_stmt 0 view .LVU41
 132 004a 4FF43072 		mov	r2, #704
 133 004e 0021     		movs	r1, #0
 134 0050 0846     		mov	r0, r1
 135              	.LVL6:
 136              		.loc 1 197 19 view .LVU42
 137 0052 FFF7FEFF 		bl	_ux_utility_memory_allocate
 138              	.LVL7:
 198:./Middlewares/ST/usbx/common/core/src/ux_host_stack_initialize.c **** 
 199:./Middlewares/ST/usbx/common/core/src/ux_host_stack_initialize.c ****         /* Check for successful allocation.  */
 200:./Middlewares/ST/usbx/common/core/src/ux_host_stack_initialize.c ****         if(memory == UX_NULL)
 139              		.loc 1 200 9 is_stmt 1 view .LVU43
 140              		.loc 1 200 11 is_stmt 0 view .LVU44
 141 0056 0028     		cmp	r0, #0
 142 0058 00F09B80 		beq	.L14
 201:./Middlewares/ST/usbx/common/core/src/ux_host_stack_initialize.c ****             status = UX_MEMORY_INSUFFICIENT;
 202:./Middlewares/ST/usbx/common/core/src/ux_host_stack_initialize.c ****         else
 203:./Middlewares/ST/usbx/common/core/src/ux_host_stack_initialize.c **** 
 204:./Middlewares/ST/usbx/common/core/src/ux_host_stack_initialize.c ****             /* Store memory in system structure.  */
 205:./Middlewares/ST/usbx/common/core/src/ux_host_stack_initialize.c ****             _ux_system_host -> ux_system_host_device_array =  (UX_DEVICE *) memory;
 143              		.loc 1 205 13 is_stmt 1 view .LVU45
 144              		.loc 1 205 29 is_stmt 0 view .LVU46
 145 005c 574A     		ldr	r2, .L28
 146 005e 1268     		ldr	r2, [r2]
 147              		.loc 1 205 60 view .LVU47
 148 0060 9061     		str	r0, [r2, #24]
 174:./Middlewares/ST/usbx/common/core/src/ux_host_stack_initialize.c **** 
 149              		.loc 1 174 12 view .LVU48
 150 0062 0024     		movs	r4, #0
 151 0064 00E0     		b	.L3
 152              	.L13:
 186:./Middlewares/ST/usbx/common/core/src/ux_host_stack_initialize.c ****     else
 153              		.loc 1 186 16 view .LVU49
 154 0066 1224     		movs	r4, #18
 155              	.L3:
 156              	.LVL8:
 206:./Middlewares/ST/usbx/common/core/src/ux_host_stack_initialize.c **** 
 207:./Middlewares/ST/usbx/common/core/src/ux_host_stack_initialize.c **** #if defined(UX_HOST_STANDALONE)
 208:./Middlewares/ST/usbx/common/core/src/ux_host_stack_initialize.c **** 
 209:./Middlewares/ST/usbx/common/core/src/ux_host_stack_initialize.c ****         /* Add devices to the enumeration list, with ENUM flags cleared.  */
 210:./Middlewares/ST/usbx/common/core/src/ux_host_stack_initialize.c ****         if (status == UX_SUCCESS)
 211:./Middlewares/ST/usbx/common/core/src/ux_host_stack_initialize.c ****         {
 212:./Middlewares/ST/usbx/common/core/src/ux_host_stack_initialize.c **** 
 213:./Middlewares/ST/usbx/common/core/src/ux_host_stack_initialize.c ****             /* Start from the last device instance.  */
 214:./Middlewares/ST/usbx/common/core/src/ux_host_stack_initialize.c ****             device = &_ux_system_host -> ux_system_host_device_array[UX_MAX_DEVICES - 1];
 215:./Middlewares/ST/usbx/common/core/src/ux_host_stack_initialize.c **** 
 216:./Middlewares/ST/usbx/common/core/src/ux_host_stack_initialize.c ****             /* Insert all devices to enumeration list head.  */
 217:./Middlewares/ST/usbx/common/core/src/ux_host_stack_initialize.c ****             for (i = 0; i < UX_MAX_DEVICES; i ++)
 218:./Middlewares/ST/usbx/common/core/src/ux_host_stack_initialize.c ****             {
 219:./Middlewares/ST/usbx/common/core/src/ux_host_stack_initialize.c **** 
 220:./Middlewares/ST/usbx/common/core/src/ux_host_stack_initialize.c ****                 /* Insert to head.  */
 221:./Middlewares/ST/usbx/common/core/src/ux_host_stack_initialize.c ****                 device -> ux_device_enum_next = _ux_system_host -> ux_system_host_enum_device;
 222:./Middlewares/ST/usbx/common/core/src/ux_host_stack_initialize.c ****                 _ux_system_host -> ux_system_host_enum_device = device;
 223:./Middlewares/ST/usbx/common/core/src/ux_host_stack_initialize.c **** 
 224:./Middlewares/ST/usbx/common/core/src/ux_host_stack_initialize.c ****                 /* Next device.  */
 225:./Middlewares/ST/usbx/common/core/src/ux_host_stack_initialize.c ****                 device --;
 226:./Middlewares/ST/usbx/common/core/src/ux_host_stack_initialize.c ****             }
ARM GAS  /tmp/ccTcBKgZ.s 			page 8


 227:./Middlewares/ST/usbx/common/core/src/ux_host_stack_initialize.c ****         }
 228:./Middlewares/ST/usbx/common/core/src/ux_host_stack_initialize.c **** #endif
 229:./Middlewares/ST/usbx/common/core/src/ux_host_stack_initialize.c **** 
 230:./Middlewares/ST/usbx/common/core/src/ux_host_stack_initialize.c ****     }
 231:./Middlewares/ST/usbx/common/core/src/ux_host_stack_initialize.c **** 
 232:./Middlewares/ST/usbx/common/core/src/ux_host_stack_initialize.c **** #if !defined(UX_HOST_STANDALONE)
 233:./Middlewares/ST/usbx/common/core/src/ux_host_stack_initialize.c ****     /* Obtain enough stack for the two USBX host threads.  */
 234:./Middlewares/ST/usbx/common/core/src/ux_host_stack_initialize.c ****     if (status == UX_SUCCESS)
 157              		.loc 1 234 5 is_stmt 1 view .LVU50
 158              		.loc 1 234 8 is_stmt 0 view .LVU51
 159 0068 002C     		cmp	r4, #0
 160 006a 34D0     		beq	.L21
 161              	.LVL9:
 162              	.L4:
 235:./Middlewares/ST/usbx/common/core/src/ux_host_stack_initialize.c ****     {
 236:./Middlewares/ST/usbx/common/core/src/ux_host_stack_initialize.c ****         _ux_system_host -> ux_system_host_enum_thread_stack =  _ux_utility_memory_allocate(UX_NO_AL
 237:./Middlewares/ST/usbx/common/core/src/ux_host_stack_initialize.c ****                                                                             UX_HOST_ENUM_THREAD_STA
 238:./Middlewares/ST/usbx/common/core/src/ux_host_stack_initialize.c **** 
 239:./Middlewares/ST/usbx/common/core/src/ux_host_stack_initialize.c ****         /* Check for successful allocation.  */
 240:./Middlewares/ST/usbx/common/core/src/ux_host_stack_initialize.c ****         if (_ux_system_host -> ux_system_host_enum_thread_stack == UX_NULL)
 241:./Middlewares/ST/usbx/common/core/src/ux_host_stack_initialize.c ****             status = UX_MEMORY_INSUFFICIENT;
 242:./Middlewares/ST/usbx/common/core/src/ux_host_stack_initialize.c ****     }
 243:./Middlewares/ST/usbx/common/core/src/ux_host_stack_initialize.c **** 
 244:./Middlewares/ST/usbx/common/core/src/ux_host_stack_initialize.c ****     /* Allocate another stack area.  */
 245:./Middlewares/ST/usbx/common/core/src/ux_host_stack_initialize.c ****     if (status == UX_SUCCESS)
 246:./Middlewares/ST/usbx/common/core/src/ux_host_stack_initialize.c ****     {
 247:./Middlewares/ST/usbx/common/core/src/ux_host_stack_initialize.c ****         _ux_system_host -> ux_system_host_hcd_thread_stack =  _ux_utility_memory_allocate(UX_NO_ALI
 248:./Middlewares/ST/usbx/common/core/src/ux_host_stack_initialize.c ****                                                                             UX_HOST_HCD_THREAD_STAC
 249:./Middlewares/ST/usbx/common/core/src/ux_host_stack_initialize.c **** 
 250:./Middlewares/ST/usbx/common/core/src/ux_host_stack_initialize.c ****         /* Check for successful allocation.  */
 251:./Middlewares/ST/usbx/common/core/src/ux_host_stack_initialize.c ****         if (_ux_system_host -> ux_system_host_hcd_thread_stack == UX_NULL)
 252:./Middlewares/ST/usbx/common/core/src/ux_host_stack_initialize.c ****             status = UX_MEMORY_INSUFFICIENT;
 253:./Middlewares/ST/usbx/common/core/src/ux_host_stack_initialize.c ****     }
 254:./Middlewares/ST/usbx/common/core/src/ux_host_stack_initialize.c **** 
 255:./Middlewares/ST/usbx/common/core/src/ux_host_stack_initialize.c ****     /* Create the semaphores used by the hub and root hub to awake the enumeration thread.  */
 256:./Middlewares/ST/usbx/common/core/src/ux_host_stack_initialize.c ****     if (status == UX_SUCCESS)
 257:./Middlewares/ST/usbx/common/core/src/ux_host_stack_initialize.c ****     {
 258:./Middlewares/ST/usbx/common/core/src/ux_host_stack_initialize.c ****         status =  _ux_utility_semaphore_create(&_ux_system_host -> ux_system_host_enum_semaphore, "
 259:./Middlewares/ST/usbx/common/core/src/ux_host_stack_initialize.c ****         if(status != UX_SUCCESS)
 260:./Middlewares/ST/usbx/common/core/src/ux_host_stack_initialize.c ****             status = UX_SEMAPHORE_ERROR;
 261:./Middlewares/ST/usbx/common/core/src/ux_host_stack_initialize.c ****     }
 262:./Middlewares/ST/usbx/common/core/src/ux_host_stack_initialize.c **** 
 263:./Middlewares/ST/usbx/common/core/src/ux_host_stack_initialize.c ****     /* Create the semaphores used by the HCD to perform the completion phase of transfer_requests. 
 264:./Middlewares/ST/usbx/common/core/src/ux_host_stack_initialize.c ****     if (status == UX_SUCCESS)
 265:./Middlewares/ST/usbx/common/core/src/ux_host_stack_initialize.c ****     {
 266:./Middlewares/ST/usbx/common/core/src/ux_host_stack_initialize.c ****         status =  _ux_utility_semaphore_create(&_ux_system_host -> ux_system_host_hcd_semaphore, "u
 267:./Middlewares/ST/usbx/common/core/src/ux_host_stack_initialize.c ****         if(status != UX_SUCCESS)
 268:./Middlewares/ST/usbx/common/core/src/ux_host_stack_initialize.c ****             status = UX_SEMAPHORE_ERROR;
 269:./Middlewares/ST/usbx/common/core/src/ux_host_stack_initialize.c ****     }
 270:./Middlewares/ST/usbx/common/core/src/ux_host_stack_initialize.c **** 
 271:./Middlewares/ST/usbx/common/core/src/ux_host_stack_initialize.c ****     /* Create the enumeration thread of USBX.  */
 272:./Middlewares/ST/usbx/common/core/src/ux_host_stack_initialize.c ****     if (status == UX_SUCCESS)
 273:./Middlewares/ST/usbx/common/core/src/ux_host_stack_initialize.c ****     {
 274:./Middlewares/ST/usbx/common/core/src/ux_host_stack_initialize.c ****         status =  _ux_utility_thread_create(&_ux_system_host -> ux_system_host_enum_thread, "ux_sys
 275:./Middlewares/ST/usbx/common/core/src/ux_host_stack_initialize.c ****                             0, _ux_system_host -> ux_system_host_enum_thread_stack,
 276:./Middlewares/ST/usbx/common/core/src/ux_host_stack_initialize.c ****                             UX_HOST_ENUM_THREAD_STACK_SIZE, UX_THREAD_PRIORITY_ENUM,
 277:./Middlewares/ST/usbx/common/core/src/ux_host_stack_initialize.c ****                             UX_THREAD_PRIORITY_ENUM, UX_NO_TIME_SLICE, UX_AUTO_START);
ARM GAS  /tmp/ccTcBKgZ.s 			page 9


 278:./Middlewares/ST/usbx/common/core/src/ux_host_stack_initialize.c ****                             
 279:./Middlewares/ST/usbx/common/core/src/ux_host_stack_initialize.c ****         /* Check the completion status.  */
 280:./Middlewares/ST/usbx/common/core/src/ux_host_stack_initialize.c ****         if(status != UX_SUCCESS)
 281:./Middlewares/ST/usbx/common/core/src/ux_host_stack_initialize.c ****             status = UX_THREAD_ERROR;
 282:./Middlewares/ST/usbx/common/core/src/ux_host_stack_initialize.c ****     }
 283:./Middlewares/ST/usbx/common/core/src/ux_host_stack_initialize.c **** 
 284:./Middlewares/ST/usbx/common/core/src/ux_host_stack_initialize.c ****     /* Create the HCD thread of USBX.  */
 285:./Middlewares/ST/usbx/common/core/src/ux_host_stack_initialize.c ****     if (status == UX_SUCCESS)
 286:./Middlewares/ST/usbx/common/core/src/ux_host_stack_initialize.c ****     {
 287:./Middlewares/ST/usbx/common/core/src/ux_host_stack_initialize.c ****         status =  _ux_utility_thread_create(&_ux_system_host -> ux_system_host_hcd_thread, "ux_host
 288:./Middlewares/ST/usbx/common/core/src/ux_host_stack_initialize.c ****                             0, _ux_system_host -> ux_system_host_hcd_thread_stack,
 289:./Middlewares/ST/usbx/common/core/src/ux_host_stack_initialize.c ****                             UX_HOST_HCD_THREAD_STACK_SIZE, UX_THREAD_PRIORITY_HCD,
 290:./Middlewares/ST/usbx/common/core/src/ux_host_stack_initialize.c ****                             UX_THREAD_PRIORITY_HCD, UX_NO_TIME_SLICE,UX_AUTO_START);
 291:./Middlewares/ST/usbx/common/core/src/ux_host_stack_initialize.c **** 
 292:./Middlewares/ST/usbx/common/core/src/ux_host_stack_initialize.c ****         /* Check the completion status.  */
 293:./Middlewares/ST/usbx/common/core/src/ux_host_stack_initialize.c ****         if(status != UX_SUCCESS)
 294:./Middlewares/ST/usbx/common/core/src/ux_host_stack_initialize.c ****             status = UX_THREAD_ERROR;
 295:./Middlewares/ST/usbx/common/core/src/ux_host_stack_initialize.c ****     }
 296:./Middlewares/ST/usbx/common/core/src/ux_host_stack_initialize.c **** #endif
 297:./Middlewares/ST/usbx/common/core/src/ux_host_stack_initialize.c **** 
 298:./Middlewares/ST/usbx/common/core/src/ux_host_stack_initialize.c **** #if defined(UX_OTG_SUPPORT) && !defined(UX_OTG_STANDALONE)
 299:./Middlewares/ST/usbx/common/core/src/ux_host_stack_initialize.c ****     /* Allocate another stack area for the HNP polling thread.  */
 300:./Middlewares/ST/usbx/common/core/src/ux_host_stack_initialize.c ****     if (status == UX_SUCCESS)
 301:./Middlewares/ST/usbx/common/core/src/ux_host_stack_initialize.c ****     {
 302:./Middlewares/ST/usbx/common/core/src/ux_host_stack_initialize.c ****         _ux_system_host -> ux_system_host_hnp_polling_thread_stack =  _ux_utility_memory_allocate(U
 303:./Middlewares/ST/usbx/common/core/src/ux_host_stack_initialize.c ****                                                                             UX_HOST_HNP_POLLING_THR
 304:./Middlewares/ST/usbx/common/core/src/ux_host_stack_initialize.c **** 
 305:./Middlewares/ST/usbx/common/core/src/ux_host_stack_initialize.c ****         /* Check for successful allocation.  */
 306:./Middlewares/ST/usbx/common/core/src/ux_host_stack_initialize.c ****         if (_ux_system_host -> ux_system_host_hnp_polling_thread_stack == UX_NULL)
 307:./Middlewares/ST/usbx/common/core/src/ux_host_stack_initialize.c ****             status = UX_MEMORY_INSUFFICIENT;
 308:./Middlewares/ST/usbx/common/core/src/ux_host_stack_initialize.c ****     }
 309:./Middlewares/ST/usbx/common/core/src/ux_host_stack_initialize.c ****         
 310:./Middlewares/ST/usbx/common/core/src/ux_host_stack_initialize.c ****     /* Create the HNP polling thread of USBX.  */
 311:./Middlewares/ST/usbx/common/core/src/ux_host_stack_initialize.c ****     if (status == UX_SUCCESS)
 312:./Middlewares/ST/usbx/common/core/src/ux_host_stack_initialize.c ****     {
 313:./Middlewares/ST/usbx/common/core/src/ux_host_stack_initialize.c ****         status =  _ux_utility_thread_create(&_ux_system_host -> ux_system_host_hnp_polling_thread, 
 314:./Middlewares/ST/usbx/common/core/src/ux_host_stack_initialize.c ****                             0, _ux_system_host -> ux_system_host_hnp_polling_thread_stack,
 315:./Middlewares/ST/usbx/common/core/src/ux_host_stack_initialize.c ****                             UX_HOST_HNP_POLLING_THREAD_STACK_SIZE, UX_THREAD_PRIORITY_ENUM,
 316:./Middlewares/ST/usbx/common/core/src/ux_host_stack_initialize.c ****                             UX_THREAD_PRIORITY_ENUM, UX_NO_TIME_SLICE, UX_AUTO_START);
 317:./Middlewares/ST/usbx/common/core/src/ux_host_stack_initialize.c **** 
 318:./Middlewares/ST/usbx/common/core/src/ux_host_stack_initialize.c ****         /* Check the completion status.  */
 319:./Middlewares/ST/usbx/common/core/src/ux_host_stack_initialize.c ****         if (status != UX_SUCCESS)
 320:./Middlewares/ST/usbx/common/core/src/ux_host_stack_initialize.c ****             status = UX_THREAD_ERROR;
 321:./Middlewares/ST/usbx/common/core/src/ux_host_stack_initialize.c **** 
 322:./Middlewares/ST/usbx/common/core/src/ux_host_stack_initialize.c ****         /* Return success (SUCCESS).  */
 323:./Middlewares/ST/usbx/common/core/src/ux_host_stack_initialize.c ****         else
 324:./Middlewares/ST/usbx/common/core/src/ux_host_stack_initialize.c ****             return(status);
 325:./Middlewares/ST/usbx/common/core/src/ux_host_stack_initialize.c ****     }
 326:./Middlewares/ST/usbx/common/core/src/ux_host_stack_initialize.c **** 
 327:./Middlewares/ST/usbx/common/core/src/ux_host_stack_initialize.c ****     /* Free up resources on error cases.  */
 328:./Middlewares/ST/usbx/common/core/src/ux_host_stack_initialize.c **** 
 329:./Middlewares/ST/usbx/common/core/src/ux_host_stack_initialize.c ****     /* Last resource, _ux_system_host -> ux_system_host_hnp_polling_thread is not created or create
 330:./Middlewares/ST/usbx/common/core/src/ux_host_stack_initialize.c ****      * no need to delete it.  */
 331:./Middlewares/ST/usbx/common/core/src/ux_host_stack_initialize.c **** 
 332:./Middlewares/ST/usbx/common/core/src/ux_host_stack_initialize.c ****     /* Free _ux_system_host -> ux_system_host_hnp_polling_thread_stack.  */
 333:./Middlewares/ST/usbx/common/core/src/ux_host_stack_initialize.c ****     if (_ux_system_host -> ux_system_host_hnp_polling_thread_stack)
 334:./Middlewares/ST/usbx/common/core/src/ux_host_stack_initialize.c ****         _ux_utility_memory_free(_ux_system_host -> ux_system_host_hnp_polling_thread_stack);
ARM GAS  /tmp/ccTcBKgZ.s 			page 10


 335:./Middlewares/ST/usbx/common/core/src/ux_host_stack_initialize.c **** 
 336:./Middlewares/ST/usbx/common/core/src/ux_host_stack_initialize.c ****     /* Delete _ux_system_host -> ux_system_host_hcd_thread.  */
 337:./Middlewares/ST/usbx/common/core/src/ux_host_stack_initialize.c ****     if (_ux_system_host -> ux_system_host_hcd_thread.tx_thread_id != 0)
 338:./Middlewares/ST/usbx/common/core/src/ux_host_stack_initialize.c ****         _ux_utility_thread_delete(&_ux_system_host -> ux_system_host_hcd_thread);
 339:./Middlewares/ST/usbx/common/core/src/ux_host_stack_initialize.c **** #else
 340:./Middlewares/ST/usbx/common/core/src/ux_host_stack_initialize.c **** 
 341:./Middlewares/ST/usbx/common/core/src/ux_host_stack_initialize.c ****     /* Return completion status to caller if success.  */
 342:./Middlewares/ST/usbx/common/core/src/ux_host_stack_initialize.c ****     if (status == UX_SUCCESS)
 343:./Middlewares/ST/usbx/common/core/src/ux_host_stack_initialize.c ****         return(status);
 344:./Middlewares/ST/usbx/common/core/src/ux_host_stack_initialize.c **** 
 345:./Middlewares/ST/usbx/common/core/src/ux_host_stack_initialize.c ****     /* Free up resources on error cases.  */
 346:./Middlewares/ST/usbx/common/core/src/ux_host_stack_initialize.c **** 
 347:./Middlewares/ST/usbx/common/core/src/ux_host_stack_initialize.c ****     /* Last resource, _ux_system_host -> ux_system_host_hcd_thread is not created or created error,
 348:./Middlewares/ST/usbx/common/core/src/ux_host_stack_initialize.c ****      * no need to delete it.  */
 349:./Middlewares/ST/usbx/common/core/src/ux_host_stack_initialize.c **** #endif
 350:./Middlewares/ST/usbx/common/core/src/ux_host_stack_initialize.c **** 
 351:./Middlewares/ST/usbx/common/core/src/ux_host_stack_initialize.c **** #if !defined(UX_HOST_STANDALONE)
 352:./Middlewares/ST/usbx/common/core/src/ux_host_stack_initialize.c ****     /* Delete _ux_system_host -> ux_system_host_enum_thread.  */
 353:./Middlewares/ST/usbx/common/core/src/ux_host_stack_initialize.c ****     if (_ux_system_host -> ux_system_host_enum_thread.tx_thread_id != 0)
 163              		.loc 1 353 5 is_stmt 1 view .LVU52
 164              		.loc 1 353 25 is_stmt 0 view .LVU53
 165 006c 534B     		ldr	r3, .L28
 166 006e 1868     		ldr	r0, [r3]
 167              		.loc 1 353 54 view .LVU54
 168 0070 C36A     		ldr	r3, [r0, #44]
 169              		.loc 1 353 8 view .LVU55
 170 0072 002B     		cmp	r3, #0
 171 0074 40F09380 		bne	.L22
 172              	.L5:
 354:./Middlewares/ST/usbx/common/core/src/ux_host_stack_initialize.c ****         _ux_utility_thread_delete(&_ux_system_host -> ux_system_host_enum_thread);
 355:./Middlewares/ST/usbx/common/core/src/ux_host_stack_initialize.c ****     
 356:./Middlewares/ST/usbx/common/core/src/ux_host_stack_initialize.c ****     /* Delete _ux_system_host -> ux_system_host_hcd_semaphore.  */
 357:./Middlewares/ST/usbx/common/core/src/ux_host_stack_initialize.c ****     if (_ux_system_host -> ux_system_host_hcd_semaphore.tx_semaphore_id != 0)
 173              		.loc 1 357 5 is_stmt 1 view .LVU56
 174              		.loc 1 357 25 is_stmt 0 view .LVU57
 175 0078 504B     		ldr	r3, .L28
 176 007a 1868     		ldr	r0, [r3]
 177              		.loc 1 357 56 view .LVU58
 178 007c D0F8B031 		ldr	r3, [r0, #432]
 179              		.loc 1 357 8 view .LVU59
 180 0080 002B     		cmp	r3, #0
 181 0082 40F09080 		bne	.L23
 182              	.L6:
 358:./Middlewares/ST/usbx/common/core/src/ux_host_stack_initialize.c ****         _ux_utility_semaphore_delete(&_ux_system_host -> ux_system_host_hcd_semaphore);
 359:./Middlewares/ST/usbx/common/core/src/ux_host_stack_initialize.c **** 
 360:./Middlewares/ST/usbx/common/core/src/ux_host_stack_initialize.c ****     /* Delete _ux_system_host -> ux_system_host_enum_semaphore.  */
 361:./Middlewares/ST/usbx/common/core/src/ux_host_stack_initialize.c ****     if (_ux_system_host -> ux_system_host_enum_semaphore.tx_semaphore_id != 0)
 183              		.loc 1 361 5 is_stmt 1 view .LVU60
 184              		.loc 1 361 25 is_stmt 0 view .LVU61
 185 0086 4D4B     		ldr	r3, .L28
 186 0088 1868     		ldr	r0, [r3]
 187              		.loc 1 361 57 view .LVU62
 188 008a D0F8DC30 		ldr	r3, [r0, #220]
 189              		.loc 1 361 8 view .LVU63
 190 008e 002B     		cmp	r3, #0
 191 0090 40F08E80 		bne	.L24
 192              	.L7:
ARM GAS  /tmp/ccTcBKgZ.s 			page 11


 362:./Middlewares/ST/usbx/common/core/src/ux_host_stack_initialize.c ****         _ux_utility_semaphore_delete(&_ux_system_host -> ux_system_host_enum_semaphore);
 363:./Middlewares/ST/usbx/common/core/src/ux_host_stack_initialize.c **** 
 364:./Middlewares/ST/usbx/common/core/src/ux_host_stack_initialize.c ****     /* Free _ux_system_host -> ux_system_host_hcd_thread_stack.  */
 365:./Middlewares/ST/usbx/common/core/src/ux_host_stack_initialize.c ****     if (_ux_system_host -> ux_system_host_hcd_thread_stack)
 193              		.loc 1 365 5 is_stmt 1 view .LVU64
 194              		.loc 1 365 25 is_stmt 0 view .LVU65
 195 0094 494B     		ldr	r3, .L28
 196 0096 1B68     		ldr	r3, [r3]
 197 0098 D3F8FC00 		ldr	r0, [r3, #252]
 198              		.loc 1 365 8 view .LVU66
 199 009c 08B1     		cbz	r0, .L8
 366:./Middlewares/ST/usbx/common/core/src/ux_host_stack_initialize.c ****         _ux_utility_memory_free(_ux_system_host -> ux_system_host_hcd_thread_stack);
 200              		.loc 1 366 9 is_stmt 1 view .LVU67
 201 009e FFF7FEFF 		bl	_ux_utility_memory_free
 202              	.LVL10:
 203              	.L8:
 367:./Middlewares/ST/usbx/common/core/src/ux_host_stack_initialize.c **** 
 368:./Middlewares/ST/usbx/common/core/src/ux_host_stack_initialize.c ****     /* Free _ux_system_host -> ux_system_host_enum_thread_stack.  */
 369:./Middlewares/ST/usbx/common/core/src/ux_host_stack_initialize.c ****     if (_ux_system_host -> ux_system_host_enum_thread_stack)
 204              		.loc 1 369 5 view .LVU68
 205              		.loc 1 369 25 is_stmt 0 view .LVU69
 206 00a2 464B     		ldr	r3, .L28
 207 00a4 1B68     		ldr	r3, [r3]
 208 00a6 986A     		ldr	r0, [r3, #40]
 209              		.loc 1 369 8 view .LVU70
 210 00a8 08B1     		cbz	r0, .L9
 370:./Middlewares/ST/usbx/common/core/src/ux_host_stack_initialize.c ****         _ux_utility_memory_free(_ux_system_host -> ux_system_host_enum_thread_stack);
 211              		.loc 1 370 9 is_stmt 1 view .LVU71
 212 00aa FFF7FEFF 		bl	_ux_utility_memory_free
 213              	.LVL11:
 214              	.L9:
 371:./Middlewares/ST/usbx/common/core/src/ux_host_stack_initialize.c **** #endif
 372:./Middlewares/ST/usbx/common/core/src/ux_host_stack_initialize.c **** 
 373:./Middlewares/ST/usbx/common/core/src/ux_host_stack_initialize.c ****     /* Free _ux_system_host -> ux_system_host_device_array.  */
 374:./Middlewares/ST/usbx/common/core/src/ux_host_stack_initialize.c ****     if (_ux_system_host -> ux_system_host_device_array)
 215              		.loc 1 374 5 view .LVU72
 216              		.loc 1 374 25 is_stmt 0 view .LVU73
 217 00ae 434B     		ldr	r3, .L28
 218 00b0 1B68     		ldr	r3, [r3]
 219 00b2 9869     		ldr	r0, [r3, #24]
 220              		.loc 1 374 8 view .LVU74
 221 00b4 08B1     		cbz	r0, .L10
 375:./Middlewares/ST/usbx/common/core/src/ux_host_stack_initialize.c ****         _ux_utility_memory_free(_ux_system_host -> ux_system_host_device_array);
 222              		.loc 1 375 9 is_stmt 1 view .LVU75
 223 00b6 FFF7FEFF 		bl	_ux_utility_memory_free
 224              	.LVL12:
 225              	.L10:
 376:./Middlewares/ST/usbx/common/core/src/ux_host_stack_initialize.c ****     
 377:./Middlewares/ST/usbx/common/core/src/ux_host_stack_initialize.c ****     /* Free _ux_system_host -> ux_system_host_class_array.  */
 378:./Middlewares/ST/usbx/common/core/src/ux_host_stack_initialize.c ****     if (_ux_system_host -> ux_system_host_class_array)
 226              		.loc 1 378 5 view .LVU76
 227              		.loc 1 378 25 is_stmt 0 view .LVU77
 228 00ba 404B     		ldr	r3, .L28
 229 00bc 1B68     		ldr	r3, [r3]
 230 00be 5868     		ldr	r0, [r3, #4]
 231              		.loc 1 378 8 view .LVU78
 232 00c0 08B1     		cbz	r0, .L11
ARM GAS  /tmp/ccTcBKgZ.s 			page 12


 379:./Middlewares/ST/usbx/common/core/src/ux_host_stack_initialize.c ****         _ux_utility_memory_free(_ux_system_host -> ux_system_host_class_array);
 233              		.loc 1 379 9 is_stmt 1 view .LVU79
 234 00c2 FFF7FEFF 		bl	_ux_utility_memory_free
 235              	.LVL13:
 236              	.L11:
 380:./Middlewares/ST/usbx/common/core/src/ux_host_stack_initialize.c **** 
 381:./Middlewares/ST/usbx/common/core/src/ux_host_stack_initialize.c ****     /* Free _ux_system_host -> ux_system_host_hcd_array.  */
 382:./Middlewares/ST/usbx/common/core/src/ux_host_stack_initialize.c ****     _ux_utility_memory_free(_ux_system_host -> ux_system_host_hcd_array);
 237              		.loc 1 382 5 view .LVU80
 238              		.loc 1 382 45 is_stmt 0 view .LVU81
 239 00c6 3D4B     		ldr	r3, .L28
 240 00c8 1B68     		ldr	r3, [r3]
 241              		.loc 1 382 5 view .LVU82
 242 00ca 1869     		ldr	r0, [r3, #16]
 243 00cc FFF7FEFF 		bl	_ux_utility_memory_free
 244              	.LVL14:
 383:./Middlewares/ST/usbx/common/core/src/ux_host_stack_initialize.c **** 
 384:./Middlewares/ST/usbx/common/core/src/ux_host_stack_initialize.c ****     /* Return completion status to caller.  */
 385:./Middlewares/ST/usbx/common/core/src/ux_host_stack_initialize.c ****     return(status);
 245              		.loc 1 385 5 is_stmt 1 view .LVU83
 246              	.L1:
 386:./Middlewares/ST/usbx/common/core/src/ux_host_stack_initialize.c **** }
 247              		.loc 1 386 1 is_stmt 0 view .LVU84
 248 00d0 2046     		mov	r0, r4
 249 00d2 07B0     		add	sp, sp, #28
 250              	.LCFI2:
 251              		.cfi_remember_state
 252              		.cfi_def_cfa_offset 12
 253              		@ sp needed
 254 00d4 30BD     		pop	{r4, r5, pc}
 255              	.LVL15:
 256              	.L21:
 257              	.LCFI3:
 258              		.cfi_restore_state
 236:./Middlewares/ST/usbx/common/core/src/ux_host_stack_initialize.c ****                                                                             UX_HOST_ENUM_THREAD_STA
 259              		.loc 1 236 9 is_stmt 1 view .LVU85
 236:./Middlewares/ST/usbx/common/core/src/ux_host_stack_initialize.c ****                                                                             UX_HOST_ENUM_THREAD_STA
 260              		.loc 1 236 25 is_stmt 0 view .LVU86
 261 00d6 394C     		ldr	r4, .L28
 262 00d8 2568     		ldr	r5, [r4]
 236:./Middlewares/ST/usbx/common/core/src/ux_host_stack_initialize.c ****                                                                             UX_HOST_ENUM_THREAD_STA
 263              		.loc 1 236 64 view .LVU87
 264 00da 4FF40062 		mov	r2, #2048
 265 00de 0021     		movs	r1, #0
 266 00e0 0846     		mov	r0, r1
 267              	.LVL16:
 236:./Middlewares/ST/usbx/common/core/src/ux_host_stack_initialize.c ****                                                                             UX_HOST_ENUM_THREAD_STA
 268              		.loc 1 236 64 view .LVU88
 269 00e2 FFF7FEFF 		bl	_ux_utility_memory_allocate
 270              	.LVL17:
 236:./Middlewares/ST/usbx/common/core/src/ux_host_stack_initialize.c ****                                                                             UX_HOST_ENUM_THREAD_STA
 271              		.loc 1 236 61 discriminator 1 view .LVU89
 272 00e6 A862     		str	r0, [r5, #40]
 240:./Middlewares/ST/usbx/common/core/src/ux_host_stack_initialize.c ****             status = UX_MEMORY_INSUFFICIENT;
 273              		.loc 1 240 9 is_stmt 1 view .LVU90
 240:./Middlewares/ST/usbx/common/core/src/ux_host_stack_initialize.c ****             status = UX_MEMORY_INSUFFICIENT;
 274              		.loc 1 240 29 is_stmt 0 view .LVU91
ARM GAS  /tmp/ccTcBKgZ.s 			page 13


 275 00e8 2468     		ldr	r4, [r4]
 276 00ea A36A     		ldr	r3, [r4, #40]
 240:./Middlewares/ST/usbx/common/core/src/ux_host_stack_initialize.c ****             status = UX_MEMORY_INSUFFICIENT;
 277              		.loc 1 240 12 view .LVU92
 278 00ec 002B     		cmp	r3, #0
 279 00ee 52D0     		beq	.L15
 245:./Middlewares/ST/usbx/common/core/src/ux_host_stack_initialize.c ****     {
 280              		.loc 1 245 5 is_stmt 1 view .LVU93
 247:./Middlewares/ST/usbx/common/core/src/ux_host_stack_initialize.c ****                                                                             UX_HOST_HCD_THREAD_STAC
 281              		.loc 1 247 9 view .LVU94
 247:./Middlewares/ST/usbx/common/core/src/ux_host_stack_initialize.c ****                                                                             UX_HOST_HCD_THREAD_STAC
 282              		.loc 1 247 63 is_stmt 0 view .LVU95
 283 00f0 4FF48062 		mov	r2, #1024
 284 00f4 0021     		movs	r1, #0
 285 00f6 0846     		mov	r0, r1
 286 00f8 FFF7FEFF 		bl	_ux_utility_memory_allocate
 287              	.LVL18:
 247:./Middlewares/ST/usbx/common/core/src/ux_host_stack_initialize.c ****                                                                             UX_HOST_HCD_THREAD_STAC
 288              		.loc 1 247 60 discriminator 1 view .LVU96
 289 00fc C4F8FC00 		str	r0, [r4, #252]
 251:./Middlewares/ST/usbx/common/core/src/ux_host_stack_initialize.c ****             status = UX_MEMORY_INSUFFICIENT;
 290              		.loc 1 251 9 is_stmt 1 view .LVU97
 251:./Middlewares/ST/usbx/common/core/src/ux_host_stack_initialize.c ****             status = UX_MEMORY_INSUFFICIENT;
 291              		.loc 1 251 29 is_stmt 0 view .LVU98
 292 0100 2E4B     		ldr	r3, .L28
 293 0102 1868     		ldr	r0, [r3]
 294 0104 D0F8FC30 		ldr	r3, [r0, #252]
 251:./Middlewares/ST/usbx/common/core/src/ux_host_stack_initialize.c ****             status = UX_MEMORY_INSUFFICIENT;
 295              		.loc 1 251 12 view .LVU99
 296 0108 002B     		cmp	r3, #0
 297 010a 46D0     		beq	.L16
 256:./Middlewares/ST/usbx/common/core/src/ux_host_stack_initialize.c ****     {
 298              		.loc 1 256 5 is_stmt 1 view .LVU100
 258:./Middlewares/ST/usbx/common/core/src/ux_host_stack_initialize.c ****         if(status != UX_SUCCESS)
 299              		.loc 1 258 9 view .LVU101
 258:./Middlewares/ST/usbx/common/core/src/ux_host_stack_initialize.c ****         if(status != UX_SUCCESS)
 300              		.loc 1 258 19 is_stmt 0 view .LVU102
 301 010c 0022     		movs	r2, #0
 302 010e 2C49     		ldr	r1, .L28+4
 303 0110 DC30     		adds	r0, r0, #220
 304 0112 FFF7FEFF 		bl	_ux_utility_semaphore_create
 305              	.LVL19:
 259:./Middlewares/ST/usbx/common/core/src/ux_host_stack_initialize.c ****             status = UX_SEMAPHORE_ERROR;
 306              		.loc 1 259 9 is_stmt 1 view .LVU103
 259:./Middlewares/ST/usbx/common/core/src/ux_host_stack_initialize.c ****             status = UX_SEMAPHORE_ERROR;
 307              		.loc 1 259 11 is_stmt 0 view .LVU104
 308 0116 08B1     		cbz	r0, .L25
 260:./Middlewares/ST/usbx/common/core/src/ux_host_stack_initialize.c ****     }
 309              		.loc 1 260 20 view .LVU105
 310 0118 1524     		movs	r4, #21
 311 011a A7E7     		b	.L4
 312              	.L25:
 264:./Middlewares/ST/usbx/common/core/src/ux_host_stack_initialize.c ****     {
 313              		.loc 1 264 5 is_stmt 1 view .LVU106
 266:./Middlewares/ST/usbx/common/core/src/ux_host_stack_initialize.c ****         if(status != UX_SUCCESS)
 314              		.loc 1 266 9 view .LVU107
 266:./Middlewares/ST/usbx/common/core/src/ux_host_stack_initialize.c ****         if(status != UX_SUCCESS)
ARM GAS  /tmp/ccTcBKgZ.s 			page 14


 315              		.loc 1 266 65 is_stmt 0 view .LVU108
 316 011c 274B     		ldr	r3, .L28
 317 011e 1868     		ldr	r0, [r3]
 318              	.LVL20:
 266:./Middlewares/ST/usbx/common/core/src/ux_host_stack_initialize.c ****         if(status != UX_SUCCESS)
 319              		.loc 1 266 19 view .LVU109
 320 0120 0022     		movs	r2, #0
 321 0122 2849     		ldr	r1, .L28+8
 322 0124 00F5D870 		add	r0, r0, #432
 323 0128 FFF7FEFF 		bl	_ux_utility_semaphore_create
 324              	.LVL21:
 267:./Middlewares/ST/usbx/common/core/src/ux_host_stack_initialize.c ****             status = UX_SEMAPHORE_ERROR;
 325              		.loc 1 267 9 is_stmt 1 view .LVU110
 267:./Middlewares/ST/usbx/common/core/src/ux_host_stack_initialize.c ****             status = UX_SEMAPHORE_ERROR;
 326              		.loc 1 267 11 is_stmt 0 view .LVU111
 327 012c 08B1     		cbz	r0, .L26
 268:./Middlewares/ST/usbx/common/core/src/ux_host_stack_initialize.c ****     }
 328              		.loc 1 268 20 view .LVU112
 329 012e 1524     		movs	r4, #21
 330 0130 9CE7     		b	.L4
 331              	.L26:
 272:./Middlewares/ST/usbx/common/core/src/ux_host_stack_initialize.c ****     {
 332              		.loc 1 272 5 is_stmt 1 view .LVU113
 274:./Middlewares/ST/usbx/common/core/src/ux_host_stack_initialize.c ****                             0, _ux_system_host -> ux_system_host_enum_thread_stack,
 333              		.loc 1 274 9 view .LVU114
 274:./Middlewares/ST/usbx/common/core/src/ux_host_stack_initialize.c ****                             0, _ux_system_host -> ux_system_host_enum_thread_stack,
 334              		.loc 1 274 62 is_stmt 0 view .LVU115
 335 0132 224B     		ldr	r3, .L28
 336 0134 1868     		ldr	r0, [r3]
 337              	.LVL22:
 275:./Middlewares/ST/usbx/common/core/src/ux_host_stack_initialize.c ****                             UX_HOST_ENUM_THREAD_STACK_SIZE, UX_THREAD_PRIORITY_ENUM,
 338              		.loc 1 275 48 view .LVU116
 339 0136 816A     		ldr	r1, [r0, #40]
 274:./Middlewares/ST/usbx/common/core/src/ux_host_stack_initialize.c ****                             0, _ux_system_host -> ux_system_host_enum_thread_stack,
 340              		.loc 1 274 19 view .LVU117
 341 0138 0123     		movs	r3, #1
 342 013a 0593     		str	r3, [sp, #20]
 343 013c 0023     		movs	r3, #0
 344 013e 0493     		str	r3, [sp, #16]
 345 0140 1422     		movs	r2, #20
 346 0142 0392     		str	r2, [sp, #12]
 347 0144 0292     		str	r2, [sp, #8]
 348 0146 4FF40062 		mov	r2, #2048
 349 014a 0192     		str	r2, [sp, #4]
 350 014c 0091     		str	r1, [sp]
 351 014e 1E4A     		ldr	r2, .L28+12
 352 0150 1E49     		ldr	r1, .L28+16
 353 0152 2C30     		adds	r0, r0, #44
 354 0154 FFF7FEFF 		bl	_ux_utility_thread_create
 355              	.LVL23:
 280:./Middlewares/ST/usbx/common/core/src/ux_host_stack_initialize.c ****             status = UX_THREAD_ERROR;
 356              		.loc 1 280 9 is_stmt 1 view .LVU118
 280:./Middlewares/ST/usbx/common/core/src/ux_host_stack_initialize.c ****             status = UX_THREAD_ERROR;
 357              		.loc 1 280 11 is_stmt 0 view .LVU119
 358 0158 08B1     		cbz	r0, .L27
 281:./Middlewares/ST/usbx/common/core/src/ux_host_stack_initialize.c ****     }
 359              		.loc 1 281 20 view .LVU120
ARM GAS  /tmp/ccTcBKgZ.s 			page 15


 360 015a 1624     		movs	r4, #22
 361 015c 86E7     		b	.L4
 362              	.L27:
 285:./Middlewares/ST/usbx/common/core/src/ux_host_stack_initialize.c ****     {
 363              		.loc 1 285 5 is_stmt 1 view .LVU121
 287:./Middlewares/ST/usbx/common/core/src/ux_host_stack_initialize.c ****                             0, _ux_system_host -> ux_system_host_hcd_thread_stack,
 364              		.loc 1 287 9 view .LVU122
 287:./Middlewares/ST/usbx/common/core/src/ux_host_stack_initialize.c ****                             0, _ux_system_host -> ux_system_host_hcd_thread_stack,
 365              		.loc 1 287 62 is_stmt 0 view .LVU123
 366 015e 174B     		ldr	r3, .L28
 367 0160 1868     		ldr	r0, [r3]
 368              	.LVL24:
 288:./Middlewares/ST/usbx/common/core/src/ux_host_stack_initialize.c ****                             UX_HOST_HCD_THREAD_STACK_SIZE, UX_THREAD_PRIORITY_HCD,
 369              		.loc 1 288 48 view .LVU124
 370 0162 D0F8FC10 		ldr	r1, [r0, #252]
 287:./Middlewares/ST/usbx/common/core/src/ux_host_stack_initialize.c ****                             0, _ux_system_host -> ux_system_host_hcd_thread_stack,
 371              		.loc 1 287 19 view .LVU125
 372 0166 0123     		movs	r3, #1
 373 0168 0593     		str	r3, [sp, #20]
 374 016a 0023     		movs	r3, #0
 375 016c 0493     		str	r3, [sp, #16]
 376 016e 0222     		movs	r2, #2
 377 0170 0392     		str	r2, [sp, #12]
 378 0172 0292     		str	r2, [sp, #8]
 379 0174 4FF48062 		mov	r2, #1024
 380 0178 0192     		str	r2, [sp, #4]
 381 017a 0091     		str	r1, [sp]
 382 017c 144A     		ldr	r2, .L28+20
 383 017e 1549     		ldr	r1, .L28+24
 384 0180 00F58070 		add	r0, r0, #256
 385 0184 FFF7FEFF 		bl	_ux_utility_thread_create
 386              	.LVL25:
 293:./Middlewares/ST/usbx/common/core/src/ux_host_stack_initialize.c ****             status = UX_THREAD_ERROR;
 387              		.loc 1 293 9 is_stmt 1 view .LVU126
 293:./Middlewares/ST/usbx/common/core/src/ux_host_stack_initialize.c ****             status = UX_THREAD_ERROR;
 388              		.loc 1 293 11 is_stmt 0 view .LVU127
 389 0188 0446     		mov	r4, r0
 390 018a 0028     		cmp	r0, #0
 391 018c A0D0     		beq	.L1
 392              	.LVL26:
 294:./Middlewares/ST/usbx/common/core/src/ux_host_stack_initialize.c ****     }
 393              		.loc 1 294 20 view .LVU128
 394 018e 1624     		movs	r4, #22
 395 0190 6CE7     		b	.L4
 396              	.LVL27:
 397              	.L14:
 201:./Middlewares/ST/usbx/common/core/src/ux_host_stack_initialize.c ****         else
 398              		.loc 1 201 20 view .LVU129
 399 0192 1224     		movs	r4, #18
 400 0194 6AE7     		b	.L4
 401              	.LVL28:
 402              	.L15:
 241:./Middlewares/ST/usbx/common/core/src/ux_host_stack_initialize.c ****     }
 403              		.loc 1 241 20 view .LVU130
 404 0196 1224     		movs	r4, #18
 405 0198 68E7     		b	.L4
 406              	.LVL29:
ARM GAS  /tmp/ccTcBKgZ.s 			page 16


 407              	.L16:
 252:./Middlewares/ST/usbx/common/core/src/ux_host_stack_initialize.c ****     }
 408              		.loc 1 252 20 view .LVU131
 409 019a 1224     		movs	r4, #18
 410 019c 66E7     		b	.L4
 411              	.LVL30:
 412              	.L22:
 354:./Middlewares/ST/usbx/common/core/src/ux_host_stack_initialize.c ****     
 413              		.loc 1 354 9 is_stmt 1 view .LVU132
 414 019e 2C30     		adds	r0, r0, #44
 415 01a0 FFF7FEFF 		bl	_ux_utility_thread_delete
 416              	.LVL31:
 417 01a4 68E7     		b	.L5
 418              	.L23:
 358:./Middlewares/ST/usbx/common/core/src/ux_host_stack_initialize.c **** 
 419              		.loc 1 358 9 view .LVU133
 420 01a6 00F5D870 		add	r0, r0, #432
 421 01aa FFF7FEFF 		bl	_ux_utility_semaphore_delete
 422              	.LVL32:
 423 01ae 6AE7     		b	.L6
 424              	.L24:
 362:./Middlewares/ST/usbx/common/core/src/ux_host_stack_initialize.c **** 
 425              		.loc 1 362 9 view .LVU134
 426 01b0 DC30     		adds	r0, r0, #220
 427 01b2 FFF7FEFF 		bl	_ux_utility_semaphore_delete
 428              	.LVL33:
 429 01b6 6DE7     		b	.L7
 430              	.LVL34:
 431              	.L12:
 171:./Middlewares/ST/usbx/common/core/src/ux_host_stack_initialize.c **** 
 432              		.loc 1 171 15 is_stmt 0 view .LVU135
 433 01b8 1224     		movs	r4, #18
 434 01ba 89E7     		b	.L1
 435              	.L29:
 436              		.align	2
 437              	.L28:
 438 01bc 00000000 		.word	_ux_system_host
 439 01c0 00000000 		.word	.LC0
 440 01c4 20000000 		.word	.LC1
 441 01c8 00000000 		.word	_ux_host_stack_enum_thread_entry
 442 01cc 40000000 		.word	.LC2
 443 01d0 00000000 		.word	_ux_host_stack_hcd_thread_entry
 444 01d4 5C000000 		.word	.LC3
 445              		.cfi_endproc
 446              	.LFE11:
 448              		.global	_ux_system_host_hcd_simulator_name
 449              		.section	.data._ux_system_host_hcd_simulator_name,"aw"
 450              		.align	2
 453              	_ux_system_host_hcd_simulator_name:
 454 0000 75785F68 		.ascii	"ux_hcd_simulator\000"
 454      63645F73 
 454      696D756C 
 454      61746F72 
 454      00
 455              		.global	_ux_system_host_hcd_atm7_name
 456              		.section	.data._ux_system_host_hcd_atm7_name,"aw"
 457              		.align	2
ARM GAS  /tmp/ccTcBKgZ.s 			page 17


 460              	_ux_system_host_hcd_atm7_name:
 461 0000 75785F68 		.ascii	"ux_hcd_atm7\000"
 461      63645F61 
 461      746D3700 
 462              		.global	_ux_system_host_hcd_musb_name
 463              		.section	.data._ux_system_host_hcd_musb_name,"aw"
 464              		.align	2
 467              	_ux_system_host_hcd_musb_name:
 468 0000 75785F68 		.ascii	"ux_hcd_musb\000"
 468      63645F6D 
 468      75736200 
 469              		.global	_ux_system_host_hcd_stm32_name
 470              		.section	.data._ux_system_host_hcd_stm32_name,"aw"
 471              		.align	2
 474              	_ux_system_host_hcd_stm32_name:
 475 0000 75785F68 		.ascii	"ux_hcd_stm32\000"
 475      63645F73 
 475      746D3332 
 475      00
 476              		.global	_ux_system_host_hcd_pic32_name
 477              		.section	.data._ux_system_host_hcd_pic32_name,"aw"
 478              		.align	2
 481              	_ux_system_host_hcd_pic32_name:
 482 0000 75785F68 		.ascii	"ux_hcd_pic32\000"
 482      63645F70 
 482      69633332 
 482      00
 483              		.global	_ux_system_host_hcd_rx_name
 484              		.section	.data._ux_system_host_hcd_rx_name,"aw"
 485              		.align	2
 488              	_ux_system_host_hcd_rx_name:
 489 0000 75785F68 		.ascii	"ux_hcd_sh2\000"
 489      63645F73 
 489      683200
 490              		.global	_ux_system_host_hcd_sh2_name
 491              		.section	.data._ux_system_host_hcd_sh2_name,"aw"
 492              		.align	2
 495              	_ux_system_host_hcd_sh2_name:
 496 0000 75785F68 		.ascii	"ux_hcd_rx\000"
 496      63645F72 
 496      7800
 497              		.global	_ux_system_host_hcd_isp1362_name
 498              		.section	.data._ux_system_host_hcd_isp1362_name,"aw"
 499              		.align	2
 502              	_ux_system_host_hcd_isp1362_name:
 503 0000 75785F68 		.ascii	"ux_hcd_isp1362\000"
 503      63645F69 
 503      73703133 
 503      363200
 504              		.global	_ux_system_host_hcd_isp1161_name
 505              		.section	.data._ux_system_host_hcd_isp1161_name,"aw"
 506              		.align	2
 509              	_ux_system_host_hcd_isp1161_name:
 510 0000 75785F68 		.ascii	"ux_hcd_isp1161\000"
 510      63645F69 
 510      73703131 
 510      363100
ARM GAS  /tmp/ccTcBKgZ.s 			page 18


 511              		.global	_ux_system_host_hcd_ehci_name
 512              		.section	.data._ux_system_host_hcd_ehci_name,"aw"
 513              		.align	2
 516              	_ux_system_host_hcd_ehci_name:
 517 0000 75785F68 		.ascii	"ux_hcd_ehci\000"
 517      63645F65 
 517      68636900 
 518              		.global	_ux_system_host_hcd_ohci_name
 519              		.section	.data._ux_system_host_hcd_ohci_name,"aw"
 520              		.align	2
 523              	_ux_system_host_hcd_ohci_name:
 524 0000 75785F68 		.ascii	"ux_hcd_ohci\000"
 524      63645F6F 
 524      68636900 
 525              		.global	_ux_system_host_class_hid_client_keyboard_name
 526              		.section	.data._ux_system_host_class_hid_client_keyboard_name,"aw"
 527              		.align	2
 530              	_ux_system_host_class_hid_client_keyboard_name:
 531 0000 75785F68 		.ascii	"ux_host_class_hid_client_keyboard\000"
 531      6F73745F 
 531      636C6173 
 531      735F6869 
 531      645F636C 
 532              		.global	_ux_system_host_class_hid_client_mouse_name
 533              		.section	.data._ux_system_host_class_hid_client_mouse_name,"aw"
 534              		.align	2
 537              	_ux_system_host_class_hid_client_mouse_name:
 538 0000 75785F68 		.ascii	"ux_host_class_hid_client_mouse\000"
 538      6F73745F 
 538      636C6173 
 538      735F6869 
 538      645F636C 
 539              		.global	_ux_system_host_class_hid_client_remote_control_name
 540              		.section	.data._ux_system_host_class_hid_client_remote_control_name,"aw"
 541              		.align	2
 544              	_ux_system_host_class_hid_client_remote_control_name:
 545 0000 75785F68 		.ascii	"ux_host_class_hid_client_remote_control\000"
 545      6F73745F 
 545      636C6173 
 545      735F6869 
 545      645F636C 
 546              		.global	_ux_system_host_class_gser_name
 547              		.section	.data._ux_system_host_class_gser_name,"aw"
 548              		.align	2
 551              	_ux_system_host_class_gser_name:
 552 0000 75785F68 		.ascii	"ux_host_class_generic_serial\000"
 552      6F73745F 
 552      636C6173 
 552      735F6765 
 552      6E657269 
 553              		.global	_ux_system_host_class_swar_name
 554              		.section	.data._ux_system_host_class_swar_name,"aw"
 555              		.align	2
 558              	_ux_system_host_class_swar_name:
 559 0000 75785F68 		.ascii	"ux_host_class_sierra_wireless\000"
 559      6F73745F 
 559      636C6173 
ARM GAS  /tmp/ccTcBKgZ.s 			page 19


 559      735F7369 
 559      65727261 
 560              		.global	_ux_system_host_class_asix_name
 561              		.section	.data._ux_system_host_class_asix_name,"aw"
 562              		.align	2
 565              	_ux_system_host_class_asix_name:
 566 0000 75785F68 		.ascii	"ux_host_class_asix\000"
 566      6F73745F 
 566      636C6173 
 566      735F6173 
 566      697800
 567              		.global	_ux_system_host_class_dpump_name
 568              		.section	.data._ux_system_host_class_dpump_name,"aw"
 569              		.align	2
 572              	_ux_system_host_class_dpump_name:
 573 0000 75785F68 		.ascii	"ux_host_class_dpump\000"
 573      6F73745F 
 573      636C6173 
 573      735F6470 
 573      756D7000 
 574              		.global	_ux_system_host_class_pima_name
 575              		.section	.data._ux_system_host_class_pima_name,"aw"
 576              		.align	2
 579              	_ux_system_host_class_pima_name:
 580 0000 75785F68 		.ascii	"ux_host_class_pima\000"
 580      6F73745F 
 580      636C6173 
 580      735F7069 
 580      6D6100
 581              		.global	_ux_system_host_class_prolific_name
 582              		.section	.data._ux_system_host_class_prolific_name,"aw"
 583              		.align	2
 586              	_ux_system_host_class_prolific_name:
 587 0000 75785F68 		.ascii	"ux_host_class_prolific\000"
 587      6F73745F 
 587      636C6173 
 587      735F7072 
 587      6F6C6966 
 588              		.global	_ux_system_host_class_cdc_ecm_name
 589              		.section	.data._ux_system_host_class_cdc_ecm_name,"aw"
 590              		.align	2
 593              	_ux_system_host_class_cdc_ecm_name:
 594 0000 75785F68 		.ascii	"ux_host_class_cdc_ecm\000"
 594      6F73745F 
 594      636C6173 
 594      735F6364 
 594      635F6563 
 595              		.global	_ux_system_host_class_cdc_dlc_name
 596              		.section	.data._ux_system_host_class_cdc_dlc_name,"aw"
 597              		.align	2
 600              	_ux_system_host_class_cdc_dlc_name:
 601 0000 75785F68 		.ascii	"ux_host_class_cdc_dlc\000"
 601      6F73745F 
 601      636C6173 
 601      735F6364 
 601      635F646C 
 602              		.global	_ux_system_host_class_cdc_acm_name
ARM GAS  /tmp/ccTcBKgZ.s 			page 20


 603              		.section	.data._ux_system_host_class_cdc_acm_name,"aw"
 604              		.align	2
 607              	_ux_system_host_class_cdc_acm_name:
 608 0000 75785F68 		.ascii	"ux_host_class_cdc_acm\000"
 608      6F73745F 
 608      636C6173 
 608      735F6364 
 608      635F6163 
 609              		.global	_ux_system_host_class_audio_name
 610              		.section	.data._ux_system_host_class_audio_name,"aw"
 611              		.align	2
 614              	_ux_system_host_class_audio_name:
 615 0000 75785F68 		.ascii	"ux_host_class_audio\000"
 615      6F73745F 
 615      636C6173 
 615      735F6175 
 615      64696F00 
 616              		.global	_ux_system_host_class_hid_name
 617              		.section	.data._ux_system_host_class_hid_name,"aw"
 618              		.align	2
 621              	_ux_system_host_class_hid_name:
 622 0000 75785F68 		.ascii	"ux_host_class_hid\000"
 622      6F73745F 
 622      636C6173 
 622      735F6869 
 622      6400
 623              		.global	_ux_system_host_class_storage_name
 624              		.section	.data._ux_system_host_class_storage_name,"aw"
 625              		.align	2
 628              	_ux_system_host_class_storage_name:
 629 0000 75785F68 		.ascii	"ux_host_class_storage\000"
 629      6F73745F 
 629      636C6173 
 629      735F7374 
 629      6F726167 
 630              		.global	_ux_system_host_class_printer_name
 631              		.section	.data._ux_system_host_class_printer_name,"aw"
 632              		.align	2
 635              	_ux_system_host_class_printer_name:
 636 0000 75785F68 		.ascii	"ux_host_class_printer\000"
 636      6F73745F 
 636      636C6173 
 636      735F7072 
 636      696E7465 
 637              		.global	_ux_system_host_class_hub_name
 638              		.section	.data._ux_system_host_class_hub_name,"aw"
 639              		.align	2
 642              	_ux_system_host_class_hub_name:
 643 0000 75785F68 		.ascii	"ux_host_class_hub\000"
 643      6F73745F 
 643      636C6173 
 643      735F6875 
 643      6200
 644              		.global	_ux_system_host_hcd_periodic_tree_entries
 645              		.section	.data._ux_system_host_hcd_periodic_tree_entries,"aw"
 646              		.align	2
 649              	_ux_system_host_hcd_periodic_tree_entries:
ARM GAS  /tmp/ccTcBKgZ.s 			page 21


 650 0000 00000000 		.word	0
 651 0004 10000000 		.word	16
 652 0008 08000000 		.word	8
 653 000c 18000000 		.word	24
 654 0010 04000000 		.word	4
 655 0014 14000000 		.word	20
 656 0018 0C000000 		.word	12
 657 001c 1C000000 		.word	28
 658 0020 02000000 		.word	2
 659 0024 12000000 		.word	18
 660 0028 0A000000 		.word	10
 661 002c 1A000000 		.word	26
 662 0030 06000000 		.word	6
 663 0034 16000000 		.word	22
 664 0038 0E000000 		.word	14
 665 003c 1E000000 		.word	30
 666 0040 01000000 		.word	1
 667 0044 11000000 		.word	17
 668 0048 09000000 		.word	9
 669 004c 19000000 		.word	25
 670 0050 05000000 		.word	5
 671 0054 15000000 		.word	21
 672 0058 0D000000 		.word	13
 673 005c 1D000000 		.word	29
 674 0060 03000000 		.word	3
 675 0064 13000000 		.word	19
 676 0068 0B000000 		.word	11
 677 006c 1B000000 		.word	27
 678 0070 07000000 		.word	7
 679 0074 17000000 		.word	23
 680 0078 0F000000 		.word	15
 681 007c 1F000000 		.word	31
 682              		.global	_ux_system_host
 683              		.section	.bss._ux_system_host,"aw",%nobits
 684              		.align	2
 687              	_ux_system_host:
 688 0000 00000000 		.space	4
 689              		.text
 690              	.Letext0:
 691              		.file 2 "./Middlewares/ST/threadx/ports/cortex_m4/gnu/inc/tx_port.h"
 692              		.file 3 "./Middlewares/ST/threadx/common/inc/tx_api.h"
 693              		.file 4 "./Middlewares/ST/usbx/common/core/inc/ux_api.h"
 694              		.file 5 "./Middlewares/ST/usbx/common/core/inc/ux_system.h"
 695              		.file 6 "./Middlewares/ST/usbx/common/core/inc/ux_utility.h"
 696              		.file 7 "./Middlewares/ST/usbx/common/core/inc/ux_host_stack.h"
ARM GAS  /tmp/ccTcBKgZ.s 			page 22

