ARM GAS  C:\Users\Dennis\AppData\Local\Temp\ccRti7If.s 			page 1


   1              		.cpu cortex-m4
   2              		.arch armv7e-m
   3              		.fpu fpv4-sp-d16
   4              		.eabi_attribute 27, 1
   5              		.eabi_attribute 28, 1
   6              		.eabi_attribute 20, 1
   7              		.eabi_attribute 21, 1
   8              		.eabi_attribute 23, 3
   9              		.eabi_attribute 24, 1
  10              		.eabi_attribute 25, 1
  11              		.eabi_attribute 26, 1
  12              		.eabi_attribute 30, 1
  13              		.eabi_attribute 34, 1
  14              		.eabi_attribute 18, 4
  15              		.file	"ux_host_stack_new_endpoint_create.c"
  16              		.text
  17              	.Ltext0:
  18              		.cfi_sections	.debug_frame
  19              		.section	.text._ux_host_stack_new_endpoint_create,"ax",%progbits
  20              		.align	1
  21              		.global	_ux_host_stack_new_endpoint_create
  22              		.syntax unified
  23              		.thumb
  24              		.thumb_func
  26              	_ux_host_stack_new_endpoint_create:
  27              	.LVL0:
  28              	.LFB11:
  29              		.file 1 "./Middlewares/ST/usbx/common/core/src/ux_host_stack_new_endpoint_create.c"
   1:./Middlewares/ST/usbx/common/core/src/ux_host_stack_new_endpoint_create.c **** /**************************************************************************/
   2:./Middlewares/ST/usbx/common/core/src/ux_host_stack_new_endpoint_create.c **** /*                                                                        */
   3:./Middlewares/ST/usbx/common/core/src/ux_host_stack_new_endpoint_create.c **** /*       Copyright (c) Microsoft Corporation. All rights reserved.        */
   4:./Middlewares/ST/usbx/common/core/src/ux_host_stack_new_endpoint_create.c **** /*                                                                        */
   5:./Middlewares/ST/usbx/common/core/src/ux_host_stack_new_endpoint_create.c **** /*       This software is licensed under the Microsoft Software License   */
   6:./Middlewares/ST/usbx/common/core/src/ux_host_stack_new_endpoint_create.c **** /*       Terms for Microsoft Azure RTOS. Full text of the license can be  */
   7:./Middlewares/ST/usbx/common/core/src/ux_host_stack_new_endpoint_create.c **** /*       found in the LICENSE file at https://aka.ms/AzureRTOS_EULA       */
   8:./Middlewares/ST/usbx/common/core/src/ux_host_stack_new_endpoint_create.c **** /*       and in the root directory of this software.                      */
   9:./Middlewares/ST/usbx/common/core/src/ux_host_stack_new_endpoint_create.c **** /*                                                                        */
  10:./Middlewares/ST/usbx/common/core/src/ux_host_stack_new_endpoint_create.c **** /**************************************************************************/
  11:./Middlewares/ST/usbx/common/core/src/ux_host_stack_new_endpoint_create.c **** 
  12:./Middlewares/ST/usbx/common/core/src/ux_host_stack_new_endpoint_create.c **** 
  13:./Middlewares/ST/usbx/common/core/src/ux_host_stack_new_endpoint_create.c **** /**************************************************************************/
  14:./Middlewares/ST/usbx/common/core/src/ux_host_stack_new_endpoint_create.c **** /**************************************************************************/
  15:./Middlewares/ST/usbx/common/core/src/ux_host_stack_new_endpoint_create.c **** /**                                                                       */ 
  16:./Middlewares/ST/usbx/common/core/src/ux_host_stack_new_endpoint_create.c **** /** USBX Component                                                        */ 
  17:./Middlewares/ST/usbx/common/core/src/ux_host_stack_new_endpoint_create.c **** /**                                                                       */
  18:./Middlewares/ST/usbx/common/core/src/ux_host_stack_new_endpoint_create.c **** /**   Host Stack                                                          */
  19:./Middlewares/ST/usbx/common/core/src/ux_host_stack_new_endpoint_create.c **** /**                                                                       */
  20:./Middlewares/ST/usbx/common/core/src/ux_host_stack_new_endpoint_create.c **** /**************************************************************************/
  21:./Middlewares/ST/usbx/common/core/src/ux_host_stack_new_endpoint_create.c **** /**************************************************************************/
  22:./Middlewares/ST/usbx/common/core/src/ux_host_stack_new_endpoint_create.c **** 
  23:./Middlewares/ST/usbx/common/core/src/ux_host_stack_new_endpoint_create.c **** 
  24:./Middlewares/ST/usbx/common/core/src/ux_host_stack_new_endpoint_create.c **** /* Include necessary system files.  */
  25:./Middlewares/ST/usbx/common/core/src/ux_host_stack_new_endpoint_create.c **** 
  26:./Middlewares/ST/usbx/common/core/src/ux_host_stack_new_endpoint_create.c **** #define UX_SOURCE_CODE
  27:./Middlewares/ST/usbx/common/core/src/ux_host_stack_new_endpoint_create.c **** 
  28:./Middlewares/ST/usbx/common/core/src/ux_host_stack_new_endpoint_create.c **** #include "ux_api.h"
  29:./Middlewares/ST/usbx/common/core/src/ux_host_stack_new_endpoint_create.c **** #include "ux_host_stack.h"
ARM GAS  C:\Users\Dennis\AppData\Local\Temp\ccRti7If.s 			page 2


  30:./Middlewares/ST/usbx/common/core/src/ux_host_stack_new_endpoint_create.c **** 
  31:./Middlewares/ST/usbx/common/core/src/ux_host_stack_new_endpoint_create.c **** 
  32:./Middlewares/ST/usbx/common/core/src/ux_host_stack_new_endpoint_create.c **** /**************************************************************************/ 
  33:./Middlewares/ST/usbx/common/core/src/ux_host_stack_new_endpoint_create.c **** /*                                                                        */ 
  34:./Middlewares/ST/usbx/common/core/src/ux_host_stack_new_endpoint_create.c **** /*  FUNCTION                                               RELEASE        */ 
  35:./Middlewares/ST/usbx/common/core/src/ux_host_stack_new_endpoint_create.c **** /*                                                                        */ 
  36:./Middlewares/ST/usbx/common/core/src/ux_host_stack_new_endpoint_create.c **** /*    _ux_host_stack_new_endpoint_create                  PORTABLE C      */ 
  37:./Middlewares/ST/usbx/common/core/src/ux_host_stack_new_endpoint_create.c **** /*                                                           6.1.9        */
  38:./Middlewares/ST/usbx/common/core/src/ux_host_stack_new_endpoint_create.c **** /*  AUTHOR                                                                */
  39:./Middlewares/ST/usbx/common/core/src/ux_host_stack_new_endpoint_create.c **** /*                                                                        */
  40:./Middlewares/ST/usbx/common/core/src/ux_host_stack_new_endpoint_create.c **** /*    Chaoqiong Xiao, Microsoft Corporation                               */
  41:./Middlewares/ST/usbx/common/core/src/ux_host_stack_new_endpoint_create.c **** /*                                                                        */
  42:./Middlewares/ST/usbx/common/core/src/ux_host_stack_new_endpoint_create.c **** /*  DESCRIPTION                                                           */
  43:./Middlewares/ST/usbx/common/core/src/ux_host_stack_new_endpoint_create.c **** /*                                                                        */ 
  44:./Middlewares/ST/usbx/common/core/src/ux_host_stack_new_endpoint_create.c **** /*    This function creates a new endpoint for the current interface      */ 
  45:./Middlewares/ST/usbx/common/core/src/ux_host_stack_new_endpoint_create.c **** /*    scanned. The endpoint is hooked to the interface that owns it.      */ 
  46:./Middlewares/ST/usbx/common/core/src/ux_host_stack_new_endpoint_create.c **** /*    It is not active yet until either the default interface for the     */ 
  47:./Middlewares/ST/usbx/common/core/src/ux_host_stack_new_endpoint_create.c **** /*    configuration is selected by a SET_CONFIGURATION or when an         */ 
  48:./Middlewares/ST/usbx/common/core/src/ux_host_stack_new_endpoint_create.c **** /*    alternate setting for this interface is set.                        */
  49:./Middlewares/ST/usbx/common/core/src/ux_host_stack_new_endpoint_create.c **** /*                                                                        */ 
  50:./Middlewares/ST/usbx/common/core/src/ux_host_stack_new_endpoint_create.c **** /*  INPUT                                                                 */ 
  51:./Middlewares/ST/usbx/common/core/src/ux_host_stack_new_endpoint_create.c **** /*                                                                        */ 
  52:./Middlewares/ST/usbx/common/core/src/ux_host_stack_new_endpoint_create.c **** /*    interface                             Interface container that owns */ 
  53:./Middlewares/ST/usbx/common/core/src/ux_host_stack_new_endpoint_create.c **** /*                                            this endpoint               */
  54:./Middlewares/ST/usbx/common/core/src/ux_host_stack_new_endpoint_create.c **** /*    endpoint_pointer                      Pointer to a unparsed         */ 
  55:./Middlewares/ST/usbx/common/core/src/ux_host_stack_new_endpoint_create.c **** /*                                            endpoint descriptor         */
  56:./Middlewares/ST/usbx/common/core/src/ux_host_stack_new_endpoint_create.c **** /*                                                                        */ 
  57:./Middlewares/ST/usbx/common/core/src/ux_host_stack_new_endpoint_create.c **** /*  OUTPUT                                                                */ 
  58:./Middlewares/ST/usbx/common/core/src/ux_host_stack_new_endpoint_create.c **** /*                                                                        */ 
  59:./Middlewares/ST/usbx/common/core/src/ux_host_stack_new_endpoint_create.c **** /*    Completion Status                                                   */ 
  60:./Middlewares/ST/usbx/common/core/src/ux_host_stack_new_endpoint_create.c **** /*                                                                        */ 
  61:./Middlewares/ST/usbx/common/core/src/ux_host_stack_new_endpoint_create.c **** /*  CALLS                                                                 */ 
  62:./Middlewares/ST/usbx/common/core/src/ux_host_stack_new_endpoint_create.c **** /*                                                                        */ 
  63:./Middlewares/ST/usbx/common/core/src/ux_host_stack_new_endpoint_create.c **** /*    _ux_utility_descriptor_parse          Parse the descriptor          */ 
  64:./Middlewares/ST/usbx/common/core/src/ux_host_stack_new_endpoint_create.c **** /*    _ux_utility_memory_allocate           Allocate memory block         */ 
  65:./Middlewares/ST/usbx/common/core/src/ux_host_stack_new_endpoint_create.c **** /*                                                                        */ 
  66:./Middlewares/ST/usbx/common/core/src/ux_host_stack_new_endpoint_create.c **** /*  CALLED BY                                                             */ 
  67:./Middlewares/ST/usbx/common/core/src/ux_host_stack_new_endpoint_create.c **** /*                                                                        */ 
  68:./Middlewares/ST/usbx/common/core/src/ux_host_stack_new_endpoint_create.c **** /*    USBX Components                                                     */ 
  69:./Middlewares/ST/usbx/common/core/src/ux_host_stack_new_endpoint_create.c **** /*                                                                        */ 
  70:./Middlewares/ST/usbx/common/core/src/ux_host_stack_new_endpoint_create.c **** /*  RELEASE HISTORY                                                       */ 
  71:./Middlewares/ST/usbx/common/core/src/ux_host_stack_new_endpoint_create.c **** /*                                                                        */ 
  72:./Middlewares/ST/usbx/common/core/src/ux_host_stack_new_endpoint_create.c **** /*    DATE              NAME                      DESCRIPTION             */ 
  73:./Middlewares/ST/usbx/common/core/src/ux_host_stack_new_endpoint_create.c **** /*                                                                        */ 
  74:./Middlewares/ST/usbx/common/core/src/ux_host_stack_new_endpoint_create.c **** /*  05-19-2020     Chaoqiong Xiao           Initial Version 6.0           */
  75:./Middlewares/ST/usbx/common/core/src/ux_host_stack_new_endpoint_create.c **** /*  09-30-2020     Chaoqiong Xiao           Modified comment(s),          */
  76:./Middlewares/ST/usbx/common/core/src/ux_host_stack_new_endpoint_create.c **** /*                                            resulting in version 6.1    */
  77:./Middlewares/ST/usbx/common/core/src/ux_host_stack_new_endpoint_create.c **** /*  10-15-2021     Chaoqiong Xiao           Modified comment(s),          */
  78:./Middlewares/ST/usbx/common/core/src/ux_host_stack_new_endpoint_create.c **** /*                                            added descriptor validate,  */
  79:./Middlewares/ST/usbx/common/core/src/ux_host_stack_new_endpoint_create.c **** /*                                            resulting in version 6.1.9  */
  80:./Middlewares/ST/usbx/common/core/src/ux_host_stack_new_endpoint_create.c **** /*                                                                        */
  81:./Middlewares/ST/usbx/common/core/src/ux_host_stack_new_endpoint_create.c **** /**************************************************************************/
  82:./Middlewares/ST/usbx/common/core/src/ux_host_stack_new_endpoint_create.c **** UINT  _ux_host_stack_new_endpoint_create(UX_INTERFACE *interface,
  83:./Middlewares/ST/usbx/common/core/src/ux_host_stack_new_endpoint_create.c ****                                                  UCHAR * interface_endpoint)
  84:./Middlewares/ST/usbx/common/core/src/ux_host_stack_new_endpoint_create.c **** {
  30              		.loc 1 84 1 view -0
  31              		.cfi_startproc
ARM GAS  C:\Users\Dennis\AppData\Local\Temp\ccRti7If.s 			page 3


  32              		@ args = 0, pretend = 0, frame = 0
  33              		@ frame_needed = 0, uses_anonymous_args = 0
  34              		.loc 1 84 1 is_stmt 0 view .LVU1
  35 0000 F8B5     		push	{r3, r4, r5, r6, r7, lr}
  36              	.LCFI0:
  37              		.cfi_def_cfa_offset 24
  38              		.cfi_offset 3, -24
  39              		.cfi_offset 4, -20
  40              		.cfi_offset 5, -16
  41              		.cfi_offset 6, -12
  42              		.cfi_offset 7, -8
  43              		.cfi_offset 14, -4
  44 0002 0646     		mov	r6, r0
  45 0004 0F46     		mov	r7, r1
  85:./Middlewares/ST/usbx/common/core/src/ux_host_stack_new_endpoint_create.c **** 
  86:./Middlewares/ST/usbx/common/core/src/ux_host_stack_new_endpoint_create.c **** UX_ENDPOINT     *endpoint;
  46              		.loc 1 86 1 is_stmt 1 view .LVU2
  87:./Middlewares/ST/usbx/common/core/src/ux_host_stack_new_endpoint_create.c **** UX_ENDPOINT     *list_endpoint;
  47              		.loc 1 87 1 view .LVU3
  88:./Middlewares/ST/usbx/common/core/src/ux_host_stack_new_endpoint_create.c **** ULONG           endpoint_type;
  48              		.loc 1 88 1 view .LVU4
  89:./Middlewares/ST/usbx/common/core/src/ux_host_stack_new_endpoint_create.c **** ULONG           packet_size;
  49              		.loc 1 89 1 view .LVU5
  90:./Middlewares/ST/usbx/common/core/src/ux_host_stack_new_endpoint_create.c **** ULONG           n_tran;
  50              		.loc 1 90 1 view .LVU6
  91:./Middlewares/ST/usbx/common/core/src/ux_host_stack_new_endpoint_create.c **** 
  92:./Middlewares/ST/usbx/common/core/src/ux_host_stack_new_endpoint_create.c ****     /* Obtain memory for storing this new endpoint.  */
  93:./Middlewares/ST/usbx/common/core/src/ux_host_stack_new_endpoint_create.c ****     endpoint =  (UX_ENDPOINT *) _ux_utility_memory_allocate(UX_NO_ALIGN, UX_REGULAR_MEMORY, sizeof(
  51              		.loc 1 93 5 view .LVU7
  52              		.loc 1 93 33 is_stmt 0 view .LVU8
  53 0006 9422     		movs	r2, #148
  54 0008 0021     		movs	r1, #0
  55              	.LVL1:
  56              		.loc 1 93 33 view .LVU9
  57 000a 0846     		mov	r0, r1
  58              	.LVL2:
  59              		.loc 1 93 33 view .LVU10
  60 000c FFF7FEFF 		bl	_ux_utility_memory_allocate
  61              	.LVL3:
  94:./Middlewares/ST/usbx/common/core/src/ux_host_stack_new_endpoint_create.c ****     if (endpoint == UX_NULL)
  62              		.loc 1 94 5 is_stmt 1 view .LVU11
  63              		.loc 1 94 8 is_stmt 0 view .LVU12
  64 0010 0028     		cmp	r0, #0
  65 0012 69D0     		beq	.L17
  66 0014 0546     		mov	r5, r0
  95:./Middlewares/ST/usbx/common/core/src/ux_host_stack_new_endpoint_create.c ****         return(UX_MEMORY_INSUFFICIENT);
  96:./Middlewares/ST/usbx/common/core/src/ux_host_stack_new_endpoint_create.c **** 
  97:./Middlewares/ST/usbx/common/core/src/ux_host_stack_new_endpoint_create.c ****     /* If trace is enabled, insert this event into the trace buffer.  */
  98:./Middlewares/ST/usbx/common/core/src/ux_host_stack_new_endpoint_create.c ****     UX_TRACE_IN_LINE_INSERT(UX_TRACE_HOST_STACK_NEW_ENDPOINT_CREATE, interface, endpoint, 0, 0, UX_
  99:./Middlewares/ST/usbx/common/core/src/ux_host_stack_new_endpoint_create.c **** 
 100:./Middlewares/ST/usbx/common/core/src/ux_host_stack_new_endpoint_create.c ****     /* Save the endpoint handle in the container, this is for ensuring the
 101:./Middlewares/ST/usbx/common/core/src/ux_host_stack_new_endpoint_create.c ****        endpoint container is not corrupted.  */
 102:./Middlewares/ST/usbx/common/core/src/ux_host_stack_new_endpoint_create.c ****     endpoint -> ux_endpoint =  (ULONG) (ALIGN_TYPE) endpoint;
  67              		.loc 1 102 5 is_stmt 1 view .LVU13
  68              		.loc 1 102 29 is_stmt 0 view .LVU14
  69 0016 0060     		str	r0, [r0]
 103:./Middlewares/ST/usbx/common/core/src/ux_host_stack_new_endpoint_create.c **** 
ARM GAS  C:\Users\Dennis\AppData\Local\Temp\ccRti7If.s 			page 4


 104:./Middlewares/ST/usbx/common/core/src/ux_host_stack_new_endpoint_create.c ****     /* The endpoint container has a built in transfer_request. 
 105:./Middlewares/ST/usbx/common/core/src/ux_host_stack_new_endpoint_create.c ****        The transfer_request needs to point to the endpoint as well.  */
 106:./Middlewares/ST/usbx/common/core/src/ux_host_stack_new_endpoint_create.c ****     endpoint -> ux_endpoint_transfer_request.ux_transfer_request_endpoint =  endpoint;
  70              		.loc 1 106 5 is_stmt 1 view .LVU15
  71              		.loc 1 106 75 is_stmt 0 view .LVU16
  72 0018 4063     		str	r0, [r0, #52]
 107:./Middlewares/ST/usbx/common/core/src/ux_host_stack_new_endpoint_create.c **** 
 108:./Middlewares/ST/usbx/common/core/src/ux_host_stack_new_endpoint_create.c ****     /* Save the pointer to the device. This is useful for the HCD layer.  */
 109:./Middlewares/ST/usbx/common/core/src/ux_host_stack_new_endpoint_create.c ****     endpoint -> ux_endpoint_device =  interface -> ux_interface_configuration -> ux_configuration_d
  73              		.loc 1 109 5 is_stmt 1 view .LVU17
  74              		.loc 1 109 49 is_stmt 0 view .LVU18
  75 001a 336C     		ldr	r3, [r6, #64]
  76              		.loc 1 109 79 view .LVU19
  77 001c 5B6B     		ldr	r3, [r3, #52]
  78              		.loc 1 109 36 view .LVU20
  79 001e C362     		str	r3, [r0, #44]
 110:./Middlewares/ST/usbx/common/core/src/ux_host_stack_new_endpoint_create.c **** 
 111:./Middlewares/ST/usbx/common/core/src/ux_host_stack_new_endpoint_create.c ****     /* Parse the interface descriptor and make it machine independent.  */
 112:./Middlewares/ST/usbx/common/core/src/ux_host_stack_new_endpoint_create.c ****     _ux_utility_descriptor_parse(interface_endpoint,
  80              		.loc 1 112 5 is_stmt 1 view .LVU21
  81 0020 00F10C03 		add	r3, r0, #12
  82 0024 0622     		movs	r2, #6
  83 0026 3149     		ldr	r1, .L28
  84 0028 3846     		mov	r0, r7
  85              	.LVL4:
  86              		.loc 1 112 5 is_stmt 0 view .LVU22
  87 002a FFF7FEFF 		bl	_ux_utility_descriptor_parse
  88              	.LVL5:
 113:./Middlewares/ST/usbx/common/core/src/ux_host_stack_new_endpoint_create.c ****                             _ux_system_endpoint_descriptor_structure,
 114:./Middlewares/ST/usbx/common/core/src/ux_host_stack_new_endpoint_create.c ****                             UX_ENDPOINT_DESCRIPTOR_ENTRIES,
 115:./Middlewares/ST/usbx/common/core/src/ux_host_stack_new_endpoint_create.c ****                             (UCHAR *) &endpoint -> ux_endpoint_descriptor);
 116:./Middlewares/ST/usbx/common/core/src/ux_host_stack_new_endpoint_create.c **** 
 117:./Middlewares/ST/usbx/common/core/src/ux_host_stack_new_endpoint_create.c ****     /* Check endpoint size and interval to see if they are valid.  */
 118:./Middlewares/ST/usbx/common/core/src/ux_host_stack_new_endpoint_create.c ****     endpoint_type = endpoint -> ux_endpoint_descriptor.bmAttributes & UX_MASK_ENDPOINT_TYPE;
  89              		.loc 1 118 5 is_stmt 1 view .LVU23
  90              		.loc 1 118 55 is_stmt 0 view .LVU24
  91 002e AA69     		ldr	r2, [r5, #24]
  92              		.loc 1 118 19 view .LVU25
  93 0030 02F00302 		and	r2, r2, #3
  94              	.LVL6:
 119:./Middlewares/ST/usbx/common/core/src/ux_host_stack_new_endpoint_create.c **** 
 120:./Middlewares/ST/usbx/common/core/src/ux_host_stack_new_endpoint_create.c ****     /* Endpoint size should not be zero.  */
 121:./Middlewares/ST/usbx/common/core/src/ux_host_stack_new_endpoint_create.c ****     if (endpoint -> ux_endpoint_descriptor.wMaxPacketSize == 0)
  95              		.loc 1 121 5 is_stmt 1 view .LVU26
  96              		.loc 1 121 43 is_stmt 0 view .LVU27
  97 0034 EB69     		ldr	r3, [r5, #28]
  98              		.loc 1 121 8 view .LVU28
  99 0036 23B1     		cbz	r3, .L21
 122:./Middlewares/ST/usbx/common/core/src/ux_host_stack_new_endpoint_create.c ****     {
 123:./Middlewares/ST/usbx/common/core/src/ux_host_stack_new_endpoint_create.c ****         _ux_utility_memory_free(endpoint);
 124:./Middlewares/ST/usbx/common/core/src/ux_host_stack_new_endpoint_create.c ****         return(UX_DESCRIPTOR_CORRUPTED);
 125:./Middlewares/ST/usbx/common/core/src/ux_host_stack_new_endpoint_create.c ****     }
 126:./Middlewares/ST/usbx/common/core/src/ux_host_stack_new_endpoint_create.c **** 
 127:./Middlewares/ST/usbx/common/core/src/ux_host_stack_new_endpoint_create.c ****     /* Control/bulk endpoint, 8, 16, 32, 64, ... 512 can be accepted.
 128:./Middlewares/ST/usbx/common/core/src/ux_host_stack_new_endpoint_create.c ****        Note non-standard size in 2^N is accepted since they really works.  */
 129:./Middlewares/ST/usbx/common/core/src/ux_host_stack_new_endpoint_create.c ****     if (endpoint_type == UX_CONTROL_ENDPOINT || endpoint_type == UX_BULK_ENDPOINT)
 100              		.loc 1 129 5 is_stmt 1 view .LVU29
ARM GAS  C:\Users\Dennis\AppData\Local\Temp\ccRti7If.s 			page 5


 101              		.loc 1 129 8 is_stmt 0 view .LVU30
 102 0038 42B1     		cbz	r2, .L18
 103              		.loc 1 129 46 discriminator 1 view .LVU31
 104 003a 022A     		cmp	r2, #2
 105 003c 11D1     		bne	.L5
 106 003e 0824     		movs	r4, #8
 107 0040 05E0     		b	.L7
 108              	.L21:
 123:./Middlewares/ST/usbx/common/core/src/ux_host_stack_new_endpoint_create.c ****         return(UX_DESCRIPTOR_CORRUPTED);
 109              		.loc 1 123 9 is_stmt 1 view .LVU32
 110 0042 2846     		mov	r0, r5
 111 0044 FFF7FEFF 		bl	_ux_utility_memory_free
 112              	.LVL7:
 124:./Middlewares/ST/usbx/common/core/src/ux_host_stack_new_endpoint_create.c ****     }
 113              		.loc 1 124 9 view .LVU33
 124:./Middlewares/ST/usbx/common/core/src/ux_host_stack_new_endpoint_create.c ****     }
 114              		.loc 1 124 15 is_stmt 0 view .LVU34
 115 0048 4220     		movs	r0, #66
 116 004a 18E0     		b	.L1
 117              	.LVL8:
 118              	.L18:
 124:./Middlewares/ST/usbx/common/core/src/ux_host_stack_new_endpoint_create.c ****     }
 119              		.loc 1 124 15 view .LVU35
 120 004c 0824     		movs	r4, #8
 121              	.L7:
 122              	.LVL9:
 130:./Middlewares/ST/usbx/common/core/src/ux_host_stack_new_endpoint_create.c ****     {
 131:./Middlewares/ST/usbx/common/core/src/ux_host_stack_new_endpoint_create.c ****         for (packet_size = 8; packet_size <= 512; packet_size <<= 1)
 123              		.loc 1 131 31 is_stmt 1 discriminator 1 view .LVU36
 124              		.loc 1 131 9 is_stmt 0 discriminator 1 view .LVU37
 125 004e B4F5007F 		cmp	r4, #512
 126 0052 03D8     		bhi	.L6
 132:./Middlewares/ST/usbx/common/core/src/ux_host_stack_new_endpoint_create.c ****         {
 133:./Middlewares/ST/usbx/common/core/src/ux_host_stack_new_endpoint_create.c ****             if (packet_size == endpoint -> ux_endpoint_descriptor.wMaxPacketSize)
 127              		.loc 1 133 13 is_stmt 1 view .LVU38
 128              		.loc 1 133 16 is_stmt 0 view .LVU39
 129 0054 A342     		cmp	r3, r4
 130 0056 01D0     		beq	.L6
 131:./Middlewares/ST/usbx/common/core/src/ux_host_stack_new_endpoint_create.c ****         {
 131              		.loc 1 131 51 is_stmt 1 discriminator 2 view .LVU40
 131:./Middlewares/ST/usbx/common/core/src/ux_host_stack_new_endpoint_create.c ****         {
 132              		.loc 1 131 63 is_stmt 0 discriminator 2 view .LVU41
 133 0058 6400     		lsls	r4, r4, #1
 134              	.LVL10:
 131:./Middlewares/ST/usbx/common/core/src/ux_host_stack_new_endpoint_create.c ****         {
 135              		.loc 1 131 63 discriminator 2 view .LVU42
 136 005a F8E7     		b	.L7
 137              	.L6:
 134:./Middlewares/ST/usbx/common/core/src/ux_host_stack_new_endpoint_create.c ****                 break;
 135:./Middlewares/ST/usbx/common/core/src/ux_host_stack_new_endpoint_create.c ****         }
 136:./Middlewares/ST/usbx/common/core/src/ux_host_stack_new_endpoint_create.c **** 
 137:./Middlewares/ST/usbx/common/core/src/ux_host_stack_new_endpoint_create.c ****         /* If endpoint size not valid, return error.  */
 138:./Middlewares/ST/usbx/common/core/src/ux_host_stack_new_endpoint_create.c ****         if (packet_size > 512)
 138              		.loc 1 138 9 is_stmt 1 view .LVU43
 139              		.loc 1 138 12 is_stmt 0 view .LVU44
 140 005c B4F5007F 		cmp	r4, #512
 141 0060 0ED8     		bhi	.L22
ARM GAS  C:\Users\Dennis\AppData\Local\Temp\ccRti7If.s 			page 6


 142              	.LVL11:
 143              	.L5:
 139:./Middlewares/ST/usbx/common/core/src/ux_host_stack_new_endpoint_create.c ****         {
 140:./Middlewares/ST/usbx/common/core/src/ux_host_stack_new_endpoint_create.c ****             _ux_utility_memory_free(endpoint);
 141:./Middlewares/ST/usbx/common/core/src/ux_host_stack_new_endpoint_create.c ****             return(UX_DESCRIPTOR_CORRUPTED);
 142:./Middlewares/ST/usbx/common/core/src/ux_host_stack_new_endpoint_create.c ****         }
 143:./Middlewares/ST/usbx/common/core/src/ux_host_stack_new_endpoint_create.c ****     }
 144:./Middlewares/ST/usbx/common/core/src/ux_host_stack_new_endpoint_create.c **** 
 145:./Middlewares/ST/usbx/common/core/src/ux_host_stack_new_endpoint_create.c ****     /* Interrupt/isochronous endpoint, max 1024 and 3 transactions can be accepted.  */
 146:./Middlewares/ST/usbx/common/core/src/ux_host_stack_new_endpoint_create.c ****     if (endpoint_type == UX_INTERRUPT_ENDPOINT || endpoint_type == UX_ISOCHRONOUS_ENDPOINT)
 144              		.loc 1 146 5 is_stmt 1 view .LVU45
 145              		.loc 1 146 8 is_stmt 0 view .LVU46
 146 0062 032A     		cmp	r2, #3
 147 0064 11D0     		beq	.L9
 148              		.loc 1 146 48 discriminator 1 view .LVU47
 149 0066 012A     		cmp	r2, #1
 150 0068 0FD0     		beq	.L9
 151              	.LVL12:
 152              	.L10:
 147:./Middlewares/ST/usbx/common/core/src/ux_host_stack_new_endpoint_create.c ****     {
 148:./Middlewares/ST/usbx/common/core/src/ux_host_stack_new_endpoint_create.c **** 
 149:./Middlewares/ST/usbx/common/core/src/ux_host_stack_new_endpoint_create.c ****         /* Max size over 1024 is not allowed.  */
 150:./Middlewares/ST/usbx/common/core/src/ux_host_stack_new_endpoint_create.c ****         packet_size = endpoint -> ux_endpoint_descriptor.wMaxPacketSize & UX_MAX_PACKET_SIZE_MASK;
 151:./Middlewares/ST/usbx/common/core/src/ux_host_stack_new_endpoint_create.c ****         if (packet_size > 1024)
 152:./Middlewares/ST/usbx/common/core/src/ux_host_stack_new_endpoint_create.c ****         {
 153:./Middlewares/ST/usbx/common/core/src/ux_host_stack_new_endpoint_create.c ****             _ux_utility_memory_free(endpoint);
 154:./Middlewares/ST/usbx/common/core/src/ux_host_stack_new_endpoint_create.c ****             return(UX_DESCRIPTOR_CORRUPTED);
 155:./Middlewares/ST/usbx/common/core/src/ux_host_stack_new_endpoint_create.c ****         }
 156:./Middlewares/ST/usbx/common/core/src/ux_host_stack_new_endpoint_create.c **** 
 157:./Middlewares/ST/usbx/common/core/src/ux_host_stack_new_endpoint_create.c ****         /* Number transaction over 2 additional is not allowed.  */
 158:./Middlewares/ST/usbx/common/core/src/ux_host_stack_new_endpoint_create.c ****         n_tran = endpoint -> ux_endpoint_descriptor.wMaxPacketSize & UX_MAX_NUMBER_OF_TRANSACTIONS_
 159:./Middlewares/ST/usbx/common/core/src/ux_host_stack_new_endpoint_create.c ****         if (n_tran >= UX_MAX_NUMBER_OF_TRANSACTIONS_MASK)
 160:./Middlewares/ST/usbx/common/core/src/ux_host_stack_new_endpoint_create.c ****         {
 161:./Middlewares/ST/usbx/common/core/src/ux_host_stack_new_endpoint_create.c ****             _ux_utility_memory_free(endpoint);
 162:./Middlewares/ST/usbx/common/core/src/ux_host_stack_new_endpoint_create.c ****             return(UX_DESCRIPTOR_CORRUPTED);
 163:./Middlewares/ST/usbx/common/core/src/ux_host_stack_new_endpoint_create.c ****         }
 164:./Middlewares/ST/usbx/common/core/src/ux_host_stack_new_endpoint_create.c **** 
 165:./Middlewares/ST/usbx/common/core/src/ux_host_stack_new_endpoint_create.c ****         /* Isochronous/high speed interrupt interval should be 1~16.  */
 166:./Middlewares/ST/usbx/common/core/src/ux_host_stack_new_endpoint_create.c ****         if (endpoint -> ux_endpoint_descriptor.bInterval < 1)
 167:./Middlewares/ST/usbx/common/core/src/ux_host_stack_new_endpoint_create.c ****         {
 168:./Middlewares/ST/usbx/common/core/src/ux_host_stack_new_endpoint_create.c ****             _ux_utility_memory_free(endpoint);
 169:./Middlewares/ST/usbx/common/core/src/ux_host_stack_new_endpoint_create.c ****             return(UX_DESCRIPTOR_CORRUPTED);
 170:./Middlewares/ST/usbx/common/core/src/ux_host_stack_new_endpoint_create.c ****         }
 171:./Middlewares/ST/usbx/common/core/src/ux_host_stack_new_endpoint_create.c ****         if ((endpoint_type == UX_ISOCHRONOUS_ENDPOINT) ||
 172:./Middlewares/ST/usbx/common/core/src/ux_host_stack_new_endpoint_create.c ****             (interface -> ux_interface_configuration -> ux_configuration_device
 173:./Middlewares/ST/usbx/common/core/src/ux_host_stack_new_endpoint_create.c ****                                     -> ux_device_speed == UX_HIGH_SPEED_DEVICE)
 174:./Middlewares/ST/usbx/common/core/src/ux_host_stack_new_endpoint_create.c ****             )
 175:./Middlewares/ST/usbx/common/core/src/ux_host_stack_new_endpoint_create.c ****         {
 176:./Middlewares/ST/usbx/common/core/src/ux_host_stack_new_endpoint_create.c ****             if (endpoint -> ux_endpoint_descriptor.bInterval > 16)
 177:./Middlewares/ST/usbx/common/core/src/ux_host_stack_new_endpoint_create.c ****             {
 178:./Middlewares/ST/usbx/common/core/src/ux_host_stack_new_endpoint_create.c ****                 _ux_utility_memory_free(endpoint);
 179:./Middlewares/ST/usbx/common/core/src/ux_host_stack_new_endpoint_create.c ****                 return(UX_DESCRIPTOR_CORRUPTED);
 180:./Middlewares/ST/usbx/common/core/src/ux_host_stack_new_endpoint_create.c ****             }
 181:./Middlewares/ST/usbx/common/core/src/ux_host_stack_new_endpoint_create.c ****         }
 182:./Middlewares/ST/usbx/common/core/src/ux_host_stack_new_endpoint_create.c **** 
 183:./Middlewares/ST/usbx/common/core/src/ux_host_stack_new_endpoint_create.c ****         /* Save final packet size.  */
 184:./Middlewares/ST/usbx/common/core/src/ux_host_stack_new_endpoint_create.c ****         packet_size *= (n_tran + 1);
ARM GAS  C:\Users\Dennis\AppData\Local\Temp\ccRti7If.s 			page 7


 185:./Middlewares/ST/usbx/common/core/src/ux_host_stack_new_endpoint_create.c ****     }
 186:./Middlewares/ST/usbx/common/core/src/ux_host_stack_new_endpoint_create.c **** 
 187:./Middlewares/ST/usbx/common/core/src/ux_host_stack_new_endpoint_create.c ****     /* Save transfer packet size.  */
 188:./Middlewares/ST/usbx/common/core/src/ux_host_stack_new_endpoint_create.c ****     endpoint -> ux_endpoint_transfer_request.ux_transfer_request_packet_length = packet_size;
 153              		.loc 1 188 5 is_stmt 1 view .LVU48
 154              		.loc 1 188 80 is_stmt 0 view .LVU49
 155 006a AC66     		str	r4, [r5, #104]
 189:./Middlewares/ST/usbx/common/core/src/ux_host_stack_new_endpoint_create.c **** 
 190:./Middlewares/ST/usbx/common/core/src/ux_host_stack_new_endpoint_create.c ****     /* The interface that owns this endpoint is memorized in the 
 191:./Middlewares/ST/usbx/common/core/src/ux_host_stack_new_endpoint_create.c ****        endpoint container itself, easier for back chaining.  */
 192:./Middlewares/ST/usbx/common/core/src/ux_host_stack_new_endpoint_create.c ****     endpoint -> ux_endpoint_interface =  interface;
 156              		.loc 1 192 5 is_stmt 1 view .LVU50
 157              		.loc 1 192 39 is_stmt 0 view .LVU51
 158 006c AE62     		str	r6, [r5, #40]
 193:./Middlewares/ST/usbx/common/core/src/ux_host_stack_new_endpoint_create.c **** 
 194:./Middlewares/ST/usbx/common/core/src/ux_host_stack_new_endpoint_create.c ****     /* There is 2 cases for the creation of the endpoint descriptor 
 195:./Middlewares/ST/usbx/common/core/src/ux_host_stack_new_endpoint_create.c ****        if this is the first one, the endpoint descriptor is hooked
 196:./Middlewares/ST/usbx/common/core/src/ux_host_stack_new_endpoint_create.c ****        to the interface. 
 197:./Middlewares/ST/usbx/common/core/src/ux_host_stack_new_endpoint_create.c ****        If it is not the first one, the endpoint is hooked to the
 198:./Middlewares/ST/usbx/common/core/src/ux_host_stack_new_endpoint_create.c ****        end of the chain of endpoints.  */
 199:./Middlewares/ST/usbx/common/core/src/ux_host_stack_new_endpoint_create.c ****     if (interface -> ux_interface_first_endpoint == UX_NULL)
 159              		.loc 1 199 5 is_stmt 1 view .LVU52
 160              		.loc 1 199 19 is_stmt 0 view .LVU53
 161 006e B36B     		ldr	r3, [r6, #56]
 162              		.loc 1 199 8 view .LVU54
 163 0070 BBB3     		cbz	r3, .L23
 164              	.L16:
 165              	.LVL13:
 200:./Middlewares/ST/usbx/common/core/src/ux_host_stack_new_endpoint_create.c ****     {
 201:./Middlewares/ST/usbx/common/core/src/ux_host_stack_new_endpoint_create.c **** 
 202:./Middlewares/ST/usbx/common/core/src/ux_host_stack_new_endpoint_create.c ****         interface -> ux_interface_first_endpoint =  endpoint;
 203:./Middlewares/ST/usbx/common/core/src/ux_host_stack_new_endpoint_create.c ****     }
 204:./Middlewares/ST/usbx/common/core/src/ux_host_stack_new_endpoint_create.c ****     else
 205:./Middlewares/ST/usbx/common/core/src/ux_host_stack_new_endpoint_create.c ****     {
 206:./Middlewares/ST/usbx/common/core/src/ux_host_stack_new_endpoint_create.c **** 
 207:./Middlewares/ST/usbx/common/core/src/ux_host_stack_new_endpoint_create.c ****         list_endpoint =  interface -> ux_interface_first_endpoint;
 208:./Middlewares/ST/usbx/common/core/src/ux_host_stack_new_endpoint_create.c ****         
 209:./Middlewares/ST/usbx/common/core/src/ux_host_stack_new_endpoint_create.c ****         /* Traverse the list until the end.  */
 210:./Middlewares/ST/usbx/common/core/src/ux_host_stack_new_endpoint_create.c ****         while (list_endpoint -> ux_endpoint_next_endpoint != UX_NULL)
 166              		.loc 1 210 15 is_stmt 1 view .LVU55
 167 0072 1A46     		mov	r2, r3
 168              		.loc 1 210 30 is_stmt 0 view .LVU56
 169 0074 5B6A     		ldr	r3, [r3, #36]
 170              	.LVL14:
 171              		.loc 1 210 15 view .LVU57
 172 0076 002B     		cmp	r3, #0
 173 0078 FBD1     		bne	.L16
 211:./Middlewares/ST/usbx/common/core/src/ux_host_stack_new_endpoint_create.c ****             list_endpoint =  list_endpoint -> ux_endpoint_next_endpoint;
 212:./Middlewares/ST/usbx/common/core/src/ux_host_stack_new_endpoint_create.c **** 
 213:./Middlewares/ST/usbx/common/core/src/ux_host_stack_new_endpoint_create.c ****         /* Hook the endpoint.  */
 214:./Middlewares/ST/usbx/common/core/src/ux_host_stack_new_endpoint_create.c ****         list_endpoint -> ux_endpoint_next_endpoint =  endpoint;
 174              		.loc 1 214 9 is_stmt 1 view .LVU58
 175              		.loc 1 214 52 is_stmt 0 view .LVU59
 176 007a 5562     		str	r5, [r2, #36]
 177              	.LVL15:
 215:./Middlewares/ST/usbx/common/core/src/ux_host_stack_new_endpoint_create.c ****     }
 216:./Middlewares/ST/usbx/common/core/src/ux_host_stack_new_endpoint_create.c **** 
ARM GAS  C:\Users\Dennis\AppData\Local\Temp\ccRti7If.s 			page 8


 217:./Middlewares/ST/usbx/common/core/src/ux_host_stack_new_endpoint_create.c ****     /* Return successful status.  */
 218:./Middlewares/ST/usbx/common/core/src/ux_host_stack_new_endpoint_create.c ****     return(UX_SUCCESS);
 178              		.loc 1 218 11 view .LVU60
 179 007c 0020     		movs	r0, #0
 180              	.LVL16:
 181              	.L1:
 219:./Middlewares/ST/usbx/common/core/src/ux_host_stack_new_endpoint_create.c **** }
 182              		.loc 1 219 1 view .LVU61
 183 007e F8BD     		pop	{r3, r4, r5, r6, r7, pc}
 184              	.LVL17:
 185              	.L22:
 140:./Middlewares/ST/usbx/common/core/src/ux_host_stack_new_endpoint_create.c ****             return(UX_DESCRIPTOR_CORRUPTED);
 186              		.loc 1 140 13 is_stmt 1 view .LVU62
 187 0080 2846     		mov	r0, r5
 188 0082 FFF7FEFF 		bl	_ux_utility_memory_free
 189              	.LVL18:
 141:./Middlewares/ST/usbx/common/core/src/ux_host_stack_new_endpoint_create.c ****         }
 190              		.loc 1 141 13 view .LVU63
 141:./Middlewares/ST/usbx/common/core/src/ux_host_stack_new_endpoint_create.c ****         }
 191              		.loc 1 141 19 is_stmt 0 view .LVU64
 192 0086 4220     		movs	r0, #66
 193 0088 F9E7     		b	.L1
 194              	.LVL19:
 195              	.L9:
 150:./Middlewares/ST/usbx/common/core/src/ux_host_stack_new_endpoint_create.c ****         if (packet_size > 1024)
 196              		.loc 1 150 9 is_stmt 1 view .LVU65
 150:./Middlewares/ST/usbx/common/core/src/ux_host_stack_new_endpoint_create.c ****         if (packet_size > 1024)
 197              		.loc 1 150 21 is_stmt 0 view .LVU66
 198 008a C3F30A04 		ubfx	r4, r3, #0, #11
 199              	.LVL20:
 151:./Middlewares/ST/usbx/common/core/src/ux_host_stack_new_endpoint_create.c ****         {
 200              		.loc 1 151 9 is_stmt 1 view .LVU67
 151:./Middlewares/ST/usbx/common/core/src/ux_host_stack_new_endpoint_create.c ****         {
 201              		.loc 1 151 12 is_stmt 0 view .LVU68
 202 008e B4F5806F 		cmp	r4, #1024
 203 0092 12D8     		bhi	.L24
 158:./Middlewares/ST/usbx/common/core/src/ux_host_stack_new_endpoint_create.c ****         if (n_tran >= UX_MAX_NUMBER_OF_TRANSACTIONS_MASK)
 204              		.loc 1 158 9 is_stmt 1 view .LVU69
 158:./Middlewares/ST/usbx/common/core/src/ux_host_stack_new_endpoint_create.c ****         if (n_tran >= UX_MAX_NUMBER_OF_TRANSACTIONS_MASK)
 205              		.loc 1 158 16 is_stmt 0 view .LVU70
 206 0094 03F4C053 		and	r3, r3, #6144
 207              	.LVL21:
 159:./Middlewares/ST/usbx/common/core/src/ux_host_stack_new_endpoint_create.c ****         {
 208              		.loc 1 159 9 is_stmt 1 view .LVU71
 159:./Middlewares/ST/usbx/common/core/src/ux_host_stack_new_endpoint_create.c ****         {
 209              		.loc 1 159 12 is_stmt 0 view .LVU72
 210 0098 B3F5C05F 		cmp	r3, #6144
 211 009c 12D2     		bcs	.L25
 166:./Middlewares/ST/usbx/common/core/src/ux_host_stack_new_endpoint_create.c ****         {
 212              		.loc 1 166 9 is_stmt 1 view .LVU73
 166:./Middlewares/ST/usbx/common/core/src/ux_host_stack_new_endpoint_create.c ****         {
 213              		.loc 1 166 47 is_stmt 0 view .LVU74
 214 009e 296A     		ldr	r1, [r5, #32]
 166:./Middlewares/ST/usbx/common/core/src/ux_host_stack_new_endpoint_create.c ****         {
 215              		.loc 1 166 12 view .LVU75
 216 00a0 A9B1     		cbz	r1, .L26
 171:./Middlewares/ST/usbx/common/core/src/ux_host_stack_new_endpoint_create.c ****             (interface -> ux_interface_configuration -> ux_configuration_device
ARM GAS  C:\Users\Dennis\AppData\Local\Temp\ccRti7If.s 			page 9


 217              		.loc 1 171 9 is_stmt 1 view .LVU76
 171:./Middlewares/ST/usbx/common/core/src/ux_host_stack_new_endpoint_create.c ****             (interface -> ux_interface_configuration -> ux_configuration_device
 218              		.loc 1 171 12 is_stmt 0 view .LVU77
 219 00a2 012A     		cmp	r2, #1
 220 00a4 04D0     		beq	.L14
 172:./Middlewares/ST/usbx/common/core/src/ux_host_stack_new_endpoint_create.c ****                                     -> ux_device_speed == UX_HIGH_SPEED_DEVICE)
 221              		.loc 1 172 24 discriminator 1 view .LVU78
 222 00a6 326C     		ldr	r2, [r6, #64]
 223              	.LVL22:
 172:./Middlewares/ST/usbx/common/core/src/ux_host_stack_new_endpoint_create.c ****                                     -> ux_device_speed == UX_HIGH_SPEED_DEVICE)
 224              		.loc 1 172 54 discriminator 1 view .LVU79
 225 00a8 526B     		ldr	r2, [r2, #52]
 173:./Middlewares/ST/usbx/common/core/src/ux_host_stack_new_endpoint_create.c ****             )
 226              		.loc 1 173 37 discriminator 1 view .LVU80
 227 00aa 1269     		ldr	r2, [r2, #16]
 171:./Middlewares/ST/usbx/common/core/src/ux_host_stack_new_endpoint_create.c ****             (interface -> ux_interface_configuration -> ux_configuration_device
 228              		.loc 1 171 56 discriminator 1 view .LVU81
 229 00ac 022A     		cmp	r2, #2
 230 00ae 01D1     		bne	.L15
 231              	.L14:
 176:./Middlewares/ST/usbx/common/core/src/ux_host_stack_new_endpoint_create.c ****             {
 232              		.loc 1 176 13 is_stmt 1 view .LVU82
 176:./Middlewares/ST/usbx/common/core/src/ux_host_stack_new_endpoint_create.c ****             {
 233              		.loc 1 176 16 is_stmt 0 view .LVU83
 234 00b0 1029     		cmp	r1, #16
 235 00b2 11D8     		bhi	.L27
 236              	.L15:
 184:./Middlewares/ST/usbx/common/core/src/ux_host_stack_new_endpoint_create.c ****     }
 237              		.loc 1 184 9 is_stmt 1 view .LVU84
 184:./Middlewares/ST/usbx/common/core/src/ux_host_stack_new_endpoint_create.c ****     }
 238              		.loc 1 184 21 is_stmt 0 view .LVU85
 239 00b4 03FB0444 		mla	r4, r3, r4, r4
 240              	.LVL23:
 184:./Middlewares/ST/usbx/common/core/src/ux_host_stack_new_endpoint_create.c ****     }
 241              		.loc 1 184 21 view .LVU86
 242 00b8 D7E7     		b	.L10
 243              	.LVL24:
 244              	.L24:
 153:./Middlewares/ST/usbx/common/core/src/ux_host_stack_new_endpoint_create.c ****             return(UX_DESCRIPTOR_CORRUPTED);
 245              		.loc 1 153 13 is_stmt 1 view .LVU87
 246 00ba 2846     		mov	r0, r5
 247 00bc FFF7FEFF 		bl	_ux_utility_memory_free
 248              	.LVL25:
 154:./Middlewares/ST/usbx/common/core/src/ux_host_stack_new_endpoint_create.c ****         }
 249              		.loc 1 154 13 view .LVU88
 154:./Middlewares/ST/usbx/common/core/src/ux_host_stack_new_endpoint_create.c ****         }
 250              		.loc 1 154 19 is_stmt 0 view .LVU89
 251 00c0 4220     		movs	r0, #66
 252 00c2 DCE7     		b	.L1
 253              	.LVL26:
 254              	.L25:
 161:./Middlewares/ST/usbx/common/core/src/ux_host_stack_new_endpoint_create.c ****             return(UX_DESCRIPTOR_CORRUPTED);
 255              		.loc 1 161 13 is_stmt 1 view .LVU90
 256 00c4 2846     		mov	r0, r5
 257 00c6 FFF7FEFF 		bl	_ux_utility_memory_free
 258              	.LVL27:
 162:./Middlewares/ST/usbx/common/core/src/ux_host_stack_new_endpoint_create.c ****         }
ARM GAS  C:\Users\Dennis\AppData\Local\Temp\ccRti7If.s 			page 10


 259              		.loc 1 162 13 view .LVU91
 162:./Middlewares/ST/usbx/common/core/src/ux_host_stack_new_endpoint_create.c ****         }
 260              		.loc 1 162 19 is_stmt 0 view .LVU92
 261 00ca 4220     		movs	r0, #66
 262 00cc D7E7     		b	.L1
 263              	.LVL28:
 264              	.L26:
 168:./Middlewares/ST/usbx/common/core/src/ux_host_stack_new_endpoint_create.c ****             return(UX_DESCRIPTOR_CORRUPTED);
 265              		.loc 1 168 13 is_stmt 1 view .LVU93
 266 00ce 2846     		mov	r0, r5
 267 00d0 FFF7FEFF 		bl	_ux_utility_memory_free
 268              	.LVL29:
 169:./Middlewares/ST/usbx/common/core/src/ux_host_stack_new_endpoint_create.c ****         }
 269              		.loc 1 169 13 view .LVU94
 169:./Middlewares/ST/usbx/common/core/src/ux_host_stack_new_endpoint_create.c ****         }
 270              		.loc 1 169 19 is_stmt 0 view .LVU95
 271 00d4 4220     		movs	r0, #66
 272 00d6 D2E7     		b	.L1
 273              	.LVL30:
 274              	.L27:
 178:./Middlewares/ST/usbx/common/core/src/ux_host_stack_new_endpoint_create.c ****                 return(UX_DESCRIPTOR_CORRUPTED);
 275              		.loc 1 178 17 is_stmt 1 view .LVU96
 276 00d8 2846     		mov	r0, r5
 277 00da FFF7FEFF 		bl	_ux_utility_memory_free
 278              	.LVL31:
 179:./Middlewares/ST/usbx/common/core/src/ux_host_stack_new_endpoint_create.c ****             }
 279              		.loc 1 179 17 view .LVU97
 179:./Middlewares/ST/usbx/common/core/src/ux_host_stack_new_endpoint_create.c ****             }
 280              		.loc 1 179 23 is_stmt 0 view .LVU98
 281 00de 4220     		movs	r0, #66
 282 00e0 CDE7     		b	.L1
 283              	.LVL32:
 284              	.L23:
 202:./Middlewares/ST/usbx/common/core/src/ux_host_stack_new_endpoint_create.c ****     }
 285              		.loc 1 202 9 is_stmt 1 view .LVU99
 202:./Middlewares/ST/usbx/common/core/src/ux_host_stack_new_endpoint_create.c ****     }
 286              		.loc 1 202 50 is_stmt 0 view .LVU100
 287 00e2 B563     		str	r5, [r6, #56]
 288              	.LVL33:
 218:./Middlewares/ST/usbx/common/core/src/ux_host_stack_new_endpoint_create.c **** }
 289              		.loc 1 218 11 view .LVU101
 290 00e4 0020     		movs	r0, #0
 291 00e6 CAE7     		b	.L1
 292              	.LVL34:
 293              	.L17:
  95:./Middlewares/ST/usbx/common/core/src/ux_host_stack_new_endpoint_create.c **** 
 294              		.loc 1 95 15 view .LVU102
 295 00e8 1220     		movs	r0, #18
 296              	.LVL35:
  95:./Middlewares/ST/usbx/common/core/src/ux_host_stack_new_endpoint_create.c **** 
 297              		.loc 1 95 15 view .LVU103
 298 00ea C8E7     		b	.L1
 299              	.L29:
 300              		.align	2
 301              	.L28:
 302 00ec 00000000 		.word	_ux_system_endpoint_descriptor_structure
 303              		.cfi_endproc
ARM GAS  C:\Users\Dennis\AppData\Local\Temp\ccRti7If.s 			page 11


 304              	.LFE11:
 306              		.text
 307              	.Letext0:
 308              		.file 2 "./Middlewares/ST/threadx/ports/cortex_m4/gnu/inc/tx_port.h"
 309              		.file 3 "./Middlewares/ST/threadx/common/inc/tx_api.h"
 310              		.file 4 "./Middlewares/ST/usbx/common/core/inc/ux_api.h"
 311              		.file 5 "./Middlewares/ST/usbx/common/core/inc/ux_system.h"
 312              		.file 6 "./Middlewares/ST/usbx/common/core/inc/ux_utility.h"
ARM GAS  C:\Users\Dennis\AppData\Local\Temp\ccRti7If.s 			page 12

