ARM GAS  C:\Users\Dennis\AppData\Local\Temp\ccOaJ6zi.s 			page 1


   1              		.cpu cortex-m4
   2              		.arch armv7e-m
   3              		.fpu fpv4-sp-d16
   4              		.eabi_attribute 27, 1
   5              		.eabi_attribute 28, 1
   6              		.eabi_attribute 20, 1
   7              		.eabi_attribute 21, 1
   8              		.eabi_attribute 23, 3
   9              		.eabi_attribute 24, 1
  10              		.eabi_attribute 25, 1
  11              		.eabi_attribute 26, 1
  12              		.eabi_attribute 30, 1
  13              		.eabi_attribute 34, 1
  14              		.eabi_attribute 18, 4
  15              		.file	"ux_host_stack_endpoint_reset.c"
  16              		.text
  17              	.Ltext0:
  18              		.cfi_sections	.debug_frame
  19              		.section	.text._ux_host_stack_endpoint_reset,"ax",%progbits
  20              		.align	1
  21              		.global	_ux_host_stack_endpoint_reset
  22              		.syntax unified
  23              		.thumb
  24              		.thumb_func
  26              	_ux_host_stack_endpoint_reset:
  27              	.LVL0:
  28              	.LFB11:
  29              		.file 1 "./Middlewares/ST/usbx/common/core/src/ux_host_stack_endpoint_reset.c"
   1:./Middlewares/ST/usbx/common/core/src/ux_host_stack_endpoint_reset.c **** /**************************************************************************/
   2:./Middlewares/ST/usbx/common/core/src/ux_host_stack_endpoint_reset.c **** /*                                                                        */
   3:./Middlewares/ST/usbx/common/core/src/ux_host_stack_endpoint_reset.c **** /*       Copyright (c) Microsoft Corporation. All rights reserved.        */
   4:./Middlewares/ST/usbx/common/core/src/ux_host_stack_endpoint_reset.c **** /*                                                                        */
   5:./Middlewares/ST/usbx/common/core/src/ux_host_stack_endpoint_reset.c **** /*       This software is licensed under the Microsoft Software License   */
   6:./Middlewares/ST/usbx/common/core/src/ux_host_stack_endpoint_reset.c **** /*       Terms for Microsoft Azure RTOS. Full text of the license can be  */
   7:./Middlewares/ST/usbx/common/core/src/ux_host_stack_endpoint_reset.c **** /*       found in the LICENSE file at https://aka.ms/AzureRTOS_EULA       */
   8:./Middlewares/ST/usbx/common/core/src/ux_host_stack_endpoint_reset.c **** /*       and in the root directory of this software.                      */
   9:./Middlewares/ST/usbx/common/core/src/ux_host_stack_endpoint_reset.c **** /*                                                                        */
  10:./Middlewares/ST/usbx/common/core/src/ux_host_stack_endpoint_reset.c **** /**************************************************************************/
  11:./Middlewares/ST/usbx/common/core/src/ux_host_stack_endpoint_reset.c **** 
  12:./Middlewares/ST/usbx/common/core/src/ux_host_stack_endpoint_reset.c **** 
  13:./Middlewares/ST/usbx/common/core/src/ux_host_stack_endpoint_reset.c **** /**************************************************************************/
  14:./Middlewares/ST/usbx/common/core/src/ux_host_stack_endpoint_reset.c **** /**************************************************************************/
  15:./Middlewares/ST/usbx/common/core/src/ux_host_stack_endpoint_reset.c **** /**                                                                       */ 
  16:./Middlewares/ST/usbx/common/core/src/ux_host_stack_endpoint_reset.c **** /** USBX Component                                                        */ 
  17:./Middlewares/ST/usbx/common/core/src/ux_host_stack_endpoint_reset.c **** /**                                                                       */
  18:./Middlewares/ST/usbx/common/core/src/ux_host_stack_endpoint_reset.c **** /**   Host Stack                                                          */
  19:./Middlewares/ST/usbx/common/core/src/ux_host_stack_endpoint_reset.c **** /**                                                                       */
  20:./Middlewares/ST/usbx/common/core/src/ux_host_stack_endpoint_reset.c **** /**************************************************************************/
  21:./Middlewares/ST/usbx/common/core/src/ux_host_stack_endpoint_reset.c **** /**************************************************************************/
  22:./Middlewares/ST/usbx/common/core/src/ux_host_stack_endpoint_reset.c **** 
  23:./Middlewares/ST/usbx/common/core/src/ux_host_stack_endpoint_reset.c **** 
  24:./Middlewares/ST/usbx/common/core/src/ux_host_stack_endpoint_reset.c **** /* Include necessary system files.  */
  25:./Middlewares/ST/usbx/common/core/src/ux_host_stack_endpoint_reset.c **** 
  26:./Middlewares/ST/usbx/common/core/src/ux_host_stack_endpoint_reset.c **** #define UX_SOURCE_CODE
  27:./Middlewares/ST/usbx/common/core/src/ux_host_stack_endpoint_reset.c **** 
  28:./Middlewares/ST/usbx/common/core/src/ux_host_stack_endpoint_reset.c **** #include "ux_api.h"
  29:./Middlewares/ST/usbx/common/core/src/ux_host_stack_endpoint_reset.c **** #include "ux_host_stack.h"
ARM GAS  C:\Users\Dennis\AppData\Local\Temp\ccOaJ6zi.s 			page 2


  30:./Middlewares/ST/usbx/common/core/src/ux_host_stack_endpoint_reset.c **** 
  31:./Middlewares/ST/usbx/common/core/src/ux_host_stack_endpoint_reset.c **** 
  32:./Middlewares/ST/usbx/common/core/src/ux_host_stack_endpoint_reset.c **** /**************************************************************************/ 
  33:./Middlewares/ST/usbx/common/core/src/ux_host_stack_endpoint_reset.c **** /*                                                                        */ 
  34:./Middlewares/ST/usbx/common/core/src/ux_host_stack_endpoint_reset.c **** /*  FUNCTION                                               RELEASE        */ 
  35:./Middlewares/ST/usbx/common/core/src/ux_host_stack_endpoint_reset.c **** /*                                                                        */ 
  36:./Middlewares/ST/usbx/common/core/src/ux_host_stack_endpoint_reset.c **** /*    _ux_host_stack_endpoint_reset                       PORTABLE C      */ 
  37:./Middlewares/ST/usbx/common/core/src/ux_host_stack_endpoint_reset.c **** /*                                                           6.1          */
  38:./Middlewares/ST/usbx/common/core/src/ux_host_stack_endpoint_reset.c **** /*  AUTHOR                                                                */
  39:./Middlewares/ST/usbx/common/core/src/ux_host_stack_endpoint_reset.c **** /*                                                                        */
  40:./Middlewares/ST/usbx/common/core/src/ux_host_stack_endpoint_reset.c **** /*    Chaoqiong Xiao, Microsoft Corporation                               */
  41:./Middlewares/ST/usbx/common/core/src/ux_host_stack_endpoint_reset.c **** /*                                                                        */
  42:./Middlewares/ST/usbx/common/core/src/ux_host_stack_endpoint_reset.c **** /*  DESCRIPTION                                                           */
  43:./Middlewares/ST/usbx/common/core/src/ux_host_stack_endpoint_reset.c **** /*                                                                        */ 
  44:./Middlewares/ST/usbx/common/core/src/ux_host_stack_endpoint_reset.c **** /*    This function resets an endpoint after a stall or other error       */ 
  45:./Middlewares/ST/usbx/common/core/src/ux_host_stack_endpoint_reset.c **** /*    condition.                                                          */ 
  46:./Middlewares/ST/usbx/common/core/src/ux_host_stack_endpoint_reset.c **** /*                                                                        */ 
  47:./Middlewares/ST/usbx/common/core/src/ux_host_stack_endpoint_reset.c **** /*  INPUT                                                                 */ 
  48:./Middlewares/ST/usbx/common/core/src/ux_host_stack_endpoint_reset.c **** /*                                                                        */ 
  49:./Middlewares/ST/usbx/common/core/src/ux_host_stack_endpoint_reset.c **** /*    endpoint                              Endpoint to abort transfer    */ 
  50:./Middlewares/ST/usbx/common/core/src/ux_host_stack_endpoint_reset.c **** /*                                                                        */ 
  51:./Middlewares/ST/usbx/common/core/src/ux_host_stack_endpoint_reset.c **** /*  OUTPUT                                                                */ 
  52:./Middlewares/ST/usbx/common/core/src/ux_host_stack_endpoint_reset.c **** /*                                                                        */ 
  53:./Middlewares/ST/usbx/common/core/src/ux_host_stack_endpoint_reset.c **** /*    Completion Status                                                   */ 
  54:./Middlewares/ST/usbx/common/core/src/ux_host_stack_endpoint_reset.c **** /*                                                                        */ 
  55:./Middlewares/ST/usbx/common/core/src/ux_host_stack_endpoint_reset.c **** /*  CALLS                                                                 */ 
  56:./Middlewares/ST/usbx/common/core/src/ux_host_stack_endpoint_reset.c **** /*                                                                        */ 
  57:./Middlewares/ST/usbx/common/core/src/ux_host_stack_endpoint_reset.c **** /*    _ux_host_stack_transfer_request       Send transfer request         */ 
  58:./Middlewares/ST/usbx/common/core/src/ux_host_stack_endpoint_reset.c **** /*    (ux_hcd_entry_function)               HCD entry function            */ 
  59:./Middlewares/ST/usbx/common/core/src/ux_host_stack_endpoint_reset.c **** /*                                                                        */ 
  60:./Middlewares/ST/usbx/common/core/src/ux_host_stack_endpoint_reset.c **** /*  CALLED BY                                                             */ 
  61:./Middlewares/ST/usbx/common/core/src/ux_host_stack_endpoint_reset.c **** /*                                                                        */ 
  62:./Middlewares/ST/usbx/common/core/src/ux_host_stack_endpoint_reset.c **** /*    USBX Components                                                     */ 
  63:./Middlewares/ST/usbx/common/core/src/ux_host_stack_endpoint_reset.c **** /*                                                                        */ 
  64:./Middlewares/ST/usbx/common/core/src/ux_host_stack_endpoint_reset.c **** /*  RELEASE HISTORY                                                       */ 
  65:./Middlewares/ST/usbx/common/core/src/ux_host_stack_endpoint_reset.c **** /*                                                                        */ 
  66:./Middlewares/ST/usbx/common/core/src/ux_host_stack_endpoint_reset.c **** /*    DATE              NAME                      DESCRIPTION             */ 
  67:./Middlewares/ST/usbx/common/core/src/ux_host_stack_endpoint_reset.c **** /*                                                                        */ 
  68:./Middlewares/ST/usbx/common/core/src/ux_host_stack_endpoint_reset.c **** /*  05-19-2020     Chaoqiong Xiao           Initial Version 6.0           */
  69:./Middlewares/ST/usbx/common/core/src/ux_host_stack_endpoint_reset.c **** /*  09-30-2020     Chaoqiong Xiao           Modified comment(s),          */
  70:./Middlewares/ST/usbx/common/core/src/ux_host_stack_endpoint_reset.c **** /*                                            optimized based on compile  */
  71:./Middlewares/ST/usbx/common/core/src/ux_host_stack_endpoint_reset.c **** /*                                            definitions,                */
  72:./Middlewares/ST/usbx/common/core/src/ux_host_stack_endpoint_reset.c **** /*                                            resulting in version 6.1    */
  73:./Middlewares/ST/usbx/common/core/src/ux_host_stack_endpoint_reset.c **** /*                                                                        */
  74:./Middlewares/ST/usbx/common/core/src/ux_host_stack_endpoint_reset.c **** /**************************************************************************/
  75:./Middlewares/ST/usbx/common/core/src/ux_host_stack_endpoint_reset.c **** UINT  _ux_host_stack_endpoint_reset(UX_ENDPOINT *endpoint)
  76:./Middlewares/ST/usbx/common/core/src/ux_host_stack_endpoint_reset.c **** {
  30              		.loc 1 76 1 view -0
  31              		.cfi_startproc
  32              		@ args = 0, pretend = 0, frame = 0
  33              		@ frame_needed = 0, uses_anonymous_args = 0
  34              		.loc 1 76 1 is_stmt 0 view .LVU1
  35 0000 38B5     		push	{r3, r4, r5, lr}
  36              	.LCFI0:
  37              		.cfi_def_cfa_offset 16
  38              		.cfi_offset 3, -16
  39              		.cfi_offset 4, -12
ARM GAS  C:\Users\Dennis\AppData\Local\Temp\ccOaJ6zi.s 			page 3


  40              		.cfi_offset 5, -8
  41              		.cfi_offset 14, -4
  42 0002 0546     		mov	r5, r0
  77:./Middlewares/ST/usbx/common/core/src/ux_host_stack_endpoint_reset.c **** 
  78:./Middlewares/ST/usbx/common/core/src/ux_host_stack_endpoint_reset.c **** UX_ENDPOINT     *control_endpoint;
  43              		.loc 1 78 1 is_stmt 1 view .LVU2
  79:./Middlewares/ST/usbx/common/core/src/ux_host_stack_endpoint_reset.c **** UX_TRANSFER     *transfer_request;
  44              		.loc 1 79 1 view .LVU3
  80:./Middlewares/ST/usbx/common/core/src/ux_host_stack_endpoint_reset.c **** UX_DEVICE       *device;    
  45              		.loc 1 80 1 view .LVU4
  81:./Middlewares/ST/usbx/common/core/src/ux_host_stack_endpoint_reset.c **** UX_HCD          *hcd;
  46              		.loc 1 81 1 view .LVU5
  82:./Middlewares/ST/usbx/common/core/src/ux_host_stack_endpoint_reset.c **** UINT            status;
  47              		.loc 1 82 1 view .LVU6
  83:./Middlewares/ST/usbx/common/core/src/ux_host_stack_endpoint_reset.c **** 
  84:./Middlewares/ST/usbx/common/core/src/ux_host_stack_endpoint_reset.c **** 
  85:./Middlewares/ST/usbx/common/core/src/ux_host_stack_endpoint_reset.c ****     /* Get the device container from the endpoint */
  86:./Middlewares/ST/usbx/common/core/src/ux_host_stack_endpoint_reset.c ****     device =  endpoint -> ux_endpoint_device;
  48              		.loc 1 86 5 view .LVU7
  49              		.loc 1 86 12 is_stmt 0 view .LVU8
  50 0004 C46A     		ldr	r4, [r0, #44]
  51              	.LVL1:
  87:./Middlewares/ST/usbx/common/core/src/ux_host_stack_endpoint_reset.c **** 
  88:./Middlewares/ST/usbx/common/core/src/ux_host_stack_endpoint_reset.c ****     /* If trace is enabled, insert this event into the trace buffer.  */
  89:./Middlewares/ST/usbx/common/core/src/ux_host_stack_endpoint_reset.c ****     UX_TRACE_IN_LINE_INSERT(UX_TRACE_HOST_STACK_ENDPOINT_RESET, device, endpoint, 0, 0, UX_TRACE_HO
  90:./Middlewares/ST/usbx/common/core/src/ux_host_stack_endpoint_reset.c **** 
  91:./Middlewares/ST/usbx/common/core/src/ux_host_stack_endpoint_reset.c ****     /* Get the control endpoint attached to the device.  */
  92:./Middlewares/ST/usbx/common/core/src/ux_host_stack_endpoint_reset.c ****     control_endpoint =  &device -> ux_device_control_endpoint;
  52              		.loc 1 92 5 is_stmt 1 view .LVU9
  93:./Middlewares/ST/usbx/common/core/src/ux_host_stack_endpoint_reset.c **** 
  94:./Middlewares/ST/usbx/common/core/src/ux_host_stack_endpoint_reset.c ****     /* Retrieve the transfer_request pointer.  */
  95:./Middlewares/ST/usbx/common/core/src/ux_host_stack_endpoint_reset.c ****     transfer_request =  &control_endpoint -> ux_endpoint_transfer_request;
  53              		.loc 1 95 5 view .LVU10
  96:./Middlewares/ST/usbx/common/core/src/ux_host_stack_endpoint_reset.c **** 
  97:./Middlewares/ST/usbx/common/core/src/ux_host_stack_endpoint_reset.c ****     /* Create a transfer_request for the CLEAR_FEATURE request.  */
  98:./Middlewares/ST/usbx/common/core/src/ux_host_stack_endpoint_reset.c ****     transfer_request -> ux_transfer_request_data_pointer =      UX_NULL;
  54              		.loc 1 98 5 view .LVU11
  55              		.loc 1 98 58 is_stmt 0 view .LVU12
  56 0006 0023     		movs	r3, #0
  57 0008 C4F8B430 		str	r3, [r4, #180]
  99:./Middlewares/ST/usbx/common/core/src/ux_host_stack_endpoint_reset.c ****     transfer_request -> ux_transfer_request_requested_length =  0;
  58              		.loc 1 99 5 is_stmt 1 view .LVU13
  59              		.loc 1 99 62 is_stmt 0 view .LVU14
  60 000c C4F8B830 		str	r3, [r4, #184]
 100:./Middlewares/ST/usbx/common/core/src/ux_host_stack_endpoint_reset.c ****     transfer_request -> ux_transfer_request_function =          UX_CLEAR_FEATURE;
  61              		.loc 1 100 5 is_stmt 1 view .LVU15
  62              		.loc 1 100 54 is_stmt 0 view .LVU16
  63 0010 0122     		movs	r2, #1
  64 0012 C4F8C420 		str	r2, [r4, #196]
 101:./Middlewares/ST/usbx/common/core/src/ux_host_stack_endpoint_reset.c ****     transfer_request -> ux_transfer_request_type =              UX_REQUEST_OUT| UX_REQUEST_TYPE_STA
  65              		.loc 1 101 5 is_stmt 1 view .LVU17
  66              		.loc 1 101 50 is_stmt 0 view .LVU18
  67 0016 0222     		movs	r2, #2
  68 0018 C4F8C020 		str	r2, [r4, #192]
 102:./Middlewares/ST/usbx/common/core/src/ux_host_stack_endpoint_reset.c ****     transfer_request -> ux_transfer_request_value =             UX_ENDPOINT_HALT;
  69              		.loc 1 102 5 is_stmt 1 view .LVU19
  70              		.loc 1 102 51 is_stmt 0 view .LVU20
ARM GAS  C:\Users\Dennis\AppData\Local\Temp\ccOaJ6zi.s 			page 4


  71 001c C4F8C830 		str	r3, [r4, #200]
 103:./Middlewares/ST/usbx/common/core/src/ux_host_stack_endpoint_reset.c ****     transfer_request -> ux_transfer_request_index =             endpoint -> ux_endpoint_descriptor.
  72              		.loc 1 103 5 is_stmt 1 view .LVU21
  73              		.loc 1 103 99 is_stmt 0 view .LVU22
  74 0020 4369     		ldr	r3, [r0, #20]
  75              		.loc 1 103 51 view .LVU23
  76 0022 C4F8CC30 		str	r3, [r4, #204]
 104:./Middlewares/ST/usbx/common/core/src/ux_host_stack_endpoint_reset.c **** 
 105:./Middlewares/ST/usbx/common/core/src/ux_host_stack_endpoint_reset.c ****     /* Send request to HCD layer.  */
 106:./Middlewares/ST/usbx/common/core/src/ux_host_stack_endpoint_reset.c ****     status =  _ux_host_stack_transfer_request(transfer_request);
  77              		.loc 1 106 5 is_stmt 1 view .LVU24
  78              		.loc 1 106 15 is_stmt 0 view .LVU25
  79 0026 04F1AC00 		add	r0, r4, #172
  80              	.LVL2:
  81              		.loc 1 106 15 view .LVU26
  82 002a FFF7FEFF 		bl	_ux_host_stack_transfer_request
  83              	.LVL3:
 107:./Middlewares/ST/usbx/common/core/src/ux_host_stack_endpoint_reset.c **** 
 108:./Middlewares/ST/usbx/common/core/src/ux_host_stack_endpoint_reset.c ****     /* Reset the endpoint at the HCD level.  */
 109:./Middlewares/ST/usbx/common/core/src/ux_host_stack_endpoint_reset.c ****     if (status == UX_SUCCESS)
  84              		.loc 1 109 5 is_stmt 1 view .LVU27
  85              		.loc 1 109 8 is_stmt 0 view .LVU28
  86 002e 28B9     		cbnz	r0, .L1
 110:./Middlewares/ST/usbx/common/core/src/ux_host_stack_endpoint_reset.c ****     {
 111:./Middlewares/ST/usbx/common/core/src/ux_host_stack_endpoint_reset.c **** 
 112:./Middlewares/ST/usbx/common/core/src/ux_host_stack_endpoint_reset.c ****         /* Pickup HCD pointer.  */
 113:./Middlewares/ST/usbx/common/core/src/ux_host_stack_endpoint_reset.c ****         hcd = UX_DEVICE_HCD_GET(device);
  87              		.loc 1 113 9 is_stmt 1 view .LVU29
  88              		.loc 1 113 13 is_stmt 0 view .LVU30
  89 0030 D4F81401 		ldr	r0, [r4, #276]
  90              	.LVL4:
 114:./Middlewares/ST/usbx/common/core/src/ux_host_stack_endpoint_reset.c **** 
 115:./Middlewares/ST/usbx/common/core/src/ux_host_stack_endpoint_reset.c ****         /* Call HCD entry function.  */
 116:./Middlewares/ST/usbx/common/core/src/ux_host_stack_endpoint_reset.c ****         status =  hcd -> ux_hcd_entry_function(hcd, UX_HCD_RESET_ENDPOINT, endpoint);
  91              		.loc 1 116 9 is_stmt 1 view .LVU31
  92              		.loc 1 116 23 is_stmt 0 view .LVU32
  93 0034 036F     		ldr	r3, [r0, #112]
  94              		.loc 1 116 19 view .LVU33
  95 0036 2A46     		mov	r2, r5
  96 0038 1021     		movs	r1, #16
  97 003a 9847     		blx	r3
  98              	.LVL5:
 117:./Middlewares/ST/usbx/common/core/src/ux_host_stack_endpoint_reset.c ****     }
 118:./Middlewares/ST/usbx/common/core/src/ux_host_stack_endpoint_reset.c **** 
 119:./Middlewares/ST/usbx/common/core/src/ux_host_stack_endpoint_reset.c ****     /* And return the completion status.  */
 120:./Middlewares/ST/usbx/common/core/src/ux_host_stack_endpoint_reset.c ****     return(status);
  99              		.loc 1 120 5 is_stmt 1 view .LVU34
 100              	.L1:
 121:./Middlewares/ST/usbx/common/core/src/ux_host_stack_endpoint_reset.c **** }
 101              		.loc 1 121 1 is_stmt 0 view .LVU35
 102 003c 38BD     		pop	{r3, r4, r5, pc}
 103              		.loc 1 121 1 view .LVU36
 104              		.cfi_endproc
 105              	.LFE11:
 107              		.text
 108              	.Letext0:
 109              		.file 2 "./Middlewares/ST/threadx/ports/cortex_m4/gnu/inc/tx_port.h"
ARM GAS  C:\Users\Dennis\AppData\Local\Temp\ccOaJ6zi.s 			page 5


 110              		.file 3 "./Middlewares/ST/threadx/common/inc/tx_api.h"
 111              		.file 4 "./Middlewares/ST/usbx/common/core/inc/ux_api.h"
 112              		.file 5 "./Middlewares/ST/usbx/common/core/inc/ux_host_stack.h"
ARM GAS  C:\Users\Dennis\AppData\Local\Temp\ccOaJ6zi.s 			page 6

