ARM GAS  C:\Users\Dennis\AppData\Local\Temp\ccyNImln.s 			page 1


   1              		.cpu cortex-m4
   2              		.arch armv7e-m
   3              		.fpu fpv4-sp-d16
   4              		.eabi_attribute 27, 1
   5              		.eabi_attribute 28, 1
   6              		.eabi_attribute 20, 1
   7              		.eabi_attribute 21, 1
   8              		.eabi_attribute 23, 3
   9              		.eabi_attribute 24, 1
  10              		.eabi_attribute 25, 1
  11              		.eabi_attribute 26, 1
  12              		.eabi_attribute 30, 1
  13              		.eabi_attribute 34, 1
  14              		.eabi_attribute 18, 4
  15              		.file	"ux_host_stack_class_device_scan.c"
  16              		.text
  17              	.Ltext0:
  18              		.cfi_sections	.debug_frame
  19              		.section	.text._ux_host_stack_class_device_scan,"ax",%progbits
  20              		.align	1
  21              		.global	_ux_host_stack_class_device_scan
  22              		.syntax unified
  23              		.thumb
  24              		.thumb_func
  26              	_ux_host_stack_class_device_scan:
  27              	.LVL0:
  28              	.LFB11:
  29              		.file 1 "./Middlewares/ST/usbx/common/core/src/ux_host_stack_class_device_scan.c"
   1:./Middlewares/ST/usbx/common/core/src/ux_host_stack_class_device_scan.c **** /**************************************************************************/
   2:./Middlewares/ST/usbx/common/core/src/ux_host_stack_class_device_scan.c **** /*                                                                        */
   3:./Middlewares/ST/usbx/common/core/src/ux_host_stack_class_device_scan.c **** /*       Copyright (c) Microsoft Corporation. All rights reserved.        */
   4:./Middlewares/ST/usbx/common/core/src/ux_host_stack_class_device_scan.c **** /*                                                                        */
   5:./Middlewares/ST/usbx/common/core/src/ux_host_stack_class_device_scan.c **** /*       This software is licensed under the Microsoft Software License   */
   6:./Middlewares/ST/usbx/common/core/src/ux_host_stack_class_device_scan.c **** /*       Terms for Microsoft Azure RTOS. Full text of the license can be  */
   7:./Middlewares/ST/usbx/common/core/src/ux_host_stack_class_device_scan.c **** /*       found in the LICENSE file at https://aka.ms/AzureRTOS_EULA       */
   8:./Middlewares/ST/usbx/common/core/src/ux_host_stack_class_device_scan.c **** /*       and in the root directory of this software.                      */
   9:./Middlewares/ST/usbx/common/core/src/ux_host_stack_class_device_scan.c **** /*                                                                        */
  10:./Middlewares/ST/usbx/common/core/src/ux_host_stack_class_device_scan.c **** /**************************************************************************/
  11:./Middlewares/ST/usbx/common/core/src/ux_host_stack_class_device_scan.c **** 
  12:./Middlewares/ST/usbx/common/core/src/ux_host_stack_class_device_scan.c **** 
  13:./Middlewares/ST/usbx/common/core/src/ux_host_stack_class_device_scan.c **** /**************************************************************************/
  14:./Middlewares/ST/usbx/common/core/src/ux_host_stack_class_device_scan.c **** /**************************************************************************/
  15:./Middlewares/ST/usbx/common/core/src/ux_host_stack_class_device_scan.c **** /**                                                                       */ 
  16:./Middlewares/ST/usbx/common/core/src/ux_host_stack_class_device_scan.c **** /** USBX Component                                                        */ 
  17:./Middlewares/ST/usbx/common/core/src/ux_host_stack_class_device_scan.c **** /**                                                                       */
  18:./Middlewares/ST/usbx/common/core/src/ux_host_stack_class_device_scan.c **** /**   Host Stack                                                          */
  19:./Middlewares/ST/usbx/common/core/src/ux_host_stack_class_device_scan.c **** /**                                                                       */
  20:./Middlewares/ST/usbx/common/core/src/ux_host_stack_class_device_scan.c **** /**************************************************************************/
  21:./Middlewares/ST/usbx/common/core/src/ux_host_stack_class_device_scan.c **** /**************************************************************************/
  22:./Middlewares/ST/usbx/common/core/src/ux_host_stack_class_device_scan.c **** 
  23:./Middlewares/ST/usbx/common/core/src/ux_host_stack_class_device_scan.c **** 
  24:./Middlewares/ST/usbx/common/core/src/ux_host_stack_class_device_scan.c **** /* Include necessary system files.  */
  25:./Middlewares/ST/usbx/common/core/src/ux_host_stack_class_device_scan.c **** 
  26:./Middlewares/ST/usbx/common/core/src/ux_host_stack_class_device_scan.c **** #define UX_SOURCE_CODE
  27:./Middlewares/ST/usbx/common/core/src/ux_host_stack_class_device_scan.c **** 
  28:./Middlewares/ST/usbx/common/core/src/ux_host_stack_class_device_scan.c **** #include "ux_api.h"
  29:./Middlewares/ST/usbx/common/core/src/ux_host_stack_class_device_scan.c **** #include "ux_host_stack.h"
ARM GAS  C:\Users\Dennis\AppData\Local\Temp\ccyNImln.s 			page 2


  30:./Middlewares/ST/usbx/common/core/src/ux_host_stack_class_device_scan.c **** 
  31:./Middlewares/ST/usbx/common/core/src/ux_host_stack_class_device_scan.c **** 
  32:./Middlewares/ST/usbx/common/core/src/ux_host_stack_class_device_scan.c **** #if !defined(UX_HOST_STACK_DEVICE_DRIVER_SCAN_DISABLE)
  33:./Middlewares/ST/usbx/common/core/src/ux_host_stack_class_device_scan.c **** #if defined(UX_HOST_STACK_DEVICE_DRIVER_SCAN_VIDPID_DISABLE) && \
  34:./Middlewares/ST/usbx/common/core/src/ux_host_stack_class_device_scan.c ****     defined(UX_HOST_STACK_DEVICE_DRIVER_SCAN_DCSP_DISABLE)
  35:./Middlewares/ST/usbx/common/core/src/ux_host_stack_class_device_scan.c **** #error When device driver scan is enabled at least one of scan method must be enabled in (VIDPID, D
  36:./Middlewares/ST/usbx/common/core/src/ux_host_stack_class_device_scan.c **** #endif
  37:./Middlewares/ST/usbx/common/core/src/ux_host_stack_class_device_scan.c **** #endif
  38:./Middlewares/ST/usbx/common/core/src/ux_host_stack_class_device_scan.c **** 
  39:./Middlewares/ST/usbx/common/core/src/ux_host_stack_class_device_scan.c **** /**************************************************************************/ 
  40:./Middlewares/ST/usbx/common/core/src/ux_host_stack_class_device_scan.c **** /*                                                                        */ 
  41:./Middlewares/ST/usbx/common/core/src/ux_host_stack_class_device_scan.c **** /*  FUNCTION                                               RELEASE        */ 
  42:./Middlewares/ST/usbx/common/core/src/ux_host_stack_class_device_scan.c **** /*                                                                        */ 
  43:./Middlewares/ST/usbx/common/core/src/ux_host_stack_class_device_scan.c **** /*    _ux_host_stack_class_device_scan                    PORTABLE C      */ 
  44:./Middlewares/ST/usbx/common/core/src/ux_host_stack_class_device_scan.c **** /*                                                           6.1.10       */
  45:./Middlewares/ST/usbx/common/core/src/ux_host_stack_class_device_scan.c **** /*  AUTHOR                                                                */
  46:./Middlewares/ST/usbx/common/core/src/ux_host_stack_class_device_scan.c **** /*                                                                        */
  47:./Middlewares/ST/usbx/common/core/src/ux_host_stack_class_device_scan.c **** /*    Chaoqiong Xiao, Microsoft Corporation                               */
  48:./Middlewares/ST/usbx/common/core/src/ux_host_stack_class_device_scan.c **** /*                                                                        */
  49:./Middlewares/ST/usbx/common/core/src/ux_host_stack_class_device_scan.c **** /*  DESCRIPTION                                                           */
  50:./Middlewares/ST/usbx/common/core/src/ux_host_stack_class_device_scan.c **** /*                                                                        */ 
  51:./Middlewares/ST/usbx/common/core/src/ux_host_stack_class_device_scan.c **** /*    This function will scan all registered classes with a device        */ 
  52:./Middlewares/ST/usbx/common/core/src/ux_host_stack_class_device_scan.c **** /*    candidate. Priority is given to the PID/VID and then the            */ 
  53:./Middlewares/ST/usbx/common/core/src/ux_host_stack_class_device_scan.c **** /*    Class/Subclass/Protocol.                                            */ 
  54:./Middlewares/ST/usbx/common/core/src/ux_host_stack_class_device_scan.c **** /*                                                                        */ 
  55:./Middlewares/ST/usbx/common/core/src/ux_host_stack_class_device_scan.c **** /*  INPUT                                                                 */ 
  56:./Middlewares/ST/usbx/common/core/src/ux_host_stack_class_device_scan.c **** /*                                                                        */ 
  57:./Middlewares/ST/usbx/common/core/src/ux_host_stack_class_device_scan.c **** /*    device                                Pointer to device             */ 
  58:./Middlewares/ST/usbx/common/core/src/ux_host_stack_class_device_scan.c **** /*                                                                        */ 
  59:./Middlewares/ST/usbx/common/core/src/ux_host_stack_class_device_scan.c **** /*  OUTPUT                                                                */ 
  60:./Middlewares/ST/usbx/common/core/src/ux_host_stack_class_device_scan.c **** /*                                                                        */ 
  61:./Middlewares/ST/usbx/common/core/src/ux_host_stack_class_device_scan.c **** /*    Completion Status                                                   */ 
  62:./Middlewares/ST/usbx/common/core/src/ux_host_stack_class_device_scan.c **** /*                                                                        */ 
  63:./Middlewares/ST/usbx/common/core/src/ux_host_stack_class_device_scan.c **** /*  CALLS                                                                 */ 
  64:./Middlewares/ST/usbx/common/core/src/ux_host_stack_class_device_scan.c **** /*                                                                        */ 
  65:./Middlewares/ST/usbx/common/core/src/ux_host_stack_class_device_scan.c **** /*    _ux_host_stack_class_call             Call host stack class         */ 
  66:./Middlewares/ST/usbx/common/core/src/ux_host_stack_class_device_scan.c **** /*    (ux_host_class_entry_function)        Class entry function          */ 
  67:./Middlewares/ST/usbx/common/core/src/ux_host_stack_class_device_scan.c **** /*                                                                        */ 
  68:./Middlewares/ST/usbx/common/core/src/ux_host_stack_class_device_scan.c **** /*  CALLED BY                                                             */ 
  69:./Middlewares/ST/usbx/common/core/src/ux_host_stack_class_device_scan.c **** /*                                                                        */ 
  70:./Middlewares/ST/usbx/common/core/src/ux_host_stack_class_device_scan.c **** /*    USBX Components                                                     */ 
  71:./Middlewares/ST/usbx/common/core/src/ux_host_stack_class_device_scan.c **** /*                                                                        */ 
  72:./Middlewares/ST/usbx/common/core/src/ux_host_stack_class_device_scan.c **** /*  RELEASE HISTORY                                                       */ 
  73:./Middlewares/ST/usbx/common/core/src/ux_host_stack_class_device_scan.c **** /*                                                                        */ 
  74:./Middlewares/ST/usbx/common/core/src/ux_host_stack_class_device_scan.c **** /*    DATE              NAME                      DESCRIPTION             */ 
  75:./Middlewares/ST/usbx/common/core/src/ux_host_stack_class_device_scan.c **** /*                                                                        */ 
  76:./Middlewares/ST/usbx/common/core/src/ux_host_stack_class_device_scan.c **** /*  05-19-2020     Chaoqiong Xiao           Initial Version 6.0           */
  77:./Middlewares/ST/usbx/common/core/src/ux_host_stack_class_device_scan.c **** /*  09-30-2020     Chaoqiong Xiao           Modified comment(s),          */
  78:./Middlewares/ST/usbx/common/core/src/ux_host_stack_class_device_scan.c **** /*                                            used query usage of device  */
  79:./Middlewares/ST/usbx/common/core/src/ux_host_stack_class_device_scan.c **** /*                                            ClassSubclassProtocol,      */
  80:./Middlewares/ST/usbx/common/core/src/ux_host_stack_class_device_scan.c **** /*                                            resulting in version 6.1    */
  81:./Middlewares/ST/usbx/common/core/src/ux_host_stack_class_device_scan.c **** /*  06-02-2021     Bhupendra Naphade        Modified comment(s),          */
  82:./Middlewares/ST/usbx/common/core/src/ux_host_stack_class_device_scan.c **** /*                                            removed duplicate line,     */
  83:./Middlewares/ST/usbx/common/core/src/ux_host_stack_class_device_scan.c **** /*                                            resulting in version 6.1.7  */
  84:./Middlewares/ST/usbx/common/core/src/ux_host_stack_class_device_scan.c **** /*  01-31-2022     Chaoqiong Xiao           Modified comment(s),          */
  85:./Middlewares/ST/usbx/common/core/src/ux_host_stack_class_device_scan.c **** /*                                            added standalone support,   */
  86:./Middlewares/ST/usbx/common/core/src/ux_host_stack_class_device_scan.c **** /*                                            resulting in version 6.1.10 */
ARM GAS  C:\Users\Dennis\AppData\Local\Temp\ccyNImln.s 			page 3


  87:./Middlewares/ST/usbx/common/core/src/ux_host_stack_class_device_scan.c **** /*                                                                        */
  88:./Middlewares/ST/usbx/common/core/src/ux_host_stack_class_device_scan.c **** /**************************************************************************/
  89:./Middlewares/ST/usbx/common/core/src/ux_host_stack_class_device_scan.c **** UINT  _ux_host_stack_class_device_scan(UX_DEVICE *device)
  90:./Middlewares/ST/usbx/common/core/src/ux_host_stack_class_device_scan.c **** {
  30              		.loc 1 90 1 view -0
  31              		.cfi_startproc
  32              		@ args = 0, pretend = 0, frame = 56
  33              		@ frame_needed = 0, uses_anonymous_args = 0
  34              		.loc 1 90 1 is_stmt 0 view .LVU1
  35 0000 10B5     		push	{r4, lr}
  36              	.LCFI0:
  37              		.cfi_def_cfa_offset 8
  38              		.cfi_offset 4, -8
  39              		.cfi_offset 14, -4
  40 0002 8EB0     		sub	sp, sp, #56
  41              	.LCFI1:
  42              		.cfi_def_cfa_offset 64
  43 0004 0446     		mov	r4, r0
  91:./Middlewares/ST/usbx/common/core/src/ux_host_stack_class_device_scan.c **** #if !defined(UX_HOST_STACK_DEVICE_DRIVER_SCAN_DISABLE)
  92:./Middlewares/ST/usbx/common/core/src/ux_host_stack_class_device_scan.c **** 
  93:./Middlewares/ST/usbx/common/core/src/ux_host_stack_class_device_scan.c **** UINT                        status;
  44              		.loc 1 93 1 is_stmt 1 view .LVU2
  94:./Middlewares/ST/usbx/common/core/src/ux_host_stack_class_device_scan.c **** UX_HOST_CLASS               *class_inst = UX_NULL;
  45              		.loc 1 94 1 view .LVU3
  46              	.LVL1:
  95:./Middlewares/ST/usbx/common/core/src/ux_host_stack_class_device_scan.c **** UX_HOST_CLASS_COMMAND       class_command;
  47              		.loc 1 95 1 view .LVU4
  96:./Middlewares/ST/usbx/common/core/src/ux_host_stack_class_device_scan.c **** 
  97:./Middlewares/ST/usbx/common/core/src/ux_host_stack_class_device_scan.c ****     /* Perform the command initialization.  */
  98:./Middlewares/ST/usbx/common/core/src/ux_host_stack_class_device_scan.c ****     class_command.ux_host_class_command_request      =   UX_HOST_CLASS_COMMAND_QUERY;
  48              		.loc 1 98 5 view .LVU5
  49              		.loc 1 98 54 is_stmt 0 view .LVU6
  50 0006 0122     		movs	r2, #1
  51 0008 0192     		str	r2, [sp, #4]
  99:./Middlewares/ST/usbx/common/core/src/ux_host_stack_class_device_scan.c ****     class_command.ux_host_class_command_container    =   (VOID *) device;
  52              		.loc 1 99 5 is_stmt 1 view .LVU7
  53              		.loc 1 99 54 is_stmt 0 view .LVU8
  54 000a 0290     		str	r0, [sp, #8]
 100:./Middlewares/ST/usbx/common/core/src/ux_host_stack_class_device_scan.c ****     class_command.ux_host_class_command_vid          =   device -> ux_device_descriptor.idVendor;
  55              		.loc 1 100 5 is_stmt 1 view .LVU9
  56              		.loc 1 100 88 is_stmt 0 view .LVU10
  57 000c 036E     		ldr	r3, [r0, #96]
  58              		.loc 1 100 54 view .LVU11
  59 000e 0693     		str	r3, [sp, #24]
 101:./Middlewares/ST/usbx/common/core/src/ux_host_stack_class_device_scan.c ****     class_command.ux_host_class_command_pid          =   device -> ux_device_descriptor.idProduct;
  60              		.loc 1 101 5 is_stmt 1 view .LVU12
  61              		.loc 1 101 88 is_stmt 0 view .LVU13
  62 0010 436E     		ldr	r3, [r0, #100]
  63              		.loc 1 101 54 view .LVU14
  64 0012 0593     		str	r3, [sp, #20]
 102:./Middlewares/ST/usbx/common/core/src/ux_host_stack_class_device_scan.c ****     class_command.ux_host_class_command_class        =   device -> ux_device_descriptor.bDeviceClas
  65              		.loc 1 102 5 is_stmt 1 view .LVU15
  66              		.loc 1 102 88 is_stmt 0 view .LVU16
  67 0014 036D     		ldr	r3, [r0, #80]
  68              		.loc 1 102 54 view .LVU17
  69 0016 0793     		str	r3, [sp, #28]
 103:./Middlewares/ST/usbx/common/core/src/ux_host_stack_class_device_scan.c ****     class_command.ux_host_class_command_subclass     =   device -> ux_device_descriptor.bDeviceSubC
ARM GAS  C:\Users\Dennis\AppData\Local\Temp\ccyNImln.s 			page 4


  70              		.loc 1 103 5 is_stmt 1 view .LVU18
  71              		.loc 1 103 88 is_stmt 0 view .LVU19
  72 0018 436D     		ldr	r3, [r0, #84]
  73              		.loc 1 103 54 view .LVU20
  74 001a 0893     		str	r3, [sp, #32]
 104:./Middlewares/ST/usbx/common/core/src/ux_host_stack_class_device_scan.c ****     class_command.ux_host_class_command_protocol     =   device -> ux_device_descriptor.bDeviceProt
  75              		.loc 1 104 5 is_stmt 1 view .LVU21
  76              		.loc 1 104 88 is_stmt 0 view .LVU22
  77 001c 836D     		ldr	r3, [r0, #88]
  78              		.loc 1 104 54 view .LVU23
  79 001e 0993     		str	r3, [sp, #36]
 105:./Middlewares/ST/usbx/common/core/src/ux_host_stack_class_device_scan.c ****     class_command.ux_host_class_command_iad_class    =   0;
  80              		.loc 1 105 5 is_stmt 1 view .LVU24
  81              		.loc 1 105 54 is_stmt 0 view .LVU25
  82 0020 0023     		movs	r3, #0
  83 0022 0A93     		str	r3, [sp, #40]
 106:./Middlewares/ST/usbx/common/core/src/ux_host_stack_class_device_scan.c ****     class_command.ux_host_class_command_iad_subclass =   0;
  84              		.loc 1 106 5 is_stmt 1 view .LVU26
  85              		.loc 1 106 54 is_stmt 0 view .LVU27
  86 0024 0B93     		str	r3, [sp, #44]
 107:./Middlewares/ST/usbx/common/core/src/ux_host_stack_class_device_scan.c ****     class_command.ux_host_class_command_iad_protocol =   0;
  87              		.loc 1 107 5 is_stmt 1 view .LVU28
  88              		.loc 1 107 54 is_stmt 0 view .LVU29
  89 0026 0C93     		str	r3, [sp, #48]
 108:./Middlewares/ST/usbx/common/core/src/ux_host_stack_class_device_scan.c **** 
 109:./Middlewares/ST/usbx/common/core/src/ux_host_stack_class_device_scan.c **** #if !defined(UX_HOST_STACK_DEVICE_DRIVER_SCAN_VIDPID_DISABLE)
 110:./Middlewares/ST/usbx/common/core/src/ux_host_stack_class_device_scan.c ****     /* We start with the PID/VID for this device.  */
 111:./Middlewares/ST/usbx/common/core/src/ux_host_stack_class_device_scan.c ****     class_command.ux_host_class_command_usage =  UX_HOST_CLASS_COMMAND_USAGE_PIDVID;
  90              		.loc 1 111 5 is_stmt 1 view .LVU30
  91              		.loc 1 111 47 is_stmt 0 view .LVU31
  92 0028 0492     		str	r2, [sp, #16]
 112:./Middlewares/ST/usbx/common/core/src/ux_host_stack_class_device_scan.c ****     class_inst =  _ux_host_stack_class_call(&class_command);
  93              		.loc 1 112 5 is_stmt 1 view .LVU32
  94              		.loc 1 112 19 is_stmt 0 view .LVU33
  95 002a 01A8     		add	r0, sp, #4
  96              	.LVL2:
  97              		.loc 1 112 19 view .LVU34
  98 002c FFF7FEFF 		bl	_ux_host_stack_class_call
  99              	.LVL3:
 113:./Middlewares/ST/usbx/common/core/src/ux_host_stack_class_device_scan.c **** #endif
 114:./Middlewares/ST/usbx/common/core/src/ux_host_stack_class_device_scan.c **** 
 115:./Middlewares/ST/usbx/common/core/src/ux_host_stack_class_device_scan.c **** #if !defined(UX_HOST_STACK_DEVICE_DRIVER_SCAN_DCSP_DISABLE)
 116:./Middlewares/ST/usbx/common/core/src/ux_host_stack_class_device_scan.c ****     /* On return, either we have found a class or the device is still an orphan.  */
 117:./Middlewares/ST/usbx/common/core/src/ux_host_stack_class_device_scan.c ****     if (class_inst == UX_NULL)
 100              		.loc 1 117 5 is_stmt 1 view .LVU35
 101              		.loc 1 117 8 is_stmt 0 view .LVU36
 102 0030 0346     		mov	r3, r0
 103 0032 48B1     		cbz	r0, .L6
 104              	.L2:
 118:./Middlewares/ST/usbx/common/core/src/ux_host_stack_class_device_scan.c ****     {
 119:./Middlewares/ST/usbx/common/core/src/ux_host_stack_class_device_scan.c **** 
 120:./Middlewares/ST/usbx/common/core/src/ux_host_stack_class_device_scan.c ****         /* It the PID/VID did not work, we continue looking for the Class\Subclass\Protocol match. 
 121:./Middlewares/ST/usbx/common/core/src/ux_host_stack_class_device_scan.c ****         class_command.ux_host_class_command_usage        =   UX_HOST_CLASS_COMMAND_USAGE_DCSP;
 122:./Middlewares/ST/usbx/common/core/src/ux_host_stack_class_device_scan.c ****         class_inst =  _ux_host_stack_class_call(&class_command);
 123:./Middlewares/ST/usbx/common/core/src/ux_host_stack_class_device_scan.c **** 
 124:./Middlewares/ST/usbx/common/core/src/ux_host_stack_class_device_scan.c ****     }
 125:./Middlewares/ST/usbx/common/core/src/ux_host_stack_class_device_scan.c **** #endif
ARM GAS  C:\Users\Dennis\AppData\Local\Temp\ccyNImln.s 			page 5


 126:./Middlewares/ST/usbx/common/core/src/ux_host_stack_class_device_scan.c **** 
 127:./Middlewares/ST/usbx/common/core/src/ux_host_stack_class_device_scan.c ****     /* On return, either we have found a class or the device is still an orphan.  */
 128:./Middlewares/ST/usbx/common/core/src/ux_host_stack_class_device_scan.c ****     if (class_inst != UX_NULL)
 105              		.loc 1 128 5 is_stmt 1 view .LVU37
 106              		.loc 1 128 8 is_stmt 0 view .LVU38
 107 0034 7BB1     		cbz	r3, .L4
 129:./Middlewares/ST/usbx/common/core/src/ux_host_stack_class_device_scan.c ****     {
 130:./Middlewares/ST/usbx/common/core/src/ux_host_stack_class_device_scan.c **** 
 131:./Middlewares/ST/usbx/common/core/src/ux_host_stack_class_device_scan.c ****         device -> ux_device_class =  class_inst;
 108              		.loc 1 131 9 is_stmt 1 view .LVU39
 109              		.loc 1 131 35 is_stmt 0 view .LVU40
 110 0036 A363     		str	r3, [r4, #56]
 132:./Middlewares/ST/usbx/common/core/src/ux_host_stack_class_device_scan.c **** 
 133:./Middlewares/ST/usbx/common/core/src/ux_host_stack_class_device_scan.c **** #if defined(UX_HOST_STANDALONE)
 134:./Middlewares/ST/usbx/common/core/src/ux_host_stack_class_device_scan.c **** 
 135:./Middlewares/ST/usbx/common/core/src/ux_host_stack_class_device_scan.c ****         /* Activation may take time, run as state machine.  */
 136:./Middlewares/ST/usbx/common/core/src/ux_host_stack_class_device_scan.c ****         status = UX_SUCCESS;
 137:./Middlewares/ST/usbx/common/core/src/ux_host_stack_class_device_scan.c ****         return(status);
 138:./Middlewares/ST/usbx/common/core/src/ux_host_stack_class_device_scan.c **** #else
 139:./Middlewares/ST/usbx/common/core/src/ux_host_stack_class_device_scan.c ****         class_command.ux_host_class_command_class_ptr =  class_inst;
 111              		.loc 1 139 9 is_stmt 1 view .LVU41
 112              		.loc 1 139 55 is_stmt 0 view .LVU42
 113 0038 0D93     		str	r3, [sp, #52]
 140:./Middlewares/ST/usbx/common/core/src/ux_host_stack_class_device_scan.c ****         class_command.ux_host_class_command_request =  UX_HOST_CLASS_COMMAND_ACTIVATE;
 114              		.loc 1 140 9 is_stmt 1 view .LVU43
 115              		.loc 1 140 53 is_stmt 0 view .LVU44
 116 003a 0222     		movs	r2, #2
 117 003c 0192     		str	r2, [sp, #4]
 141:./Middlewares/ST/usbx/common/core/src/ux_host_stack_class_device_scan.c ****         status =  device -> ux_device_class ->  ux_host_class_entry_function(&class_command);
 118              		.loc 1 141 9 is_stmt 1 view .LVU45
 119              		.loc 1 141 45 is_stmt 0 view .LVU46
 120 003e 5B6C     		ldr	r3, [r3, #68]
 121              		.loc 1 141 19 view .LVU47
 122 0040 01A8     		add	r0, sp, #4
 123              	.LVL4:
 124              		.loc 1 141 19 view .LVU48
 125 0042 9847     		blx	r3
 126              	.LVL5:
 142:./Middlewares/ST/usbx/common/core/src/ux_host_stack_class_device_scan.c **** 
 143:./Middlewares/ST/usbx/common/core/src/ux_host_stack_class_device_scan.c ****         /* Return result of activation.  */
 144:./Middlewares/ST/usbx/common/core/src/ux_host_stack_class_device_scan.c ****         return(status);
 127              		.loc 1 144 9 is_stmt 1 view .LVU49
 128              	.L1:
 145:./Middlewares/ST/usbx/common/core/src/ux_host_stack_class_device_scan.c **** #endif
 146:./Middlewares/ST/usbx/common/core/src/ux_host_stack_class_device_scan.c ****     }
 147:./Middlewares/ST/usbx/common/core/src/ux_host_stack_class_device_scan.c **** 
 148:./Middlewares/ST/usbx/common/core/src/ux_host_stack_class_device_scan.c **** #endif
 149:./Middlewares/ST/usbx/common/core/src/ux_host_stack_class_device_scan.c **** 
 150:./Middlewares/ST/usbx/common/core/src/ux_host_stack_class_device_scan.c ****     /* Return an error.  */
 151:./Middlewares/ST/usbx/common/core/src/ux_host_stack_class_device_scan.c ****     return(UX_NO_CLASS_MATCH);
 152:./Middlewares/ST/usbx/common/core/src/ux_host_stack_class_device_scan.c **** }
 129              		.loc 1 152 1 is_stmt 0 view .LVU50
 130 0044 0EB0     		add	sp, sp, #56
 131              	.LCFI2:
 132              		.cfi_remember_state
 133              		.cfi_def_cfa_offset 8
 134              		@ sp needed
ARM GAS  C:\Users\Dennis\AppData\Local\Temp\ccyNImln.s 			page 6


 135 0046 10BD     		pop	{r4, pc}
 136              	.LVL6:
 137              	.L6:
 138              	.LCFI3:
 139              		.cfi_restore_state
 121:./Middlewares/ST/usbx/common/core/src/ux_host_stack_class_device_scan.c ****         class_inst =  _ux_host_stack_class_call(&class_command);
 140              		.loc 1 121 9 is_stmt 1 view .LVU51
 121:./Middlewares/ST/usbx/common/core/src/ux_host_stack_class_device_scan.c ****         class_inst =  _ux_host_stack_class_call(&class_command);
 141              		.loc 1 121 58 is_stmt 0 view .LVU52
 142 0048 0323     		movs	r3, #3
 143 004a 0493     		str	r3, [sp, #16]
 122:./Middlewares/ST/usbx/common/core/src/ux_host_stack_class_device_scan.c **** 
 144              		.loc 1 122 9 is_stmt 1 view .LVU53
 122:./Middlewares/ST/usbx/common/core/src/ux_host_stack_class_device_scan.c **** 
 145              		.loc 1 122 23 is_stmt 0 view .LVU54
 146 004c 01A8     		add	r0, sp, #4
 147              	.LVL7:
 122:./Middlewares/ST/usbx/common/core/src/ux_host_stack_class_device_scan.c **** 
 148              		.loc 1 122 23 view .LVU55
 149 004e FFF7FEFF 		bl	_ux_host_stack_class_call
 150              	.LVL8:
 151 0052 0346     		mov	r3, r0
 152              	.LVL9:
 122:./Middlewares/ST/usbx/common/core/src/ux_host_stack_class_device_scan.c **** 
 153              		.loc 1 122 23 view .LVU56
 154 0054 EEE7     		b	.L2
 155              	.L4:
 151:./Middlewares/ST/usbx/common/core/src/ux_host_stack_class_device_scan.c **** }
 156              		.loc 1 151 11 view .LVU57
 157 0056 5720     		movs	r0, #87
 158              	.LVL10:
 151:./Middlewares/ST/usbx/common/core/src/ux_host_stack_class_device_scan.c **** }
 159              		.loc 1 151 11 view .LVU58
 160 0058 F4E7     		b	.L1
 161              		.cfi_endproc
 162              	.LFE11:
 164              		.text
 165              	.Letext0:
 166              		.file 2 "./Middlewares/ST/threadx/ports/cortex_m4/gnu/inc/tx_port.h"
 167              		.file 3 "./Middlewares/ST/threadx/common/inc/tx_api.h"
 168              		.file 4 "./Middlewares/ST/usbx/common/core/inc/ux_api.h"
 169              		.file 5 "./Middlewares/ST/usbx/common/core/inc/ux_host_stack.h"
ARM GAS  C:\Users\Dennis\AppData\Local\Temp\ccyNImln.s 			page 7

