ARM GAS  C:\Users\Dennis\AppData\Local\Temp\ccFzvX98.s 			page 1


   1              		.cpu cortex-m4
   2              		.arch armv7e-m
   3              		.fpu fpv4-sp-d16
   4              		.eabi_attribute 27, 1
   5              		.eabi_attribute 28, 1
   6              		.eabi_attribute 20, 1
   7              		.eabi_attribute 21, 1
   8              		.eabi_attribute 23, 3
   9              		.eabi_attribute 24, 1
  10              		.eabi_attribute 25, 1
  11              		.eabi_attribute 26, 1
  12              		.eabi_attribute 30, 1
  13              		.eabi_attribute 34, 1
  14              		.eabi_attribute 18, 4
  15              		.file	"ux_utility_string_to_unicode.c"
  16              		.text
  17              	.Ltext0:
  18              		.cfi_sections	.debug_frame
  19              		.section	.text._ux_utility_string_to_unicode,"ax",%progbits
  20              		.align	1
  21              		.global	_ux_utility_string_to_unicode
  22              		.syntax unified
  23              		.thumb
  24              		.thumb_func
  26              	_ux_utility_string_to_unicode:
  27              	.LVL0:
  28              	.LFB11:
  29              		.file 1 "./Middlewares/ST/usbx/common/core/src/ux_utility_string_to_unicode.c"
   1:./Middlewares/ST/usbx/common/core/src/ux_utility_string_to_unicode.c **** /**************************************************************************/
   2:./Middlewares/ST/usbx/common/core/src/ux_utility_string_to_unicode.c **** /*                                                                        */
   3:./Middlewares/ST/usbx/common/core/src/ux_utility_string_to_unicode.c **** /*       Copyright (c) Microsoft Corporation. All rights reserved.        */
   4:./Middlewares/ST/usbx/common/core/src/ux_utility_string_to_unicode.c **** /*                                                                        */
   5:./Middlewares/ST/usbx/common/core/src/ux_utility_string_to_unicode.c **** /*       This software is licensed under the Microsoft Software License   */
   6:./Middlewares/ST/usbx/common/core/src/ux_utility_string_to_unicode.c **** /*       Terms for Microsoft Azure RTOS. Full text of the license can be  */
   7:./Middlewares/ST/usbx/common/core/src/ux_utility_string_to_unicode.c **** /*       found in the LICENSE file at https://aka.ms/AzureRTOS_EULA       */
   8:./Middlewares/ST/usbx/common/core/src/ux_utility_string_to_unicode.c **** /*       and in the root directory of this software.                      */
   9:./Middlewares/ST/usbx/common/core/src/ux_utility_string_to_unicode.c **** /*                                                                        */
  10:./Middlewares/ST/usbx/common/core/src/ux_utility_string_to_unicode.c **** /**************************************************************************/
  11:./Middlewares/ST/usbx/common/core/src/ux_utility_string_to_unicode.c **** 
  12:./Middlewares/ST/usbx/common/core/src/ux_utility_string_to_unicode.c **** 
  13:./Middlewares/ST/usbx/common/core/src/ux_utility_string_to_unicode.c **** /**************************************************************************/
  14:./Middlewares/ST/usbx/common/core/src/ux_utility_string_to_unicode.c **** /**************************************************************************/
  15:./Middlewares/ST/usbx/common/core/src/ux_utility_string_to_unicode.c **** /**                                                                       */ 
  16:./Middlewares/ST/usbx/common/core/src/ux_utility_string_to_unicode.c **** /** USBX Component                                                        */ 
  17:./Middlewares/ST/usbx/common/core/src/ux_utility_string_to_unicode.c **** /**                                                                       */
  18:./Middlewares/ST/usbx/common/core/src/ux_utility_string_to_unicode.c **** /**   Utility                                                             */
  19:./Middlewares/ST/usbx/common/core/src/ux_utility_string_to_unicode.c **** /**                                                                       */
  20:./Middlewares/ST/usbx/common/core/src/ux_utility_string_to_unicode.c **** /**************************************************************************/
  21:./Middlewares/ST/usbx/common/core/src/ux_utility_string_to_unicode.c **** /**************************************************************************/
  22:./Middlewares/ST/usbx/common/core/src/ux_utility_string_to_unicode.c **** 
  23:./Middlewares/ST/usbx/common/core/src/ux_utility_string_to_unicode.c **** 
  24:./Middlewares/ST/usbx/common/core/src/ux_utility_string_to_unicode.c **** /* Include necessary system files.  */
  25:./Middlewares/ST/usbx/common/core/src/ux_utility_string_to_unicode.c **** 
  26:./Middlewares/ST/usbx/common/core/src/ux_utility_string_to_unicode.c **** #define UX_SOURCE_CODE
  27:./Middlewares/ST/usbx/common/core/src/ux_utility_string_to_unicode.c **** 
  28:./Middlewares/ST/usbx/common/core/src/ux_utility_string_to_unicode.c **** #include "ux_api.h"
  29:./Middlewares/ST/usbx/common/core/src/ux_utility_string_to_unicode.c **** 
ARM GAS  C:\Users\Dennis\AppData\Local\Temp\ccFzvX98.s 			page 2


  30:./Middlewares/ST/usbx/common/core/src/ux_utility_string_to_unicode.c **** 
  31:./Middlewares/ST/usbx/common/core/src/ux_utility_string_to_unicode.c **** /**************************************************************************/ 
  32:./Middlewares/ST/usbx/common/core/src/ux_utility_string_to_unicode.c **** /*                                                                        */ 
  33:./Middlewares/ST/usbx/common/core/src/ux_utility_string_to_unicode.c **** /*  FUNCTION                                               RELEASE        */ 
  34:./Middlewares/ST/usbx/common/core/src/ux_utility_string_to_unicode.c **** /*                                                                        */ 
  35:./Middlewares/ST/usbx/common/core/src/ux_utility_string_to_unicode.c **** /*    _ux_utility_string_to_unicode                       PORTABLE C      */ 
  36:./Middlewares/ST/usbx/common/core/src/ux_utility_string_to_unicode.c **** /*                                                           6.1          */
  37:./Middlewares/ST/usbx/common/core/src/ux_utility_string_to_unicode.c **** /*  AUTHOR                                                                */
  38:./Middlewares/ST/usbx/common/core/src/ux_utility_string_to_unicode.c **** /*                                                                        */
  39:./Middlewares/ST/usbx/common/core/src/ux_utility_string_to_unicode.c **** /*    Chaoqiong Xiao, Microsoft Corporation                               */
  40:./Middlewares/ST/usbx/common/core/src/ux_utility_string_to_unicode.c **** /*                                                                        */
  41:./Middlewares/ST/usbx/common/core/src/ux_utility_string_to_unicode.c **** /*  DESCRIPTION                                                           */
  42:./Middlewares/ST/usbx/common/core/src/ux_utility_string_to_unicode.c **** /*                                                                        */ 
  43:./Middlewares/ST/usbx/common/core/src/ux_utility_string_to_unicode.c **** /*    This function converts a ascii string to a unicode string.          */ 
  44:./Middlewares/ST/usbx/common/core/src/ux_utility_string_to_unicode.c **** /*                                                                        */
  45:./Middlewares/ST/usbx/common/core/src/ux_utility_string_to_unicode.c **** /*    Note:                                                               */
  46:./Middlewares/ST/usbx/common/core/src/ux_utility_string_to_unicode.c **** /*    The unicode string length (including NULL-terminator) is limited by */
  47:./Middlewares/ST/usbx/common/core/src/ux_utility_string_to_unicode.c **** /*    length in a byte, so max ascii string length must be no more than   */
  48:./Middlewares/ST/usbx/common/core/src/ux_utility_string_to_unicode.c **** /*    254 (NULL-terminator excluded). Only first 254 characters           */
  49:./Middlewares/ST/usbx/common/core/src/ux_utility_string_to_unicode.c **** /*    are converted if the string is too long.                            */
  50:./Middlewares/ST/usbx/common/core/src/ux_utility_string_to_unicode.c **** /*    The buffer of destination must have enough space for result, at     */
  51:./Middlewares/ST/usbx/common/core/src/ux_utility_string_to_unicode.c **** /*    least 1 + (strlen(source) + 1) * 2 bytes.                           */
  52:./Middlewares/ST/usbx/common/core/src/ux_utility_string_to_unicode.c **** /*                                                                        */ 
  53:./Middlewares/ST/usbx/common/core/src/ux_utility_string_to_unicode.c **** /*  INPUT                                                                 */ 
  54:./Middlewares/ST/usbx/common/core/src/ux_utility_string_to_unicode.c **** /*                                                                        */ 
  55:./Middlewares/ST/usbx/common/core/src/ux_utility_string_to_unicode.c **** /*    source                                Ascii String                  */ 
  56:./Middlewares/ST/usbx/common/core/src/ux_utility_string_to_unicode.c **** /*    destination                           Unicode String                */ 
  57:./Middlewares/ST/usbx/common/core/src/ux_utility_string_to_unicode.c **** /*                                                                        */ 
  58:./Middlewares/ST/usbx/common/core/src/ux_utility_string_to_unicode.c **** /*  OUTPUT                                                                */ 
  59:./Middlewares/ST/usbx/common/core/src/ux_utility_string_to_unicode.c **** /*                                                                        */ 
  60:./Middlewares/ST/usbx/common/core/src/ux_utility_string_to_unicode.c **** /*    none                                                                */ 
  61:./Middlewares/ST/usbx/common/core/src/ux_utility_string_to_unicode.c **** /*                                                                        */ 
  62:./Middlewares/ST/usbx/common/core/src/ux_utility_string_to_unicode.c **** /*  CALLS                                                                 */ 
  63:./Middlewares/ST/usbx/common/core/src/ux_utility_string_to_unicode.c **** /*                                                                        */ 
  64:./Middlewares/ST/usbx/common/core/src/ux_utility_string_to_unicode.c **** /*    _ux_utility_string_length_check       Check and return C string     */
  65:./Middlewares/ST/usbx/common/core/src/ux_utility_string_to_unicode.c **** /*                                          length                        */
  66:./Middlewares/ST/usbx/common/core/src/ux_utility_string_to_unicode.c **** /*                                                                        */ 
  67:./Middlewares/ST/usbx/common/core/src/ux_utility_string_to_unicode.c **** /*  CALLED BY                                                             */ 
  68:./Middlewares/ST/usbx/common/core/src/ux_utility_string_to_unicode.c **** /*                                                                        */ 
  69:./Middlewares/ST/usbx/common/core/src/ux_utility_string_to_unicode.c **** /*    USBX Components                                                     */ 
  70:./Middlewares/ST/usbx/common/core/src/ux_utility_string_to_unicode.c **** /*                                                                        */ 
  71:./Middlewares/ST/usbx/common/core/src/ux_utility_string_to_unicode.c **** /*  RELEASE HISTORY                                                       */ 
  72:./Middlewares/ST/usbx/common/core/src/ux_utility_string_to_unicode.c **** /*                                                                        */ 
  73:./Middlewares/ST/usbx/common/core/src/ux_utility_string_to_unicode.c **** /*    DATE              NAME                      DESCRIPTION             */ 
  74:./Middlewares/ST/usbx/common/core/src/ux_utility_string_to_unicode.c **** /*                                                                        */ 
  75:./Middlewares/ST/usbx/common/core/src/ux_utility_string_to_unicode.c **** /*  05-19-2020     Chaoqiong Xiao           Initial Version 6.0           */
  76:./Middlewares/ST/usbx/common/core/src/ux_utility_string_to_unicode.c **** /*  09-30-2020     Chaoqiong Xiao           Modified comment(s),          */
  77:./Middlewares/ST/usbx/common/core/src/ux_utility_string_to_unicode.c **** /*                                            resulting in version 6.1    */
  78:./Middlewares/ST/usbx/common/core/src/ux_utility_string_to_unicode.c **** /*                                                                        */
  79:./Middlewares/ST/usbx/common/core/src/ux_utility_string_to_unicode.c **** /**************************************************************************/
  80:./Middlewares/ST/usbx/common/core/src/ux_utility_string_to_unicode.c **** VOID  _ux_utility_string_to_unicode(UCHAR *source, UCHAR *destination)
  81:./Middlewares/ST/usbx/common/core/src/ux_utility_string_to_unicode.c **** {
  30              		.loc 1 81 1 view -0
  31              		.cfi_startproc
  32              		@ args = 0, pretend = 0, frame = 8
  33              		@ frame_needed = 0, uses_anonymous_args = 0
  34              		.loc 1 81 1 is_stmt 0 view .LVU1
ARM GAS  C:\Users\Dennis\AppData\Local\Temp\ccFzvX98.s 			page 3


  35 0000 30B5     		push	{r4, r5, lr}
  36              	.LCFI0:
  37              		.cfi_def_cfa_offset 12
  38              		.cfi_offset 4, -12
  39              		.cfi_offset 5, -8
  40              		.cfi_offset 14, -4
  41 0002 83B0     		sub	sp, sp, #12
  42              	.LCFI1:
  43              		.cfi_def_cfa_offset 24
  44 0004 0546     		mov	r5, r0
  45 0006 0C46     		mov	r4, r1
  82:./Middlewares/ST/usbx/common/core/src/ux_utility_string_to_unicode.c **** 
  83:./Middlewares/ST/usbx/common/core/src/ux_utility_string_to_unicode.c **** UINT   string_length;
  46              		.loc 1 83 1 is_stmt 1 view .LVU2
  84:./Middlewares/ST/usbx/common/core/src/ux_utility_string_to_unicode.c **** 
  85:./Middlewares/ST/usbx/common/core/src/ux_utility_string_to_unicode.c ****     /* Get the ascii string length, when there is error length is not modified so max length is use
  86:./Middlewares/ST/usbx/common/core/src/ux_utility_string_to_unicode.c ****     string_length = 254;
  47              		.loc 1 86 5 view .LVU3
  48              		.loc 1 86 19 is_stmt 0 view .LVU4
  49 0008 FE22     		movs	r2, #254
  50 000a 0192     		str	r2, [sp, #4]
  87:./Middlewares/ST/usbx/common/core/src/ux_utility_string_to_unicode.c ****     _ux_utility_string_length_check(source, &string_length, 254);
  51              		.loc 1 87 5 is_stmt 1 view .LVU5
  52 000c 01A9     		add	r1, sp, #4
  53              	.LVL1:
  54              		.loc 1 87 5 is_stmt 0 view .LVU6
  55 000e FFF7FEFF 		bl	_ux_utility_string_length_check
  56              	.LVL2:
  88:./Middlewares/ST/usbx/common/core/src/ux_utility_string_to_unicode.c **** 
  89:./Middlewares/ST/usbx/common/core/src/ux_utility_string_to_unicode.c ****     /* Set the length of the string as the first byte of the unicode string.  
  90:./Middlewares/ST/usbx/common/core/src/ux_utility_string_to_unicode.c ****        The length is casted as a byte since Unicode strings cannot be more than 255 chars.  */
  91:./Middlewares/ST/usbx/common/core/src/ux_utility_string_to_unicode.c ****     *destination++ = (UCHAR)(string_length + 1);
  57              		.loc 1 91 5 is_stmt 1 view .LVU7
  58              		.loc 1 91 17 is_stmt 0 view .LVU8
  59 0012 2146     		mov	r1, r4
  60              	.LVL3:
  61              		.loc 1 91 22 view .LVU9
  62 0014 019B     		ldr	r3, [sp, #4]
  63 0016 0133     		adds	r3, r3, #1
  64              		.loc 1 91 20 view .LVU10
  65 0018 01F8013B 		strb	r3, [r1], #1
  66              	.LVL4:
  92:./Middlewares/ST/usbx/common/core/src/ux_utility_string_to_unicode.c **** 
  93:./Middlewares/ST/usbx/common/core/src/ux_utility_string_to_unicode.c ****     while(string_length--)
  67              		.loc 1 93 5 is_stmt 1 view .LVU11
  68              		.loc 1 93 10 is_stmt 0 view .LVU12
  69 001c 09E0     		b	.L2
  70              	.L3:
  94:./Middlewares/ST/usbx/common/core/src/ux_utility_string_to_unicode.c ****     {
  95:./Middlewares/ST/usbx/common/core/src/ux_utility_string_to_unicode.c ****         /* First character is from the source.  */
  96:./Middlewares/ST/usbx/common/core/src/ux_utility_string_to_unicode.c ****         *destination++ = *source++;
  71              		.loc 1 96 9 is_stmt 1 view .LVU13
  72              		.loc 1 96 33 is_stmt 0 view .LVU14
  73 001e 2846     		mov	r0, r5
  74              	.LVL5:
  75              		.loc 1 96 26 view .LVU15
  76 0020 10F8012B 		ldrb	r2, [r0], #1	@ zero_extendqisi2
ARM GAS  C:\Users\Dennis\AppData\Local\Temp\ccFzvX98.s 			page 4


  77              	.LVL6:
  78              		.loc 1 96 24 view .LVU16
  79 0024 0B46     		mov	r3, r1
  80 0026 03F8022B 		strb	r2, [r3], #2
  97:./Middlewares/ST/usbx/common/core/src/ux_utility_string_to_unicode.c **** 
  98:./Middlewares/ST/usbx/common/core/src/ux_utility_string_to_unicode.c ****         /* Second character of unicode word is 0.  */
  99:./Middlewares/ST/usbx/common/core/src/ux_utility_string_to_unicode.c ****         *destination++ = 0;
  81              		.loc 1 99 9 is_stmt 1 view .LVU17
  82              	.LVL7:
  83              		.loc 1 99 24 is_stmt 0 view .LVU18
  84 002a 0022     		movs	r2, #0
  85 002c 4A70     		strb	r2, [r1, #1]
  86              		.loc 1 99 21 view .LVU19
  87 002e 1946     		mov	r1, r3
  96:./Middlewares/ST/usbx/common/core/src/ux_utility_string_to_unicode.c **** 
  88              		.loc 1 96 33 view .LVU20
  89 0030 0546     		mov	r5, r0
  90              	.LVL8:
  91              	.L2:
  93:./Middlewares/ST/usbx/common/core/src/ux_utility_string_to_unicode.c ****     {
  92              		.loc 1 93 10 is_stmt 1 view .LVU21
  93:./Middlewares/ST/usbx/common/core/src/ux_utility_string_to_unicode.c ****     {
  93              		.loc 1 93 24 is_stmt 0 view .LVU22
  94 0032 019B     		ldr	r3, [sp, #4]
  95 0034 5A1E     		subs	r2, r3, #1
  96 0036 0192     		str	r2, [sp, #4]
  93:./Middlewares/ST/usbx/common/core/src/ux_utility_string_to_unicode.c ****     {
  97              		.loc 1 93 10 view .LVU23
  98 0038 002B     		cmp	r3, #0
  99 003a F0D1     		bne	.L3
 100:./Middlewares/ST/usbx/common/core/src/ux_utility_string_to_unicode.c ****     }    
 101:./Middlewares/ST/usbx/common/core/src/ux_utility_string_to_unicode.c **** 
 102:./Middlewares/ST/usbx/common/core/src/ux_utility_string_to_unicode.c ****     /* Finish with a 0.  */
 103:./Middlewares/ST/usbx/common/core/src/ux_utility_string_to_unicode.c ****     *destination++ = 0;
 100              		.loc 1 103 5 is_stmt 1 view .LVU24
 101              	.LVL9:
 102              		.loc 1 103 20 is_stmt 0 view .LVU25
 103 003c 0B70     		strb	r3, [r1]
 104:./Middlewares/ST/usbx/common/core/src/ux_utility_string_to_unicode.c **** 
 105:./Middlewares/ST/usbx/common/core/src/ux_utility_string_to_unicode.c ****     /* Finish with a 0.  */
 106:./Middlewares/ST/usbx/common/core/src/ux_utility_string_to_unicode.c ****     *destination++ = 0;
 104              		.loc 1 106 5 is_stmt 1 view .LVU26
 105              	.LVL10:
 106              		.loc 1 106 20 is_stmt 0 view .LVU27
 107 003e 4B70     		strb	r3, [r1, #1]
 107:./Middlewares/ST/usbx/common/core/src/ux_utility_string_to_unicode.c **** 
 108:./Middlewares/ST/usbx/common/core/src/ux_utility_string_to_unicode.c ****     /* We are done.  */
 109:./Middlewares/ST/usbx/common/core/src/ux_utility_string_to_unicode.c ****     return;
 108              		.loc 1 109 5 is_stmt 1 view .LVU28
 110:./Middlewares/ST/usbx/common/core/src/ux_utility_string_to_unicode.c **** }
 109              		.loc 1 110 1 is_stmt 0 view .LVU29
 110 0040 03B0     		add	sp, sp, #12
 111              	.LCFI2:
 112              		.cfi_def_cfa_offset 12
 113              		@ sp needed
 114 0042 30BD     		pop	{r4, r5, pc}
 115              		.loc 1 110 1 view .LVU30
ARM GAS  C:\Users\Dennis\AppData\Local\Temp\ccFzvX98.s 			page 5


 116              		.cfi_endproc
 117              	.LFE11:
 119              		.text
 120              	.Letext0:
 121              		.file 2 "./Middlewares/ST/threadx/ports/cortex_m4/gnu/inc/tx_port.h"
 122              		.file 3 "./Middlewares/ST/usbx/common/core/inc/ux_utility.h"
ARM GAS  C:\Users\Dennis\AppData\Local\Temp\ccFzvX98.s 			page 6

